
zephyr.elf:     file format elf32-littleriscv


Disassembly of section vector:

00000000 <__start>:

	/*
	 * Set mtvec (Machine Trap-Vector Base-Address Register)
	 * to __irq_wrapper.
	 */
	la t0, __irq_wrapper
   0:	00000297          	auipc	t0,0x0
   4:	03028293          	addi	t0,t0,48 # 30 <__irq_wrapper>
	csrw mtvec, t0
   8:	30529073          	csrw	mtvec,t0
	/*
	* To avoid having to hardcode the main clock frequency,
	* we read the actual value from register 0x8000103c
	* and store to z_clock_hw_cycles_per_sec
	*/
	li	t0, 0x80001000
   c:	800012b7          	lui	t0,0x80001
	lw	t1, 0x3c(t0)
  10:	03c2a303          	lw	t1,60(t0) # 8000103c <CONFIG_SYSTEM_WORKQUEUE_PRIORITY+0x8000103d>
	la	t0, z_clock_hw_cycles_per_sec
  14:	0002f297          	auipc	t0,0x2f
  18:	46828293          	addi	t0,t0,1128 # 2f47c <z_clock_hw_cycles_per_sec>
	sw	t1, 0(t0)
  1c:	0062a023          	sw	t1,0(t0)

	/* Jump to __initialize */
	tail __initialize
  20:	4250506f          	j	5c44 <__initialize>

Disassembly of section exceptions:

00000030 <__irq_wrapper>:
	 * Save caller-saved registers on current thread stack.
	 * NOTE: need to be updated to account for floating-point registers
	 * floating-point registers should be accounted for when corresponding
	 * config variable is set
	 */
	STORE_CALLER_SAVED()
  30:	fb010113          	addi	sp,sp,-80
  34:	00112023          	sw	ra,0(sp)
  38:	00412223          	sw	tp,4(sp)
  3c:	00512423          	sw	t0,8(sp)
  40:	00612623          	sw	t1,12(sp)
  44:	00712823          	sw	t2,16(sp)
  48:	01c12a23          	sw	t3,20(sp)
  4c:	01d12c23          	sw	t4,24(sp)
  50:	01e12e23          	sw	t5,28(sp)
  54:	03f12023          	sw	t6,32(sp)
  58:	02a12223          	sw	a0,36(sp)
  5c:	02b12423          	sw	a1,40(sp)
  60:	02c12623          	sw	a2,44(sp)
  64:	02d12823          	sw	a3,48(sp)
  68:	02e12a23          	sw	a4,52(sp)
  6c:	02f12c23          	sw	a5,56(sp)
  70:	03012e23          	sw	a6,60(sp)
  74:	05112023          	sw	a7,64(sp)

skip_store_fp_caller_saved:
#endif /* CONFIG_FPU && CONFIG_FPU_SHARING */

	/* Save MEPC register */
	csrr t0, mepc
  78:	341022f3          	csrr	t0,mepc
	RV_OP_STOREREG t0, __z_arch_esf_t_mepc_OFFSET(sp)
  7c:	04512223          	sw	t0,68(sp)

	/* Save SOC-specific MSTATUS register */
	csrr t0, mstatus
  80:	300022f3          	csrr	t0,mstatus
	RV_OP_STOREREG t0, __z_arch_esf_t_mstatus_OFFSET(sp)
  84:	04512423          	sw	t0,72(sp)
	 * SOCs (like pulpino or riscv-qemu), the MSB is never set to indicate
	 * interrupt. Hence, check for interrupt/exception via the __soc_is_irq
	 * function (that needs to be implemented by each SOC). The result is
	 * returned via register a0 (1: interrupt, 0 exception)
	 */
	jal ra, __soc_is_irq
  88:	228000ef          	jal	ra,2b0 <__soc_is_irq>

	/* If a0 != 0, jump to is_interrupt */
	addi t1, x0, 0
  8c:	00000313          	li	t1,0
	bnez a0, is_interrupt
  90:	02051e63          	bnez	a0,cc <is_interrupt>
	/*
	 * If the exception is the result of an ECALL, check whether to
	 * perform a context-switch or an IRQ offload. Otherwise call _Fault
	 * to report the exception.
	 */
	csrr t0, mcause
  94:	342022f3          	csrr	t0,mcause
	li t2, SOC_MCAUSE_EXP_MASK
  98:	800003b7          	lui	t2,0x80000
  9c:	fff38393          	addi	t2,t2,-1 # 7fffffff <CONFIG_SYSTEM_WORKQUEUE_PRIORITY+0x80000000>
	and t0, t0, t2
  a0:	0072f2b3          	and	t0,t0,t2
	li t1, SOC_MCAUSE_ECALL_EXP
  a4:	00b00313          	li	t1,11

	/*
	 * If mcause == SOC_MCAUSE_ECALL_EXP, handle system call from
	 * kernel thread.
	 */
	beq t0, t1, is_kernel_syscall
  a8:	00628a63          	beq	t0,t1,bc <is_kernel_syscall>
	 * Stack pointer is pointing to a z_arch_esf_t structure, pass it
	 * to _Fault (via register a0).
	 * If _Fault shall return, set return address to
	 * no_reschedule to restore stack.
	 */
	addi a0, sp, 0
  ac:	00010513          	mv	a0,sp
	RV_OP_LOADREG t1, _kernel_offset_to_current(t0)
	RV_OP_LOADREG t0, _thread_offset_to_priv_stack_start(t1)
	RV_OP_STOREREG sp, _thread_offset_to_user_sp(t1) /* Update user SP */
	addi sp, t0, CONFIG_PRIVILEGED_STACK_SIZE
#else
	la ra, no_reschedule
  b0:	00000097          	auipc	ra,0x0
  b4:	19408093          	addi	ra,ra,404 # 244 <no_reschedule>
#endif /* CONFIG_USERSPACE */

	tail _Fault
  b8:	3450506f          	j	5bfc <_Fault>

000000bc <is_kernel_syscall>:
	 * again upon exiting the ISR.
	 *
	 * It's safe to always increment by 4, even with compressed
	 * instructions, because the ecall instruction is always 4 bytes.
	 */
	RV_OP_LOADREG t0, __z_arch_esf_t_mepc_OFFSET(sp)
  bc:	04412283          	lw	t0,68(sp)
	addi t0, t0, 4
  c0:	00428293          	addi	t0,t0,4
	RV_OP_STOREREG t0, __z_arch_esf_t_mepc_OFFSET(sp)
  c4:	04512223          	sw	t0,68(sp)
	j z_riscv_user_mode_enter_syscall
#endif /* CONFIG_USERSPACE */
	/*
	 * Go to reschedule to handle context-switch
	 */
	j reschedule
  c8:	0800006f          	j	148 <reschedule>

000000cc <is_interrupt>:
	 * Save current thread stack pointer and switch
	 * stack pointer to interrupt stack.
	 */

	/* Save thread stack pointer to temp register t0 */
	addi t0, sp, 0
  cc:	00010293          	mv	t0,sp

	/* Switch to interrupt stack */
	la t2, _kernel
  d0:	0000e397          	auipc	t2,0xe
  d4:	b9838393          	addi	t2,t2,-1128 # dc68 <_kernel>
	RV_OP_LOADREG sp, _kernel_offset_to_irq_stack(t2)
  d8:	0043a103          	lw	sp,4(t2)

	/*
	 * Save thread stack pointer on interrupt stack
	 * In RISC-V, stack pointer needs to be 16-byte aligned
	 */
	addi sp, sp, -16
  dc:	ff010113          	addi	sp,sp,-16
	RV_OP_STOREREG t0, 0x00(sp)
  e0:	00512023          	sw	t0,0(sp)

000000e4 <on_irq_stack>:
	la t2, _kernel
#endif /* !CONFIG_USERSPACE && !CONFIG_PMP_STACK_GUARD */

on_irq_stack:
	/* Increment _kernel.cpus[0].nested variable */
	lw t3, _kernel_offset_to_nested(t2)
  e4:	0003ae03          	lw	t3,0(t2)
	addi t3, t3, 1
  e8:	001e0e13          	addi	t3,t3,1
	sw t3, _kernel_offset_to_nested(t2)
  ec:	01c3a023          	sw	t3,0(t2)
#ifdef CONFIG_TRACING_ISR
	call sys_trace_isr_enter
#endif

	/* Get IRQ causing interrupt */
	csrr a0, mcause
  f0:	34202573          	csrr	a0,mcause
	li t0, SOC_MCAUSE_EXP_MASK
  f4:	800002b7          	lui	t0,0x80000
  f8:	fff28293          	addi	t0,t0,-1 # 7fffffff <CONFIG_SYSTEM_WORKQUEUE_PRIORITY+0x80000000>
	and a0, a0, t0
  fc:	00557533          	and	a0,a0,t0

	/*
	 * Clear pending IRQ generating the interrupt at SOC level
	 * Pass IRQ number to __soc_handle_irq via register a0
	 */
	jal ra, __soc_handle_irq
 100:	1a0000ef          	jal	ra,2a0 <__soc_handle_irq>

	/*
	 * Call corresponding registered function in _sw_isr_table.
	 * (table is 2-word wide, we should shift index accordingly)
	 */
	la t0, _sw_isr_table
 104:	0002f297          	auipc	t0,0x2f
 108:	38028293          	addi	t0,t0,896 # 2f484 <_sw_isr_table>
	slli a0, a0, (RV_REGSHIFT + 1)
 10c:	00351513          	slli	a0,a0,0x3
	add t0, t0, a0
 110:	00a282b3          	add	t0,t0,a0

	/* Load argument in a0 register */
	RV_OP_LOADREG a0, 0x00(t0)
 114:	0002a503          	lw	a0,0(t0)

	/* Load ISR function address in register t1 */
	RV_OP_LOADREG t1, RV_REGSIZE(t0)
 118:	0042a303          	lw	t1,4(t0)

	/* Call ISR function */
	jalr ra, t1
 11c:	000300e7          	jalr	t1

00000120 <on_thread_stack>:

on_thread_stack:
	/* Get reference to _kernel */
	la t1, _kernel
 120:	0000e317          	auipc	t1,0xe
 124:	b4830313          	addi	t1,t1,-1208 # dc68 <_kernel>

	/* Decrement _kernel.cpus[0].nested variable */
	lw t2, _kernel_offset_to_nested(t1)
 128:	00032383          	lw	t2,0(t1)
	addi t2, t2, -1
 12c:	fff38393          	addi	t2,t2,-1
	sw t2, _kernel_offset_to_nested(t1)
 130:	00732023          	sw	t2,0(t1)

#if !defined(CONFIG_USERSPACE) && !defined(CONFIG_PMP_STACK_GUARD)
	/* Restore thread stack pointer */
	RV_OP_LOADREG t0, 0x00(sp)
 134:	00012283          	lw	t0,0(sp)
	addi sp, t0, 0
 138:	00028113          	mv	sp,t0
	/*
	 * Check if we need to perform a reschedule
	 */

	/* Get pointer to _kernel.current */
	RV_OP_LOADREG t2, _kernel_offset_to_current(t1)
 13c:	00832383          	lw	t2,8(t1)

	/*
	 * Check if next thread to schedule is current thread.
	 * If yes do not perform a reschedule
	 */
	RV_OP_LOADREG t3, _kernel_offset_to_ready_q_cache(t1)
 140:	01832e03          	lw	t3,24(t1)
	beq t3, t2, no_reschedule
 144:	107e0063          	beq	t3,t2,244 <no_reschedule>

00000148 <reschedule>:
	 * Note:
	 *   Sometimes this code is execute back-to-back before the target thread
	 *   has a chance to run. If this happens, the current thread and the
	 *   target thread will be the same.
	 */
	la t0, _kernel
 148:	0000e297          	auipc	t0,0xe
 14c:	b2028293          	addi	t0,t0,-1248 # dc68 <_kernel>
	RV_OP_LOADREG t2, _kernel_offset_to_current(t0)
 150:	0082a383          	lw	t2,8(t0)
	RV_OP_LOADREG t3, _kernel_offset_to_ready_q_cache(t0)
 154:	0182ae03          	lw	t3,24(t0)
	beq t2, t3, no_reschedule
 158:	0fc38663          	beq	t2,t3,244 <no_reschedule>

#if CONFIG_INSTRUMENT_THREAD_SWITCHING
	call z_thread_mark_switched_out
#endif
	/* Get reference to _kernel */
	la t0, _kernel
 15c:	0000e297          	auipc	t0,0xe
 160:	b0c28293          	addi	t0,t0,-1268 # dc68 <_kernel>

	/* Get pointer to _kernel.current */
	RV_OP_LOADREG t1, _kernel_offset_to_current(t0)
 164:	0082a303          	lw	t1,8(t0)

	/*
	 * Save callee-saved registers of current kernel thread
	 * prior to handle context-switching
	 */
	STORE_CALLEE_SAVED(t1)
 168:	02832e23          	sw	s0,60(t1)
 16c:	04932023          	sw	s1,64(t1)
 170:	05232223          	sw	s2,68(t1)
 174:	05332423          	sw	s3,72(t1)
 178:	05432623          	sw	s4,76(t1)
 17c:	05532823          	sw	s5,80(t1)
 180:	05632a23          	sw	s6,84(t1)
 184:	05732c23          	sw	s7,88(t1)
 188:	05832e23          	sw	s8,92(t1)
 18c:	07932023          	sw	s9,96(t1)
 190:	07a32223          	sw	s10,100(t1)
 194:	07b32423          	sw	s11,104(t1)

00000198 <skip_callee_saved_reg>:

	/*
	 * Save stack pointer of current thread and set the default return value
	 * of z_swap to _k_neg_eagain for the thread.
	 */
	RV_OP_STOREREG sp, _thread_offset_to_sp(t1)
 198:	02232c23          	sw	sp,56(t1)
	la t2, _k_neg_eagain
 19c:	0000d397          	auipc	t2,0xd
 1a0:	d3838393          	addi	t2,t2,-712 # ced4 <_k_neg_eagain>
	lw t3, 0x00(t2)
 1a4:	0003ae03          	lw	t3,0(t2)
	sw t3, _thread_offset_to_swap_return_value(t1)
 1a8:	0bc32023          	sw	t3,160(t1)

	/* Get next thread to schedule. */
	RV_OP_LOADREG t1, _kernel_offset_to_ready_q_cache(t0)
 1ac:	0182a303          	lw	t1,24(t0)

	/*
	 * Set _kernel.current to new thread loaded in t1
	 */
	RV_OP_STOREREG t1, _kernel_offset_to_current(t0)
 1b0:	0062a423          	sw	t1,8(t0)

	/* Switch to new thread stack */
	RV_OP_LOADREG sp, _thread_offset_to_sp(t1)
 1b4:	03832103          	lw	sp,56(t1)

	/* Restore callee-saved registers of new thread */
	LOAD_CALLEE_SAVED(t1)
 1b8:	03c32403          	lw	s0,60(t1)
 1bc:	04032483          	lw	s1,64(t1)
 1c0:	04432903          	lw	s2,68(t1)
 1c4:	04832983          	lw	s3,72(t1)
 1c8:	04c32a03          	lw	s4,76(t1)
 1cc:	05032a83          	lw	s5,80(t1)
 1d0:	05432b03          	lw	s6,84(t1)
 1d4:	05832b83          	lw	s7,88(t1)
 1d8:	05c32c03          	lw	s8,92(t1)
 1dc:	06032c83          	lw	s9,96(t1)
 1e0:	06432d03          	lw	s10,100(t1)
 1e4:	06832d83          	lw	s11,104(t1)
	addi a0, sp, __z_arch_esf_t_soc_context_OFFSET
	jal ra, __soc_restore_context
#endif /* CONFIG_RISCV_SOC_CONTEXT_SAVE */

	/* Restore MEPC register */
	RV_OP_LOADREG t0, __z_arch_esf_t_mepc_OFFSET(sp)
 1e8:	04412283          	lw	t0,68(sp)
	csrw mepc, t0
 1ec:	34129073          	csrw	mepc,t0

	/* Restore SOC-specific MSTATUS register */
	RV_OP_LOADREG t0, __z_arch_esf_t_mstatus_OFFSET(sp)
 1f0:	04812283          	lw	t0,72(sp)
	csrw mstatus, t0
 1f4:	30029073          	csrw	mstatus,t0

skip_load_fp_caller_saved_resched:
#endif /* CONFIG_FPU && CONFIG_FPU_SHARING */

	/* Restore caller-saved registers from thread stack */
	LOAD_CALLER_SAVED()
 1f8:	00012083          	lw	ra,0(sp)
 1fc:	00412203          	lw	tp,4(sp)
 200:	00812283          	lw	t0,8(sp)
 204:	00c12303          	lw	t1,12(sp)
 208:	01012383          	lw	t2,16(sp)
 20c:	01412e03          	lw	t3,20(sp)
 210:	01812e83          	lw	t4,24(sp)
 214:	01c12f03          	lw	t5,28(sp)
 218:	02012f83          	lw	t6,32(sp)
 21c:	02412503          	lw	a0,36(sp)
 220:	02812583          	lw	a1,40(sp)
 224:	02c12603          	lw	a2,44(sp)
 228:	03012683          	lw	a3,48(sp)
 22c:	03412703          	lw	a4,52(sp)
 230:	03812783          	lw	a5,56(sp)
 234:	03c12803          	lw	a6,60(sp)
 238:	04012883          	lw	a7,64(sp)
 23c:	05010113          	addi	sp,sp,80

	/* Call SOC_ERET to exit ISR */
	SOC_ERET
 240:	30200073          	mret

00000244 <no_reschedule>:
	addi a0, sp, __z_arch_esf_t_soc_context_OFFSET
	jal ra, __soc_restore_context
#endif /* CONFIG_RISCV_SOC_CONTEXT_SAVE */

	/* Restore MEPC register */
	RV_OP_LOADREG t0, __z_arch_esf_t_mepc_OFFSET(sp)
 244:	04412283          	lw	t0,68(sp)
	csrw mepc, t0
 248:	34129073          	csrw	mepc,t0

	/* Restore SOC-specific MSTATUS register */
	RV_OP_LOADREG t0, __z_arch_esf_t_mstatus_OFFSET(sp)
 24c:	04812283          	lw	t0,72(sp)
	csrw mstatus, t0
 250:	30029073          	csrw	mstatus,t0

skip_load_fp_caller_saved:
#endif /* CONFIG_FPU && CONFIG_FPU_SHARING */

	/* Restore caller-saved registers from thread stack */
	LOAD_CALLER_SAVED()
 254:	00012083          	lw	ra,0(sp)
 258:	00412203          	lw	tp,4(sp)
 25c:	00812283          	lw	t0,8(sp)
 260:	00c12303          	lw	t1,12(sp)
 264:	01012383          	lw	t2,16(sp)
 268:	01412e03          	lw	t3,20(sp)
 26c:	01812e83          	lw	t4,24(sp)
 270:	01c12f03          	lw	t5,28(sp)
 274:	02012f83          	lw	t6,32(sp)
 278:	02412503          	lw	a0,36(sp)
 27c:	02812583          	lw	a1,40(sp)
 280:	02c12603          	lw	a2,44(sp)
 284:	03012683          	lw	a3,48(sp)
 288:	03412703          	lw	a4,52(sp)
 28c:	03812783          	lw	a5,56(sp)
 290:	03c12803          	lw	a6,60(sp)
 294:	04012883          	lw	a7,64(sp)
 298:	05010113          	addi	sp,sp,80

#ifdef CONFIG_PMP_STACK_GUARD
	csrrw sp, mscratch, sp
#endif /* CONFIG_PMP_STACK_GUARD */
	/* Call SOC_ERET to exit ISR */
	SOC_ERET
 29c:	30200073          	mret

000002a0 <__soc_handle_irq>:
 * SOC-specific function to handle pending IRQ number generating the interrupt.
 * Exception number is given as parameter via register a0.
 */
SECTION_FUNC(exception.other, __soc_handle_irq)
	/* Clear exception number from CSR mip register */
	li t1, 1
 2a0:	00100313          	li	t1,1
	sll t0, t1, a0
 2a4:	00a312b3          	sll	t0,t1,a0
	csrrc t1, mip, t0
 2a8:	3442b373          	csrrc	t1,mip,t0

	/* Return */
	jalr x0, ra
 2ac:	00008067          	ret

000002b0 <__soc_is_irq>:
 * return 1 (interrupt) or 0 (exception)
 *
 */
SECTION_FUNC(exception.other, __soc_is_irq)
	/* Read mcause and check if interrupt bit is set */
	csrr t0, mcause
 2b0:	342022f3          	csrr	t0,mcause
	li t1, SOC_MCAUSE_IRQ_MASK
 2b4:	80000337          	lui	t1,0x80000
	and t0, t0, t1
 2b8:	0062f2b3          	and	t0,t0,t1

	/* If interrupt bit is not set, return with 0 */
	addi a0, x0, 0
 2bc:	00000513          	li	a0,0
	beqz t0, not_interrupt
 2c0:	00028463          	beqz	t0,2c8 <not_interrupt>
	addi a0, a0, 1
 2c4:	00150513          	addi	a0,a0,1

000002c8 <not_interrupt>:

not_interrupt:
	/* return */
	jalr x0, ra
 2c8:	00008067          	ret

000002cc <arch_swap>:
 * key is stored in a0 register
 */
SECTION_FUNC(exception.other, arch_swap)

	/* Make a system call to perform context switch */
	ecall
 2cc:	00000073          	ecall
	 * Prior to unlocking irq, load return value of
	 * arch_swap to temp register t2 (from
	 * _thread_offset_to_swap_return_value). Normally, it should be -EAGAIN,
	 * unless someone has previously called arch_thread_return_value_set(..).
	 */
	la t0, _kernel
 2d0:	0000e297          	auipc	t0,0xe
 2d4:	99828293          	addi	t0,t0,-1640 # dc68 <_kernel>

	/* Get pointer to _kernel.current */
	RV_OP_LOADREG t1, _kernel_offset_to_current(t0)
 2d8:	0082a303          	lw	t1,8(t0)

	/* Load return value of arch_swap function in temp register t2 */
	lw t2, _thread_offset_to_swap_return_value(t1)
 2dc:	0a032383          	lw	t2,160(t1) # 800000a0 <CONFIG_SYSTEM_WORKQUEUE_PRIORITY+0x800000a1>

	/*
	 * Unlock irq, following IRQ lock state in a0 register.
	 * Use atomic instruction csrrs to do so.
	 */
	andi a0, a0, MSTATUS_IEN
 2e0:	00857513          	andi	a0,a0,8
	csrrs t0, mstatus, a0
 2e4:	300522f3          	csrrs	t0,mstatus,a0

	/* Set value of return register a0 to value of register t2 */
	addi a0, t2, 0
 2e8:	00038513          	mv	a0,t2

	/* Return */
	jalr x0, ra
 2ec:	00008067          	ret

Disassembly of section text:

000002f0 <__clzsi2>:
     2f0:	000107b7          	lui	a5,0x10
     2f4:	02f57a63          	bgeu	a0,a5,328 <__clzsi2+0x38>
     2f8:	0ff00793          	li	a5,255
     2fc:	00a7b7b3          	sltu	a5,a5,a0
     300:	00379793          	slli	a5,a5,0x3
     304:	0000d737          	lui	a4,0xd
     308:	02000693          	li	a3,32
     30c:	40f686b3          	sub	a3,a3,a5
     310:	00f55533          	srl	a0,a0,a5
     314:	edc70793          	addi	a5,a4,-292 # cedc <__clz_tab>
     318:	00a78533          	add	a0,a5,a0
     31c:	00054503          	lbu	a0,0(a0)
     320:	40a68533          	sub	a0,a3,a0
     324:	00008067          	ret
     328:	01000737          	lui	a4,0x1000
     32c:	01000793          	li	a5,16
     330:	fce56ae3          	bltu	a0,a4,304 <__clzsi2+0x14>
     334:	01800793          	li	a5,24
     338:	fcdff06f          	j	304 <__clzsi2+0x14>

0000033c <__ctzsi2>:
     33c:	40a007b3          	neg	a5,a0
     340:	00a7f533          	and	a0,a5,a0
     344:	000107b7          	lui	a5,0x10
     348:	02f57863          	bgeu	a0,a5,378 <__ctzsi2+0x3c>
     34c:	0ff00793          	li	a5,255
     350:	00a7b7b3          	sltu	a5,a5,a0
     354:	00379793          	slli	a5,a5,0x3
     358:	0000d737          	lui	a4,0xd
     35c:	00f55533          	srl	a0,a0,a5
     360:	edc70713          	addi	a4,a4,-292 # cedc <__clz_tab>
     364:	00a70533          	add	a0,a4,a0
     368:	00054503          	lbu	a0,0(a0)
     36c:	fff78793          	addi	a5,a5,-1 # ffff <kheap__system_heap+0xd6f>
     370:	00f50533          	add	a0,a0,a5
     374:	00008067          	ret
     378:	01000737          	lui	a4,0x1000
     37c:	01000793          	li	a5,16
     380:	fce56ce3          	bltu	a0,a4,358 <__ctzsi2+0x1c>
     384:	01800793          	li	a5,24
     388:	fd1ff06f          	j	358 <__ctzsi2+0x1c>

0000038c <__udivdi3>:
     38c:	00050893          	mv	a7,a0
     390:	00058793          	mv	a5,a1
     394:	00060813          	mv	a6,a2
     398:	00068513          	mv	a0,a3
     39c:	00088313          	mv	t1,a7
     3a0:	28069463          	bnez	a3,628 <CONFIG_MAIN_STACK_SIZE+0x228>
     3a4:	0000d6b7          	lui	a3,0xd
     3a8:	edc68693          	addi	a3,a3,-292 # cedc <__clz_tab>
     3ac:	0ec5f663          	bgeu	a1,a2,498 <CONFIG_MAIN_STACK_SIZE+0x98>
     3b0:	00010737          	lui	a4,0x10
     3b4:	0ce67863          	bgeu	a2,a4,484 <CONFIG_MAIN_STACK_SIZE+0x84>
     3b8:	0ff00713          	li	a4,255
     3bc:	00c73733          	sltu	a4,a4,a2
     3c0:	00371713          	slli	a4,a4,0x3
     3c4:	00e65533          	srl	a0,a2,a4
     3c8:	00a686b3          	add	a3,a3,a0
     3cc:	0006c683          	lbu	a3,0(a3)
     3d0:	02000513          	li	a0,32
     3d4:	00e68733          	add	a4,a3,a4
     3d8:	40e506b3          	sub	a3,a0,a4
     3dc:	00e50c63          	beq	a0,a4,3f4 <__udivdi3+0x68>
     3e0:	00d795b3          	sll	a1,a5,a3
     3e4:	00e8d733          	srl	a4,a7,a4
     3e8:	00d61833          	sll	a6,a2,a3
     3ec:	00b765b3          	or	a1,a4,a1
     3f0:	00d89333          	sll	t1,a7,a3
     3f4:	01085893          	srli	a7,a6,0x10
     3f8:	0315d6b3          	divu	a3,a1,a7
     3fc:	01081613          	slli	a2,a6,0x10
     400:	01065613          	srli	a2,a2,0x10
     404:	01035793          	srli	a5,t1,0x10
     408:	0315f733          	remu	a4,a1,a7
     40c:	00068513          	mv	a0,a3
     410:	02d605b3          	mul	a1,a2,a3
     414:	01071713          	slli	a4,a4,0x10
     418:	00f767b3          	or	a5,a4,a5
     41c:	00b7fe63          	bgeu	a5,a1,438 <CONFIG_MAIN_STACK_SIZE+0x38>
     420:	010787b3          	add	a5,a5,a6
     424:	fff68513          	addi	a0,a3,-1
     428:	0107e863          	bltu	a5,a6,438 <CONFIG_MAIN_STACK_SIZE+0x38>
     42c:	00b7f663          	bgeu	a5,a1,438 <CONFIG_MAIN_STACK_SIZE+0x38>
     430:	ffe68513          	addi	a0,a3,-2
     434:	010787b3          	add	a5,a5,a6
     438:	40b787b3          	sub	a5,a5,a1
     43c:	0317f733          	remu	a4,a5,a7
     440:	01031313          	slli	t1,t1,0x10
     444:	01035313          	srli	t1,t1,0x10
     448:	0317d7b3          	divu	a5,a5,a7
     44c:	01071713          	slli	a4,a4,0x10
     450:	00676333          	or	t1,a4,t1
     454:	02f606b3          	mul	a3,a2,a5
     458:	00078613          	mv	a2,a5
     45c:	00d37c63          	bgeu	t1,a3,474 <CONFIG_MAIN_STACK_SIZE+0x74>
     460:	00680333          	add	t1,a6,t1
     464:	fff78613          	addi	a2,a5,-1
     468:	01036663          	bltu	t1,a6,474 <CONFIG_MAIN_STACK_SIZE+0x74>
     46c:	00d37463          	bgeu	t1,a3,474 <CONFIG_MAIN_STACK_SIZE+0x74>
     470:	ffe78613          	addi	a2,a5,-2
     474:	01051513          	slli	a0,a0,0x10
     478:	00c56533          	or	a0,a0,a2
     47c:	00000593          	li	a1,0
     480:	0e40006f          	j	564 <CONFIG_MAIN_STACK_SIZE+0x164>
     484:	01000537          	lui	a0,0x1000
     488:	01000713          	li	a4,16
     48c:	f2a66ce3          	bltu	a2,a0,3c4 <__udivdi3+0x38>
     490:	01800713          	li	a4,24
     494:	f31ff06f          	j	3c4 <__udivdi3+0x38>
     498:	00061663          	bnez	a2,4a4 <CONFIG_MAIN_STACK_SIZE+0xa4>
     49c:	00100713          	li	a4,1
     4a0:	02c75833          	divu	a6,a4,a2
     4a4:	00010737          	lui	a4,0x10
     4a8:	0ce87063          	bgeu	a6,a4,568 <CONFIG_MAIN_STACK_SIZE+0x168>
     4ac:	0ff00713          	li	a4,255
     4b0:	01077463          	bgeu	a4,a6,4b8 <CONFIG_MAIN_STACK_SIZE+0xb8>
     4b4:	00800513          	li	a0,8
     4b8:	00a85733          	srl	a4,a6,a0
     4bc:	00e686b3          	add	a3,a3,a4
     4c0:	0006c703          	lbu	a4,0(a3)
     4c4:	02000613          	li	a2,32
     4c8:	00a70733          	add	a4,a4,a0
     4cc:	40e606b3          	sub	a3,a2,a4
     4d0:	0ae61663          	bne	a2,a4,57c <CONFIG_MAIN_STACK_SIZE+0x17c>
     4d4:	410787b3          	sub	a5,a5,a6
     4d8:	00100593          	li	a1,1
     4dc:	01085893          	srli	a7,a6,0x10
     4e0:	01081613          	slli	a2,a6,0x10
     4e4:	01065613          	srli	a2,a2,0x10
     4e8:	01035713          	srli	a4,t1,0x10
     4ec:	0317f6b3          	remu	a3,a5,a7
     4f0:	0317d7b3          	divu	a5,a5,a7
     4f4:	01069693          	slli	a3,a3,0x10
     4f8:	00e6e733          	or	a4,a3,a4
     4fc:	02f60e33          	mul	t3,a2,a5
     500:	00078513          	mv	a0,a5
     504:	01c77e63          	bgeu	a4,t3,520 <CONFIG_MAIN_STACK_SIZE+0x120>
     508:	01070733          	add	a4,a4,a6
     50c:	fff78513          	addi	a0,a5,-1
     510:	01076863          	bltu	a4,a6,520 <CONFIG_MAIN_STACK_SIZE+0x120>
     514:	01c77663          	bgeu	a4,t3,520 <CONFIG_MAIN_STACK_SIZE+0x120>
     518:	ffe78513          	addi	a0,a5,-2
     51c:	01070733          	add	a4,a4,a6
     520:	41c70733          	sub	a4,a4,t3
     524:	031777b3          	remu	a5,a4,a7
     528:	01031313          	slli	t1,t1,0x10
     52c:	01035313          	srli	t1,t1,0x10
     530:	03175733          	divu	a4,a4,a7
     534:	01079793          	slli	a5,a5,0x10
     538:	0067e333          	or	t1,a5,t1
     53c:	02e606b3          	mul	a3,a2,a4
     540:	00070613          	mv	a2,a4
     544:	00d37c63          	bgeu	t1,a3,55c <CONFIG_MAIN_STACK_SIZE+0x15c>
     548:	00680333          	add	t1,a6,t1
     54c:	fff70613          	addi	a2,a4,-1 # ffff <kheap__system_heap+0xd6f>
     550:	01036663          	bltu	t1,a6,55c <CONFIG_MAIN_STACK_SIZE+0x15c>
     554:	00d37463          	bgeu	t1,a3,55c <CONFIG_MAIN_STACK_SIZE+0x15c>
     558:	ffe70613          	addi	a2,a4,-2
     55c:	01051513          	slli	a0,a0,0x10
     560:	00c56533          	or	a0,a0,a2
     564:	00008067          	ret
     568:	01000737          	lui	a4,0x1000
     56c:	01000513          	li	a0,16
     570:	f4e864e3          	bltu	a6,a4,4b8 <CONFIG_MAIN_STACK_SIZE+0xb8>
     574:	01800513          	li	a0,24
     578:	f41ff06f          	j	4b8 <CONFIG_MAIN_STACK_SIZE+0xb8>
     57c:	00d81833          	sll	a6,a6,a3
     580:	00e7d533          	srl	a0,a5,a4
     584:	00d89333          	sll	t1,a7,a3
     588:	00d797b3          	sll	a5,a5,a3
     58c:	00e8d733          	srl	a4,a7,a4
     590:	01085893          	srli	a7,a6,0x10
     594:	00f76633          	or	a2,a4,a5
     598:	03157733          	remu	a4,a0,a7
     59c:	01081793          	slli	a5,a6,0x10
     5a0:	0107d793          	srli	a5,a5,0x10
     5a4:	01065593          	srli	a1,a2,0x10
     5a8:	03155533          	divu	a0,a0,a7
     5ac:	01071713          	slli	a4,a4,0x10
     5b0:	00b76733          	or	a4,a4,a1
     5b4:	02a786b3          	mul	a3,a5,a0
     5b8:	00050593          	mv	a1,a0
     5bc:	00d77e63          	bgeu	a4,a3,5d8 <CONFIG_MAIN_STACK_SIZE+0x1d8>
     5c0:	01070733          	add	a4,a4,a6
     5c4:	fff50593          	addi	a1,a0,-1 # ffffff <__data_region_end+0xfd090b>
     5c8:	01076863          	bltu	a4,a6,5d8 <CONFIG_MAIN_STACK_SIZE+0x1d8>
     5cc:	00d77663          	bgeu	a4,a3,5d8 <CONFIG_MAIN_STACK_SIZE+0x1d8>
     5d0:	ffe50593          	addi	a1,a0,-2
     5d4:	01070733          	add	a4,a4,a6
     5d8:	40d706b3          	sub	a3,a4,a3
     5dc:	0316f733          	remu	a4,a3,a7
     5e0:	01061613          	slli	a2,a2,0x10
     5e4:	01065613          	srli	a2,a2,0x10
     5e8:	0316d6b3          	divu	a3,a3,a7
     5ec:	01071713          	slli	a4,a4,0x10
     5f0:	02d78533          	mul	a0,a5,a3
     5f4:	00c767b3          	or	a5,a4,a2
     5f8:	00068713          	mv	a4,a3
     5fc:	00a7fe63          	bgeu	a5,a0,618 <CONFIG_MAIN_STACK_SIZE+0x218>
     600:	010787b3          	add	a5,a5,a6
     604:	fff68713          	addi	a4,a3,-1
     608:	0107e863          	bltu	a5,a6,618 <CONFIG_MAIN_STACK_SIZE+0x218>
     60c:	00a7f663          	bgeu	a5,a0,618 <CONFIG_MAIN_STACK_SIZE+0x218>
     610:	ffe68713          	addi	a4,a3,-2
     614:	010787b3          	add	a5,a5,a6
     618:	01059593          	slli	a1,a1,0x10
     61c:	40a787b3          	sub	a5,a5,a0
     620:	00e5e5b3          	or	a1,a1,a4
     624:	eb9ff06f          	j	4dc <CONFIG_MAIN_STACK_SIZE+0xdc>
     628:	18d5e663          	bltu	a1,a3,7b4 <CONFIG_MAIN_STACK_SIZE+0x3b4>
     62c:	00010737          	lui	a4,0x10
     630:	04e6f463          	bgeu	a3,a4,678 <CONFIG_MAIN_STACK_SIZE+0x278>
     634:	0ff00713          	li	a4,255
     638:	00d735b3          	sltu	a1,a4,a3
     63c:	00359593          	slli	a1,a1,0x3
     640:	0000d737          	lui	a4,0xd
     644:	00b6d533          	srl	a0,a3,a1
     648:	edc70713          	addi	a4,a4,-292 # cedc <__clz_tab>
     64c:	00a70733          	add	a4,a4,a0
     650:	00074703          	lbu	a4,0(a4)
     654:	02000513          	li	a0,32
     658:	00b70733          	add	a4,a4,a1
     65c:	40e505b3          	sub	a1,a0,a4
     660:	02e51663          	bne	a0,a4,68c <CONFIG_MAIN_STACK_SIZE+0x28c>
     664:	00100513          	li	a0,1
     668:	eef6eee3          	bltu	a3,a5,564 <CONFIG_MAIN_STACK_SIZE+0x164>
     66c:	00c8b533          	sltu	a0,a7,a2
     670:	00154513          	xori	a0,a0,1
     674:	ef1ff06f          	j	564 <CONFIG_MAIN_STACK_SIZE+0x164>
     678:	01000737          	lui	a4,0x1000
     67c:	01000593          	li	a1,16
     680:	fce6e0e3          	bltu	a3,a4,640 <CONFIG_MAIN_STACK_SIZE+0x240>
     684:	01800593          	li	a1,24
     688:	fb9ff06f          	j	640 <CONFIG_MAIN_STACK_SIZE+0x240>
     68c:	00e65833          	srl	a6,a2,a4
     690:	00b696b3          	sll	a3,a3,a1
     694:	00d86833          	or	a6,a6,a3
     698:	00e7de33          	srl	t3,a5,a4
     69c:	01085e93          	srli	t4,a6,0x10
     6a0:	03de76b3          	remu	a3,t3,t4
     6a4:	00b797b3          	sll	a5,a5,a1
     6a8:	00e8d733          	srl	a4,a7,a4
     6ac:	00b61333          	sll	t1,a2,a1
     6b0:	00f76633          	or	a2,a4,a5
     6b4:	01081793          	slli	a5,a6,0x10
     6b8:	0107d793          	srli	a5,a5,0x10
     6bc:	01065713          	srli	a4,a2,0x10
     6c0:	03de5e33          	divu	t3,t3,t4
     6c4:	01069693          	slli	a3,a3,0x10
     6c8:	00e6e733          	or	a4,a3,a4
     6cc:	03c78f33          	mul	t5,a5,t3
     6d0:	000e0513          	mv	a0,t3
     6d4:	01e77e63          	bgeu	a4,t5,6f0 <CONFIG_MAIN_STACK_SIZE+0x2f0>
     6d8:	01070733          	add	a4,a4,a6
     6dc:	fffe0513          	addi	a0,t3,-1
     6e0:	01076863          	bltu	a4,a6,6f0 <CONFIG_MAIN_STACK_SIZE+0x2f0>
     6e4:	01e77663          	bgeu	a4,t5,6f0 <CONFIG_MAIN_STACK_SIZE+0x2f0>
     6e8:	ffee0513          	addi	a0,t3,-2
     6ec:	01070733          	add	a4,a4,a6
     6f0:	41e70733          	sub	a4,a4,t5
     6f4:	03d776b3          	remu	a3,a4,t4
     6f8:	03d75733          	divu	a4,a4,t4
     6fc:	01069693          	slli	a3,a3,0x10
     700:	02e78e33          	mul	t3,a5,a4
     704:	01061793          	slli	a5,a2,0x10
     708:	0107d793          	srli	a5,a5,0x10
     70c:	00f6e7b3          	or	a5,a3,a5
     710:	00070613          	mv	a2,a4
     714:	01c7fe63          	bgeu	a5,t3,730 <CONFIG_MAIN_STACK_SIZE+0x330>
     718:	010787b3          	add	a5,a5,a6
     71c:	fff70613          	addi	a2,a4,-1 # ffffff <__data_region_end+0xfd090b>
     720:	0107e863          	bltu	a5,a6,730 <CONFIG_MAIN_STACK_SIZE+0x330>
     724:	01c7f663          	bgeu	a5,t3,730 <CONFIG_MAIN_STACK_SIZE+0x330>
     728:	ffe70613          	addi	a2,a4,-2
     72c:	010787b3          	add	a5,a5,a6
     730:	01051513          	slli	a0,a0,0x10
     734:	00010eb7          	lui	t4,0x10
     738:	00c56533          	or	a0,a0,a2
     73c:	fffe8693          	addi	a3,t4,-1 # ffff <kheap__system_heap+0xd6f>
     740:	00d57833          	and	a6,a0,a3
     744:	01055613          	srli	a2,a0,0x10
     748:	00d376b3          	and	a3,t1,a3
     74c:	01035313          	srli	t1,t1,0x10
     750:	41c787b3          	sub	a5,a5,t3
     754:	02d80e33          	mul	t3,a6,a3
     758:	02d606b3          	mul	a3,a2,a3
     75c:	010e5713          	srli	a4,t3,0x10
     760:	02680833          	mul	a6,a6,t1
     764:	00d80833          	add	a6,a6,a3
     768:	01070733          	add	a4,a4,a6
     76c:	02660633          	mul	a2,a2,t1
     770:	00d77463          	bgeu	a4,a3,778 <CONFIG_MAIN_STACK_SIZE+0x378>
     774:	01d60633          	add	a2,a2,t4
     778:	01075693          	srli	a3,a4,0x10
     77c:	00c68633          	add	a2,a3,a2
     780:	02c7e663          	bltu	a5,a2,7ac <CONFIG_MAIN_STACK_SIZE+0x3ac>
     784:	cec79ce3          	bne	a5,a2,47c <CONFIG_MAIN_STACK_SIZE+0x7c>
     788:	000107b7          	lui	a5,0x10
     78c:	fff78793          	addi	a5,a5,-1 # ffff <kheap__system_heap+0xd6f>
     790:	00f77733          	and	a4,a4,a5
     794:	01071713          	slli	a4,a4,0x10
     798:	00fe7e33          	and	t3,t3,a5
     79c:	00b898b3          	sll	a7,a7,a1
     7a0:	01c70733          	add	a4,a4,t3
     7a4:	00000593          	li	a1,0
     7a8:	dae8fee3          	bgeu	a7,a4,564 <CONFIG_MAIN_STACK_SIZE+0x164>
     7ac:	fff50513          	addi	a0,a0,-1
     7b0:	ccdff06f          	j	47c <CONFIG_MAIN_STACK_SIZE+0x7c>
     7b4:	00000593          	li	a1,0
     7b8:	00000513          	li	a0,0
     7bc:	da9ff06f          	j	564 <CONFIG_MAIN_STACK_SIZE+0x164>

000007c0 <__umoddi3>:
     7c0:	00050e93          	mv	t4,a0
     7c4:	00058313          	mv	t1,a1
     7c8:	00060813          	mv	a6,a2
     7cc:	00068793          	mv	a5,a3
     7d0:	22069a63          	bnez	a3,a04 <CONFIG_ISR_STACK_SIZE+0x204>
     7d4:	0000d737          	lui	a4,0xd
     7d8:	edc70713          	addi	a4,a4,-292 # cedc <__clz_tab>
     7dc:	0cc5fc63          	bgeu	a1,a2,8b4 <CONFIG_ISR_STACK_SIZE+0xb4>
     7e0:	000106b7          	lui	a3,0x10
     7e4:	0ad67e63          	bgeu	a2,a3,8a0 <CONFIG_ISR_STACK_SIZE+0xa0>
     7e8:	0ff00693          	li	a3,255
     7ec:	00c6f463          	bgeu	a3,a2,7f4 <__umoddi3+0x34>
     7f0:	00800793          	li	a5,8
     7f4:	00f656b3          	srl	a3,a2,a5
     7f8:	00d70733          	add	a4,a4,a3
     7fc:	00074703          	lbu	a4,0(a4)
     800:	00f707b3          	add	a5,a4,a5
     804:	02000713          	li	a4,32
     808:	40f708b3          	sub	a7,a4,a5
     80c:	00f70c63          	beq	a4,a5,824 <CONFIG_ISR_STACK_SIZE+0x24>
     810:	011315b3          	sll	a1,t1,a7
     814:	00fed7b3          	srl	a5,t4,a5
     818:	01161833          	sll	a6,a2,a7
     81c:	00b7e5b3          	or	a1,a5,a1
     820:	011e9533          	sll	a0,t4,a7
     824:	01085693          	srli	a3,a6,0x10
     828:	02d5f7b3          	remu	a5,a1,a3
     82c:	01081613          	slli	a2,a6,0x10
     830:	01065613          	srli	a2,a2,0x10
     834:	01055713          	srli	a4,a0,0x10
     838:	02d5d5b3          	divu	a1,a1,a3
     83c:	01079793          	slli	a5,a5,0x10
     840:	00e7e733          	or	a4,a5,a4
     844:	02b605b3          	mul	a1,a2,a1
     848:	00b77a63          	bgeu	a4,a1,85c <CONFIG_ISR_STACK_SIZE+0x5c>
     84c:	01070733          	add	a4,a4,a6
     850:	01076663          	bltu	a4,a6,85c <CONFIG_ISR_STACK_SIZE+0x5c>
     854:	00b77463          	bgeu	a4,a1,85c <CONFIG_ISR_STACK_SIZE+0x5c>
     858:	01070733          	add	a4,a4,a6
     85c:	40b70733          	sub	a4,a4,a1
     860:	02d777b3          	remu	a5,a4,a3
     864:	01051513          	slli	a0,a0,0x10
     868:	01055513          	srli	a0,a0,0x10
     86c:	02d75733          	divu	a4,a4,a3
     870:	01079793          	slli	a5,a5,0x10
     874:	00a7e533          	or	a0,a5,a0
     878:	02e60733          	mul	a4,a2,a4
     87c:	00e57a63          	bgeu	a0,a4,890 <CONFIG_ISR_STACK_SIZE+0x90>
     880:	01050533          	add	a0,a0,a6
     884:	01056663          	bltu	a0,a6,890 <CONFIG_ISR_STACK_SIZE+0x90>
     888:	00e57463          	bgeu	a0,a4,890 <CONFIG_ISR_STACK_SIZE+0x90>
     88c:	01050533          	add	a0,a0,a6
     890:	40e50533          	sub	a0,a0,a4
     894:	01155533          	srl	a0,a0,a7
     898:	00000593          	li	a1,0
     89c:	00008067          	ret
     8a0:	010006b7          	lui	a3,0x1000
     8a4:	01000793          	li	a5,16
     8a8:	f4d666e3          	bltu	a2,a3,7f4 <__umoddi3+0x34>
     8ac:	01800793          	li	a5,24
     8b0:	f45ff06f          	j	7f4 <__umoddi3+0x34>
     8b4:	00061663          	bnez	a2,8c0 <CONFIG_ISR_STACK_SIZE+0xc0>
     8b8:	00100693          	li	a3,1
     8bc:	02c6d833          	divu	a6,a3,a2
     8c0:	000106b7          	lui	a3,0x10
     8c4:	12d87663          	bgeu	a6,a3,9f0 <CONFIG_ISR_STACK_SIZE+0x1f0>
     8c8:	0ff00693          	li	a3,255
     8cc:	0106f463          	bgeu	a3,a6,8d4 <CONFIG_ISR_STACK_SIZE+0xd4>
     8d0:	00800793          	li	a5,8
     8d4:	00f856b3          	srl	a3,a6,a5
     8d8:	00d70733          	add	a4,a4,a3
     8dc:	00074603          	lbu	a2,0(a4)
     8e0:	410305b3          	sub	a1,t1,a6
     8e4:	00f60633          	add	a2,a2,a5
     8e8:	02000793          	li	a5,32
     8ec:	40c788b3          	sub	a7,a5,a2
     8f0:	08c78663          	beq	a5,a2,97c <CONFIG_ISR_STACK_SIZE+0x17c>
     8f4:	01181833          	sll	a6,a6,a7
     8f8:	00c357b3          	srl	a5,t1,a2
     8fc:	011315b3          	sll	a1,t1,a7
     900:	01085313          	srli	t1,a6,0x10
     904:	00ced633          	srl	a2,t4,a2
     908:	00b66633          	or	a2,a2,a1
     90c:	01081593          	slli	a1,a6,0x10
     910:	0105d593          	srli	a1,a1,0x10
     914:	011e9533          	sll	a0,t4,a7
     918:	0267d6b3          	divu	a3,a5,t1
     91c:	0267f733          	remu	a4,a5,t1
     920:	01065793          	srli	a5,a2,0x10
     924:	02d586b3          	mul	a3,a1,a3
     928:	01071713          	slli	a4,a4,0x10
     92c:	00f76733          	or	a4,a4,a5
     930:	00d77a63          	bgeu	a4,a3,944 <CONFIG_ISR_STACK_SIZE+0x144>
     934:	01070733          	add	a4,a4,a6
     938:	01076663          	bltu	a4,a6,944 <CONFIG_ISR_STACK_SIZE+0x144>
     93c:	00d77463          	bgeu	a4,a3,944 <CONFIG_ISR_STACK_SIZE+0x144>
     940:	01070733          	add	a4,a4,a6
     944:	40d706b3          	sub	a3,a4,a3
     948:	0266f733          	remu	a4,a3,t1
     94c:	01061613          	slli	a2,a2,0x10
     950:	01065613          	srli	a2,a2,0x10
     954:	0266d6b3          	divu	a3,a3,t1
     958:	01071713          	slli	a4,a4,0x10
     95c:	02d586b3          	mul	a3,a1,a3
     960:	00c765b3          	or	a1,a4,a2
     964:	00d5fa63          	bgeu	a1,a3,978 <CONFIG_ISR_STACK_SIZE+0x178>
     968:	010585b3          	add	a1,a1,a6
     96c:	0105e663          	bltu	a1,a6,978 <CONFIG_ISR_STACK_SIZE+0x178>
     970:	00d5f463          	bgeu	a1,a3,978 <CONFIG_ISR_STACK_SIZE+0x178>
     974:	010585b3          	add	a1,a1,a6
     978:	40d585b3          	sub	a1,a1,a3
     97c:	01085693          	srli	a3,a6,0x10
     980:	02d5f733          	remu	a4,a1,a3
     984:	01081793          	slli	a5,a6,0x10
     988:	0107d793          	srli	a5,a5,0x10
     98c:	01055613          	srli	a2,a0,0x10
     990:	02d5d5b3          	divu	a1,a1,a3
     994:	01071713          	slli	a4,a4,0x10
     998:	00c76733          	or	a4,a4,a2
     99c:	02b785b3          	mul	a1,a5,a1
     9a0:	00b77a63          	bgeu	a4,a1,9b4 <CONFIG_ISR_STACK_SIZE+0x1b4>
     9a4:	01070733          	add	a4,a4,a6
     9a8:	01076663          	bltu	a4,a6,9b4 <CONFIG_ISR_STACK_SIZE+0x1b4>
     9ac:	00b77463          	bgeu	a4,a1,9b4 <CONFIG_ISR_STACK_SIZE+0x1b4>
     9b0:	01070733          	add	a4,a4,a6
     9b4:	40b705b3          	sub	a1,a4,a1
     9b8:	02d5f733          	remu	a4,a1,a3
     9bc:	01051513          	slli	a0,a0,0x10
     9c0:	01055513          	srli	a0,a0,0x10
     9c4:	02d5d5b3          	divu	a1,a1,a3
     9c8:	02b785b3          	mul	a1,a5,a1
     9cc:	01071793          	slli	a5,a4,0x10
     9d0:	00a7e533          	or	a0,a5,a0
     9d4:	00b57a63          	bgeu	a0,a1,9e8 <CONFIG_ISR_STACK_SIZE+0x1e8>
     9d8:	01050533          	add	a0,a0,a6
     9dc:	01056663          	bltu	a0,a6,9e8 <CONFIG_ISR_STACK_SIZE+0x1e8>
     9e0:	00b57463          	bgeu	a0,a1,9e8 <CONFIG_ISR_STACK_SIZE+0x1e8>
     9e4:	01050533          	add	a0,a0,a6
     9e8:	40b50533          	sub	a0,a0,a1
     9ec:	ea9ff06f          	j	894 <CONFIG_ISR_STACK_SIZE+0x94>
     9f0:	010006b7          	lui	a3,0x1000
     9f4:	01000793          	li	a5,16
     9f8:	ecd86ee3          	bltu	a6,a3,8d4 <CONFIG_ISR_STACK_SIZE+0xd4>
     9fc:	01800793          	li	a5,24
     a00:	ed5ff06f          	j	8d4 <CONFIG_ISR_STACK_SIZE+0xd4>
     a04:	e8d5ece3          	bltu	a1,a3,89c <CONFIG_ISR_STACK_SIZE+0x9c>
     a08:	000107b7          	lui	a5,0x10
     a0c:	04f6f863          	bgeu	a3,a5,a5c <CONFIG_ISR_STACK_SIZE+0x25c>
     a10:	0ff00893          	li	a7,255
     a14:	00d8b7b3          	sltu	a5,a7,a3
     a18:	00379793          	slli	a5,a5,0x3
     a1c:	0000d737          	lui	a4,0xd
     a20:	00f6d833          	srl	a6,a3,a5
     a24:	edc70713          	addi	a4,a4,-292 # cedc <__clz_tab>
     a28:	01070733          	add	a4,a4,a6
     a2c:	00074883          	lbu	a7,0(a4)
     a30:	00f888b3          	add	a7,a7,a5
     a34:	02000793          	li	a5,32
     a38:	41178833          	sub	a6,a5,a7
     a3c:	03179a63          	bne	a5,a7,a70 <CONFIG_ISR_STACK_SIZE+0x270>
     a40:	0066e463          	bltu	a3,t1,a48 <CONFIG_ISR_STACK_SIZE+0x248>
     a44:	e4ceece3          	bltu	t4,a2,89c <CONFIG_ISR_STACK_SIZE+0x9c>
     a48:	40ce8533          	sub	a0,t4,a2
     a4c:	40d305b3          	sub	a1,t1,a3
     a50:	00aebeb3          	sltu	t4,t4,a0
     a54:	41d585b3          	sub	a1,a1,t4
     a58:	e45ff06f          	j	89c <CONFIG_ISR_STACK_SIZE+0x9c>
     a5c:	01000737          	lui	a4,0x1000
     a60:	01000793          	li	a5,16
     a64:	fae6ece3          	bltu	a3,a4,a1c <CONFIG_ISR_STACK_SIZE+0x21c>
     a68:	01800793          	li	a5,24
     a6c:	fb1ff06f          	j	a1c <CONFIG_ISR_STACK_SIZE+0x21c>
     a70:	011657b3          	srl	a5,a2,a7
     a74:	010696b3          	sll	a3,a3,a6
     a78:	00d7ee33          	or	t3,a5,a3
     a7c:	01135f33          	srl	t5,t1,a7
     a80:	011ed7b3          	srl	a5,t4,a7
     a84:	010e9533          	sll	a0,t4,a6
     a88:	010e5e93          	srli	t4,t3,0x10
     a8c:	010315b3          	sll	a1,t1,a6
     a90:	03df5333          	divu	t1,t5,t4
     a94:	00b7e7b3          	or	a5,a5,a1
     a98:	010e1593          	slli	a1,t3,0x10
     a9c:	0105d593          	srli	a1,a1,0x10
     aa0:	0107d713          	srli	a4,a5,0x10
     aa4:	01061633          	sll	a2,a2,a6
     aa8:	03df76b3          	remu	a3,t5,t4
     aac:	02658f33          	mul	t5,a1,t1
     ab0:	01069693          	slli	a3,a3,0x10
     ab4:	00e6e733          	or	a4,a3,a4
     ab8:	00030693          	mv	a3,t1
     abc:	01e77e63          	bgeu	a4,t5,ad8 <CONFIG_ISR_STACK_SIZE+0x2d8>
     ac0:	01c70733          	add	a4,a4,t3
     ac4:	fff30693          	addi	a3,t1,-1
     ac8:	01c76863          	bltu	a4,t3,ad8 <CONFIG_ISR_STACK_SIZE+0x2d8>
     acc:	01e77663          	bgeu	a4,t5,ad8 <CONFIG_ISR_STACK_SIZE+0x2d8>
     ad0:	ffe30693          	addi	a3,t1,-2
     ad4:	01c70733          	add	a4,a4,t3
     ad8:	41e70733          	sub	a4,a4,t5
     adc:	03d77333          	remu	t1,a4,t4
     ae0:	01079793          	slli	a5,a5,0x10
     ae4:	0107d793          	srli	a5,a5,0x10
     ae8:	03d75733          	divu	a4,a4,t4
     aec:	01031313          	slli	t1,t1,0x10
     af0:	00f36333          	or	t1,t1,a5
     af4:	02e585b3          	mul	a1,a1,a4
     af8:	00070793          	mv	a5,a4
     afc:	00b37e63          	bgeu	t1,a1,b18 <CONFIG_ISR_STACK_SIZE+0x318>
     b00:	01c30333          	add	t1,t1,t3
     b04:	fff70793          	addi	a5,a4,-1 # ffffff <__data_region_end+0xfd090b>
     b08:	01c36863          	bltu	t1,t3,b18 <CONFIG_ISR_STACK_SIZE+0x318>
     b0c:	00b37663          	bgeu	t1,a1,b18 <CONFIG_ISR_STACK_SIZE+0x318>
     b10:	ffe70793          	addi	a5,a4,-2
     b14:	01c30333          	add	t1,t1,t3
     b18:	01069693          	slli	a3,a3,0x10
     b1c:	00010f37          	lui	t5,0x10
     b20:	00f6e6b3          	or	a3,a3,a5
     b24:	40b305b3          	sub	a1,t1,a1
     b28:	ffff0313          	addi	t1,t5,-1 # ffff <kheap__system_heap+0xd6f>
     b2c:	0066feb3          	and	t4,a3,t1
     b30:	01065713          	srli	a4,a2,0x10
     b34:	0106d693          	srli	a3,a3,0x10
     b38:	00667333          	and	t1,a2,t1
     b3c:	026e87b3          	mul	a5,t4,t1
     b40:	02668333          	mul	t1,a3,t1
     b44:	02ee8eb3          	mul	t4,t4,a4
     b48:	02e686b3          	mul	a3,a3,a4
     b4c:	006e8eb3          	add	t4,t4,t1
     b50:	0107d713          	srli	a4,a5,0x10
     b54:	01d70733          	add	a4,a4,t4
     b58:	00677463          	bgeu	a4,t1,b60 <CONFIG_ISR_STACK_SIZE+0x360>
     b5c:	01e686b3          	add	a3,a3,t5
     b60:	01075313          	srli	t1,a4,0x10
     b64:	00d306b3          	add	a3,t1,a3
     b68:	00010337          	lui	t1,0x10
     b6c:	fff30313          	addi	t1,t1,-1 # ffff <kheap__system_heap+0xd6f>
     b70:	00677733          	and	a4,a4,t1
     b74:	01071713          	slli	a4,a4,0x10
     b78:	0067f7b3          	and	a5,a5,t1
     b7c:	00f707b3          	add	a5,a4,a5
     b80:	00d5e663          	bltu	a1,a3,b8c <CONFIG_ISR_STACK_SIZE+0x38c>
     b84:	00d59e63          	bne	a1,a3,ba0 <CONFIG_ISR_STACK_SIZE+0x3a0>
     b88:	00f57c63          	bgeu	a0,a5,ba0 <CONFIG_ISR_STACK_SIZE+0x3a0>
     b8c:	40c78633          	sub	a2,a5,a2
     b90:	00c7b7b3          	sltu	a5,a5,a2
     b94:	01c787b3          	add	a5,a5,t3
     b98:	40f686b3          	sub	a3,a3,a5
     b9c:	00060793          	mv	a5,a2
     ba0:	40f507b3          	sub	a5,a0,a5
     ba4:	00f53533          	sltu	a0,a0,a5
     ba8:	40d585b3          	sub	a1,a1,a3
     bac:	40a585b3          	sub	a1,a1,a0
     bb0:	011598b3          	sll	a7,a1,a7
     bb4:	0107d533          	srl	a0,a5,a6
     bb8:	00a8e533          	or	a0,a7,a0
     bbc:	0105d5b3          	srl	a1,a1,a6
     bc0:	cddff06f          	j	89c <CONFIG_ISR_STACK_SIZE+0x9c>

00000bc4 <__divdf3>:
     bc4:	fd010113          	addi	sp,sp,-48
     bc8:	03212023          	sw	s2,32(sp)
     bcc:	0145d913          	srli	s2,a1,0x14
     bd0:	02912223          	sw	s1,36(sp)
     bd4:	01312e23          	sw	s3,28(sp)
     bd8:	01412c23          	sw	s4,24(sp)
     bdc:	01612823          	sw	s6,16(sp)
     be0:	01812423          	sw	s8,8(sp)
     be4:	00c59493          	slli	s1,a1,0xc
     be8:	02112623          	sw	ra,44(sp)
     bec:	02812423          	sw	s0,40(sp)
     bf0:	01512a23          	sw	s5,20(sp)
     bf4:	01712623          	sw	s7,12(sp)
     bf8:	7ff97913          	andi	s2,s2,2047
     bfc:	00050a13          	mv	s4,a0
     c00:	00060b13          	mv	s6,a2
     c04:	00068c13          	mv	s8,a3
     c08:	00c4d493          	srli	s1,s1,0xc
     c0c:	01f5d993          	srli	s3,a1,0x1f
     c10:	0a090063          	beqz	s2,cb0 <__divdf3+0xec>
     c14:	7ff00793          	li	a5,2047
     c18:	0ef90e63          	beq	s2,a5,d14 <__divdf3+0x150>
     c1c:	01d55a93          	srli	s5,a0,0x1d
     c20:	00349493          	slli	s1,s1,0x3
     c24:	009ae4b3          	or	s1,s5,s1
     c28:	00800ab7          	lui	s5,0x800
     c2c:	0154eab3          	or	s5,s1,s5
     c30:	00351413          	slli	s0,a0,0x3
     c34:	c0190913          	addi	s2,s2,-1023
     c38:	00000b93          	li	s7,0
     c3c:	00cc1513          	slli	a0,s8,0xc
     c40:	00c55493          	srli	s1,a0,0xc
     c44:	014c5513          	srli	a0,s8,0x14
     c48:	7ff57593          	andi	a1,a0,2047
     c4c:	01fc5c13          	srli	s8,s8,0x1f
     c50:	10058063          	beqz	a1,d50 <__divdf3+0x18c>
     c54:	7ff00793          	li	a5,2047
     c58:	16f58263          	beq	a1,a5,dbc <__divdf3+0x1f8>
     c5c:	00349513          	slli	a0,s1,0x3
     c60:	01db5793          	srli	a5,s6,0x1d
     c64:	00a7e533          	or	a0,a5,a0
     c68:	008004b7          	lui	s1,0x800
     c6c:	009564b3          	or	s1,a0,s1
     c70:	003b1f93          	slli	t6,s6,0x3
     c74:	c0158513          	addi	a0,a1,-1023
     c78:	00000793          	li	a5,0
     c7c:	002b9713          	slli	a4,s7,0x2
     c80:	00f76733          	or	a4,a4,a5
     c84:	fff70713          	addi	a4,a4,-1
     c88:	00e00613          	li	a2,14
     c8c:	0189c6b3          	xor	a3,s3,s8
     c90:	40a905b3          	sub	a1,s2,a0
     c94:	16e66063          	bltu	a2,a4,df4 <__divdf3+0x230>
     c98:	0000d637          	lui	a2,0xd
     c9c:	00271713          	slli	a4,a4,0x2
     ca0:	fdc60613          	addi	a2,a2,-36 # cfdc <__clz_tab+0x100>
     ca4:	00c70733          	add	a4,a4,a2
     ca8:	00072703          	lw	a4,0(a4)
     cac:	00070067          	jr	a4
     cb0:	00a4eab3          	or	s5,s1,a0
     cb4:	060a8e63          	beqz	s5,d30 <__divdf3+0x16c>
     cb8:	04048063          	beqz	s1,cf8 <__divdf3+0x134>
     cbc:	00048513          	mv	a0,s1
     cc0:	e30ff0ef          	jal	ra,2f0 <__clzsi2>
     cc4:	ff550793          	addi	a5,a0,-11
     cc8:	01c00713          	li	a4,28
     ccc:	02f74c63          	blt	a4,a5,d04 <__divdf3+0x140>
     cd0:	01d00a93          	li	s5,29
     cd4:	ff850413          	addi	s0,a0,-8
     cd8:	40fa8ab3          	sub	s5,s5,a5
     cdc:	008494b3          	sll	s1,s1,s0
     ce0:	015a5ab3          	srl	s5,s4,s5
     ce4:	009aeab3          	or	s5,s5,s1
     ce8:	008a1433          	sll	s0,s4,s0
     cec:	c0d00593          	li	a1,-1011
     cf0:	40a58933          	sub	s2,a1,a0
     cf4:	f45ff06f          	j	c38 <__divdf3+0x74>
     cf8:	df8ff0ef          	jal	ra,2f0 <__clzsi2>
     cfc:	02050513          	addi	a0,a0,32
     d00:	fc5ff06f          	j	cc4 <__divdf3+0x100>
     d04:	fd850493          	addi	s1,a0,-40
     d08:	009a1ab3          	sll	s5,s4,s1
     d0c:	00000413          	li	s0,0
     d10:	fddff06f          	j	cec <__divdf3+0x128>
     d14:	00a4eab3          	or	s5,s1,a0
     d18:	020a8463          	beqz	s5,d40 <__divdf3+0x17c>
     d1c:	00050413          	mv	s0,a0
     d20:	00048a93          	mv	s5,s1
     d24:	7ff00913          	li	s2,2047
     d28:	00300b93          	li	s7,3
     d2c:	f11ff06f          	j	c3c <__divdf3+0x78>
     d30:	00000413          	li	s0,0
     d34:	00000913          	li	s2,0
     d38:	00100b93          	li	s7,1
     d3c:	f01ff06f          	j	c3c <__divdf3+0x78>
     d40:	00000413          	li	s0,0
     d44:	7ff00913          	li	s2,2047
     d48:	00200b93          	li	s7,2
     d4c:	ef1ff06f          	j	c3c <__divdf3+0x78>
     d50:	0164efb3          	or	t6,s1,s6
     d54:	080f8063          	beqz	t6,dd4 <__divdf3+0x210>
     d58:	04048263          	beqz	s1,d9c <__divdf3+0x1d8>
     d5c:	00048513          	mv	a0,s1
     d60:	d90ff0ef          	jal	ra,2f0 <__clzsi2>
     d64:	00050593          	mv	a1,a0
     d68:	ff558793          	addi	a5,a1,-11
     d6c:	01c00713          	li	a4,28
     d70:	02f74e63          	blt	a4,a5,dac <__divdf3+0x1e8>
     d74:	01d00693          	li	a3,29
     d78:	ff858f93          	addi	t6,a1,-8
     d7c:	40f686b3          	sub	a3,a3,a5
     d80:	01f49533          	sll	a0,s1,t6
     d84:	00db56b3          	srl	a3,s6,a3
     d88:	00a6e4b3          	or	s1,a3,a0
     d8c:	01fb1fb3          	sll	t6,s6,t6
     d90:	c0d00693          	li	a3,-1011
     d94:	40b68533          	sub	a0,a3,a1
     d98:	ee1ff06f          	j	c78 <__divdf3+0xb4>
     d9c:	000b0513          	mv	a0,s6
     da0:	d50ff0ef          	jal	ra,2f0 <__clzsi2>
     da4:	02050593          	addi	a1,a0,32
     da8:	fc1ff06f          	j	d68 <__divdf3+0x1a4>
     dac:	fd858513          	addi	a0,a1,-40
     db0:	00ab14b3          	sll	s1,s6,a0
     db4:	00000f93          	li	t6,0
     db8:	fd9ff06f          	j	d90 <__divdf3+0x1cc>
     dbc:	0164efb3          	or	t6,s1,s6
     dc0:	020f8263          	beqz	t6,de4 <__divdf3+0x220>
     dc4:	000b0f93          	mv	t6,s6
     dc8:	7ff00513          	li	a0,2047
     dcc:	00300793          	li	a5,3
     dd0:	eadff06f          	j	c7c <__divdf3+0xb8>
     dd4:	00000493          	li	s1,0
     dd8:	00000513          	li	a0,0
     ddc:	00100793          	li	a5,1
     de0:	e9dff06f          	j	c7c <__divdf3+0xb8>
     de4:	00000493          	li	s1,0
     de8:	7ff00513          	li	a0,2047
     dec:	00200793          	li	a5,2
     df0:	e8dff06f          	j	c7c <__divdf3+0xb8>
     df4:	0154e663          	bltu	s1,s5,e00 <__divdf3+0x23c>
     df8:	349a9e63          	bne	s5,s1,1154 <__divdf3+0x590>
     dfc:	35f46c63          	bltu	s0,t6,1154 <__divdf3+0x590>
     e00:	01fa9613          	slli	a2,s5,0x1f
     e04:	00145713          	srli	a4,s0,0x1
     e08:	01f41793          	slli	a5,s0,0x1f
     e0c:	001ada93          	srli	s5,s5,0x1
     e10:	00e66433          	or	s0,a2,a4
     e14:	00849513          	slli	a0,s1,0x8
     e18:	018fd893          	srli	a7,t6,0x18
     e1c:	00a8e8b3          	or	a7,a7,a0
     e20:	01055513          	srli	a0,a0,0x10
     e24:	02aade33          	divu	t3,s5,a0
     e28:	01089e93          	slli	t4,a7,0x10
     e2c:	010ede93          	srli	t4,t4,0x10
     e30:	01045713          	srli	a4,s0,0x10
     e34:	008f9313          	slli	t1,t6,0x8
     e38:	02aafab3          	remu	s5,s5,a0
     e3c:	000e0613          	mv	a2,t3
     e40:	03ce8833          	mul	a6,t4,t3
     e44:	010a9a93          	slli	s5,s5,0x10
     e48:	01576733          	or	a4,a4,s5
     e4c:	01077e63          	bgeu	a4,a6,e68 <__divdf3+0x2a4>
     e50:	01170733          	add	a4,a4,a7
     e54:	fffe0613          	addi	a2,t3,-1
     e58:	01176863          	bltu	a4,a7,e68 <__divdf3+0x2a4>
     e5c:	01077663          	bgeu	a4,a6,e68 <__divdf3+0x2a4>
     e60:	ffee0613          	addi	a2,t3,-2
     e64:	01170733          	add	a4,a4,a7
     e68:	41070733          	sub	a4,a4,a6
     e6c:	02a75e33          	divu	t3,a4,a0
     e70:	01041413          	slli	s0,s0,0x10
     e74:	01045413          	srli	s0,s0,0x10
     e78:	02a77733          	remu	a4,a4,a0
     e7c:	000e0293          	mv	t0,t3
     e80:	03ce8833          	mul	a6,t4,t3
     e84:	01071713          	slli	a4,a4,0x10
     e88:	00e46733          	or	a4,s0,a4
     e8c:	01077e63          	bgeu	a4,a6,ea8 <__divdf3+0x2e4>
     e90:	01170733          	add	a4,a4,a7
     e94:	fffe0293          	addi	t0,t3,-1
     e98:	01176863          	bltu	a4,a7,ea8 <__divdf3+0x2e4>
     e9c:	01077663          	bgeu	a4,a6,ea8 <__divdf3+0x2e4>
     ea0:	ffee0293          	addi	t0,t3,-2
     ea4:	01170733          	add	a4,a4,a7
     ea8:	41070433          	sub	s0,a4,a6
     eac:	01061613          	slli	a2,a2,0x10
     eb0:	00010837          	lui	a6,0x10
     eb4:	005662b3          	or	t0,a2,t0
     eb8:	fff80e13          	addi	t3,a6,-1 # ffff <kheap__system_heap+0xd6f>
     ebc:	0102d613          	srli	a2,t0,0x10
     ec0:	01c2f733          	and	a4,t0,t3
     ec4:	01035f13          	srli	t5,t1,0x10
     ec8:	01c37e33          	and	t3,t1,t3
     ecc:	02ee03b3          	mul	t2,t3,a4
     ed0:	03c604b3          	mul	s1,a2,t3
     ed4:	02ef0733          	mul	a4,t5,a4
     ed8:	03e60fb3          	mul	t6,a2,t5
     edc:	00970633          	add	a2,a4,s1
     ee0:	0103d713          	srli	a4,t2,0x10
     ee4:	00c70733          	add	a4,a4,a2
     ee8:	00977463          	bgeu	a4,s1,ef0 <__divdf3+0x32c>
     eec:	010f8fb3          	add	t6,t6,a6
     ef0:	01075613          	srli	a2,a4,0x10
     ef4:	01f60633          	add	a2,a2,t6
     ef8:	00010fb7          	lui	t6,0x10
     efc:	ffff8f93          	addi	t6,t6,-1 # ffff <kheap__system_heap+0xd6f>
     f00:	01f77833          	and	a6,a4,t6
     f04:	01081813          	slli	a6,a6,0x10
     f08:	01f3f3b3          	and	t2,t2,t6
     f0c:	00780833          	add	a6,a6,t2
     f10:	00c46863          	bltu	s0,a2,f20 <__divdf3+0x35c>
     f14:	00028493          	mv	s1,t0
     f18:	04c41463          	bne	s0,a2,f60 <__divdf3+0x39c>
     f1c:	0507f263          	bgeu	a5,a6,f60 <__divdf3+0x39c>
     f20:	006787b3          	add	a5,a5,t1
     f24:	0067b733          	sltu	a4,a5,t1
     f28:	01170733          	add	a4,a4,a7
     f2c:	00e40433          	add	s0,s0,a4
     f30:	fff28493          	addi	s1,t0,-1
     f34:	0088e663          	bltu	a7,s0,f40 <__divdf3+0x37c>
     f38:	02889463          	bne	a7,s0,f60 <__divdf3+0x39c>
     f3c:	0267e263          	bltu	a5,t1,f60 <__divdf3+0x39c>
     f40:	00c46663          	bltu	s0,a2,f4c <__divdf3+0x388>
     f44:	00861e63          	bne	a2,s0,f60 <__divdf3+0x39c>
     f48:	0107fc63          	bgeu	a5,a6,f60 <__divdf3+0x39c>
     f4c:	006787b3          	add	a5,a5,t1
     f50:	0067b733          	sltu	a4,a5,t1
     f54:	01170733          	add	a4,a4,a7
     f58:	ffe28493          	addi	s1,t0,-2
     f5c:	00e40433          	add	s0,s0,a4
     f60:	41078833          	sub	a6,a5,a6
     f64:	40c40433          	sub	s0,s0,a2
     f68:	0107b7b3          	sltu	a5,a5,a6
     f6c:	40f40433          	sub	s0,s0,a5
     f70:	fff00f93          	li	t6,-1
     f74:	12888463          	beq	a7,s0,109c <__divdf3+0x4d8>
     f78:	02a45fb3          	divu	t6,s0,a0
     f7c:	01085713          	srli	a4,a6,0x10
     f80:	02a47433          	remu	s0,s0,a0
     f84:	000f8613          	mv	a2,t6
     f88:	03fe87b3          	mul	a5,t4,t6
     f8c:	01041413          	slli	s0,s0,0x10
     f90:	00876433          	or	s0,a4,s0
     f94:	00f47e63          	bgeu	s0,a5,fb0 <__divdf3+0x3ec>
     f98:	01140433          	add	s0,s0,a7
     f9c:	ffff8613          	addi	a2,t6,-1
     fa0:	01146863          	bltu	s0,a7,fb0 <__divdf3+0x3ec>
     fa4:	00f47663          	bgeu	s0,a5,fb0 <__divdf3+0x3ec>
     fa8:	ffef8613          	addi	a2,t6,-2
     fac:	01140433          	add	s0,s0,a7
     fb0:	40f40433          	sub	s0,s0,a5
     fb4:	02a45733          	divu	a4,s0,a0
     fb8:	01081813          	slli	a6,a6,0x10
     fbc:	01085813          	srli	a6,a6,0x10
     fc0:	02a47433          	remu	s0,s0,a0
     fc4:	00070793          	mv	a5,a4
     fc8:	02ee8eb3          	mul	t4,t4,a4
     fcc:	01041413          	slli	s0,s0,0x10
     fd0:	00886433          	or	s0,a6,s0
     fd4:	01d47e63          	bgeu	s0,t4,ff0 <__divdf3+0x42c>
     fd8:	01140433          	add	s0,s0,a7
     fdc:	fff70793          	addi	a5,a4,-1
     fe0:	01146863          	bltu	s0,a7,ff0 <__divdf3+0x42c>
     fe4:	01d47663          	bgeu	s0,t4,ff0 <__divdf3+0x42c>
     fe8:	ffe70793          	addi	a5,a4,-2
     fec:	01140433          	add	s0,s0,a7
     ff0:	01061613          	slli	a2,a2,0x10
     ff4:	00f66633          	or	a2,a2,a5
     ff8:	01061793          	slli	a5,a2,0x10
     ffc:	0107d793          	srli	a5,a5,0x10
    1000:	01065713          	srli	a4,a2,0x10
    1004:	02ef0833          	mul	a6,t5,a4
    1008:	41d40433          	sub	s0,s0,t4
    100c:	02ff0f33          	mul	t5,t5,a5
    1010:	03c78eb3          	mul	t4,a5,t3
    1014:	03c70e33          	mul	t3,a4,t3
    1018:	010ed793          	srli	a5,t4,0x10
    101c:	01cf0f33          	add	t5,t5,t3
    1020:	01e787b3          	add	a5,a5,t5
    1024:	01c7f663          	bgeu	a5,t3,1030 <__divdf3+0x46c>
    1028:	00010737          	lui	a4,0x10
    102c:	00e80833          	add	a6,a6,a4
    1030:	0107d713          	srli	a4,a5,0x10
    1034:	01070733          	add	a4,a4,a6
    1038:	00010837          	lui	a6,0x10
    103c:	fff80813          	addi	a6,a6,-1 # ffff <kheap__system_heap+0xd6f>
    1040:	0107f533          	and	a0,a5,a6
    1044:	01051513          	slli	a0,a0,0x10
    1048:	010efeb3          	and	t4,t4,a6
    104c:	01d50533          	add	a0,a0,t4
    1050:	00e46863          	bltu	s0,a4,1060 <__divdf3+0x49c>
    1054:	24e41463          	bne	s0,a4,129c <__divdf3+0x6d8>
    1058:	00060f93          	mv	t6,a2
    105c:	04050063          	beqz	a0,109c <__divdf3+0x4d8>
    1060:	00888433          	add	s0,a7,s0
    1064:	fff60f93          	addi	t6,a2,-1
    1068:	03146463          	bltu	s0,a7,1090 <__divdf3+0x4cc>
    106c:	00e46663          	bltu	s0,a4,1078 <__divdf3+0x4b4>
    1070:	22e41463          	bne	s0,a4,1298 <__divdf3+0x6d4>
    1074:	02a37063          	bgeu	t1,a0,1094 <__divdf3+0x4d0>
    1078:	00131793          	slli	a5,t1,0x1
    107c:	0067b333          	sltu	t1,a5,t1
    1080:	011308b3          	add	a7,t1,a7
    1084:	ffe60f93          	addi	t6,a2,-2
    1088:	01140433          	add	s0,s0,a7
    108c:	00078313          	mv	t1,a5
    1090:	00e41463          	bne	s0,a4,1098 <__divdf3+0x4d4>
    1094:	00650463          	beq	a0,t1,109c <__divdf3+0x4d8>
    1098:	001fef93          	ori	t6,t6,1
    109c:	3ff58793          	addi	a5,a1,1023
    10a0:	10f05a63          	blez	a5,11b4 <__divdf3+0x5f0>
    10a4:	007ff713          	andi	a4,t6,7
    10a8:	02070063          	beqz	a4,10c8 <__divdf3+0x504>
    10ac:	00fff713          	andi	a4,t6,15
    10b0:	00400613          	li	a2,4
    10b4:	00c70a63          	beq	a4,a2,10c8 <__divdf3+0x504>
    10b8:	004f8613          	addi	a2,t6,4
    10bc:	01f63fb3          	sltu	t6,a2,t6
    10c0:	01f484b3          	add	s1,s1,t6
    10c4:	00060f93          	mv	t6,a2
    10c8:	01000737          	lui	a4,0x1000
    10cc:	00e4f733          	and	a4,s1,a4
    10d0:	00070a63          	beqz	a4,10e4 <__divdf3+0x520>
    10d4:	ff0007b7          	lui	a5,0xff000
    10d8:	fff78793          	addi	a5,a5,-1 # feffffff <CONFIG_SYSTEM_WORKQUEUE_PRIORITY+0xff000000>
    10dc:	00f4f4b3          	and	s1,s1,a5
    10e0:	40058793          	addi	a5,a1,1024
    10e4:	7fe00713          	li	a4,2046
    10e8:	0af74063          	blt	a4,a5,1188 <__divdf3+0x5c4>
    10ec:	003fdf93          	srli	t6,t6,0x3
    10f0:	01d49713          	slli	a4,s1,0x1d
    10f4:	01f76733          	or	a4,a4,t6
    10f8:	0034d513          	srli	a0,s1,0x3
    10fc:	01479793          	slli	a5,a5,0x14
    1100:	7ff00637          	lui	a2,0x7ff00
    1104:	00c51513          	slli	a0,a0,0xc
    1108:	02c12083          	lw	ra,44(sp)
    110c:	02812403          	lw	s0,40(sp)
    1110:	00c7f7b3          	and	a5,a5,a2
    1114:	00c55513          	srli	a0,a0,0xc
    1118:	00a7e533          	or	a0,a5,a0
    111c:	01f69693          	slli	a3,a3,0x1f
    1120:	00d567b3          	or	a5,a0,a3
    1124:	02412483          	lw	s1,36(sp)
    1128:	02012903          	lw	s2,32(sp)
    112c:	01c12983          	lw	s3,28(sp)
    1130:	01812a03          	lw	s4,24(sp)
    1134:	01412a83          	lw	s5,20(sp)
    1138:	01012b03          	lw	s6,16(sp)
    113c:	00c12b83          	lw	s7,12(sp)
    1140:	00812c03          	lw	s8,8(sp)
    1144:	00070513          	mv	a0,a4
    1148:	00078593          	mv	a1,a5
    114c:	03010113          	addi	sp,sp,48
    1150:	00008067          	ret
    1154:	fff58593          	addi	a1,a1,-1
    1158:	00000793          	li	a5,0
    115c:	cb9ff06f          	j	e14 <__divdf3+0x250>
    1160:	00098693          	mv	a3,s3
    1164:	000a8493          	mv	s1,s5
    1168:	00040f93          	mv	t6,s0
    116c:	000b8793          	mv	a5,s7
    1170:	00300713          	li	a4,3
    1174:	0ee78a63          	beq	a5,a4,1268 <__divdf3+0x6a4>
    1178:	00100713          	li	a4,1
    117c:	10e78063          	beq	a5,a4,127c <__divdf3+0x6b8>
    1180:	00200713          	li	a4,2
    1184:	f0e79ce3          	bne	a5,a4,109c <__divdf3+0x4d8>
    1188:	00000513          	li	a0,0
    118c:	00000713          	li	a4,0
    1190:	7ff00793          	li	a5,2047
    1194:	f69ff06f          	j	10fc <__divdf3+0x538>
    1198:	000c0693          	mv	a3,s8
    119c:	fd5ff06f          	j	1170 <__divdf3+0x5ac>
    11a0:	000804b7          	lui	s1,0x80
    11a4:	00000f93          	li	t6,0
    11a8:	00000693          	li	a3,0
    11ac:	00300793          	li	a5,3
    11b0:	fc1ff06f          	j	1170 <__divdf3+0x5ac>
    11b4:	00100513          	li	a0,1
    11b8:	40f50533          	sub	a0,a0,a5
    11bc:	03800713          	li	a4,56
    11c0:	0aa74e63          	blt	a4,a0,127c <__divdf3+0x6b8>
    11c4:	01f00713          	li	a4,31
    11c8:	06a74663          	blt	a4,a0,1234 <__divdf3+0x670>
    11cc:	41e58593          	addi	a1,a1,1054
    11d0:	00b497b3          	sll	a5,s1,a1
    11d4:	00afd733          	srl	a4,t6,a0
    11d8:	00bf95b3          	sll	a1,t6,a1
    11dc:	00e7e7b3          	or	a5,a5,a4
    11e0:	00b035b3          	snez	a1,a1
    11e4:	00b7e7b3          	or	a5,a5,a1
    11e8:	00a4d533          	srl	a0,s1,a0
    11ec:	0077f713          	andi	a4,a5,7
    11f0:	02070063          	beqz	a4,1210 <__divdf3+0x64c>
    11f4:	00f7f713          	andi	a4,a5,15
    11f8:	00400613          	li	a2,4
    11fc:	00c70a63          	beq	a4,a2,1210 <__divdf3+0x64c>
    1200:	00478713          	addi	a4,a5,4
    1204:	00f737b3          	sltu	a5,a4,a5
    1208:	00f50533          	add	a0,a0,a5
    120c:	00070793          	mv	a5,a4
    1210:	00800737          	lui	a4,0x800
    1214:	00e57733          	and	a4,a0,a4
    1218:	06071863          	bnez	a4,1288 <__divdf3+0x6c4>
    121c:	01d51713          	slli	a4,a0,0x1d
    1220:	0037d793          	srli	a5,a5,0x3
    1224:	00f76733          	or	a4,a4,a5
    1228:	00355513          	srli	a0,a0,0x3
    122c:	00000793          	li	a5,0
    1230:	ecdff06f          	j	10fc <__divdf3+0x538>
    1234:	fe100713          	li	a4,-31
    1238:	40f707b3          	sub	a5,a4,a5
    123c:	02000613          	li	a2,32
    1240:	00f4d7b3          	srl	a5,s1,a5
    1244:	00000713          	li	a4,0
    1248:	00c50663          	beq	a0,a2,1254 <__divdf3+0x690>
    124c:	43e58713          	addi	a4,a1,1086
    1250:	00e49733          	sll	a4,s1,a4
    1254:	01f76733          	or	a4,a4,t6
    1258:	00e03733          	snez	a4,a4
    125c:	00e7e7b3          	or	a5,a5,a4
    1260:	00000513          	li	a0,0
    1264:	f89ff06f          	j	11ec <__divdf3+0x628>
    1268:	00080537          	lui	a0,0x80
    126c:	00000713          	li	a4,0
    1270:	7ff00793          	li	a5,2047
    1274:	00000693          	li	a3,0
    1278:	e85ff06f          	j	10fc <__divdf3+0x538>
    127c:	00000513          	li	a0,0
    1280:	00000713          	li	a4,0
    1284:	fa9ff06f          	j	122c <__divdf3+0x668>
    1288:	00000513          	li	a0,0
    128c:	00000713          	li	a4,0
    1290:	00100793          	li	a5,1
    1294:	e69ff06f          	j	10fc <__divdf3+0x538>
    1298:	000f8613          	mv	a2,t6
    129c:	00060f93          	mv	t6,a2
    12a0:	df9ff06f          	j	1098 <__divdf3+0x4d4>

000012a4 <__gedf2>:
    12a4:	00100737          	lui	a4,0x100
    12a8:	fff70713          	addi	a4,a4,-1 # fffff <__data_region_end+0xd090b>
    12ac:	0145d813          	srli	a6,a1,0x14
    12b0:	00b778b3          	and	a7,a4,a1
    12b4:	00050793          	mv	a5,a0
    12b8:	00050313          	mv	t1,a0
    12bc:	7ff87813          	andi	a6,a6,2047
    12c0:	01f5d513          	srli	a0,a1,0x1f
    12c4:	7ff00e93          	li	t4,2047
    12c8:	0146d593          	srli	a1,a3,0x14
    12cc:	00d77733          	and	a4,a4,a3
    12d0:	00060e13          	mv	t3,a2
    12d4:	7ff5f593          	andi	a1,a1,2047
    12d8:	01f6d693          	srli	a3,a3,0x1f
    12dc:	01d81a63          	bne	a6,t4,12f0 <__gedf2+0x4c>
    12e0:	00f8eeb3          	or	t4,a7,a5
    12e4:	080e8a63          	beqz	t4,1378 <__gedf2+0xd4>
    12e8:	ffe00513          	li	a0,-2
    12ec:	00008067          	ret
    12f0:	01d59663          	bne	a1,t4,12fc <__gedf2+0x58>
    12f4:	00c76eb3          	or	t4,a4,a2
    12f8:	fe0e98e3          	bnez	t4,12e8 <__gedf2+0x44>
    12fc:	08081063          	bnez	a6,137c <__gedf2+0xd8>
    1300:	00f8e7b3          	or	a5,a7,a5
    1304:	0017b793          	seqz	a5,a5
    1308:	00059663          	bnez	a1,1314 <__gedf2+0x70>
    130c:	00c76633          	or	a2,a4,a2
    1310:	04060c63          	beqz	a2,1368 <__gedf2+0xc4>
    1314:	00079c63          	bnez	a5,132c <__gedf2+0x88>
    1318:	00d51463          	bne	a0,a3,1320 <__gedf2+0x7c>
    131c:	0305d063          	bge	a1,a6,133c <__gedf2+0x98>
    1320:	04050063          	beqz	a0,1360 <__gedf2+0xbc>
    1324:	fff00513          	li	a0,-1
    1328:	00008067          	ret
    132c:	fff00513          	li	a0,-1
    1330:	00068a63          	beqz	a3,1344 <__gedf2+0xa0>
    1334:	00068513          	mv	a0,a3
    1338:	00008067          	ret
    133c:	00b85663          	bge	a6,a1,1348 <__gedf2+0xa4>
    1340:	fe0502e3          	beqz	a0,1324 <__gedf2+0x80>
    1344:	00008067          	ret
    1348:	fd176ce3          	bltu	a4,a7,1320 <__gedf2+0x7c>
    134c:	02e89263          	bne	a7,a4,1370 <__gedf2+0xcc>
    1350:	fc6e68e3          	bltu	t3,t1,1320 <__gedf2+0x7c>
    1354:	ffc366e3          	bltu	t1,t3,1340 <__gedf2+0x9c>
    1358:	00000513          	li	a0,0
    135c:	00008067          	ret
    1360:	00100513          	li	a0,1
    1364:	00008067          	ret
    1368:	fe0798e3          	bnez	a5,1358 <__gedf2+0xb4>
    136c:	fb5ff06f          	j	1320 <__gedf2+0x7c>
    1370:	fce8e8e3          	bltu	a7,a4,1340 <__gedf2+0x9c>
    1374:	fe5ff06f          	j	1358 <__gedf2+0xb4>
    1378:	f7058ee3          	beq	a1,a6,12f4 <__gedf2+0x50>
    137c:	f8059ee3          	bnez	a1,1318 <__gedf2+0x74>
    1380:	00000793          	li	a5,0
    1384:	f89ff06f          	j	130c <__gedf2+0x68>

00001388 <__muldf3>:
    1388:	fd010113          	addi	sp,sp,-48
    138c:	01312e23          	sw	s3,28(sp)
    1390:	0145d993          	srli	s3,a1,0x14
    1394:	02812423          	sw	s0,40(sp)
    1398:	02912223          	sw	s1,36(sp)
    139c:	01412c23          	sw	s4,24(sp)
    13a0:	01512a23          	sw	s5,20(sp)
    13a4:	01712623          	sw	s7,12(sp)
    13a8:	00c59493          	slli	s1,a1,0xc
    13ac:	02112623          	sw	ra,44(sp)
    13b0:	03212023          	sw	s2,32(sp)
    13b4:	01612823          	sw	s6,16(sp)
    13b8:	7ff9f993          	andi	s3,s3,2047
    13bc:	00050413          	mv	s0,a0
    13c0:	00060b93          	mv	s7,a2
    13c4:	00068a93          	mv	s5,a3
    13c8:	00c4d493          	srli	s1,s1,0xc
    13cc:	01f5da13          	srli	s4,a1,0x1f
    13d0:	0a098263          	beqz	s3,1474 <__muldf3+0xec>
    13d4:	7ff00793          	li	a5,2047
    13d8:	10f98063          	beq	s3,a5,14d8 <__muldf3+0x150>
    13dc:	01d55793          	srli	a5,a0,0x1d
    13e0:	00349493          	slli	s1,s1,0x3
    13e4:	0097e4b3          	or	s1,a5,s1
    13e8:	008007b7          	lui	a5,0x800
    13ec:	00f4e4b3          	or	s1,s1,a5
    13f0:	00351913          	slli	s2,a0,0x3
    13f4:	c0198993          	addi	s3,s3,-1023
    13f8:	00000b13          	li	s6,0
    13fc:	014ad513          	srli	a0,s5,0x14
    1400:	00ca9413          	slli	s0,s5,0xc
    1404:	7ff57513          	andi	a0,a0,2047
    1408:	00c45413          	srli	s0,s0,0xc
    140c:	01fada93          	srli	s5,s5,0x1f
    1410:	10050063          	beqz	a0,1510 <__muldf3+0x188>
    1414:	7ff00793          	li	a5,2047
    1418:	16f50063          	beq	a0,a5,1578 <__muldf3+0x1f0>
    141c:	01dbd793          	srli	a5,s7,0x1d
    1420:	00341413          	slli	s0,s0,0x3
    1424:	0087e433          	or	s0,a5,s0
    1428:	008007b7          	lui	a5,0x800
    142c:	00f46433          	or	s0,s0,a5
    1430:	c0150513          	addi	a0,a0,-1023 # 7fc01 <__data_region_end+0x5050d>
    1434:	003b9793          	slli	a5,s7,0x3
    1438:	00000713          	li	a4,0
    143c:	002b1693          	slli	a3,s6,0x2
    1440:	00e6e6b3          	or	a3,a3,a4
    1444:	00a98533          	add	a0,s3,a0
    1448:	fff68693          	addi	a3,a3,-1 # ffffff <__data_region_end+0xfd090b>
    144c:	00e00813          	li	a6,14
    1450:	015a4633          	xor	a2,s4,s5
    1454:	00150593          	addi	a1,a0,1
    1458:	14d86c63          	bltu	a6,a3,15b0 <__muldf3+0x228>
    145c:	0000d537          	lui	a0,0xd
    1460:	00269693          	slli	a3,a3,0x2
    1464:	01850513          	addi	a0,a0,24 # d018 <__clz_tab+0x13c>
    1468:	00a686b3          	add	a3,a3,a0
    146c:	0006a683          	lw	a3,0(a3)
    1470:	00068067          	jr	a3
    1474:	00a4e933          	or	s2,s1,a0
    1478:	06090c63          	beqz	s2,14f0 <__muldf3+0x168>
    147c:	04048063          	beqz	s1,14bc <__muldf3+0x134>
    1480:	00048513          	mv	a0,s1
    1484:	e6dfe0ef          	jal	ra,2f0 <__clzsi2>
    1488:	ff550713          	addi	a4,a0,-11
    148c:	01c00793          	li	a5,28
    1490:	02e7cc63          	blt	a5,a4,14c8 <__muldf3+0x140>
    1494:	01d00793          	li	a5,29
    1498:	ff850913          	addi	s2,a0,-8
    149c:	40e787b3          	sub	a5,a5,a4
    14a0:	012494b3          	sll	s1,s1,s2
    14a4:	00f457b3          	srl	a5,s0,a5
    14a8:	0097e4b3          	or	s1,a5,s1
    14ac:	01241933          	sll	s2,s0,s2
    14b0:	c0d00993          	li	s3,-1011
    14b4:	40a989b3          	sub	s3,s3,a0
    14b8:	f41ff06f          	j	13f8 <__muldf3+0x70>
    14bc:	e35fe0ef          	jal	ra,2f0 <__clzsi2>
    14c0:	02050513          	addi	a0,a0,32
    14c4:	fc5ff06f          	j	1488 <__muldf3+0x100>
    14c8:	fd850493          	addi	s1,a0,-40
    14cc:	009414b3          	sll	s1,s0,s1
    14d0:	00000913          	li	s2,0
    14d4:	fddff06f          	j	14b0 <__muldf3+0x128>
    14d8:	00a4e933          	or	s2,s1,a0
    14dc:	02090263          	beqz	s2,1500 <__muldf3+0x178>
    14e0:	00050913          	mv	s2,a0
    14e4:	7ff00993          	li	s3,2047
    14e8:	00300b13          	li	s6,3
    14ec:	f11ff06f          	j	13fc <__muldf3+0x74>
    14f0:	00000493          	li	s1,0
    14f4:	00000993          	li	s3,0
    14f8:	00100b13          	li	s6,1
    14fc:	f01ff06f          	j	13fc <__muldf3+0x74>
    1500:	00000493          	li	s1,0
    1504:	7ff00993          	li	s3,2047
    1508:	00200b13          	li	s6,2
    150c:	ef1ff06f          	j	13fc <__muldf3+0x74>
    1510:	017467b3          	or	a5,s0,s7
    1514:	06078e63          	beqz	a5,1590 <__muldf3+0x208>
    1518:	04040063          	beqz	s0,1558 <__muldf3+0x1d0>
    151c:	00040513          	mv	a0,s0
    1520:	dd1fe0ef          	jal	ra,2f0 <__clzsi2>
    1524:	ff550693          	addi	a3,a0,-11
    1528:	01c00793          	li	a5,28
    152c:	02d7ce63          	blt	a5,a3,1568 <__muldf3+0x1e0>
    1530:	01d00713          	li	a4,29
    1534:	ff850793          	addi	a5,a0,-8
    1538:	40d70733          	sub	a4,a4,a3
    153c:	00f41433          	sll	s0,s0,a5
    1540:	00ebd733          	srl	a4,s7,a4
    1544:	00876433          	or	s0,a4,s0
    1548:	00fb97b3          	sll	a5,s7,a5
    154c:	c0d00713          	li	a4,-1011
    1550:	40a70533          	sub	a0,a4,a0
    1554:	ee5ff06f          	j	1438 <__muldf3+0xb0>
    1558:	000b8513          	mv	a0,s7
    155c:	d95fe0ef          	jal	ra,2f0 <__clzsi2>
    1560:	02050513          	addi	a0,a0,32
    1564:	fc1ff06f          	j	1524 <__muldf3+0x19c>
    1568:	fd850413          	addi	s0,a0,-40
    156c:	008b9433          	sll	s0,s7,s0
    1570:	00000793          	li	a5,0
    1574:	fd9ff06f          	j	154c <__muldf3+0x1c4>
    1578:	017467b3          	or	a5,s0,s7
    157c:	02078263          	beqz	a5,15a0 <__muldf3+0x218>
    1580:	000b8793          	mv	a5,s7
    1584:	7ff00513          	li	a0,2047
    1588:	00300713          	li	a4,3
    158c:	eb1ff06f          	j	143c <__muldf3+0xb4>
    1590:	00000413          	li	s0,0
    1594:	00000513          	li	a0,0
    1598:	00100713          	li	a4,1
    159c:	ea1ff06f          	j	143c <__muldf3+0xb4>
    15a0:	00000413          	li	s0,0
    15a4:	7ff00513          	li	a0,2047
    15a8:	00200713          	li	a4,2
    15ac:	e91ff06f          	j	143c <__muldf3+0xb4>
    15b0:	00010f37          	lui	t5,0x10
    15b4:	ffff0e93          	addi	t4,t5,-1 # ffff <kheap__system_heap+0xd6f>
    15b8:	01095713          	srli	a4,s2,0x10
    15bc:	0107d893          	srli	a7,a5,0x10
    15c0:	01d97933          	and	s2,s2,t4
    15c4:	01d7f7b3          	and	a5,a5,t4
    15c8:	03288833          	mul	a6,a7,s2
    15cc:	02f906b3          	mul	a3,s2,a5
    15d0:	02f70fb3          	mul	t6,a4,a5
    15d4:	01f80333          	add	t1,a6,t6
    15d8:	0106d813          	srli	a6,a3,0x10
    15dc:	00680833          	add	a6,a6,t1
    15e0:	03170e33          	mul	t3,a4,a7
    15e4:	01f87463          	bgeu	a6,t6,15ec <__muldf3+0x264>
    15e8:	01ee0e33          	add	t3,t3,t5
    15ec:	01085393          	srli	t2,a6,0x10
    15f0:	01d87833          	and	a6,a6,t4
    15f4:	01d6f6b3          	and	a3,a3,t4
    15f8:	01045f13          	srli	t5,s0,0x10
    15fc:	01d472b3          	and	t0,s0,t4
    1600:	01081813          	slli	a6,a6,0x10
    1604:	00d80833          	add	a6,a6,a3
    1608:	02570eb3          	mul	t4,a4,t0
    160c:	025906b3          	mul	a3,s2,t0
    1610:	032f0933          	mul	s2,t5,s2
    1614:	01d90333          	add	t1,s2,t4
    1618:	0106d913          	srli	s2,a3,0x10
    161c:	00690933          	add	s2,s2,t1
    1620:	03e70733          	mul	a4,a4,t5
    1624:	01d97663          	bgeu	s2,t4,1630 <__muldf3+0x2a8>
    1628:	00010337          	lui	t1,0x10
    162c:	00670733          	add	a4,a4,t1
    1630:	01095e93          	srli	t4,s2,0x10
    1634:	000109b7          	lui	s3,0x10
    1638:	00ee8eb3          	add	t4,t4,a4
    163c:	fff98713          	addi	a4,s3,-1 # ffff <kheap__system_heap+0xd6f>
    1640:	00e97933          	and	s2,s2,a4
    1644:	00e6f6b3          	and	a3,a3,a4
    1648:	0104d413          	srli	s0,s1,0x10
    164c:	01091913          	slli	s2,s2,0x10
    1650:	00e4f4b3          	and	s1,s1,a4
    1654:	02978733          	mul	a4,a5,s1
    1658:	00d90933          	add	s2,s2,a3
    165c:	012383b3          	add	t2,t2,s2
    1660:	02f40333          	mul	t1,s0,a5
    1664:	029886b3          	mul	a3,a7,s1
    1668:	028887b3          	mul	a5,a7,s0
    166c:	006688b3          	add	a7,a3,t1
    1670:	01075693          	srli	a3,a4,0x10
    1674:	011686b3          	add	a3,a3,a7
    1678:	0066f463          	bgeu	a3,t1,1680 <__muldf3+0x2f8>
    167c:	013787b3          	add	a5,a5,s3
    1680:	0106d893          	srli	a7,a3,0x10
    1684:	000109b7          	lui	s3,0x10
    1688:	00f88fb3          	add	t6,a7,a5
    168c:	fff98793          	addi	a5,s3,-1 # ffff <kheap__system_heap+0xd6f>
    1690:	029288b3          	mul	a7,t0,s1
    1694:	00f6f6b3          	and	a3,a3,a5
    1698:	00f77733          	and	a4,a4,a5
    169c:	01069693          	slli	a3,a3,0x10
    16a0:	00e686b3          	add	a3,a3,a4
    16a4:	025407b3          	mul	a5,s0,t0
    16a8:	029f04b3          	mul	s1,t5,s1
    16ac:	028f0333          	mul	t1,t5,s0
    16b0:	00f484b3          	add	s1,s1,a5
    16b4:	0108d413          	srli	s0,a7,0x10
    16b8:	009404b3          	add	s1,s0,s1
    16bc:	00f4f463          	bgeu	s1,a5,16c4 <__muldf3+0x33c>
    16c0:	01330333          	add	t1,t1,s3
    16c4:	000107b7          	lui	a5,0x10
    16c8:	fff78793          	addi	a5,a5,-1 # ffff <kheap__system_heap+0xd6f>
    16cc:	00f4f733          	and	a4,s1,a5
    16d0:	00f8f8b3          	and	a7,a7,a5
    16d4:	01071713          	slli	a4,a4,0x10
    16d8:	007e0e33          	add	t3,t3,t2
    16dc:	01170733          	add	a4,a4,a7
    16e0:	012e3933          	sltu	s2,t3,s2
    16e4:	01d70733          	add	a4,a4,t4
    16e8:	01270433          	add	s0,a4,s2
    16ec:	00de0e33          	add	t3,t3,a3
    16f0:	00de36b3          	sltu	a3,t3,a3
    16f4:	01f408b3          	add	a7,s0,t6
    16f8:	00d88f33          	add	t5,a7,a3
    16fc:	01d73733          	sltu	a4,a4,t4
    1700:	01243433          	sltu	s0,s0,s2
    1704:	00876433          	or	s0,a4,s0
    1708:	0104d493          	srli	s1,s1,0x10
    170c:	01f8b8b3          	sltu	a7,a7,t6
    1710:	00df36b3          	sltu	a3,t5,a3
    1714:	00940433          	add	s0,s0,s1
    1718:	00d8e6b3          	or	a3,a7,a3
    171c:	00d40433          	add	s0,s0,a3
    1720:	00640433          	add	s0,s0,t1
    1724:	017f5793          	srli	a5,t5,0x17
    1728:	00941413          	slli	s0,s0,0x9
    172c:	00f46433          	or	s0,s0,a5
    1730:	009e1793          	slli	a5,t3,0x9
    1734:	0107e7b3          	or	a5,a5,a6
    1738:	00f037b3          	snez	a5,a5
    173c:	017e5e13          	srli	t3,t3,0x17
    1740:	009f1713          	slli	a4,t5,0x9
    1744:	01c7e7b3          	or	a5,a5,t3
    1748:	00e7e7b3          	or	a5,a5,a4
    174c:	01000737          	lui	a4,0x1000
    1750:	00e47733          	and	a4,s0,a4
    1754:	10070663          	beqz	a4,1860 <__muldf3+0x4d8>
    1758:	0017d713          	srli	a4,a5,0x1
    175c:	0017f793          	andi	a5,a5,1
    1760:	00f767b3          	or	a5,a4,a5
    1764:	01f41713          	slli	a4,s0,0x1f
    1768:	00e7e7b3          	or	a5,a5,a4
    176c:	00145413          	srli	s0,s0,0x1
    1770:	3ff58693          	addi	a3,a1,1023
    1774:	0ed05a63          	blez	a3,1868 <__muldf3+0x4e0>
    1778:	0077f713          	andi	a4,a5,7
    177c:	02070063          	beqz	a4,179c <__muldf3+0x414>
    1780:	00f7f713          	andi	a4,a5,15
    1784:	00400513          	li	a0,4
    1788:	00a70a63          	beq	a4,a0,179c <__muldf3+0x414>
    178c:	00478713          	addi	a4,a5,4
    1790:	00f737b3          	sltu	a5,a4,a5
    1794:	00f40433          	add	s0,s0,a5
    1798:	00070793          	mv	a5,a4
    179c:	01000737          	lui	a4,0x1000
    17a0:	00e47733          	and	a4,s0,a4
    17a4:	00070a63          	beqz	a4,17b8 <__muldf3+0x430>
    17a8:	ff000737          	lui	a4,0xff000
    17ac:	fff70713          	addi	a4,a4,-1 # feffffff <CONFIG_SYSTEM_WORKQUEUE_PRIORITY+0xff000000>
    17b0:	00e47433          	and	s0,s0,a4
    17b4:	40058693          	addi	a3,a1,1024
    17b8:	7fe00713          	li	a4,2046
    17bc:	16d74a63          	blt	a4,a3,1930 <__muldf3+0x5a8>
    17c0:	0037d713          	srli	a4,a5,0x3
    17c4:	01d41793          	slli	a5,s0,0x1d
    17c8:	00e7e7b3          	or	a5,a5,a4
    17cc:	00345413          	srli	s0,s0,0x3
    17d0:	01469713          	slli	a4,a3,0x14
    17d4:	00c41413          	slli	s0,s0,0xc
    17d8:	7ff006b7          	lui	a3,0x7ff00
    17dc:	00d77733          	and	a4,a4,a3
    17e0:	00c45413          	srli	s0,s0,0xc
    17e4:	00876433          	or	s0,a4,s0
    17e8:	01f61613          	slli	a2,a2,0x1f
    17ec:	02c12083          	lw	ra,44(sp)
    17f0:	00c46733          	or	a4,s0,a2
    17f4:	02812403          	lw	s0,40(sp)
    17f8:	02412483          	lw	s1,36(sp)
    17fc:	02012903          	lw	s2,32(sp)
    1800:	01c12983          	lw	s3,28(sp)
    1804:	01812a03          	lw	s4,24(sp)
    1808:	01412a83          	lw	s5,20(sp)
    180c:	01012b03          	lw	s6,16(sp)
    1810:	00c12b83          	lw	s7,12(sp)
    1814:	00078513          	mv	a0,a5
    1818:	00070593          	mv	a1,a4
    181c:	03010113          	addi	sp,sp,48
    1820:	00008067          	ret
    1824:	000a0613          	mv	a2,s4
    1828:	00048413          	mv	s0,s1
    182c:	00090793          	mv	a5,s2
    1830:	000b0713          	mv	a4,s6
    1834:	00200693          	li	a3,2
    1838:	0ed70c63          	beq	a4,a3,1930 <__muldf3+0x5a8>
    183c:	00300693          	li	a3,3
    1840:	0cd70e63          	beq	a4,a3,191c <__muldf3+0x594>
    1844:	00100693          	li	a3,1
    1848:	f2d714e3          	bne	a4,a3,1770 <__muldf3+0x3e8>
    184c:	00000413          	li	s0,0
    1850:	00000793          	li	a5,0
    1854:	08c0006f          	j	18e0 <__muldf3+0x558>
    1858:	000a8613          	mv	a2,s5
    185c:	fd9ff06f          	j	1834 <__muldf3+0x4ac>
    1860:	00050593          	mv	a1,a0
    1864:	f0dff06f          	j	1770 <__muldf3+0x3e8>
    1868:	00100513          	li	a0,1
    186c:	40d50533          	sub	a0,a0,a3
    1870:	03800713          	li	a4,56
    1874:	fca74ce3          	blt	a4,a0,184c <__muldf3+0x4c4>
    1878:	01f00713          	li	a4,31
    187c:	06a74663          	blt	a4,a0,18e8 <__muldf3+0x560>
    1880:	41e58593          	addi	a1,a1,1054
    1884:	00b41733          	sll	a4,s0,a1
    1888:	00a7d6b3          	srl	a3,a5,a0
    188c:	00b797b3          	sll	a5,a5,a1
    1890:	00d76733          	or	a4,a4,a3
    1894:	00f037b3          	snez	a5,a5
    1898:	00f767b3          	or	a5,a4,a5
    189c:	00a45433          	srl	s0,s0,a0
    18a0:	0077f713          	andi	a4,a5,7
    18a4:	02070063          	beqz	a4,18c4 <__muldf3+0x53c>
    18a8:	00f7f713          	andi	a4,a5,15
    18ac:	00400693          	li	a3,4
    18b0:	00d70a63          	beq	a4,a3,18c4 <__muldf3+0x53c>
    18b4:	00478713          	addi	a4,a5,4
    18b8:	00f737b3          	sltu	a5,a4,a5
    18bc:	00f40433          	add	s0,s0,a5
    18c0:	00070793          	mv	a5,a4
    18c4:	00800737          	lui	a4,0x800
    18c8:	00e47733          	and	a4,s0,a4
    18cc:	06071a63          	bnez	a4,1940 <__muldf3+0x5b8>
    18d0:	01d41713          	slli	a4,s0,0x1d
    18d4:	0037d793          	srli	a5,a5,0x3
    18d8:	00f767b3          	or	a5,a4,a5
    18dc:	00345413          	srli	s0,s0,0x3
    18e0:	00000693          	li	a3,0
    18e4:	eedff06f          	j	17d0 <__muldf3+0x448>
    18e8:	fe100713          	li	a4,-31
    18ec:	40d70733          	sub	a4,a4,a3
    18f0:	02000813          	li	a6,32
    18f4:	00e45733          	srl	a4,s0,a4
    18f8:	00000693          	li	a3,0
    18fc:	01050663          	beq	a0,a6,1908 <__muldf3+0x580>
    1900:	43e58593          	addi	a1,a1,1086
    1904:	00b416b3          	sll	a3,s0,a1
    1908:	00f6e7b3          	or	a5,a3,a5
    190c:	00f037b3          	snez	a5,a5
    1910:	00f767b3          	or	a5,a4,a5
    1914:	00000413          	li	s0,0
    1918:	f89ff06f          	j	18a0 <__muldf3+0x518>
    191c:	00080437          	lui	s0,0x80
    1920:	00000793          	li	a5,0
    1924:	7ff00693          	li	a3,2047
    1928:	00000613          	li	a2,0
    192c:	ea5ff06f          	j	17d0 <__muldf3+0x448>
    1930:	00000413          	li	s0,0
    1934:	00000793          	li	a5,0
    1938:	7ff00693          	li	a3,2047
    193c:	e95ff06f          	j	17d0 <__muldf3+0x448>
    1940:	00000413          	li	s0,0
    1944:	00000793          	li	a5,0
    1948:	00100693          	li	a3,1
    194c:	e85ff06f          	j	17d0 <__muldf3+0x448>

00001950 <__subdf3>:
    1950:	00100837          	lui	a6,0x100
    1954:	fff80813          	addi	a6,a6,-1 # fffff <__data_region_end+0xd090b>
    1958:	fe010113          	addi	sp,sp,-32
    195c:	00b877b3          	and	a5,a6,a1
    1960:	0145d713          	srli	a4,a1,0x14
    1964:	00d87833          	and	a6,a6,a3
    1968:	0146d313          	srli	t1,a3,0x14
    196c:	00812c23          	sw	s0,24(sp)
    1970:	00379793          	slli	a5,a5,0x3
    1974:	7ff77413          	andi	s0,a4,2047
    1978:	01d55713          	srli	a4,a0,0x1d
    197c:	00912a23          	sw	s1,20(sp)
    1980:	00f767b3          	or	a5,a4,a5
    1984:	01f5d493          	srli	s1,a1,0x1f
    1988:	01d65713          	srli	a4,a2,0x1d
    198c:	00351593          	slli	a1,a0,0x3
    1990:	00381813          	slli	a6,a6,0x3
    1994:	00112e23          	sw	ra,28(sp)
    1998:	01212823          	sw	s2,16(sp)
    199c:	01312623          	sw	s3,12(sp)
    19a0:	7ff37313          	andi	t1,t1,2047
    19a4:	7ff00513          	li	a0,2047
    19a8:	01f6d693          	srli	a3,a3,0x1f
    19ac:	01076733          	or	a4,a4,a6
    19b0:	00361613          	slli	a2,a2,0x3
    19b4:	00a31663          	bne	t1,a0,19c0 <__subdf3+0x70>
    19b8:	00c76533          	or	a0,a4,a2
    19bc:	00051463          	bnez	a0,19c4 <__subdf3+0x74>
    19c0:	0016c693          	xori	a3,a3,1
    19c4:	40640833          	sub	a6,s0,t1
    19c8:	2c969863          	bne	a3,s1,1c98 <__subdf3+0x348>
    19cc:	13005063          	blez	a6,1aec <__subdf3+0x19c>
    19d0:	04031063          	bnez	t1,1a10 <__subdf3+0xc0>
    19d4:	00c766b3          	or	a3,a4,a2
    19d8:	70068c63          	beqz	a3,20f0 <CONFIG_SRAM_SIZE+0xf0>
    19dc:	fff80513          	addi	a0,a6,-1
    19e0:	02051063          	bnez	a0,1a00 <__subdf3+0xb0>
    19e4:	00c58633          	add	a2,a1,a2
    19e8:	00b63533          	sltu	a0,a2,a1
    19ec:	00e787b3          	add	a5,a5,a4
    19f0:	00a787b3          	add	a5,a5,a0
    19f4:	00060593          	mv	a1,a2
    19f8:	00100413          	li	s0,1
    19fc:	0700006f          	j	1a6c <__subdf3+0x11c>
    1a00:	7ff00693          	li	a3,2047
    1a04:	02d81063          	bne	a6,a3,1a24 <__subdf3+0xd4>
    1a08:	7ff00413          	li	s0,2047
    1a0c:	2140006f          	j	1c20 <__subdf3+0x2d0>
    1a10:	7ff00693          	li	a3,2047
    1a14:	20d40663          	beq	s0,a3,1c20 <__subdf3+0x2d0>
    1a18:	008006b7          	lui	a3,0x800
    1a1c:	00d76733          	or	a4,a4,a3
    1a20:	00080513          	mv	a0,a6
    1a24:	03800693          	li	a3,56
    1a28:	0aa6cc63          	blt	a3,a0,1ae0 <__subdf3+0x190>
    1a2c:	01f00693          	li	a3,31
    1a30:	06a6ce63          	blt	a3,a0,1aac <__subdf3+0x15c>
    1a34:	02000813          	li	a6,32
    1a38:	40a80833          	sub	a6,a6,a0
    1a3c:	010716b3          	sll	a3,a4,a6
    1a40:	00a658b3          	srl	a7,a2,a0
    1a44:	01061633          	sll	a2,a2,a6
    1a48:	0116e6b3          	or	a3,a3,a7
    1a4c:	00c03633          	snez	a2,a2
    1a50:	00c6e633          	or	a2,a3,a2
    1a54:	00a75733          	srl	a4,a4,a0
    1a58:	00b60633          	add	a2,a2,a1
    1a5c:	00b63533          	sltu	a0,a2,a1
    1a60:	00f70733          	add	a4,a4,a5
    1a64:	00a707b3          	add	a5,a4,a0
    1a68:	00060593          	mv	a1,a2
    1a6c:	00800737          	lui	a4,0x800
    1a70:	00e7f733          	and	a4,a5,a4
    1a74:	1a070663          	beqz	a4,1c20 <__subdf3+0x2d0>
    1a78:	00140413          	addi	s0,s0,1 # 80001 <__data_region_end+0x5090d>
    1a7c:	7ff00713          	li	a4,2047
    1a80:	5ce40a63          	beq	s0,a4,2054 <CONFIG_SRAM_SIZE+0x54>
    1a84:	ff800737          	lui	a4,0xff800
    1a88:	fff70713          	addi	a4,a4,-1 # ff7fffff <CONFIG_SYSTEM_WORKQUEUE_PRIORITY+0xff800000>
    1a8c:	00e7f7b3          	and	a5,a5,a4
    1a90:	0015f513          	andi	a0,a1,1
    1a94:	0015d713          	srli	a4,a1,0x1
    1a98:	00a76533          	or	a0,a4,a0
    1a9c:	01f79593          	slli	a1,a5,0x1f
    1aa0:	00a5e5b3          	or	a1,a1,a0
    1aa4:	0017d793          	srli	a5,a5,0x1
    1aa8:	1780006f          	j	1c20 <__subdf3+0x2d0>
    1aac:	fe050693          	addi	a3,a0,-32
    1ab0:	02000893          	li	a7,32
    1ab4:	00d756b3          	srl	a3,a4,a3
    1ab8:	00000813          	li	a6,0
    1abc:	01150863          	beq	a0,a7,1acc <__subdf3+0x17c>
    1ac0:	04000813          	li	a6,64
    1ac4:	40a80533          	sub	a0,a6,a0
    1ac8:	00a71833          	sll	a6,a4,a0
    1acc:	00c86633          	or	a2,a6,a2
    1ad0:	00c03633          	snez	a2,a2
    1ad4:	00c6e633          	or	a2,a3,a2
    1ad8:	00000713          	li	a4,0
    1adc:	f7dff06f          	j	1a58 <__subdf3+0x108>
    1ae0:	00c76633          	or	a2,a4,a2
    1ae4:	00c03633          	snez	a2,a2
    1ae8:	ff1ff06f          	j	1ad8 <__subdf3+0x188>
    1aec:	0e080263          	beqz	a6,1bd0 <__subdf3+0x280>
    1af0:	40830533          	sub	a0,t1,s0
    1af4:	02041e63          	bnez	s0,1b30 <__subdf3+0x1e0>
    1af8:	00b7e6b3          	or	a3,a5,a1
    1afc:	52068c63          	beqz	a3,2034 <CONFIG_SRAM_SIZE+0x34>
    1b00:	fff50693          	addi	a3,a0,-1
    1b04:	00069c63          	bnez	a3,1b1c <__subdf3+0x1cc>
    1b08:	00c585b3          	add	a1,a1,a2
    1b0c:	00e787b3          	add	a5,a5,a4
    1b10:	00c5b633          	sltu	a2,a1,a2
    1b14:	00c787b3          	add	a5,a5,a2
    1b18:	ee1ff06f          	j	19f8 <__subdf3+0xa8>
    1b1c:	7ff00813          	li	a6,2047
    1b20:	03051263          	bne	a0,a6,1b44 <__subdf3+0x1f4>
    1b24:	00070793          	mv	a5,a4
    1b28:	00060593          	mv	a1,a2
    1b2c:	eddff06f          	j	1a08 <__subdf3+0xb8>
    1b30:	7ff00693          	li	a3,2047
    1b34:	fed308e3          	beq	t1,a3,1b24 <__subdf3+0x1d4>
    1b38:	008006b7          	lui	a3,0x800
    1b3c:	00d7e7b3          	or	a5,a5,a3
    1b40:	00050693          	mv	a3,a0
    1b44:	03800513          	li	a0,56
    1b48:	06d54e63          	blt	a0,a3,1bc4 <__subdf3+0x274>
    1b4c:	01f00513          	li	a0,31
    1b50:	04d54063          	blt	a0,a3,1b90 <__subdf3+0x240>
    1b54:	02000813          	li	a6,32
    1b58:	40d80833          	sub	a6,a6,a3
    1b5c:	01079533          	sll	a0,a5,a6
    1b60:	00d5d8b3          	srl	a7,a1,a3
    1b64:	010595b3          	sll	a1,a1,a6
    1b68:	01156533          	or	a0,a0,a7
    1b6c:	00b035b3          	snez	a1,a1
    1b70:	00b56533          	or	a0,a0,a1
    1b74:	00d7d7b3          	srl	a5,a5,a3
    1b78:	00c505b3          	add	a1,a0,a2
    1b7c:	00e787b3          	add	a5,a5,a4
    1b80:	00c5b633          	sltu	a2,a1,a2
    1b84:	00c787b3          	add	a5,a5,a2
    1b88:	00030413          	mv	s0,t1
    1b8c:	ee1ff06f          	j	1a6c <__subdf3+0x11c>
    1b90:	fe068513          	addi	a0,a3,-32 # 7fffe0 <__data_region_end+0x7d08ec>
    1b94:	02000893          	li	a7,32
    1b98:	00a7d833          	srl	a6,a5,a0
    1b9c:	00000513          	li	a0,0
    1ba0:	01168863          	beq	a3,a7,1bb0 <__subdf3+0x260>
    1ba4:	04000513          	li	a0,64
    1ba8:	40d50533          	sub	a0,a0,a3
    1bac:	00a79533          	sll	a0,a5,a0
    1bb0:	00b56533          	or	a0,a0,a1
    1bb4:	00a03533          	snez	a0,a0
    1bb8:	00a86533          	or	a0,a6,a0
    1bbc:	00000793          	li	a5,0
    1bc0:	fb9ff06f          	j	1b78 <__subdf3+0x228>
    1bc4:	00b7e533          	or	a0,a5,a1
    1bc8:	00a03533          	snez	a0,a0
    1bcc:	ff1ff06f          	j	1bbc <__subdf3+0x26c>
    1bd0:	00140693          	addi	a3,s0,1
    1bd4:	7fe6f513          	andi	a0,a3,2046
    1bd8:	08051863          	bnez	a0,1c68 <__subdf3+0x318>
    1bdc:	00b7e6b3          	or	a3,a5,a1
    1be0:	06041463          	bnez	s0,1c48 <__subdf3+0x2f8>
    1be4:	46068063          	beqz	a3,2044 <CONFIG_SRAM_SIZE+0x44>
    1be8:	00c766b3          	or	a3,a4,a2
    1bec:	02068a63          	beqz	a3,1c20 <__subdf3+0x2d0>
    1bf0:	00c58633          	add	a2,a1,a2
    1bf4:	00e787b3          	add	a5,a5,a4
    1bf8:	00b63533          	sltu	a0,a2,a1
    1bfc:	00a787b3          	add	a5,a5,a0
    1c00:	00800737          	lui	a4,0x800
    1c04:	00e7f733          	and	a4,a5,a4
    1c08:	00060593          	mv	a1,a2
    1c0c:	00070a63          	beqz	a4,1c20 <__subdf3+0x2d0>
    1c10:	ff800737          	lui	a4,0xff800
    1c14:	fff70713          	addi	a4,a4,-1 # ff7fffff <CONFIG_SYSTEM_WORKQUEUE_PRIORITY+0xff800000>
    1c18:	00e7f7b3          	and	a5,a5,a4
    1c1c:	00100413          	li	s0,1
    1c20:	0075f713          	andi	a4,a1,7
    1c24:	42070c63          	beqz	a4,205c <CONFIG_SRAM_SIZE+0x5c>
    1c28:	00f5f713          	andi	a4,a1,15
    1c2c:	00400693          	li	a3,4
    1c30:	42d70663          	beq	a4,a3,205c <CONFIG_SRAM_SIZE+0x5c>
    1c34:	00458713          	addi	a4,a1,4
    1c38:	00b73533          	sltu	a0,a4,a1
    1c3c:	00a787b3          	add	a5,a5,a0
    1c40:	00070593          	mv	a1,a4
    1c44:	4180006f          	j	205c <CONFIG_SRAM_SIZE+0x5c>
    1c48:	ec068ee3          	beqz	a3,1b24 <__subdf3+0x1d4>
    1c4c:	00c76633          	or	a2,a4,a2
    1c50:	da060ce3          	beqz	a2,1a08 <__subdf3+0xb8>
    1c54:	00000493          	li	s1,0
    1c58:	004007b7          	lui	a5,0x400
    1c5c:	00000593          	li	a1,0
    1c60:	7ff00413          	li	s0,2047
    1c64:	3f80006f          	j	205c <CONFIG_SRAM_SIZE+0x5c>
    1c68:	7ff00513          	li	a0,2047
    1c6c:	3ea68263          	beq	a3,a0,2050 <CONFIG_SRAM_SIZE+0x50>
    1c70:	00c58633          	add	a2,a1,a2
    1c74:	00b63533          	sltu	a0,a2,a1
    1c78:	00e787b3          	add	a5,a5,a4
    1c7c:	00a787b3          	add	a5,a5,a0
    1c80:	01f79513          	slli	a0,a5,0x1f
    1c84:	00165613          	srli	a2,a2,0x1
    1c88:	00c565b3          	or	a1,a0,a2
    1c8c:	0017d793          	srli	a5,a5,0x1
    1c90:	00068413          	mv	s0,a3
    1c94:	f8dff06f          	j	1c20 <__subdf3+0x2d0>
    1c98:	0f005c63          	blez	a6,1d90 <__subdf3+0x440>
    1c9c:	08031e63          	bnez	t1,1d38 <__subdf3+0x3e8>
    1ca0:	00c766b3          	or	a3,a4,a2
    1ca4:	44068663          	beqz	a3,20f0 <CONFIG_SRAM_SIZE+0xf0>
    1ca8:	fff80513          	addi	a0,a6,-1
    1cac:	02051063          	bnez	a0,1ccc <__subdf3+0x37c>
    1cb0:	40c58633          	sub	a2,a1,a2
    1cb4:	00c5b533          	sltu	a0,a1,a2
    1cb8:	40e787b3          	sub	a5,a5,a4
    1cbc:	40a787b3          	sub	a5,a5,a0
    1cc0:	00060593          	mv	a1,a2
    1cc4:	00100413          	li	s0,1
    1cc8:	0540006f          	j	1d1c <__subdf3+0x3cc>
    1ccc:	7ff00693          	li	a3,2047
    1cd0:	d2d80ce3          	beq	a6,a3,1a08 <__subdf3+0xb8>
    1cd4:	03800693          	li	a3,56
    1cd8:	0aa6c663          	blt	a3,a0,1d84 <__subdf3+0x434>
    1cdc:	01f00693          	li	a3,31
    1ce0:	06a6c863          	blt	a3,a0,1d50 <__subdf3+0x400>
    1ce4:	02000813          	li	a6,32
    1ce8:	40a80833          	sub	a6,a6,a0
    1cec:	010716b3          	sll	a3,a4,a6
    1cf0:	00a658b3          	srl	a7,a2,a0
    1cf4:	01061633          	sll	a2,a2,a6
    1cf8:	0116e6b3          	or	a3,a3,a7
    1cfc:	00c03633          	snez	a2,a2
    1d00:	00c6e633          	or	a2,a3,a2
    1d04:	00a75733          	srl	a4,a4,a0
    1d08:	40c58633          	sub	a2,a1,a2
    1d0c:	00c5b533          	sltu	a0,a1,a2
    1d10:	40e78733          	sub	a4,a5,a4
    1d14:	40a707b3          	sub	a5,a4,a0
    1d18:	00060593          	mv	a1,a2
    1d1c:	00800937          	lui	s2,0x800
    1d20:	0127f733          	and	a4,a5,s2
    1d24:	ee070ee3          	beqz	a4,1c20 <__subdf3+0x2d0>
    1d28:	fff90913          	addi	s2,s2,-1 # 7fffff <__data_region_end+0x7d090b>
    1d2c:	0127f933          	and	s2,a5,s2
    1d30:	00058993          	mv	s3,a1
    1d34:	2140006f          	j	1f48 <__subdf3+0x5f8>
    1d38:	7ff00693          	li	a3,2047
    1d3c:	eed402e3          	beq	s0,a3,1c20 <__subdf3+0x2d0>
    1d40:	008006b7          	lui	a3,0x800
    1d44:	00d76733          	or	a4,a4,a3
    1d48:	00080513          	mv	a0,a6
    1d4c:	f89ff06f          	j	1cd4 <__subdf3+0x384>
    1d50:	fe050693          	addi	a3,a0,-32
    1d54:	02000893          	li	a7,32
    1d58:	00d756b3          	srl	a3,a4,a3
    1d5c:	00000813          	li	a6,0
    1d60:	01150863          	beq	a0,a7,1d70 <__subdf3+0x420>
    1d64:	04000813          	li	a6,64
    1d68:	40a80533          	sub	a0,a6,a0
    1d6c:	00a71833          	sll	a6,a4,a0
    1d70:	00c86633          	or	a2,a6,a2
    1d74:	00c03633          	snez	a2,a2
    1d78:	00c6e633          	or	a2,a3,a2
    1d7c:	00000713          	li	a4,0
    1d80:	f89ff06f          	j	1d08 <__subdf3+0x3b8>
    1d84:	00c76633          	or	a2,a4,a2
    1d88:	00c03633          	snez	a2,a2
    1d8c:	ff1ff06f          	j	1d7c <__subdf3+0x42c>
    1d90:	0e080863          	beqz	a6,1e80 <__subdf3+0x530>
    1d94:	40830533          	sub	a0,t1,s0
    1d98:	04041263          	bnez	s0,1ddc <__subdf3+0x48c>
    1d9c:	00b7e833          	or	a6,a5,a1
    1da0:	34080c63          	beqz	a6,20f8 <CONFIG_SRAM_SIZE+0xf8>
    1da4:	fff50813          	addi	a6,a0,-1
    1da8:	00081e63          	bnez	a6,1dc4 <__subdf3+0x474>
    1dac:	40b605b3          	sub	a1,a2,a1
    1db0:	40f707b3          	sub	a5,a4,a5
    1db4:	00b63633          	sltu	a2,a2,a1
    1db8:	40c787b3          	sub	a5,a5,a2
    1dbc:	00068493          	mv	s1,a3
    1dc0:	f05ff06f          	j	1cc4 <__subdf3+0x374>
    1dc4:	7ff00893          	li	a7,2047
    1dc8:	03151463          	bne	a0,a7,1df0 <__subdf3+0x4a0>
    1dcc:	00070793          	mv	a5,a4
    1dd0:	00060593          	mv	a1,a2
    1dd4:	7ff00413          	li	s0,2047
    1dd8:	0d00006f          	j	1ea8 <__subdf3+0x558>
    1ddc:	7ff00813          	li	a6,2047
    1de0:	ff0306e3          	beq	t1,a6,1dcc <__subdf3+0x47c>
    1de4:	00800837          	lui	a6,0x800
    1de8:	0107e7b3          	or	a5,a5,a6
    1dec:	00050813          	mv	a6,a0
    1df0:	03800513          	li	a0,56
    1df4:	09054063          	blt	a0,a6,1e74 <__subdf3+0x524>
    1df8:	01f00513          	li	a0,31
    1dfc:	05054263          	blt	a0,a6,1e40 <__subdf3+0x4f0>
    1e00:	02000893          	li	a7,32
    1e04:	410888b3          	sub	a7,a7,a6
    1e08:	01179533          	sll	a0,a5,a7
    1e0c:	0105de33          	srl	t3,a1,a6
    1e10:	011595b3          	sll	a1,a1,a7
    1e14:	01c56533          	or	a0,a0,t3
    1e18:	00b035b3          	snez	a1,a1
    1e1c:	00b56533          	or	a0,a0,a1
    1e20:	0107d7b3          	srl	a5,a5,a6
    1e24:	40a605b3          	sub	a1,a2,a0
    1e28:	40f707b3          	sub	a5,a4,a5
    1e2c:	00b63633          	sltu	a2,a2,a1
    1e30:	40c787b3          	sub	a5,a5,a2
    1e34:	00030413          	mv	s0,t1
    1e38:	00068493          	mv	s1,a3
    1e3c:	ee1ff06f          	j	1d1c <__subdf3+0x3cc>
    1e40:	fe080513          	addi	a0,a6,-32 # 7fffe0 <__data_region_end+0x7d08ec>
    1e44:	02000e13          	li	t3,32
    1e48:	00a7d8b3          	srl	a7,a5,a0
    1e4c:	00000513          	li	a0,0
    1e50:	01c80863          	beq	a6,t3,1e60 <__subdf3+0x510>
    1e54:	04000513          	li	a0,64
    1e58:	41050533          	sub	a0,a0,a6
    1e5c:	00a79533          	sll	a0,a5,a0
    1e60:	00b56533          	or	a0,a0,a1
    1e64:	00a03533          	snez	a0,a0
    1e68:	00a8e533          	or	a0,a7,a0
    1e6c:	00000793          	li	a5,0
    1e70:	fb5ff06f          	j	1e24 <__subdf3+0x4d4>
    1e74:	00b7e533          	or	a0,a5,a1
    1e78:	00a03533          	snez	a0,a0
    1e7c:	ff1ff06f          	j	1e6c <__subdf3+0x51c>
    1e80:	00140513          	addi	a0,s0,1
    1e84:	7fe57513          	andi	a0,a0,2046
    1e88:	08051863          	bnez	a0,1f18 <__subdf3+0x5c8>
    1e8c:	00c76533          	or	a0,a4,a2
    1e90:	00b7e833          	or	a6,a5,a1
    1e94:	06041263          	bnez	s0,1ef8 <__subdf3+0x5a8>
    1e98:	00081c63          	bnez	a6,1eb0 <__subdf3+0x560>
    1e9c:	26050663          	beqz	a0,2108 <CONFIG_SRAM_SIZE+0x108>
    1ea0:	00070793          	mv	a5,a4
    1ea4:	00060593          	mv	a1,a2
    1ea8:	00068493          	mv	s1,a3
    1eac:	d75ff06f          	j	1c20 <__subdf3+0x2d0>
    1eb0:	d60508e3          	beqz	a0,1c20 <__subdf3+0x2d0>
    1eb4:	40c58833          	sub	a6,a1,a2
    1eb8:	0105b8b3          	sltu	a7,a1,a6
    1ebc:	40e78533          	sub	a0,a5,a4
    1ec0:	41150533          	sub	a0,a0,a7
    1ec4:	008008b7          	lui	a7,0x800
    1ec8:	011578b3          	and	a7,a0,a7
    1ecc:	00088c63          	beqz	a7,1ee4 <__subdf3+0x594>
    1ed0:	40b605b3          	sub	a1,a2,a1
    1ed4:	40f707b3          	sub	a5,a4,a5
    1ed8:	00b63633          	sltu	a2,a2,a1
    1edc:	40c787b3          	sub	a5,a5,a2
    1ee0:	fc9ff06f          	j	1ea8 <__subdf3+0x558>
    1ee4:	00a865b3          	or	a1,a6,a0
    1ee8:	22058863          	beqz	a1,2118 <CONFIG_SRAM_SIZE+0x118>
    1eec:	00050793          	mv	a5,a0
    1ef0:	00080593          	mv	a1,a6
    1ef4:	d2dff06f          	j	1c20 <__subdf3+0x2d0>
    1ef8:	00081c63          	bnez	a6,1f10 <__subdf3+0x5c0>
    1efc:	22050263          	beqz	a0,2120 <CONFIG_SRAM_SIZE+0x120>
    1f00:	00070793          	mv	a5,a4
    1f04:	00060593          	mv	a1,a2
    1f08:	00068493          	mv	s1,a3
    1f0c:	afdff06f          	j	1a08 <__subdf3+0xb8>
    1f10:	ae050ce3          	beqz	a0,1a08 <__subdf3+0xb8>
    1f14:	d41ff06f          	j	1c54 <__subdf3+0x304>
    1f18:	40c589b3          	sub	s3,a1,a2
    1f1c:	0135b533          	sltu	a0,a1,s3
    1f20:	40e78933          	sub	s2,a5,a4
    1f24:	40a90933          	sub	s2,s2,a0
    1f28:	00800537          	lui	a0,0x800
    1f2c:	00a97533          	and	a0,s2,a0
    1f30:	08050463          	beqz	a0,1fb8 <__subdf3+0x668>
    1f34:	40b609b3          	sub	s3,a2,a1
    1f38:	40f707b3          	sub	a5,a4,a5
    1f3c:	01363633          	sltu	a2,a2,s3
    1f40:	40c78933          	sub	s2,a5,a2
    1f44:	00068493          	mv	s1,a3
    1f48:	08090263          	beqz	s2,1fcc <__subdf3+0x67c>
    1f4c:	00090513          	mv	a0,s2
    1f50:	ba0fe0ef          	jal	ra,2f0 <__clzsi2>
    1f54:	ff850713          	addi	a4,a0,-8 # 7ffff8 <__data_region_end+0x7d0904>
    1f58:	01f00793          	li	a5,31
    1f5c:	08e7c063          	blt	a5,a4,1fdc <__subdf3+0x68c>
    1f60:	02000793          	li	a5,32
    1f64:	40e787b3          	sub	a5,a5,a4
    1f68:	00e91933          	sll	s2,s2,a4
    1f6c:	00f9d7b3          	srl	a5,s3,a5
    1f70:	0127e7b3          	or	a5,a5,s2
    1f74:	00e995b3          	sll	a1,s3,a4
    1f78:	0a874463          	blt	a4,s0,2020 <CONFIG_SRAM_SIZE+0x20>
    1f7c:	40870733          	sub	a4,a4,s0
    1f80:	00170693          	addi	a3,a4,1
    1f84:	01f00613          	li	a2,31
    1f88:	06d64263          	blt	a2,a3,1fec <__subdf3+0x69c>
    1f8c:	02000713          	li	a4,32
    1f90:	40d70733          	sub	a4,a4,a3
    1f94:	00e79633          	sll	a2,a5,a4
    1f98:	00d5d533          	srl	a0,a1,a3
    1f9c:	00e595b3          	sll	a1,a1,a4
    1fa0:	00a66633          	or	a2,a2,a0
    1fa4:	00b035b3          	snez	a1,a1
    1fa8:	00b665b3          	or	a1,a2,a1
    1fac:	00d7d7b3          	srl	a5,a5,a3
    1fb0:	00000413          	li	s0,0
    1fb4:	c6dff06f          	j	1c20 <__subdf3+0x2d0>
    1fb8:	0129e5b3          	or	a1,s3,s2
    1fbc:	f80596e3          	bnez	a1,1f48 <__subdf3+0x5f8>
    1fc0:	00000793          	li	a5,0
    1fc4:	00000413          	li	s0,0
    1fc8:	1480006f          	j	2110 <CONFIG_SRAM_SIZE+0x110>
    1fcc:	00098513          	mv	a0,s3
    1fd0:	b20fe0ef          	jal	ra,2f0 <__clzsi2>
    1fd4:	02050513          	addi	a0,a0,32
    1fd8:	f7dff06f          	j	1f54 <__subdf3+0x604>
    1fdc:	fd850793          	addi	a5,a0,-40
    1fe0:	00f997b3          	sll	a5,s3,a5
    1fe4:	00000593          	li	a1,0
    1fe8:	f91ff06f          	j	1f78 <__subdf3+0x628>
    1fec:	fe170713          	addi	a4,a4,-31
    1ff0:	02000613          	li	a2,32
    1ff4:	00e7d733          	srl	a4,a5,a4
    1ff8:	00000513          	li	a0,0
    1ffc:	00c68863          	beq	a3,a2,200c <CONFIG_SRAM_SIZE+0xc>
    2000:	04000513          	li	a0,64
    2004:	40d50533          	sub	a0,a0,a3
    2008:	00a79533          	sll	a0,a5,a0
    200c:	00a5e533          	or	a0,a1,a0
    2010:	00a03533          	snez	a0,a0
    2014:	00a765b3          	or	a1,a4,a0
    2018:	00000793          	li	a5,0
    201c:	f95ff06f          	j	1fb0 <__subdf3+0x660>
    2020:	40e40433          	sub	s0,s0,a4
    2024:	ff800737          	lui	a4,0xff800
    2028:	fff70713          	addi	a4,a4,-1 # ff7fffff <CONFIG_SYSTEM_WORKQUEUE_PRIORITY+0xff800000>
    202c:	00e7f7b3          	and	a5,a5,a4
    2030:	bf1ff06f          	j	1c20 <__subdf3+0x2d0>
    2034:	00070793          	mv	a5,a4
    2038:	00060593          	mv	a1,a2
    203c:	00050413          	mv	s0,a0
    2040:	be1ff06f          	j	1c20 <__subdf3+0x2d0>
    2044:	00070793          	mv	a5,a4
    2048:	00060593          	mv	a1,a2
    204c:	bd5ff06f          	j	1c20 <__subdf3+0x2d0>
    2050:	7ff00413          	li	s0,2047
    2054:	00000793          	li	a5,0
    2058:	00000593          	li	a1,0
    205c:	00800737          	lui	a4,0x800
    2060:	00e7f733          	and	a4,a5,a4
    2064:	00070e63          	beqz	a4,2080 <CONFIG_SRAM_SIZE+0x80>
    2068:	00140413          	addi	s0,s0,1
    206c:	7ff00713          	li	a4,2047
    2070:	0ce40063          	beq	s0,a4,2130 <CONFIG_SRAM_SIZE+0x130>
    2074:	ff800737          	lui	a4,0xff800
    2078:	fff70713          	addi	a4,a4,-1 # ff7fffff <CONFIG_SYSTEM_WORKQUEUE_PRIORITY+0xff800000>
    207c:	00e7f7b3          	and	a5,a5,a4
    2080:	01d79713          	slli	a4,a5,0x1d
    2084:	0035d513          	srli	a0,a1,0x3
    2088:	00a76533          	or	a0,a4,a0
    208c:	7ff00713          	li	a4,2047
    2090:	0037d793          	srli	a5,a5,0x3
    2094:	00e41e63          	bne	s0,a4,20b0 <CONFIG_SRAM_SIZE+0xb0>
    2098:	00f56533          	or	a0,a0,a5
    209c:	00000793          	li	a5,0
    20a0:	00050863          	beqz	a0,20b0 <CONFIG_SRAM_SIZE+0xb0>
    20a4:	000807b7          	lui	a5,0x80
    20a8:	00000513          	li	a0,0
    20ac:	00000493          	li	s1,0
    20b0:	01441713          	slli	a4,s0,0x14
    20b4:	7ff006b7          	lui	a3,0x7ff00
    20b8:	00c79793          	slli	a5,a5,0xc
    20bc:	01c12083          	lw	ra,28(sp)
    20c0:	01812403          	lw	s0,24(sp)
    20c4:	00d77733          	and	a4,a4,a3
    20c8:	00c7d793          	srli	a5,a5,0xc
    20cc:	01f49493          	slli	s1,s1,0x1f
    20d0:	00f767b3          	or	a5,a4,a5
    20d4:	0097e733          	or	a4,a5,s1
    20d8:	01012903          	lw	s2,16(sp)
    20dc:	01412483          	lw	s1,20(sp)
    20e0:	00c12983          	lw	s3,12(sp)
    20e4:	00070593          	mv	a1,a4
    20e8:	02010113          	addi	sp,sp,32
    20ec:	00008067          	ret
    20f0:	00080413          	mv	s0,a6
    20f4:	b2dff06f          	j	1c20 <__subdf3+0x2d0>
    20f8:	00070793          	mv	a5,a4
    20fc:	00060593          	mv	a1,a2
    2100:	00050413          	mv	s0,a0
    2104:	da5ff06f          	j	1ea8 <__subdf3+0x558>
    2108:	00000793          	li	a5,0
    210c:	00000593          	li	a1,0
    2110:	00000493          	li	s1,0
    2114:	f49ff06f          	j	205c <CONFIG_SRAM_SIZE+0x5c>
    2118:	00000793          	li	a5,0
    211c:	ff5ff06f          	j	2110 <CONFIG_SRAM_SIZE+0x110>
    2120:	00000593          	li	a1,0
    2124:	00000493          	li	s1,0
    2128:	004007b7          	lui	a5,0x400
    212c:	b35ff06f          	j	1c60 <__subdf3+0x310>
    2130:	00000793          	li	a5,0
    2134:	00000593          	li	a1,0
    2138:	f49ff06f          	j	2080 <CONFIG_SRAM_SIZE+0x80>

0000213c <__floatunsidf>:
    213c:	ff010113          	addi	sp,sp,-16
    2140:	00812423          	sw	s0,8(sp)
    2144:	00112623          	sw	ra,12(sp)
    2148:	00050413          	mv	s0,a0
    214c:	06050263          	beqz	a0,21b0 <__floatunsidf+0x74>
    2150:	9a0fe0ef          	jal	ra,2f0 <__clzsi2>
    2154:	41e00713          	li	a4,1054
    2158:	00a00793          	li	a5,10
    215c:	40a70733          	sub	a4,a4,a0
    2160:	04a7c063          	blt	a5,a0,21a0 <__floatunsidf+0x64>
    2164:	00b00793          	li	a5,11
    2168:	40a787b3          	sub	a5,a5,a0
    216c:	01550513          	addi	a0,a0,21
    2170:	00f457b3          	srl	a5,s0,a5
    2174:	00a41433          	sll	s0,s0,a0
    2178:	00c12083          	lw	ra,12(sp)
    217c:	00040513          	mv	a0,s0
    2180:	00c79793          	slli	a5,a5,0xc
    2184:	00812403          	lw	s0,8(sp)
    2188:	01471713          	slli	a4,a4,0x14
    218c:	00c7d793          	srli	a5,a5,0xc
    2190:	00f766b3          	or	a3,a4,a5
    2194:	00068593          	mv	a1,a3
    2198:	01010113          	addi	sp,sp,16
    219c:	00008067          	ret
    21a0:	ff550793          	addi	a5,a0,-11
    21a4:	00f417b3          	sll	a5,s0,a5
    21a8:	00000413          	li	s0,0
    21ac:	fcdff06f          	j	2178 <__floatunsidf+0x3c>
    21b0:	00000793          	li	a5,0
    21b4:	00000713          	li	a4,0
    21b8:	fc1ff06f          	j	2178 <__floatunsidf+0x3c>

000021bc <__addsf3>:
    21bc:	00800737          	lui	a4,0x800
    21c0:	ff010113          	addi	sp,sp,-16
    21c4:	fff70713          	addi	a4,a4,-1 # 7fffff <__data_region_end+0x7d090b>
    21c8:	00a777b3          	and	a5,a4,a0
    21cc:	00812423          	sw	s0,8(sp)
    21d0:	00912223          	sw	s1,4(sp)
    21d4:	01755413          	srli	s0,a0,0x17
    21d8:	01f55493          	srli	s1,a0,0x1f
    21dc:	0175d513          	srli	a0,a1,0x17
    21e0:	00b77733          	and	a4,a4,a1
    21e4:	0ff47413          	andi	s0,s0,255
    21e8:	0ff57513          	andi	a0,a0,255
    21ec:	00112623          	sw	ra,12(sp)
    21f0:	01212023          	sw	s2,0(sp)
    21f4:	01f5d593          	srli	a1,a1,0x1f
    21f8:	00379793          	slli	a5,a5,0x3
    21fc:	00371713          	slli	a4,a4,0x3
    2200:	40a406b3          	sub	a3,s0,a0
    2204:	18b49a63          	bne	s1,a1,2398 <__addsf3+0x1dc>
    2208:	0ad05063          	blez	a3,22a8 <__addsf3+0xec>
    220c:	02051663          	bnez	a0,2238 <__addsf3+0x7c>
    2210:	18070063          	beqz	a4,2390 <__addsf3+0x1d4>
    2214:	fff68613          	addi	a2,a3,-1 # 7fefffff <CONFIG_SYS_CLOCK_HW_CYCLES_PER_SEC+0x7cf50f7f>
    2218:	00061863          	bnez	a2,2228 <__addsf3+0x6c>
    221c:	00e787b3          	add	a5,a5,a4
    2220:	00100413          	li	s0,1
    2224:	0500006f          	j	2274 <__addsf3+0xb8>
    2228:	0ff00593          	li	a1,255
    222c:	02b69063          	bne	a3,a1,224c <__addsf3+0x90>
    2230:	0ff00413          	li	s0,255
    2234:	1180006f          	j	234c <__addsf3+0x190>
    2238:	0ff00613          	li	a2,255
    223c:	10c40863          	beq	s0,a2,234c <__addsf3+0x190>
    2240:	04000637          	lui	a2,0x4000
    2244:	00c76733          	or	a4,a4,a2
    2248:	00068613          	mv	a2,a3
    224c:	01b00593          	li	a1,27
    2250:	00100693          	li	a3,1
    2254:	00c5ce63          	blt	a1,a2,2270 <__addsf3+0xb4>
    2258:	02000693          	li	a3,32
    225c:	40c686b3          	sub	a3,a3,a2
    2260:	00c755b3          	srl	a1,a4,a2
    2264:	00d71733          	sll	a4,a4,a3
    2268:	00e03733          	snez	a4,a4
    226c:	00e5e6b3          	or	a3,a1,a4
    2270:	00d787b3          	add	a5,a5,a3
    2274:	04000737          	lui	a4,0x4000
    2278:	00e7f733          	and	a4,a5,a4
    227c:	0c070863          	beqz	a4,234c <__addsf3+0x190>
    2280:	00140413          	addi	s0,s0,1
    2284:	0ff00713          	li	a4,255
    2288:	30e40263          	beq	s0,a4,258c <__addsf3+0x3d0>
    228c:	7e000737          	lui	a4,0x7e000
    2290:	0017f693          	andi	a3,a5,1
    2294:	fff70713          	addi	a4,a4,-1 # 7dffffff <CONFIG_SYS_CLOCK_HW_CYCLES_PER_SEC+0x7b050f7f>
    2298:	0017d793          	srli	a5,a5,0x1
    229c:	00e7f7b3          	and	a5,a5,a4
    22a0:	00d7e7b3          	or	a5,a5,a3
    22a4:	0a80006f          	j	234c <__addsf3+0x190>
    22a8:	06068663          	beqz	a3,2314 <__addsf3+0x158>
    22ac:	408506b3          	sub	a3,a0,s0
    22b0:	02041063          	bnez	s0,22d0 <__addsf3+0x114>
    22b4:	2c078263          	beqz	a5,2578 <__addsf3+0x3bc>
    22b8:	fff68613          	addi	a2,a3,-1
    22bc:	f60600e3          	beqz	a2,221c <__addsf3+0x60>
    22c0:	0ff00593          	li	a1,255
    22c4:	02b69063          	bne	a3,a1,22e4 <__addsf3+0x128>
    22c8:	00070793          	mv	a5,a4
    22cc:	f65ff06f          	j	2230 <__addsf3+0x74>
    22d0:	0ff00613          	li	a2,255
    22d4:	fec50ae3          	beq	a0,a2,22c8 <__addsf3+0x10c>
    22d8:	04000637          	lui	a2,0x4000
    22dc:	00c7e7b3          	or	a5,a5,a2
    22e0:	00068613          	mv	a2,a3
    22e4:	01b00593          	li	a1,27
    22e8:	00100693          	li	a3,1
    22ec:	00c5ce63          	blt	a1,a2,2308 <__addsf3+0x14c>
    22f0:	02000693          	li	a3,32
    22f4:	40c686b3          	sub	a3,a3,a2
    22f8:	00c7d5b3          	srl	a1,a5,a2
    22fc:	00d797b3          	sll	a5,a5,a3
    2300:	00f037b3          	snez	a5,a5
    2304:	00f5e6b3          	or	a3,a1,a5
    2308:	00e687b3          	add	a5,a3,a4
    230c:	00050413          	mv	s0,a0
    2310:	f65ff06f          	j	2274 <__addsf3+0xb8>
    2314:	00140693          	addi	a3,s0,1
    2318:	0fe6f613          	andi	a2,a3,254
    231c:	06061263          	bnez	a2,2380 <__addsf3+0x1c4>
    2320:	04041463          	bnez	s0,2368 <__addsf3+0x1ac>
    2324:	24078e63          	beqz	a5,2580 <__addsf3+0x3c4>
    2328:	02070263          	beqz	a4,234c <__addsf3+0x190>
    232c:	00e787b3          	add	a5,a5,a4
    2330:	04000737          	lui	a4,0x4000
    2334:	00e7f733          	and	a4,a5,a4
    2338:	00070a63          	beqz	a4,234c <__addsf3+0x190>
    233c:	fc000737          	lui	a4,0xfc000
    2340:	fff70713          	addi	a4,a4,-1 # fbffffff <CONFIG_SYSTEM_WORKQUEUE_PRIORITY+0xfc000000>
    2344:	00e7f7b3          	and	a5,a5,a4
    2348:	00100413          	li	s0,1
    234c:	0077f713          	andi	a4,a5,7
    2350:	24070063          	beqz	a4,2590 <__addsf3+0x3d4>
    2354:	00f7f713          	andi	a4,a5,15
    2358:	00400693          	li	a3,4
    235c:	22d70a63          	beq	a4,a3,2590 <__addsf3+0x3d4>
    2360:	00478793          	addi	a5,a5,4 # 400004 <__data_region_end+0x3d0910>
    2364:	22c0006f          	j	2590 <__addsf3+0x3d4>
    2368:	f60780e3          	beqz	a5,22c8 <__addsf3+0x10c>
    236c:	ec0702e3          	beqz	a4,2230 <__addsf3+0x74>
    2370:	00000493          	li	s1,0
    2374:	020007b7          	lui	a5,0x2000
    2378:	0ff00413          	li	s0,255
    237c:	2140006f          	j	2590 <__addsf3+0x3d4>
    2380:	0ff00613          	li	a2,255
    2384:	20c68263          	beq	a3,a2,2588 <__addsf3+0x3cc>
    2388:	00e787b3          	add	a5,a5,a4
    238c:	0017d793          	srli	a5,a5,0x1
    2390:	00068413          	mv	s0,a3
    2394:	fb9ff06f          	j	234c <__addsf3+0x190>
    2398:	08d05063          	blez	a3,2418 <__addsf3+0x25c>
    239c:	06051263          	bnez	a0,2400 <__addsf3+0x244>
    23a0:	fe0708e3          	beqz	a4,2390 <__addsf3+0x1d4>
    23a4:	fff68613          	addi	a2,a3,-1
    23a8:	00061863          	bnez	a2,23b8 <__addsf3+0x1fc>
    23ac:	40e787b3          	sub	a5,a5,a4
    23b0:	00100413          	li	s0,1
    23b4:	0340006f          	j	23e8 <__addsf3+0x22c>
    23b8:	0ff00593          	li	a1,255
    23bc:	e6b68ae3          	beq	a3,a1,2230 <__addsf3+0x74>
    23c0:	01b00593          	li	a1,27
    23c4:	00100693          	li	a3,1
    23c8:	00c5ce63          	blt	a1,a2,23e4 <__addsf3+0x228>
    23cc:	02000693          	li	a3,32
    23d0:	40c686b3          	sub	a3,a3,a2
    23d4:	00c755b3          	srl	a1,a4,a2
    23d8:	00d71733          	sll	a4,a4,a3
    23dc:	00e03733          	snez	a4,a4
    23e0:	00e5e6b3          	or	a3,a1,a4
    23e4:	40d787b3          	sub	a5,a5,a3
    23e8:	04000937          	lui	s2,0x4000
    23ec:	0127f733          	and	a4,a5,s2
    23f0:	f4070ee3          	beqz	a4,234c <__addsf3+0x190>
    23f4:	fff90913          	addi	s2,s2,-1 # 3ffffff <CONFIG_SYS_CLOCK_HW_CYCLES_PER_SEC+0x1050f7f>
    23f8:	0127f933          	and	s2,a5,s2
    23fc:	1180006f          	j	2514 <__addsf3+0x358>
    2400:	0ff00613          	li	a2,255
    2404:	f4c404e3          	beq	s0,a2,234c <__addsf3+0x190>
    2408:	04000637          	lui	a2,0x4000
    240c:	00c76733          	or	a4,a4,a2
    2410:	00068613          	mv	a2,a3
    2414:	fadff06f          	j	23c0 <__addsf3+0x204>
    2418:	08068063          	beqz	a3,2498 <__addsf3+0x2dc>
    241c:	408506b3          	sub	a3,a0,s0
    2420:	02041863          	bnez	s0,2450 <__addsf3+0x294>
    2424:	1e078063          	beqz	a5,2604 <__addsf3+0x448>
    2428:	fff68613          	addi	a2,a3,-1
    242c:	00061863          	bnez	a2,243c <__addsf3+0x280>
    2430:	40f707b3          	sub	a5,a4,a5
    2434:	00058493          	mv	s1,a1
    2438:	f79ff06f          	j	23b0 <__addsf3+0x1f4>
    243c:	0ff00813          	li	a6,255
    2440:	03069263          	bne	a3,a6,2464 <__addsf3+0x2a8>
    2444:	00070793          	mv	a5,a4
    2448:	0ff00413          	li	s0,255
    244c:	06c0006f          	j	24b8 <__addsf3+0x2fc>
    2450:	0ff00613          	li	a2,255
    2454:	fec508e3          	beq	a0,a2,2444 <__addsf3+0x288>
    2458:	04000637          	lui	a2,0x4000
    245c:	00c7e7b3          	or	a5,a5,a2
    2460:	00068613          	mv	a2,a3
    2464:	01b00813          	li	a6,27
    2468:	00100693          	li	a3,1
    246c:	00c84e63          	blt	a6,a2,2488 <__addsf3+0x2cc>
    2470:	02000693          	li	a3,32
    2474:	40c686b3          	sub	a3,a3,a2
    2478:	00c7d833          	srl	a6,a5,a2
    247c:	00d797b3          	sll	a5,a5,a3
    2480:	00f037b3          	snez	a5,a5
    2484:	00f866b3          	or	a3,a6,a5
    2488:	40d707b3          	sub	a5,a4,a3
    248c:	00050413          	mv	s0,a0
    2490:	00058493          	mv	s1,a1
    2494:	f55ff06f          	j	23e8 <__addsf3+0x22c>
    2498:	00140693          	addi	a3,s0,1
    249c:	0fe6f693          	andi	a3,a3,254
    24a0:	04069e63          	bnez	a3,24fc <__addsf3+0x340>
    24a4:	04041263          	bnez	s0,24e8 <__addsf3+0x32c>
    24a8:	00079c63          	bnez	a5,24c0 <__addsf3+0x304>
    24ac:	00000493          	li	s1,0
    24b0:	0e070063          	beqz	a4,2590 <__addsf3+0x3d4>
    24b4:	00070793          	mv	a5,a4
    24b8:	00058493          	mv	s1,a1
    24bc:	e91ff06f          	j	234c <__addsf3+0x190>
    24c0:	e80706e3          	beqz	a4,234c <__addsf3+0x190>
    24c4:	40e786b3          	sub	a3,a5,a4
    24c8:	04000637          	lui	a2,0x4000
    24cc:	00c6f633          	and	a2,a3,a2
    24d0:	40f707b3          	sub	a5,a4,a5
    24d4:	fe0612e3          	bnez	a2,24b8 <__addsf3+0x2fc>
    24d8:	00000793          	li	a5,0
    24dc:	08068063          	beqz	a3,255c <__addsf3+0x3a0>
    24e0:	00068793          	mv	a5,a3
    24e4:	e69ff06f          	j	234c <__addsf3+0x190>
    24e8:	e80792e3          	bnez	a5,236c <__addsf3+0x1b0>
    24ec:	e80702e3          	beqz	a4,2370 <__addsf3+0x1b4>
    24f0:	00070793          	mv	a5,a4
    24f4:	00058493          	mv	s1,a1
    24f8:	d39ff06f          	j	2230 <__addsf3+0x74>
    24fc:	40e78933          	sub	s2,a5,a4
    2500:	040006b7          	lui	a3,0x4000
    2504:	00d976b3          	and	a3,s2,a3
    2508:	04068463          	beqz	a3,2550 <__addsf3+0x394>
    250c:	40f70933          	sub	s2,a4,a5
    2510:	00058493          	mv	s1,a1
    2514:	00090513          	mv	a0,s2
    2518:	dd9fd0ef          	jal	ra,2f0 <__clzsi2>
    251c:	ffb50513          	addi	a0,a0,-5
    2520:	00a91933          	sll	s2,s2,a0
    2524:	04854063          	blt	a0,s0,2564 <__addsf3+0x3a8>
    2528:	40850533          	sub	a0,a0,s0
    252c:	00150513          	addi	a0,a0,1
    2530:	02000413          	li	s0,32
    2534:	00a957b3          	srl	a5,s2,a0
    2538:	40a40533          	sub	a0,s0,a0
    253c:	00a91933          	sll	s2,s2,a0
    2540:	01203933          	snez	s2,s2
    2544:	0127e7b3          	or	a5,a5,s2
    2548:	00000413          	li	s0,0
    254c:	e01ff06f          	j	234c <__addsf3+0x190>
    2550:	fc0912e3          	bnez	s2,2514 <__addsf3+0x358>
    2554:	00000793          	li	a5,0
    2558:	00000413          	li	s0,0
    255c:	00000493          	li	s1,0
    2560:	0300006f          	j	2590 <__addsf3+0x3d4>
    2564:	fc0007b7          	lui	a5,0xfc000
    2568:	fff78793          	addi	a5,a5,-1 # fbffffff <CONFIG_SYSTEM_WORKQUEUE_PRIORITY+0xfc000000>
    256c:	40a40433          	sub	s0,s0,a0
    2570:	00f977b3          	and	a5,s2,a5
    2574:	dd9ff06f          	j	234c <__addsf3+0x190>
    2578:	00070793          	mv	a5,a4
    257c:	e15ff06f          	j	2390 <__addsf3+0x1d4>
    2580:	00070793          	mv	a5,a4
    2584:	dc9ff06f          	j	234c <__addsf3+0x190>
    2588:	0ff00413          	li	s0,255
    258c:	00000793          	li	a5,0
    2590:	04000737          	lui	a4,0x4000
    2594:	00e7f733          	and	a4,a5,a4
    2598:	00070e63          	beqz	a4,25b4 <__addsf3+0x3f8>
    259c:	00140413          	addi	s0,s0,1
    25a0:	0ff00713          	li	a4,255
    25a4:	06e40663          	beq	s0,a4,2610 <__addsf3+0x454>
    25a8:	fc000737          	lui	a4,0xfc000
    25ac:	fff70713          	addi	a4,a4,-1 # fbffffff <CONFIG_SYSTEM_WORKQUEUE_PRIORITY+0xfc000000>
    25b0:	00e7f7b3          	and	a5,a5,a4
    25b4:	0ff00713          	li	a4,255
    25b8:	0037d793          	srli	a5,a5,0x3
    25bc:	00e41863          	bne	s0,a4,25cc <__addsf3+0x410>
    25c0:	00078663          	beqz	a5,25cc <__addsf3+0x410>
    25c4:	004007b7          	lui	a5,0x400
    25c8:	00000493          	li	s1,0
    25cc:	7f800537          	lui	a0,0x7f800
    25d0:	01741413          	slli	s0,s0,0x17
    25d4:	00979793          	slli	a5,a5,0x9
    25d8:	00a47433          	and	s0,s0,a0
    25dc:	0097d793          	srli	a5,a5,0x9
    25e0:	00c12083          	lw	ra,12(sp)
    25e4:	00f467b3          	or	a5,s0,a5
    25e8:	00812403          	lw	s0,8(sp)
    25ec:	01f49513          	slli	a0,s1,0x1f
    25f0:	00012903          	lw	s2,0(sp)
    25f4:	00412483          	lw	s1,4(sp)
    25f8:	00a7e533          	or	a0,a5,a0
    25fc:	01010113          	addi	sp,sp,16
    2600:	00008067          	ret
    2604:	00070793          	mv	a5,a4
    2608:	00068413          	mv	s0,a3
    260c:	eadff06f          	j	24b8 <__addsf3+0x2fc>
    2610:	00000793          	li	a5,0
    2614:	fa1ff06f          	j	25b4 <__addsf3+0x3f8>

00002618 <__divsf3>:
    2618:	fe010113          	addi	sp,sp,-32
    261c:	00912a23          	sw	s1,20(sp)
    2620:	01755493          	srli	s1,a0,0x17
    2624:	01212823          	sw	s2,16(sp)
    2628:	01312623          	sw	s3,12(sp)
    262c:	01412423          	sw	s4,8(sp)
    2630:	00951993          	slli	s3,a0,0x9
    2634:	00112e23          	sw	ra,28(sp)
    2638:	00812c23          	sw	s0,24(sp)
    263c:	01512223          	sw	s5,4(sp)
    2640:	0ff4f493          	andi	s1,s1,255
    2644:	00058a13          	mv	s4,a1
    2648:	0099d993          	srli	s3,s3,0x9
    264c:	01f55913          	srli	s2,a0,0x1f
    2650:	08048463          	beqz	s1,26d8 <__divsf3+0xc0>
    2654:	0ff00793          	li	a5,255
    2658:	0af48063          	beq	s1,a5,26f8 <__divsf3+0xe0>
    265c:	00399993          	slli	s3,s3,0x3
    2660:	040007b7          	lui	a5,0x4000
    2664:	00f9e9b3          	or	s3,s3,a5
    2668:	f8148493          	addi	s1,s1,-127 # 7ff81 <__data_region_end+0x5088d>
    266c:	00000a93          	li	s5,0
    2670:	017a5513          	srli	a0,s4,0x17
    2674:	009a1413          	slli	s0,s4,0x9
    2678:	0ff57513          	andi	a0,a0,255
    267c:	00945413          	srli	s0,s0,0x9
    2680:	01fa5a13          	srli	s4,s4,0x1f
    2684:	08050a63          	beqz	a0,2718 <__divsf3+0x100>
    2688:	0ff00793          	li	a5,255
    268c:	0af50663          	beq	a0,a5,2738 <__divsf3+0x120>
    2690:	00341413          	slli	s0,s0,0x3
    2694:	040007b7          	lui	a5,0x4000
    2698:	00f46433          	or	s0,s0,a5
    269c:	f8150513          	addi	a0,a0,-127 # 7f7fff81 <CONFIG_SYS_CLOCK_HW_CYCLES_PER_SEC+0x7c850f01>
    26a0:	00000793          	li	a5,0
    26a4:	002a9693          	slli	a3,s5,0x2
    26a8:	00f6e6b3          	or	a3,a3,a5
    26ac:	fff68693          	addi	a3,a3,-1 # 3ffffff <CONFIG_SYS_CLOCK_HW_CYCLES_PER_SEC+0x1050f7f>
    26b0:	00e00713          	li	a4,14
    26b4:	01494633          	xor	a2,s2,s4
    26b8:	40a48533          	sub	a0,s1,a0
    26bc:	08d76e63          	bltu	a4,a3,2758 <__divsf3+0x140>
    26c0:	0000d737          	lui	a4,0xd
    26c4:	05470713          	addi	a4,a4,84 # d054 <__clz_tab+0x178>
    26c8:	00269693          	slli	a3,a3,0x2
    26cc:	00e686b3          	add	a3,a3,a4
    26d0:	0006a703          	lw	a4,0(a3)
    26d4:	00070067          	jr	a4
    26d8:	02098a63          	beqz	s3,270c <__divsf3+0xf4>
    26dc:	00098513          	mv	a0,s3
    26e0:	c11fd0ef          	jal	ra,2f0 <__clzsi2>
    26e4:	ffb50793          	addi	a5,a0,-5
    26e8:	f8a00493          	li	s1,-118
    26ec:	00f999b3          	sll	s3,s3,a5
    26f0:	40a484b3          	sub	s1,s1,a0
    26f4:	f79ff06f          	j	266c <__divsf3+0x54>
    26f8:	0ff00493          	li	s1,255
    26fc:	00200a93          	li	s5,2
    2700:	f60988e3          	beqz	s3,2670 <__divsf3+0x58>
    2704:	00300a93          	li	s5,3
    2708:	f69ff06f          	j	2670 <__divsf3+0x58>
    270c:	00000493          	li	s1,0
    2710:	00100a93          	li	s5,1
    2714:	f5dff06f          	j	2670 <__divsf3+0x58>
    2718:	02040a63          	beqz	s0,274c <__divsf3+0x134>
    271c:	00040513          	mv	a0,s0
    2720:	bd1fd0ef          	jal	ra,2f0 <__clzsi2>
    2724:	ffb50793          	addi	a5,a0,-5
    2728:	00f41433          	sll	s0,s0,a5
    272c:	f8a00793          	li	a5,-118
    2730:	40a78533          	sub	a0,a5,a0
    2734:	f6dff06f          	j	26a0 <__divsf3+0x88>
    2738:	0ff00513          	li	a0,255
    273c:	00200793          	li	a5,2
    2740:	f60402e3          	beqz	s0,26a4 <__divsf3+0x8c>
    2744:	00300793          	li	a5,3
    2748:	f5dff06f          	j	26a4 <__divsf3+0x8c>
    274c:	00000513          	li	a0,0
    2750:	00100793          	li	a5,1
    2754:	f51ff06f          	j	26a4 <__divsf3+0x8c>
    2758:	00541813          	slli	a6,s0,0x5
    275c:	1289f463          	bgeu	s3,s0,2884 <__divsf3+0x26c>
    2760:	fff50513          	addi	a0,a0,-1
    2764:	00000693          	li	a3,0
    2768:	01085413          	srli	s0,a6,0x10
    276c:	0289d333          	divu	t1,s3,s0
    2770:	000107b7          	lui	a5,0x10
    2774:	fff78793          	addi	a5,a5,-1 # ffff <kheap__system_heap+0xd6f>
    2778:	00f877b3          	and	a5,a6,a5
    277c:	0106d693          	srli	a3,a3,0x10
    2780:	0289f733          	remu	a4,s3,s0
    2784:	00030593          	mv	a1,t1
    2788:	026788b3          	mul	a7,a5,t1
    278c:	01071713          	slli	a4,a4,0x10
    2790:	00e6e733          	or	a4,a3,a4
    2794:	01177e63          	bgeu	a4,a7,27b0 <__divsf3+0x198>
    2798:	01070733          	add	a4,a4,a6
    279c:	fff30593          	addi	a1,t1,-1 # ffff <kheap__system_heap+0xd6f>
    27a0:	01076863          	bltu	a4,a6,27b0 <__divsf3+0x198>
    27a4:	01177663          	bgeu	a4,a7,27b0 <__divsf3+0x198>
    27a8:	ffe30593          	addi	a1,t1,-2
    27ac:	01070733          	add	a4,a4,a6
    27b0:	41170733          	sub	a4,a4,a7
    27b4:	028758b3          	divu	a7,a4,s0
    27b8:	02877733          	remu	a4,a4,s0
    27bc:	031786b3          	mul	a3,a5,a7
    27c0:	01071793          	slli	a5,a4,0x10
    27c4:	00088713          	mv	a4,a7
    27c8:	00d7fe63          	bgeu	a5,a3,27e4 <__divsf3+0x1cc>
    27cc:	010787b3          	add	a5,a5,a6
    27d0:	fff88713          	addi	a4,a7,-1 # 7fffff <__data_region_end+0x7d090b>
    27d4:	0107e863          	bltu	a5,a6,27e4 <__divsf3+0x1cc>
    27d8:	00d7f663          	bgeu	a5,a3,27e4 <__divsf3+0x1cc>
    27dc:	ffe88713          	addi	a4,a7,-2
    27e0:	010787b3          	add	a5,a5,a6
    27e4:	01059413          	slli	s0,a1,0x10
    27e8:	40d787b3          	sub	a5,a5,a3
    27ec:	00e46433          	or	s0,s0,a4
    27f0:	00f037b3          	snez	a5,a5
    27f4:	00f46433          	or	s0,s0,a5
    27f8:	07f50713          	addi	a4,a0,127
    27fc:	0ce05e63          	blez	a4,28d8 <__divsf3+0x2c0>
    2800:	00747793          	andi	a5,s0,7
    2804:	00078a63          	beqz	a5,2818 <__divsf3+0x200>
    2808:	00f47793          	andi	a5,s0,15
    280c:	00400693          	li	a3,4
    2810:	00d78463          	beq	a5,a3,2818 <__divsf3+0x200>
    2814:	00440413          	addi	s0,s0,4
    2818:	080007b7          	lui	a5,0x8000
    281c:	00f477b3          	and	a5,s0,a5
    2820:	00078a63          	beqz	a5,2834 <__divsf3+0x21c>
    2824:	f80007b7          	lui	a5,0xf8000
    2828:	fff78793          	addi	a5,a5,-1 # f7ffffff <CONFIG_SYSTEM_WORKQUEUE_PRIORITY+0xf8000000>
    282c:	00f47433          	and	s0,s0,a5
    2830:	08050713          	addi	a4,a0,128
    2834:	0fe00793          	li	a5,254
    2838:	00345413          	srli	s0,s0,0x3
    283c:	06e7cc63          	blt	a5,a4,28b4 <__divsf3+0x29c>
    2840:	01771793          	slli	a5,a4,0x17
    2844:	00941413          	slli	s0,s0,0x9
    2848:	7f800737          	lui	a4,0x7f800
    284c:	00e7f7b3          	and	a5,a5,a4
    2850:	00945413          	srli	s0,s0,0x9
    2854:	0087e433          	or	s0,a5,s0
    2858:	01f61513          	slli	a0,a2,0x1f
    285c:	01c12083          	lw	ra,28(sp)
    2860:	00a46533          	or	a0,s0,a0
    2864:	01812403          	lw	s0,24(sp)
    2868:	01412483          	lw	s1,20(sp)
    286c:	01012903          	lw	s2,16(sp)
    2870:	00c12983          	lw	s3,12(sp)
    2874:	00812a03          	lw	s4,8(sp)
    2878:	00412a83          	lw	s5,4(sp)
    287c:	02010113          	addi	sp,sp,32
    2880:	00008067          	ret
    2884:	01f99693          	slli	a3,s3,0x1f
    2888:	0019d993          	srli	s3,s3,0x1
    288c:	eddff06f          	j	2768 <__divsf3+0x150>
    2890:	00090613          	mv	a2,s2
    2894:	00098413          	mv	s0,s3
    2898:	000a8793          	mv	a5,s5
    289c:	00300713          	li	a4,3
    28a0:	08e78863          	beq	a5,a4,2930 <__divsf3+0x318>
    28a4:	00100713          	li	a4,1
    28a8:	08e78c63          	beq	a5,a4,2940 <__divsf3+0x328>
    28ac:	00200713          	li	a4,2
    28b0:	f4e794e3          	bne	a5,a4,27f8 <__divsf3+0x1e0>
    28b4:	00000413          	li	s0,0
    28b8:	0ff00713          	li	a4,255
    28bc:	f85ff06f          	j	2840 <__divsf3+0x228>
    28c0:	000a0613          	mv	a2,s4
    28c4:	fd9ff06f          	j	289c <__divsf3+0x284>
    28c8:	00400437          	lui	s0,0x400
    28cc:	00000613          	li	a2,0
    28d0:	00300793          	li	a5,3
    28d4:	fc9ff06f          	j	289c <__divsf3+0x284>
    28d8:	00100793          	li	a5,1
    28dc:	40e787b3          	sub	a5,a5,a4
    28e0:	01b00713          	li	a4,27
    28e4:	04f74e63          	blt	a4,a5,2940 <__divsf3+0x328>
    28e8:	09e50513          	addi	a0,a0,158
    28ec:	00f457b3          	srl	a5,s0,a5
    28f0:	00a41433          	sll	s0,s0,a0
    28f4:	00803433          	snez	s0,s0
    28f8:	0087e433          	or	s0,a5,s0
    28fc:	00747793          	andi	a5,s0,7
    2900:	00078a63          	beqz	a5,2914 <__divsf3+0x2fc>
    2904:	00f47793          	andi	a5,s0,15
    2908:	00400713          	li	a4,4
    290c:	00e78463          	beq	a5,a4,2914 <__divsf3+0x2fc>
    2910:	00440413          	addi	s0,s0,4 # 400004 <__data_region_end+0x3d0910>
    2914:	040007b7          	lui	a5,0x4000
    2918:	00f477b3          	and	a5,s0,a5
    291c:	00345413          	srli	s0,s0,0x3
    2920:	02078263          	beqz	a5,2944 <__divsf3+0x32c>
    2924:	00000413          	li	s0,0
    2928:	00100713          	li	a4,1
    292c:	f15ff06f          	j	2840 <__divsf3+0x228>
    2930:	00400437          	lui	s0,0x400
    2934:	0ff00713          	li	a4,255
    2938:	00000613          	li	a2,0
    293c:	f05ff06f          	j	2840 <__divsf3+0x228>
    2940:	00000413          	li	s0,0
    2944:	00000713          	li	a4,0
    2948:	ef9ff06f          	j	2840 <__divsf3+0x228>

0000294c <__mulsf3>:
    294c:	fe010113          	addi	sp,sp,-32
    2950:	01212823          	sw	s2,16(sp)
    2954:	01755913          	srli	s2,a0,0x17
    2958:	00912a23          	sw	s1,20(sp)
    295c:	01312623          	sw	s3,12(sp)
    2960:	01412423          	sw	s4,8(sp)
    2964:	00951493          	slli	s1,a0,0x9
    2968:	00112e23          	sw	ra,28(sp)
    296c:	00812c23          	sw	s0,24(sp)
    2970:	01512223          	sw	s5,4(sp)
    2974:	0ff97913          	andi	s2,s2,255
    2978:	00058a13          	mv	s4,a1
    297c:	0094d493          	srli	s1,s1,0x9
    2980:	01f55993          	srli	s3,a0,0x1f
    2984:	08090663          	beqz	s2,2a10 <__mulsf3+0xc4>
    2988:	0ff00793          	li	a5,255
    298c:	0af90263          	beq	s2,a5,2a30 <__mulsf3+0xe4>
    2990:	00349493          	slli	s1,s1,0x3
    2994:	040007b7          	lui	a5,0x4000
    2998:	00f4e4b3          	or	s1,s1,a5
    299c:	f8190913          	addi	s2,s2,-127
    29a0:	00000a93          	li	s5,0
    29a4:	017a5513          	srli	a0,s4,0x17
    29a8:	009a1413          	slli	s0,s4,0x9
    29ac:	0ff57513          	andi	a0,a0,255
    29b0:	00945413          	srli	s0,s0,0x9
    29b4:	01fa5a13          	srli	s4,s4,0x1f
    29b8:	08050c63          	beqz	a0,2a50 <__mulsf3+0x104>
    29bc:	0ff00793          	li	a5,255
    29c0:	0af50863          	beq	a0,a5,2a70 <__mulsf3+0x124>
    29c4:	00341413          	slli	s0,s0,0x3
    29c8:	040007b7          	lui	a5,0x4000
    29cc:	00f46433          	or	s0,s0,a5
    29d0:	f8150513          	addi	a0,a0,-127
    29d4:	00000793          	li	a5,0
    29d8:	002a9713          	slli	a4,s5,0x2
    29dc:	00f76733          	or	a4,a4,a5
    29e0:	00a90533          	add	a0,s2,a0
    29e4:	fff70713          	addi	a4,a4,-1 # 7f7fffff <CONFIG_SYS_CLOCK_HW_CYCLES_PER_SEC+0x7c850f7f>
    29e8:	00e00593          	li	a1,14
    29ec:	0149c6b3          	xor	a3,s3,s4
    29f0:	00150613          	addi	a2,a0,1
    29f4:	08e5ee63          	bltu	a1,a4,2a90 <__mulsf3+0x144>
    29f8:	0000d5b7          	lui	a1,0xd
    29fc:	00271713          	slli	a4,a4,0x2
    2a00:	09058593          	addi	a1,a1,144 # d090 <__clz_tab+0x1b4>
    2a04:	00b70733          	add	a4,a4,a1
    2a08:	00072703          	lw	a4,0(a4)
    2a0c:	00070067          	jr	a4
    2a10:	02048a63          	beqz	s1,2a44 <__mulsf3+0xf8>
    2a14:	00048513          	mv	a0,s1
    2a18:	8d9fd0ef          	jal	ra,2f0 <__clzsi2>
    2a1c:	ffb50793          	addi	a5,a0,-5
    2a20:	f8a00913          	li	s2,-118
    2a24:	00f494b3          	sll	s1,s1,a5
    2a28:	40a90933          	sub	s2,s2,a0
    2a2c:	f75ff06f          	j	29a0 <__mulsf3+0x54>
    2a30:	0ff00913          	li	s2,255
    2a34:	00200a93          	li	s5,2
    2a38:	f60486e3          	beqz	s1,29a4 <__mulsf3+0x58>
    2a3c:	00300a93          	li	s5,3
    2a40:	f65ff06f          	j	29a4 <__mulsf3+0x58>
    2a44:	00000913          	li	s2,0
    2a48:	00100a93          	li	s5,1
    2a4c:	f59ff06f          	j	29a4 <__mulsf3+0x58>
    2a50:	02040a63          	beqz	s0,2a84 <__mulsf3+0x138>
    2a54:	00040513          	mv	a0,s0
    2a58:	899fd0ef          	jal	ra,2f0 <__clzsi2>
    2a5c:	ffb50793          	addi	a5,a0,-5
    2a60:	00f41433          	sll	s0,s0,a5
    2a64:	f8a00793          	li	a5,-118
    2a68:	40a78533          	sub	a0,a5,a0
    2a6c:	f69ff06f          	j	29d4 <__mulsf3+0x88>
    2a70:	0ff00513          	li	a0,255
    2a74:	00200793          	li	a5,2
    2a78:	f60400e3          	beqz	s0,29d8 <__mulsf3+0x8c>
    2a7c:	00300793          	li	a5,3
    2a80:	f59ff06f          	j	29d8 <__mulsf3+0x8c>
    2a84:	00000513          	li	a0,0
    2a88:	00100793          	li	a5,1
    2a8c:	f4dff06f          	j	29d8 <__mulsf3+0x8c>
    2a90:	000107b7          	lui	a5,0x10
    2a94:	fff78313          	addi	t1,a5,-1 # ffff <kheap__system_heap+0xd6f>
    2a98:	0104d713          	srli	a4,s1,0x10
    2a9c:	01045593          	srli	a1,s0,0x10
    2aa0:	0064f4b3          	and	s1,s1,t1
    2aa4:	00647433          	and	s0,s0,t1
    2aa8:	029408b3          	mul	a7,s0,s1
    2aac:	02870833          	mul	a6,a4,s0
    2ab0:	02b70433          	mul	s0,a4,a1
    2ab4:	029585b3          	mul	a1,a1,s1
    2ab8:	0108d493          	srli	s1,a7,0x10
    2abc:	010585b3          	add	a1,a1,a6
    2ac0:	00b484b3          	add	s1,s1,a1
    2ac4:	0104f463          	bgeu	s1,a6,2acc <__mulsf3+0x180>
    2ac8:	00f40433          	add	s0,s0,a5
    2acc:	0064f7b3          	and	a5,s1,t1
    2ad0:	01079793          	slli	a5,a5,0x10
    2ad4:	0068f8b3          	and	a7,a7,t1
    2ad8:	011787b3          	add	a5,a5,a7
    2adc:	00679713          	slli	a4,a5,0x6
    2ae0:	0104d493          	srli	s1,s1,0x10
    2ae4:	00e03733          	snez	a4,a4
    2ae8:	01a7d793          	srli	a5,a5,0x1a
    2aec:	00848433          	add	s0,s1,s0
    2af0:	00f767b3          	or	a5,a4,a5
    2af4:	00641413          	slli	s0,s0,0x6
    2af8:	00f46433          	or	s0,s0,a5
    2afc:	080007b7          	lui	a5,0x8000
    2b00:	00f477b3          	and	a5,s0,a5
    2b04:	08078e63          	beqz	a5,2ba0 <__mulsf3+0x254>
    2b08:	00145793          	srli	a5,s0,0x1
    2b0c:	00147413          	andi	s0,s0,1
    2b10:	0087e433          	or	s0,a5,s0
    2b14:	07f60713          	addi	a4,a2,127 # 400007f <CONFIG_SYS_CLOCK_HW_CYCLES_PER_SEC+0x1050fff>
    2b18:	08e05863          	blez	a4,2ba8 <__mulsf3+0x25c>
    2b1c:	00747793          	andi	a5,s0,7
    2b20:	00078a63          	beqz	a5,2b34 <__mulsf3+0x1e8>
    2b24:	00f47793          	andi	a5,s0,15
    2b28:	00400593          	li	a1,4
    2b2c:	00b78463          	beq	a5,a1,2b34 <__mulsf3+0x1e8>
    2b30:	00440413          	addi	s0,s0,4 # 400004 <__data_region_end+0x3d0910>
    2b34:	080007b7          	lui	a5,0x8000
    2b38:	00f477b3          	and	a5,s0,a5
    2b3c:	00078a63          	beqz	a5,2b50 <__mulsf3+0x204>
    2b40:	f80007b7          	lui	a5,0xf8000
    2b44:	fff78793          	addi	a5,a5,-1 # f7ffffff <CONFIG_SYSTEM_WORKQUEUE_PRIORITY+0xf8000000>
    2b48:	00f47433          	and	s0,s0,a5
    2b4c:	08060713          	addi	a4,a2,128
    2b50:	0fe00793          	li	a5,254
    2b54:	00345413          	srli	s0,s0,0x3
    2b58:	0ae7da63          	bge	a5,a4,2c0c <__mulsf3+0x2c0>
    2b5c:	00000413          	li	s0,0
    2b60:	0ff00713          	li	a4,255
    2b64:	0a80006f          	j	2c0c <__mulsf3+0x2c0>
    2b68:	00098693          	mv	a3,s3
    2b6c:	00048413          	mv	s0,s1
    2b70:	000a8793          	mv	a5,s5
    2b74:	00200713          	li	a4,2
    2b78:	fee782e3          	beq	a5,a4,2b5c <__mulsf3+0x210>
    2b7c:	00300713          	li	a4,3
    2b80:	08e78063          	beq	a5,a4,2c00 <__mulsf3+0x2b4>
    2b84:	00100713          	li	a4,1
    2b88:	f8e796e3          	bne	a5,a4,2b14 <__mulsf3+0x1c8>
    2b8c:	00000413          	li	s0,0
    2b90:	00000713          	li	a4,0
    2b94:	0780006f          	j	2c0c <__mulsf3+0x2c0>
    2b98:	000a0693          	mv	a3,s4
    2b9c:	fd9ff06f          	j	2b74 <__mulsf3+0x228>
    2ba0:	00050613          	mv	a2,a0
    2ba4:	f71ff06f          	j	2b14 <__mulsf3+0x1c8>
    2ba8:	00100793          	li	a5,1
    2bac:	40e787b3          	sub	a5,a5,a4
    2bb0:	01b00713          	li	a4,27
    2bb4:	fcf74ce3          	blt	a4,a5,2b8c <__mulsf3+0x240>
    2bb8:	09e60613          	addi	a2,a2,158
    2bbc:	00f457b3          	srl	a5,s0,a5
    2bc0:	00c41433          	sll	s0,s0,a2
    2bc4:	00803433          	snez	s0,s0
    2bc8:	0087e433          	or	s0,a5,s0
    2bcc:	00747793          	andi	a5,s0,7
    2bd0:	00078a63          	beqz	a5,2be4 <__mulsf3+0x298>
    2bd4:	00f47793          	andi	a5,s0,15
    2bd8:	00400713          	li	a4,4
    2bdc:	00e78463          	beq	a5,a4,2be4 <__mulsf3+0x298>
    2be0:	00440413          	addi	s0,s0,4
    2be4:	040007b7          	lui	a5,0x4000
    2be8:	00f477b3          	and	a5,s0,a5
    2bec:	00345413          	srli	s0,s0,0x3
    2bf0:	fa0780e3          	beqz	a5,2b90 <__mulsf3+0x244>
    2bf4:	00000413          	li	s0,0
    2bf8:	00100713          	li	a4,1
    2bfc:	0100006f          	j	2c0c <__mulsf3+0x2c0>
    2c00:	00400437          	lui	s0,0x400
    2c04:	0ff00713          	li	a4,255
    2c08:	00000693          	li	a3,0
    2c0c:	01771793          	slli	a5,a4,0x17
    2c10:	00941413          	slli	s0,s0,0x9
    2c14:	7f800737          	lui	a4,0x7f800
    2c18:	00e7f7b3          	and	a5,a5,a4
    2c1c:	00945413          	srli	s0,s0,0x9
    2c20:	0087e433          	or	s0,a5,s0
    2c24:	01f69513          	slli	a0,a3,0x1f
    2c28:	01c12083          	lw	ra,28(sp)
    2c2c:	00a46533          	or	a0,s0,a0
    2c30:	01812403          	lw	s0,24(sp)
    2c34:	01412483          	lw	s1,20(sp)
    2c38:	01012903          	lw	s2,16(sp)
    2c3c:	00c12983          	lw	s3,12(sp)
    2c40:	00812a03          	lw	s4,8(sp)
    2c44:	00412a83          	lw	s5,4(sp)
    2c48:	02010113          	addi	sp,sp,32
    2c4c:	00008067          	ret

00002c50 <__floatsisf>:
    2c50:	ff010113          	addi	sp,sp,-16
    2c54:	00112623          	sw	ra,12(sp)
    2c58:	00812423          	sw	s0,8(sp)
    2c5c:	00912223          	sw	s1,4(sp)
    2c60:	0e050663          	beqz	a0,2d4c <__floatsisf+0xfc>
    2c64:	41f55793          	srai	a5,a0,0x1f
    2c68:	00a7c433          	xor	s0,a5,a0
    2c6c:	40f40433          	sub	s0,s0,a5
    2c70:	01f55493          	srli	s1,a0,0x1f
    2c74:	00040513          	mv	a0,s0
    2c78:	e78fd0ef          	jal	ra,2f0 <__clzsi2>
    2c7c:	09e00793          	li	a5,158
    2c80:	00050713          	mv	a4,a0
    2c84:	40a78533          	sub	a0,a5,a0
    2c88:	09600793          	li	a5,150
    2c8c:	04a7c063          	blt	a5,a0,2ccc <__floatsisf+0x7c>
    2c90:	00800793          	li	a5,8
    2c94:	00e7d663          	bge	a5,a4,2ca0 <__floatsisf+0x50>
    2c98:	ff870713          	addi	a4,a4,-8 # 7f7ffff8 <CONFIG_SYS_CLOCK_HW_CYCLES_PER_SEC+0x7c850f78>
    2c9c:	00e41433          	sll	s0,s0,a4
    2ca0:	00941413          	slli	s0,s0,0x9
    2ca4:	01751513          	slli	a0,a0,0x17
    2ca8:	00945413          	srli	s0,s0,0x9
    2cac:	00856433          	or	s0,a0,s0
    2cb0:	01f49513          	slli	a0,s1,0x1f
    2cb4:	00c12083          	lw	ra,12(sp)
    2cb8:	00a46533          	or	a0,s0,a0
    2cbc:	00812403          	lw	s0,8(sp)
    2cc0:	00412483          	lw	s1,4(sp)
    2cc4:	01010113          	addi	sp,sp,16
    2cc8:	00008067          	ret
    2ccc:	09900793          	li	a5,153
    2cd0:	02a7d063          	bge	a5,a0,2cf0 <__floatsisf+0xa0>
    2cd4:	00500793          	li	a5,5
    2cd8:	40e787b3          	sub	a5,a5,a4
    2cdc:	01b70693          	addi	a3,a4,27
    2ce0:	00f457b3          	srl	a5,s0,a5
    2ce4:	00d41433          	sll	s0,s0,a3
    2ce8:	00803433          	snez	s0,s0
    2cec:	0087e433          	or	s0,a5,s0
    2cf0:	00500793          	li	a5,5
    2cf4:	00e7d663          	bge	a5,a4,2d00 <__floatsisf+0xb0>
    2cf8:	ffb70793          	addi	a5,a4,-5
    2cfc:	00f41433          	sll	s0,s0,a5
    2d00:	fc0006b7          	lui	a3,0xfc000
    2d04:	fff68693          	addi	a3,a3,-1 # fbffffff <CONFIG_SYSTEM_WORKQUEUE_PRIORITY+0xfc000000>
    2d08:	00747793          	andi	a5,s0,7
    2d0c:	00d476b3          	and	a3,s0,a3
    2d10:	00078a63          	beqz	a5,2d24 <__floatsisf+0xd4>
    2d14:	00f47413          	andi	s0,s0,15
    2d18:	00400793          	li	a5,4
    2d1c:	00f40463          	beq	s0,a5,2d24 <__floatsisf+0xd4>
    2d20:	00468693          	addi	a3,a3,4
    2d24:	040007b7          	lui	a5,0x4000
    2d28:	00f6f7b3          	and	a5,a3,a5
    2d2c:	00078c63          	beqz	a5,2d44 <__floatsisf+0xf4>
    2d30:	fc0007b7          	lui	a5,0xfc000
    2d34:	fff78793          	addi	a5,a5,-1 # fbffffff <CONFIG_SYSTEM_WORKQUEUE_PRIORITY+0xfc000000>
    2d38:	00f6f6b3          	and	a3,a3,a5
    2d3c:	09f00793          	li	a5,159
    2d40:	40e78533          	sub	a0,a5,a4
    2d44:	0036d413          	srli	s0,a3,0x3
    2d48:	f59ff06f          	j	2ca0 <__floatsisf+0x50>
    2d4c:	00000493          	li	s1,0
    2d50:	00000413          	li	s0,0
    2d54:	f4dff06f          	j	2ca0 <__floatsisf+0x50>

00002d58 <memcpy>:
    2d58:	00050313          	mv	t1,a0
    2d5c:	00060e63          	beqz	a2,2d78 <memcpy+0x20>
    2d60:	00058383          	lb	t2,0(a1)
    2d64:	00730023          	sb	t2,0(t1)
    2d68:	fff60613          	addi	a2,a2,-1
    2d6c:	00130313          	addi	t1,t1,1
    2d70:	00158593          	addi	a1,a1,1
    2d74:	fe0616e3          	bnez	a2,2d60 <memcpy+0x8>
    2d78:	00008067          	ret

00002d7c <memset>:
    2d7c:	00050313          	mv	t1,a0
    2d80:	00060a63          	beqz	a2,2d94 <memset+0x18>
    2d84:	00b30023          	sb	a1,0(t1)
    2d88:	fff60613          	addi	a2,a2,-1
    2d8c:	00130313          	addi	t1,t1,1
    2d90:	fe061ae3          	bnez	a2,2d84 <memset+0x8>
    2d94:	00008067          	ret

00002d98 <__adddf3>:
    2d98:	00100837          	lui	a6,0x100
    2d9c:	fff80813          	addi	a6,a6,-1 # fffff <__data_region_end+0xd090b>
    2da0:	fe010113          	addi	sp,sp,-32
    2da4:	00b877b3          	and	a5,a6,a1
    2da8:	0145d713          	srli	a4,a1,0x14
    2dac:	00d87833          	and	a6,a6,a3
    2db0:	0146d313          	srli	t1,a3,0x14
    2db4:	00812c23          	sw	s0,24(sp)
    2db8:	00379793          	slli	a5,a5,0x3
    2dbc:	7ff77413          	andi	s0,a4,2047
    2dc0:	01d55713          	srli	a4,a0,0x1d
    2dc4:	00381813          	slli	a6,a6,0x3
    2dc8:	00912a23          	sw	s1,20(sp)
    2dcc:	00f767b3          	or	a5,a4,a5
    2dd0:	01f5d493          	srli	s1,a1,0x1f
    2dd4:	01d65713          	srli	a4,a2,0x1d
    2dd8:	7ff37313          	andi	t1,t1,2047
    2ddc:	00112e23          	sw	ra,28(sp)
    2de0:	01212823          	sw	s2,16(sp)
    2de4:	01312623          	sw	s3,12(sp)
    2de8:	01f6d693          	srli	a3,a3,0x1f
    2dec:	01076733          	or	a4,a4,a6
    2df0:	00351593          	slli	a1,a0,0x3
    2df4:	00361613          	slli	a2,a2,0x3
    2df8:	40640833          	sub	a6,s0,t1
    2dfc:	2cd49863          	bne	s1,a3,30cc <__adddf3+0x334>
    2e00:	13005063          	blez	a6,2f20 <__adddf3+0x188>
    2e04:	04031063          	bnez	t1,2e44 <__adddf3+0xac>
    2e08:	00c766b3          	or	a3,a4,a2
    2e0c:	70068c63          	beqz	a3,3524 <__adddf3+0x78c>
    2e10:	fff80513          	addi	a0,a6,-1
    2e14:	02051063          	bnez	a0,2e34 <__adddf3+0x9c>
    2e18:	00c58633          	add	a2,a1,a2
    2e1c:	00b63533          	sltu	a0,a2,a1
    2e20:	00e787b3          	add	a5,a5,a4
    2e24:	00a787b3          	add	a5,a5,a0
    2e28:	00060593          	mv	a1,a2
    2e2c:	00100413          	li	s0,1
    2e30:	0700006f          	j	2ea0 <__adddf3+0x108>
    2e34:	7ff00693          	li	a3,2047
    2e38:	02d81063          	bne	a6,a3,2e58 <__adddf3+0xc0>
    2e3c:	7ff00413          	li	s0,2047
    2e40:	2140006f          	j	3054 <__adddf3+0x2bc>
    2e44:	7ff00693          	li	a3,2047
    2e48:	20d40663          	beq	s0,a3,3054 <__adddf3+0x2bc>
    2e4c:	008006b7          	lui	a3,0x800
    2e50:	00d76733          	or	a4,a4,a3
    2e54:	00080513          	mv	a0,a6
    2e58:	03800693          	li	a3,56
    2e5c:	0aa6cc63          	blt	a3,a0,2f14 <__adddf3+0x17c>
    2e60:	01f00693          	li	a3,31
    2e64:	06a6ce63          	blt	a3,a0,2ee0 <__adddf3+0x148>
    2e68:	02000813          	li	a6,32
    2e6c:	40a80833          	sub	a6,a6,a0
    2e70:	010716b3          	sll	a3,a4,a6
    2e74:	00a658b3          	srl	a7,a2,a0
    2e78:	01061633          	sll	a2,a2,a6
    2e7c:	0116e6b3          	or	a3,a3,a7
    2e80:	00c03633          	snez	a2,a2
    2e84:	00c6e633          	or	a2,a3,a2
    2e88:	00a75733          	srl	a4,a4,a0
    2e8c:	00b60633          	add	a2,a2,a1
    2e90:	00b63533          	sltu	a0,a2,a1
    2e94:	00f70733          	add	a4,a4,a5
    2e98:	00a707b3          	add	a5,a4,a0
    2e9c:	00060593          	mv	a1,a2
    2ea0:	00800737          	lui	a4,0x800
    2ea4:	00e7f733          	and	a4,a5,a4
    2ea8:	1a070663          	beqz	a4,3054 <__adddf3+0x2bc>
    2eac:	00140413          	addi	s0,s0,1 # 400001 <__data_region_end+0x3d090d>
    2eb0:	7ff00713          	li	a4,2047
    2eb4:	5ce40a63          	beq	s0,a4,3488 <__adddf3+0x6f0>
    2eb8:	ff800737          	lui	a4,0xff800
    2ebc:	fff70713          	addi	a4,a4,-1 # ff7fffff <CONFIG_SYSTEM_WORKQUEUE_PRIORITY+0xff800000>
    2ec0:	00e7f7b3          	and	a5,a5,a4
    2ec4:	0015f513          	andi	a0,a1,1
    2ec8:	0015d713          	srli	a4,a1,0x1
    2ecc:	00a76533          	or	a0,a4,a0
    2ed0:	01f79593          	slli	a1,a5,0x1f
    2ed4:	00a5e5b3          	or	a1,a1,a0
    2ed8:	0017d793          	srli	a5,a5,0x1
    2edc:	1780006f          	j	3054 <__adddf3+0x2bc>
    2ee0:	fe050693          	addi	a3,a0,-32
    2ee4:	02000893          	li	a7,32
    2ee8:	00d756b3          	srl	a3,a4,a3
    2eec:	00000813          	li	a6,0
    2ef0:	01150863          	beq	a0,a7,2f00 <__adddf3+0x168>
    2ef4:	04000813          	li	a6,64
    2ef8:	40a80533          	sub	a0,a6,a0
    2efc:	00a71833          	sll	a6,a4,a0
    2f00:	00c86633          	or	a2,a6,a2
    2f04:	00c03633          	snez	a2,a2
    2f08:	00c6e633          	or	a2,a3,a2
    2f0c:	00000713          	li	a4,0
    2f10:	f7dff06f          	j	2e8c <__adddf3+0xf4>
    2f14:	00c76633          	or	a2,a4,a2
    2f18:	00c03633          	snez	a2,a2
    2f1c:	ff1ff06f          	j	2f0c <__adddf3+0x174>
    2f20:	0e080263          	beqz	a6,3004 <__adddf3+0x26c>
    2f24:	40830533          	sub	a0,t1,s0
    2f28:	02041e63          	bnez	s0,2f64 <__adddf3+0x1cc>
    2f2c:	00b7e6b3          	or	a3,a5,a1
    2f30:	52068c63          	beqz	a3,3468 <__adddf3+0x6d0>
    2f34:	fff50693          	addi	a3,a0,-1
    2f38:	00069c63          	bnez	a3,2f50 <__adddf3+0x1b8>
    2f3c:	00c585b3          	add	a1,a1,a2
    2f40:	00e787b3          	add	a5,a5,a4
    2f44:	00c5b633          	sltu	a2,a1,a2
    2f48:	00c787b3          	add	a5,a5,a2
    2f4c:	ee1ff06f          	j	2e2c <__adddf3+0x94>
    2f50:	7ff00813          	li	a6,2047
    2f54:	03051263          	bne	a0,a6,2f78 <__adddf3+0x1e0>
    2f58:	00070793          	mv	a5,a4
    2f5c:	00060593          	mv	a1,a2
    2f60:	eddff06f          	j	2e3c <__adddf3+0xa4>
    2f64:	7ff00693          	li	a3,2047
    2f68:	fed308e3          	beq	t1,a3,2f58 <__adddf3+0x1c0>
    2f6c:	008006b7          	lui	a3,0x800
    2f70:	00d7e7b3          	or	a5,a5,a3
    2f74:	00050693          	mv	a3,a0
    2f78:	03800513          	li	a0,56
    2f7c:	06d54e63          	blt	a0,a3,2ff8 <__adddf3+0x260>
    2f80:	01f00513          	li	a0,31
    2f84:	04d54063          	blt	a0,a3,2fc4 <__adddf3+0x22c>
    2f88:	02000813          	li	a6,32
    2f8c:	40d80833          	sub	a6,a6,a3
    2f90:	01079533          	sll	a0,a5,a6
    2f94:	00d5d8b3          	srl	a7,a1,a3
    2f98:	010595b3          	sll	a1,a1,a6
    2f9c:	01156533          	or	a0,a0,a7
    2fa0:	00b035b3          	snez	a1,a1
    2fa4:	00b56533          	or	a0,a0,a1
    2fa8:	00d7d7b3          	srl	a5,a5,a3
    2fac:	00c505b3          	add	a1,a0,a2
    2fb0:	00e787b3          	add	a5,a5,a4
    2fb4:	00c5b633          	sltu	a2,a1,a2
    2fb8:	00c787b3          	add	a5,a5,a2
    2fbc:	00030413          	mv	s0,t1
    2fc0:	ee1ff06f          	j	2ea0 <__adddf3+0x108>
    2fc4:	fe068513          	addi	a0,a3,-32 # 7fffe0 <__data_region_end+0x7d08ec>
    2fc8:	02000893          	li	a7,32
    2fcc:	00a7d833          	srl	a6,a5,a0
    2fd0:	00000513          	li	a0,0
    2fd4:	01168863          	beq	a3,a7,2fe4 <__adddf3+0x24c>
    2fd8:	04000513          	li	a0,64
    2fdc:	40d50533          	sub	a0,a0,a3
    2fe0:	00a79533          	sll	a0,a5,a0
    2fe4:	00b56533          	or	a0,a0,a1
    2fe8:	00a03533          	snez	a0,a0
    2fec:	00a86533          	or	a0,a6,a0
    2ff0:	00000793          	li	a5,0
    2ff4:	fb9ff06f          	j	2fac <__adddf3+0x214>
    2ff8:	00b7e533          	or	a0,a5,a1
    2ffc:	00a03533          	snez	a0,a0
    3000:	ff1ff06f          	j	2ff0 <__adddf3+0x258>
    3004:	00140693          	addi	a3,s0,1
    3008:	7fe6f513          	andi	a0,a3,2046
    300c:	08051863          	bnez	a0,309c <__adddf3+0x304>
    3010:	00b7e6b3          	or	a3,a5,a1
    3014:	06041463          	bnez	s0,307c <__adddf3+0x2e4>
    3018:	46068063          	beqz	a3,3478 <__adddf3+0x6e0>
    301c:	00c766b3          	or	a3,a4,a2
    3020:	02068a63          	beqz	a3,3054 <__adddf3+0x2bc>
    3024:	00c58633          	add	a2,a1,a2
    3028:	00e787b3          	add	a5,a5,a4
    302c:	00b63533          	sltu	a0,a2,a1
    3030:	00a787b3          	add	a5,a5,a0
    3034:	00800737          	lui	a4,0x800
    3038:	00e7f733          	and	a4,a5,a4
    303c:	00060593          	mv	a1,a2
    3040:	00070a63          	beqz	a4,3054 <__adddf3+0x2bc>
    3044:	ff800737          	lui	a4,0xff800
    3048:	fff70713          	addi	a4,a4,-1 # ff7fffff <CONFIG_SYSTEM_WORKQUEUE_PRIORITY+0xff800000>
    304c:	00e7f7b3          	and	a5,a5,a4
    3050:	00100413          	li	s0,1
    3054:	0075f713          	andi	a4,a1,7
    3058:	42070c63          	beqz	a4,3490 <__adddf3+0x6f8>
    305c:	00f5f713          	andi	a4,a1,15
    3060:	00400693          	li	a3,4
    3064:	42d70663          	beq	a4,a3,3490 <__adddf3+0x6f8>
    3068:	00458713          	addi	a4,a1,4
    306c:	00b73533          	sltu	a0,a4,a1
    3070:	00a787b3          	add	a5,a5,a0
    3074:	00070593          	mv	a1,a4
    3078:	4180006f          	j	3490 <__adddf3+0x6f8>
    307c:	ec068ee3          	beqz	a3,2f58 <__adddf3+0x1c0>
    3080:	00c76633          	or	a2,a4,a2
    3084:	da060ce3          	beqz	a2,2e3c <__adddf3+0xa4>
    3088:	00000493          	li	s1,0
    308c:	004007b7          	lui	a5,0x400
    3090:	00000593          	li	a1,0
    3094:	7ff00413          	li	s0,2047
    3098:	3f80006f          	j	3490 <__adddf3+0x6f8>
    309c:	7ff00513          	li	a0,2047
    30a0:	3ea68263          	beq	a3,a0,3484 <__adddf3+0x6ec>
    30a4:	00c58633          	add	a2,a1,a2
    30a8:	00b63533          	sltu	a0,a2,a1
    30ac:	00e787b3          	add	a5,a5,a4
    30b0:	00a787b3          	add	a5,a5,a0
    30b4:	01f79513          	slli	a0,a5,0x1f
    30b8:	00165613          	srli	a2,a2,0x1
    30bc:	00c565b3          	or	a1,a0,a2
    30c0:	0017d793          	srli	a5,a5,0x1
    30c4:	00068413          	mv	s0,a3
    30c8:	f8dff06f          	j	3054 <__adddf3+0x2bc>
    30cc:	0f005c63          	blez	a6,31c4 <__adddf3+0x42c>
    30d0:	08031e63          	bnez	t1,316c <__adddf3+0x3d4>
    30d4:	00c766b3          	or	a3,a4,a2
    30d8:	44068663          	beqz	a3,3524 <__adddf3+0x78c>
    30dc:	fff80513          	addi	a0,a6,-1
    30e0:	02051063          	bnez	a0,3100 <__adddf3+0x368>
    30e4:	40c58633          	sub	a2,a1,a2
    30e8:	00c5b533          	sltu	a0,a1,a2
    30ec:	40e787b3          	sub	a5,a5,a4
    30f0:	40a787b3          	sub	a5,a5,a0
    30f4:	00060593          	mv	a1,a2
    30f8:	00100413          	li	s0,1
    30fc:	0540006f          	j	3150 <__adddf3+0x3b8>
    3100:	7ff00693          	li	a3,2047
    3104:	d2d80ce3          	beq	a6,a3,2e3c <__adddf3+0xa4>
    3108:	03800693          	li	a3,56
    310c:	0aa6c663          	blt	a3,a0,31b8 <__adddf3+0x420>
    3110:	01f00693          	li	a3,31
    3114:	06a6c863          	blt	a3,a0,3184 <__adddf3+0x3ec>
    3118:	02000813          	li	a6,32
    311c:	40a80833          	sub	a6,a6,a0
    3120:	010716b3          	sll	a3,a4,a6
    3124:	00a658b3          	srl	a7,a2,a0
    3128:	01061633          	sll	a2,a2,a6
    312c:	0116e6b3          	or	a3,a3,a7
    3130:	00c03633          	snez	a2,a2
    3134:	00c6e633          	or	a2,a3,a2
    3138:	00a75733          	srl	a4,a4,a0
    313c:	40c58633          	sub	a2,a1,a2
    3140:	00c5b533          	sltu	a0,a1,a2
    3144:	40e78733          	sub	a4,a5,a4
    3148:	40a707b3          	sub	a5,a4,a0
    314c:	00060593          	mv	a1,a2
    3150:	00800937          	lui	s2,0x800
    3154:	0127f733          	and	a4,a5,s2
    3158:	ee070ee3          	beqz	a4,3054 <__adddf3+0x2bc>
    315c:	fff90913          	addi	s2,s2,-1 # 7fffff <__data_region_end+0x7d090b>
    3160:	0127f933          	and	s2,a5,s2
    3164:	00058993          	mv	s3,a1
    3168:	2140006f          	j	337c <__adddf3+0x5e4>
    316c:	7ff00693          	li	a3,2047
    3170:	eed402e3          	beq	s0,a3,3054 <__adddf3+0x2bc>
    3174:	008006b7          	lui	a3,0x800
    3178:	00d76733          	or	a4,a4,a3
    317c:	00080513          	mv	a0,a6
    3180:	f89ff06f          	j	3108 <__adddf3+0x370>
    3184:	fe050693          	addi	a3,a0,-32
    3188:	02000893          	li	a7,32
    318c:	00d756b3          	srl	a3,a4,a3
    3190:	00000813          	li	a6,0
    3194:	01150863          	beq	a0,a7,31a4 <__adddf3+0x40c>
    3198:	04000813          	li	a6,64
    319c:	40a80533          	sub	a0,a6,a0
    31a0:	00a71833          	sll	a6,a4,a0
    31a4:	00c86633          	or	a2,a6,a2
    31a8:	00c03633          	snez	a2,a2
    31ac:	00c6e633          	or	a2,a3,a2
    31b0:	00000713          	li	a4,0
    31b4:	f89ff06f          	j	313c <__adddf3+0x3a4>
    31b8:	00c76633          	or	a2,a4,a2
    31bc:	00c03633          	snez	a2,a2
    31c0:	ff1ff06f          	j	31b0 <__adddf3+0x418>
    31c4:	0e080863          	beqz	a6,32b4 <__adddf3+0x51c>
    31c8:	40830533          	sub	a0,t1,s0
    31cc:	04041263          	bnez	s0,3210 <__adddf3+0x478>
    31d0:	00b7e833          	or	a6,a5,a1
    31d4:	34080c63          	beqz	a6,352c <__adddf3+0x794>
    31d8:	fff50813          	addi	a6,a0,-1
    31dc:	00081e63          	bnez	a6,31f8 <__adddf3+0x460>
    31e0:	40b605b3          	sub	a1,a2,a1
    31e4:	40f707b3          	sub	a5,a4,a5
    31e8:	00b63633          	sltu	a2,a2,a1
    31ec:	40c787b3          	sub	a5,a5,a2
    31f0:	00068493          	mv	s1,a3
    31f4:	f05ff06f          	j	30f8 <__adddf3+0x360>
    31f8:	7ff00893          	li	a7,2047
    31fc:	03151463          	bne	a0,a7,3224 <__adddf3+0x48c>
    3200:	00070793          	mv	a5,a4
    3204:	00060593          	mv	a1,a2
    3208:	7ff00413          	li	s0,2047
    320c:	0d00006f          	j	32dc <__adddf3+0x544>
    3210:	7ff00813          	li	a6,2047
    3214:	ff0306e3          	beq	t1,a6,3200 <__adddf3+0x468>
    3218:	00800837          	lui	a6,0x800
    321c:	0107e7b3          	or	a5,a5,a6
    3220:	00050813          	mv	a6,a0
    3224:	03800513          	li	a0,56
    3228:	09054063          	blt	a0,a6,32a8 <__adddf3+0x510>
    322c:	01f00513          	li	a0,31
    3230:	05054263          	blt	a0,a6,3274 <__adddf3+0x4dc>
    3234:	02000893          	li	a7,32
    3238:	410888b3          	sub	a7,a7,a6
    323c:	01179533          	sll	a0,a5,a7
    3240:	0105de33          	srl	t3,a1,a6
    3244:	011595b3          	sll	a1,a1,a7
    3248:	01c56533          	or	a0,a0,t3
    324c:	00b035b3          	snez	a1,a1
    3250:	00b56533          	or	a0,a0,a1
    3254:	0107d7b3          	srl	a5,a5,a6
    3258:	40a605b3          	sub	a1,a2,a0
    325c:	40f707b3          	sub	a5,a4,a5
    3260:	00b63633          	sltu	a2,a2,a1
    3264:	40c787b3          	sub	a5,a5,a2
    3268:	00030413          	mv	s0,t1
    326c:	00068493          	mv	s1,a3
    3270:	ee1ff06f          	j	3150 <__adddf3+0x3b8>
    3274:	fe080513          	addi	a0,a6,-32 # 7fffe0 <__data_region_end+0x7d08ec>
    3278:	02000e13          	li	t3,32
    327c:	00a7d8b3          	srl	a7,a5,a0
    3280:	00000513          	li	a0,0
    3284:	01c80863          	beq	a6,t3,3294 <__adddf3+0x4fc>
    3288:	04000513          	li	a0,64
    328c:	41050533          	sub	a0,a0,a6
    3290:	00a79533          	sll	a0,a5,a0
    3294:	00b56533          	or	a0,a0,a1
    3298:	00a03533          	snez	a0,a0
    329c:	00a8e533          	or	a0,a7,a0
    32a0:	00000793          	li	a5,0
    32a4:	fb5ff06f          	j	3258 <__adddf3+0x4c0>
    32a8:	00b7e533          	or	a0,a5,a1
    32ac:	00a03533          	snez	a0,a0
    32b0:	ff1ff06f          	j	32a0 <__adddf3+0x508>
    32b4:	00140513          	addi	a0,s0,1
    32b8:	7fe57513          	andi	a0,a0,2046
    32bc:	08051863          	bnez	a0,334c <__adddf3+0x5b4>
    32c0:	00b7e833          	or	a6,a5,a1
    32c4:	00c76533          	or	a0,a4,a2
    32c8:	06041263          	bnez	s0,332c <__adddf3+0x594>
    32cc:	00081c63          	bnez	a6,32e4 <__adddf3+0x54c>
    32d0:	26050663          	beqz	a0,353c <__adddf3+0x7a4>
    32d4:	00070793          	mv	a5,a4
    32d8:	00060593          	mv	a1,a2
    32dc:	00068493          	mv	s1,a3
    32e0:	d75ff06f          	j	3054 <__adddf3+0x2bc>
    32e4:	d60508e3          	beqz	a0,3054 <__adddf3+0x2bc>
    32e8:	40c58833          	sub	a6,a1,a2
    32ec:	0105b8b3          	sltu	a7,a1,a6
    32f0:	40e78533          	sub	a0,a5,a4
    32f4:	41150533          	sub	a0,a0,a7
    32f8:	008008b7          	lui	a7,0x800
    32fc:	011578b3          	and	a7,a0,a7
    3300:	00088c63          	beqz	a7,3318 <__adddf3+0x580>
    3304:	40b605b3          	sub	a1,a2,a1
    3308:	40f707b3          	sub	a5,a4,a5
    330c:	00b63633          	sltu	a2,a2,a1
    3310:	40c787b3          	sub	a5,a5,a2
    3314:	fc9ff06f          	j	32dc <__adddf3+0x544>
    3318:	00a865b3          	or	a1,a6,a0
    331c:	22058863          	beqz	a1,354c <__adddf3+0x7b4>
    3320:	00050793          	mv	a5,a0
    3324:	00080593          	mv	a1,a6
    3328:	d2dff06f          	j	3054 <__adddf3+0x2bc>
    332c:	00081c63          	bnez	a6,3344 <__adddf3+0x5ac>
    3330:	22050263          	beqz	a0,3554 <__adddf3+0x7bc>
    3334:	00070793          	mv	a5,a4
    3338:	00060593          	mv	a1,a2
    333c:	00068493          	mv	s1,a3
    3340:	afdff06f          	j	2e3c <__adddf3+0xa4>
    3344:	ae050ce3          	beqz	a0,2e3c <__adddf3+0xa4>
    3348:	d41ff06f          	j	3088 <__adddf3+0x2f0>
    334c:	40c589b3          	sub	s3,a1,a2
    3350:	0135b533          	sltu	a0,a1,s3
    3354:	40e78933          	sub	s2,a5,a4
    3358:	40a90933          	sub	s2,s2,a0
    335c:	00800537          	lui	a0,0x800
    3360:	00a97533          	and	a0,s2,a0
    3364:	08050463          	beqz	a0,33ec <__adddf3+0x654>
    3368:	40b609b3          	sub	s3,a2,a1
    336c:	40f707b3          	sub	a5,a4,a5
    3370:	01363633          	sltu	a2,a2,s3
    3374:	40c78933          	sub	s2,a5,a2
    3378:	00068493          	mv	s1,a3
    337c:	08090263          	beqz	s2,3400 <__adddf3+0x668>
    3380:	00090513          	mv	a0,s2
    3384:	f6dfc0ef          	jal	ra,2f0 <__clzsi2>
    3388:	ff850713          	addi	a4,a0,-8 # 7ffff8 <__data_region_end+0x7d0904>
    338c:	01f00793          	li	a5,31
    3390:	08e7c063          	blt	a5,a4,3410 <__adddf3+0x678>
    3394:	02000793          	li	a5,32
    3398:	40e787b3          	sub	a5,a5,a4
    339c:	00e91933          	sll	s2,s2,a4
    33a0:	00f9d7b3          	srl	a5,s3,a5
    33a4:	0127e7b3          	or	a5,a5,s2
    33a8:	00e995b3          	sll	a1,s3,a4
    33ac:	0a874463          	blt	a4,s0,3454 <__adddf3+0x6bc>
    33b0:	40870733          	sub	a4,a4,s0
    33b4:	00170693          	addi	a3,a4,1
    33b8:	01f00613          	li	a2,31
    33bc:	06d64263          	blt	a2,a3,3420 <__adddf3+0x688>
    33c0:	02000713          	li	a4,32
    33c4:	40d70733          	sub	a4,a4,a3
    33c8:	00e79633          	sll	a2,a5,a4
    33cc:	00d5d533          	srl	a0,a1,a3
    33d0:	00e595b3          	sll	a1,a1,a4
    33d4:	00a66633          	or	a2,a2,a0
    33d8:	00b035b3          	snez	a1,a1
    33dc:	00b665b3          	or	a1,a2,a1
    33e0:	00d7d7b3          	srl	a5,a5,a3
    33e4:	00000413          	li	s0,0
    33e8:	c6dff06f          	j	3054 <__adddf3+0x2bc>
    33ec:	0129e5b3          	or	a1,s3,s2
    33f0:	f80596e3          	bnez	a1,337c <__adddf3+0x5e4>
    33f4:	00000793          	li	a5,0
    33f8:	00000413          	li	s0,0
    33fc:	1480006f          	j	3544 <__adddf3+0x7ac>
    3400:	00098513          	mv	a0,s3
    3404:	eedfc0ef          	jal	ra,2f0 <__clzsi2>
    3408:	02050513          	addi	a0,a0,32
    340c:	f7dff06f          	j	3388 <__adddf3+0x5f0>
    3410:	fd850793          	addi	a5,a0,-40
    3414:	00f997b3          	sll	a5,s3,a5
    3418:	00000593          	li	a1,0
    341c:	f91ff06f          	j	33ac <__adddf3+0x614>
    3420:	fe170713          	addi	a4,a4,-31
    3424:	02000613          	li	a2,32
    3428:	00e7d733          	srl	a4,a5,a4
    342c:	00000513          	li	a0,0
    3430:	00c68863          	beq	a3,a2,3440 <__adddf3+0x6a8>
    3434:	04000513          	li	a0,64
    3438:	40d50533          	sub	a0,a0,a3
    343c:	00a79533          	sll	a0,a5,a0
    3440:	00a5e533          	or	a0,a1,a0
    3444:	00a03533          	snez	a0,a0
    3448:	00a765b3          	or	a1,a4,a0
    344c:	00000793          	li	a5,0
    3450:	f95ff06f          	j	33e4 <__adddf3+0x64c>
    3454:	40e40433          	sub	s0,s0,a4
    3458:	ff800737          	lui	a4,0xff800
    345c:	fff70713          	addi	a4,a4,-1 # ff7fffff <CONFIG_SYSTEM_WORKQUEUE_PRIORITY+0xff800000>
    3460:	00e7f7b3          	and	a5,a5,a4
    3464:	bf1ff06f          	j	3054 <__adddf3+0x2bc>
    3468:	00070793          	mv	a5,a4
    346c:	00060593          	mv	a1,a2
    3470:	00050413          	mv	s0,a0
    3474:	be1ff06f          	j	3054 <__adddf3+0x2bc>
    3478:	00070793          	mv	a5,a4
    347c:	00060593          	mv	a1,a2
    3480:	bd5ff06f          	j	3054 <__adddf3+0x2bc>
    3484:	7ff00413          	li	s0,2047
    3488:	00000793          	li	a5,0
    348c:	00000593          	li	a1,0
    3490:	00800737          	lui	a4,0x800
    3494:	00e7f733          	and	a4,a5,a4
    3498:	00070e63          	beqz	a4,34b4 <__adddf3+0x71c>
    349c:	00140413          	addi	s0,s0,1
    34a0:	7ff00713          	li	a4,2047
    34a4:	0ce40063          	beq	s0,a4,3564 <__adddf3+0x7cc>
    34a8:	ff800737          	lui	a4,0xff800
    34ac:	fff70713          	addi	a4,a4,-1 # ff7fffff <CONFIG_SYSTEM_WORKQUEUE_PRIORITY+0xff800000>
    34b0:	00e7f7b3          	and	a5,a5,a4
    34b4:	01d79713          	slli	a4,a5,0x1d
    34b8:	0035d513          	srli	a0,a1,0x3
    34bc:	00a76533          	or	a0,a4,a0
    34c0:	7ff00713          	li	a4,2047
    34c4:	0037d793          	srli	a5,a5,0x3
    34c8:	00e41e63          	bne	s0,a4,34e4 <__adddf3+0x74c>
    34cc:	00f56533          	or	a0,a0,a5
    34d0:	00000793          	li	a5,0
    34d4:	00050863          	beqz	a0,34e4 <__adddf3+0x74c>
    34d8:	000807b7          	lui	a5,0x80
    34dc:	00000513          	li	a0,0
    34e0:	00000493          	li	s1,0
    34e4:	01441713          	slli	a4,s0,0x14
    34e8:	7ff006b7          	lui	a3,0x7ff00
    34ec:	00c79793          	slli	a5,a5,0xc
    34f0:	01c12083          	lw	ra,28(sp)
    34f4:	01812403          	lw	s0,24(sp)
    34f8:	00d77733          	and	a4,a4,a3
    34fc:	00c7d793          	srli	a5,a5,0xc
    3500:	01f49493          	slli	s1,s1,0x1f
    3504:	00f767b3          	or	a5,a4,a5
    3508:	0097e733          	or	a4,a5,s1
    350c:	01012903          	lw	s2,16(sp)
    3510:	01412483          	lw	s1,20(sp)
    3514:	00c12983          	lw	s3,12(sp)
    3518:	00070593          	mv	a1,a4
    351c:	02010113          	addi	sp,sp,32
    3520:	00008067          	ret
    3524:	00080413          	mv	s0,a6
    3528:	b2dff06f          	j	3054 <__adddf3+0x2bc>
    352c:	00070793          	mv	a5,a4
    3530:	00060593          	mv	a1,a2
    3534:	00050413          	mv	s0,a0
    3538:	da5ff06f          	j	32dc <__adddf3+0x544>
    353c:	00000793          	li	a5,0
    3540:	00000593          	li	a1,0
    3544:	00000493          	li	s1,0
    3548:	f49ff06f          	j	3490 <__adddf3+0x6f8>
    354c:	00000793          	li	a5,0
    3550:	ff5ff06f          	j	3544 <__adddf3+0x7ac>
    3554:	00000593          	li	a1,0
    3558:	00000493          	li	s1,0
    355c:	004007b7          	lui	a5,0x400
    3560:	b35ff06f          	j	3094 <__adddf3+0x2fc>
    3564:	00000793          	li	a5,0
    3568:	00000593          	li	a1,0
    356c:	f49ff06f          	j	34b4 <__adddf3+0x71c>

00003570 <__eqdf2>:
    3570:	0145d713          	srli	a4,a1,0x14
    3574:	001007b7          	lui	a5,0x100
    3578:	fff78793          	addi	a5,a5,-1 # fffff <__data_region_end+0xd090b>
    357c:	0146d813          	srli	a6,a3,0x14
    3580:	00050313          	mv	t1,a0
    3584:	00050e93          	mv	t4,a0
    3588:	7ff77713          	andi	a4,a4,2047
    358c:	7ff00513          	li	a0,2047
    3590:	00b7f8b3          	and	a7,a5,a1
    3594:	00060f13          	mv	t5,a2
    3598:	00d7f7b3          	and	a5,a5,a3
    359c:	01f5d593          	srli	a1,a1,0x1f
    35a0:	7ff87813          	andi	a6,a6,2047
    35a4:	01f6d693          	srli	a3,a3,0x1f
    35a8:	00a71c63          	bne	a4,a0,35c0 <__eqdf2+0x50>
    35ac:	0068ee33          	or	t3,a7,t1
    35b0:	00100513          	li	a0,1
    35b4:	000e1463          	bnez	t3,35bc <__eqdf2+0x4c>
    35b8:	00e80663          	beq	a6,a4,35c4 <__eqdf2+0x54>
    35bc:	00008067          	ret
    35c0:	00a81863          	bne	a6,a0,35d0 <__eqdf2+0x60>
    35c4:	00c7e633          	or	a2,a5,a2
    35c8:	00100513          	li	a0,1
    35cc:	fe0618e3          	bnez	a2,35bc <__eqdf2+0x4c>
    35d0:	00100513          	li	a0,1
    35d4:	ff0714e3          	bne	a4,a6,35bc <__eqdf2+0x4c>
    35d8:	fef892e3          	bne	a7,a5,35bc <__eqdf2+0x4c>
    35dc:	ffee90e3          	bne	t4,t5,35bc <__eqdf2+0x4c>
    35e0:	00d58a63          	beq	a1,a3,35f4 <__eqdf2+0x84>
    35e4:	fc071ce3          	bnez	a4,35bc <__eqdf2+0x4c>
    35e8:	0068e533          	or	a0,a7,t1
    35ec:	00a03533          	snez	a0,a0
    35f0:	00008067          	ret
    35f4:	00000513          	li	a0,0
    35f8:	00008067          	ret

000035fc <__ledf2>:
    35fc:	00100737          	lui	a4,0x100
    3600:	fff70713          	addi	a4,a4,-1 # fffff <__data_region_end+0xd090b>
    3604:	0145d813          	srli	a6,a1,0x14
    3608:	00b778b3          	and	a7,a4,a1
    360c:	00050793          	mv	a5,a0
    3610:	00050313          	mv	t1,a0
    3614:	7ff87813          	andi	a6,a6,2047
    3618:	01f5d513          	srli	a0,a1,0x1f
    361c:	7ff00e93          	li	t4,2047
    3620:	0146d593          	srli	a1,a3,0x14
    3624:	00d77733          	and	a4,a4,a3
    3628:	00060e13          	mv	t3,a2
    362c:	7ff5f593          	andi	a1,a1,2047
    3630:	01f6d693          	srli	a3,a3,0x1f
    3634:	01d81a63          	bne	a6,t4,3648 <__ledf2+0x4c>
    3638:	00f8eeb3          	or	t4,a7,a5
    363c:	080e8a63          	beqz	t4,36d0 <__ledf2+0xd4>
    3640:	00200513          	li	a0,2
    3644:	00008067          	ret
    3648:	01d59663          	bne	a1,t4,3654 <__ledf2+0x58>
    364c:	00c76eb3          	or	t4,a4,a2
    3650:	fe0e98e3          	bnez	t4,3640 <__ledf2+0x44>
    3654:	08081063          	bnez	a6,36d4 <__ledf2+0xd8>
    3658:	00f8e7b3          	or	a5,a7,a5
    365c:	0017b793          	seqz	a5,a5
    3660:	00059663          	bnez	a1,366c <__ledf2+0x70>
    3664:	00c76633          	or	a2,a4,a2
    3668:	04060c63          	beqz	a2,36c0 <__ledf2+0xc4>
    366c:	00079c63          	bnez	a5,3684 <__ledf2+0x88>
    3670:	00d51463          	bne	a0,a3,3678 <__ledf2+0x7c>
    3674:	0305d063          	bge	a1,a6,3694 <__ledf2+0x98>
    3678:	04050063          	beqz	a0,36b8 <__ledf2+0xbc>
    367c:	fff00513          	li	a0,-1
    3680:	00008067          	ret
    3684:	fff00513          	li	a0,-1
    3688:	00068a63          	beqz	a3,369c <__ledf2+0xa0>
    368c:	00068513          	mv	a0,a3
    3690:	00008067          	ret
    3694:	00b85663          	bge	a6,a1,36a0 <__ledf2+0xa4>
    3698:	fe0502e3          	beqz	a0,367c <__ledf2+0x80>
    369c:	00008067          	ret
    36a0:	fd176ce3          	bltu	a4,a7,3678 <__ledf2+0x7c>
    36a4:	02e89263          	bne	a7,a4,36c8 <__ledf2+0xcc>
    36a8:	fc6e68e3          	bltu	t3,t1,3678 <__ledf2+0x7c>
    36ac:	ffc366e3          	bltu	t1,t3,3698 <__ledf2+0x9c>
    36b0:	00000513          	li	a0,0
    36b4:	00008067          	ret
    36b8:	00100513          	li	a0,1
    36bc:	00008067          	ret
    36c0:	fe0798e3          	bnez	a5,36b0 <__ledf2+0xb4>
    36c4:	fb5ff06f          	j	3678 <__ledf2+0x7c>
    36c8:	fce8e8e3          	bltu	a7,a4,3698 <__ledf2+0x9c>
    36cc:	fe5ff06f          	j	36b0 <__ledf2+0xb4>
    36d0:	f7058ee3          	beq	a1,a6,364c <__ledf2+0x50>
    36d4:	f8059ee3          	bnez	a1,3670 <__ledf2+0x74>
    36d8:	00000793          	li	a5,0
    36dc:	f89ff06f          	j	3664 <__ledf2+0x68>

000036e0 <__unorddf2>:
    36e0:	00100737          	lui	a4,0x100
    36e4:	fff70793          	addi	a5,a4,-1 # fffff <__data_region_end+0xd090b>
    36e8:	00b7f733          	and	a4,a5,a1
    36ec:	0145d593          	srli	a1,a1,0x14
    36f0:	00d7f7b3          	and	a5,a5,a3
    36f4:	7ff5f593          	andi	a1,a1,2047
    36f8:	0146d693          	srli	a3,a3,0x14
    36fc:	7ff00813          	li	a6,2047
    3700:	7ff6f693          	andi	a3,a3,2047
    3704:	01059863          	bne	a1,a6,3714 <__unorddf2+0x34>
    3708:	00a76733          	or	a4,a4,a0
    370c:	00100513          	li	a0,1
    3710:	00071c63          	bnez	a4,3728 <__unorddf2+0x48>
    3714:	7ff00713          	li	a4,2047
    3718:	00000513          	li	a0,0
    371c:	00e69663          	bne	a3,a4,3728 <__unorddf2+0x48>
    3720:	00c7e7b3          	or	a5,a5,a2
    3724:	00f03533          	snez	a0,a5
    3728:	00008067          	ret

0000372c <__fixdfsi>:
    372c:	0145d713          	srli	a4,a1,0x14
    3730:	001006b7          	lui	a3,0x100
    3734:	fff68793          	addi	a5,a3,-1 # fffff <__data_region_end+0xd090b>
    3738:	7ff77713          	andi	a4,a4,2047
    373c:	3fe00613          	li	a2,1022
    3740:	00b7f7b3          	and	a5,a5,a1
    3744:	01f5d593          	srli	a1,a1,0x1f
    3748:	04e65e63          	bge	a2,a4,37a4 <__fixdfsi+0x78>
    374c:	41d00613          	li	a2,1053
    3750:	00e65a63          	bge	a2,a4,3764 <__fixdfsi+0x38>
    3754:	80000537          	lui	a0,0x80000
    3758:	fff54513          	not	a0,a0
    375c:	00a58533          	add	a0,a1,a0
    3760:	00008067          	ret
    3764:	00d7e7b3          	or	a5,a5,a3
    3768:	43300693          	li	a3,1075
    376c:	40e686b3          	sub	a3,a3,a4
    3770:	01f00613          	li	a2,31
    3774:	02d64063          	blt	a2,a3,3794 <__fixdfsi+0x68>
    3778:	bed70713          	addi	a4,a4,-1043
    377c:	00e797b3          	sll	a5,a5,a4
    3780:	00d55533          	srl	a0,a0,a3
    3784:	00a7e533          	or	a0,a5,a0
    3788:	02058063          	beqz	a1,37a8 <__fixdfsi+0x7c>
    378c:	40a00533          	neg	a0,a0
    3790:	00008067          	ret
    3794:	41300513          	li	a0,1043
    3798:	40e50533          	sub	a0,a0,a4
    379c:	00a7d533          	srl	a0,a5,a0
    37a0:	fe9ff06f          	j	3788 <__fixdfsi+0x5c>
    37a4:	00000513          	li	a0,0
    37a8:	00008067          	ret

000037ac <__floatsidf>:
    37ac:	ff010113          	addi	sp,sp,-16
    37b0:	00112623          	sw	ra,12(sp)
    37b4:	00812423          	sw	s0,8(sp)
    37b8:	00912223          	sw	s1,4(sp)
    37bc:	08050663          	beqz	a0,3848 <__floatsidf+0x9c>
    37c0:	41f55793          	srai	a5,a0,0x1f
    37c4:	00a7c433          	xor	s0,a5,a0
    37c8:	40f40433          	sub	s0,s0,a5
    37cc:	01f55493          	srli	s1,a0,0x1f
    37d0:	00040513          	mv	a0,s0
    37d4:	b1dfc0ef          	jal	ra,2f0 <__clzsi2>
    37d8:	41e00713          	li	a4,1054
    37dc:	00a00793          	li	a5,10
    37e0:	40a70733          	sub	a4,a4,a0
    37e4:	04a7c863          	blt	a5,a0,3834 <__floatsidf+0x88>
    37e8:	00b00793          	li	a5,11
    37ec:	40a787b3          	sub	a5,a5,a0
    37f0:	01550513          	addi	a0,a0,21 # 80000015 <CONFIG_SYSTEM_WORKQUEUE_PRIORITY+0x80000016>
    37f4:	00f457b3          	srl	a5,s0,a5
    37f8:	00a41433          	sll	s0,s0,a0
    37fc:	00048513          	mv	a0,s1
    3800:	00c79793          	slli	a5,a5,0xc
    3804:	01471713          	slli	a4,a4,0x14
    3808:	00c7d793          	srli	a5,a5,0xc
    380c:	01f51513          	slli	a0,a0,0x1f
    3810:	00f767b3          	or	a5,a4,a5
    3814:	00c12083          	lw	ra,12(sp)
    3818:	00a7e733          	or	a4,a5,a0
    381c:	00040513          	mv	a0,s0
    3820:	00812403          	lw	s0,8(sp)
    3824:	00412483          	lw	s1,4(sp)
    3828:	00070593          	mv	a1,a4
    382c:	01010113          	addi	sp,sp,16
    3830:	00008067          	ret
    3834:	ff550513          	addi	a0,a0,-11
    3838:	00a417b3          	sll	a5,s0,a0
    383c:	00048513          	mv	a0,s1
    3840:	00000413          	li	s0,0
    3844:	fbdff06f          	j	3800 <__floatsidf+0x54>
    3848:	00000713          	li	a4,0
    384c:	00000793          	li	a5,0
    3850:	ff1ff06f          	j	3840 <__floatsidf+0x94>

00003854 <__trunctfdf2>:
    3854:	fd010113          	addi	sp,sp,-48
    3858:	00852783          	lw	a5,8(a0)
    385c:	02812423          	sw	s0,40(sp)
    3860:	00c52403          	lw	s0,12(a0)
    3864:	00452703          	lw	a4,4(a0)
    3868:	00052683          	lw	a3,0(a0)
    386c:	00f12423          	sw	a5,8(sp)
    3870:	00f12c23          	sw	a5,24(sp)
    3874:	01041793          	slli	a5,s0,0x10
    3878:	00e12223          	sw	a4,4(sp)
    387c:	00e12a23          	sw	a4,20(sp)
    3880:	0107d793          	srli	a5,a5,0x10
    3884:	00141713          	slli	a4,s0,0x1
    3888:	00812623          	sw	s0,12(sp)
    388c:	02112623          	sw	ra,44(sp)
    3890:	02912223          	sw	s1,36(sp)
    3894:	00d12023          	sw	a3,0(sp)
    3898:	00d12823          	sw	a3,16(sp)
    389c:	00f12e23          	sw	a5,28(sp)
    38a0:	01175713          	srli	a4,a4,0x11
    38a4:	01f45413          	srli	s0,s0,0x1f
    38a8:	01010513          	addi	a0,sp,16
    38ac:	01c10613          	addi	a2,sp,28
    38b0:	00062783          	lw	a5,0(a2)
    38b4:	ffc62683          	lw	a3,-4(a2)
    38b8:	ffc60613          	addi	a2,a2,-4
    38bc:	00379793          	slli	a5,a5,0x3
    38c0:	01d6d693          	srli	a3,a3,0x1d
    38c4:	00d7e7b3          	or	a5,a5,a3
    38c8:	00f62223          	sw	a5,4(a2)
    38cc:	fec512e3          	bne	a0,a2,38b0 <__trunctfdf2+0x5c>
    38d0:	01012683          	lw	a3,16(sp)
    38d4:	00170793          	addi	a5,a4,1
    38d8:	00369593          	slli	a1,a3,0x3
    38dc:	000086b7          	lui	a3,0x8
    38e0:	ffe68693          	addi	a3,a3,-2 # 7ffe <z_set_timeout_expiry+0x6>
    38e4:	00b12823          	sw	a1,16(sp)
    38e8:	00d7f7b3          	and	a5,a5,a3
    38ec:	1c078063          	beqz	a5,3aac <__trunctfdf2+0x258>
    38f0:	ffffc7b7          	lui	a5,0xffffc
    38f4:	40078793          	addi	a5,a5,1024 # ffffc400 <CONFIG_SYSTEM_WORKQUEUE_PRIORITY+0xffffc401>
    38f8:	00f70733          	add	a4,a4,a5
    38fc:	7fe00793          	li	a5,2046
    3900:	20e7c263          	blt	a5,a4,3b04 <__trunctfdf2+0x2b0>
    3904:	06e05863          	blez	a4,3974 <__trunctfdf2+0x120>
    3908:	01812503          	lw	a0,24(sp)
    390c:	01c12603          	lw	a2,28(sp)
    3910:	01412783          	lw	a5,20(sp)
    3914:	01c55693          	srli	a3,a0,0x1c
    3918:	00461613          	slli	a2,a2,0x4
    391c:	00d66633          	or	a2,a2,a3
    3920:	00479693          	slli	a3,a5,0x4
    3924:	00b6e6b3          	or	a3,a3,a1
    3928:	01c7d793          	srli	a5,a5,0x1c
    392c:	00451513          	slli	a0,a0,0x4
    3930:	00d036b3          	snez	a3,a3
    3934:	00a7e7b3          	or	a5,a5,a0
    3938:	00f6e6b3          	or	a3,a3,a5
    393c:	00c12a23          	sw	a2,20(sp)
    3940:	00d12823          	sw	a3,16(sp)
    3944:	01012683          	lw	a3,16(sp)
    3948:	01412783          	lw	a5,20(sp)
    394c:	0076f613          	andi	a2,a3,7
    3950:	1c060063          	beqz	a2,3b10 <__trunctfdf2+0x2bc>
    3954:	00f6f613          	andi	a2,a3,15
    3958:	00400593          	li	a1,4
    395c:	1ab60a63          	beq	a2,a1,3b10 <__trunctfdf2+0x2bc>
    3960:	00468613          	addi	a2,a3,4
    3964:	00d636b3          	sltu	a3,a2,a3
    3968:	00d787b3          	add	a5,a5,a3
    396c:	00060693          	mv	a3,a2
    3970:	1a00006f          	j	3b10 <__trunctfdf2+0x2bc>
    3974:	fcc00793          	li	a5,-52
    3978:	00f75c63          	bge	a4,a5,3990 <__trunctfdf2+0x13c>
    397c:	00012a23          	sw	zero,20(sp)
    3980:	00100793          	li	a5,1
    3984:	00f12823          	sw	a5,16(sp)
    3988:	00000713          	li	a4,0
    398c:	fb9ff06f          	j	3944 <__trunctfdf2+0xf0>
    3990:	01c12783          	lw	a5,28(sp)
    3994:	000808b7          	lui	a7,0x80
    3998:	00050593          	mv	a1,a0
    399c:	00f8e8b3          	or	a7,a7,a5
    39a0:	03d00793          	li	a5,61
    39a4:	40e78733          	sub	a4,a5,a4
    39a8:	01112e23          	sw	a7,28(sp)
    39ac:	40575793          	srai	a5,a4,0x5
    39b0:	00000693          	li	a3,0
    39b4:	00000493          	li	s1,0
    39b8:	0005a803          	lw	a6,0(a1)
    39bc:	00168693          	addi	a3,a3,1
    39c0:	00458593          	addi	a1,a1,4
    39c4:	0104e4b3          	or	s1,s1,a6
    39c8:	fed798e3          	bne	a5,a3,39b8 <__trunctfdf2+0x164>
    39cc:	01f77713          	andi	a4,a4,31
    39d0:	00279693          	slli	a3,a5,0x2
    39d4:	02071863          	bnez	a4,3a04 <__trunctfdf2+0x1b0>
    39d8:	00300593          	li	a1,3
    39dc:	40f585b3          	sub	a1,a1,a5
    39e0:	00d60833          	add	a6,a2,a3
    39e4:	00082803          	lw	a6,0(a6)
    39e8:	00170713          	addi	a4,a4,1
    39ec:	00460613          	addi	a2,a2,4
    39f0:	ff062e23          	sw	a6,-4(a2)
    39f4:	fee5d6e3          	bge	a1,a4,39e0 <__trunctfdf2+0x18c>
    39f8:	00400713          	li	a4,4
    39fc:	40f707b3          	sub	a5,a4,a5
    3a00:	0580006f          	j	3a58 <__trunctfdf2+0x204>
    3a04:	ffc00e13          	li	t3,-4
    3a08:	03c78e33          	mul	t3,a5,t3
    3a0c:	02010613          	addi	a2,sp,32
    3a10:	00d60633          	add	a2,a2,a3
    3a14:	ff062603          	lw	a2,-16(a2)
    3a18:	02000813          	li	a6,32
    3a1c:	40e80833          	sub	a6,a6,a4
    3a20:	01061633          	sll	a2,a2,a6
    3a24:	00c4e4b3          	or	s1,s1,a2
    3a28:	00300613          	li	a2,3
    3a2c:	00d506b3          	add	a3,a0,a3
    3a30:	00000313          	li	t1,0
    3a34:	40f60633          	sub	a2,a2,a5
    3a38:	04c34663          	blt	t1,a2,3a84 <__trunctfdf2+0x230>
    3a3c:	00400693          	li	a3,4
    3a40:	40f687b3          	sub	a5,a3,a5
    3a44:	00261613          	slli	a2,a2,0x2
    3a48:	02010693          	addi	a3,sp,32
    3a4c:	00c68633          	add	a2,a3,a2
    3a50:	00e8d733          	srl	a4,a7,a4
    3a54:	fee62823          	sw	a4,-16(a2)
    3a58:	00400613          	li	a2,4
    3a5c:	40f60633          	sub	a2,a2,a5
    3a60:	00279793          	slli	a5,a5,0x2
    3a64:	00f50533          	add	a0,a0,a5
    3a68:	00261613          	slli	a2,a2,0x2
    3a6c:	00000593          	li	a1,0
    3a70:	b0cff0ef          	jal	ra,2d7c <memset>
    3a74:	01012703          	lw	a4,16(sp)
    3a78:	009037b3          	snez	a5,s1
    3a7c:	00f767b3          	or	a5,a4,a5
    3a80:	f05ff06f          	j	3984 <__trunctfdf2+0x130>
    3a84:	0006a583          	lw	a1,0(a3)
    3a88:	0046ae83          	lw	t4,4(a3)
    3a8c:	01c68f33          	add	t5,a3,t3
    3a90:	00e5d5b3          	srl	a1,a1,a4
    3a94:	010e9eb3          	sll	t4,t4,a6
    3a98:	01d5e5b3          	or	a1,a1,t4
    3a9c:	00bf2023          	sw	a1,0(t5)
    3aa0:	00130313          	addi	t1,t1,1
    3aa4:	00468693          	addi	a3,a3,4
    3aa8:	f91ff06f          	j	3a38 <__trunctfdf2+0x1e4>
    3aac:	01412603          	lw	a2,20(sp)
    3ab0:	01812783          	lw	a5,24(sp)
    3ab4:	01c12503          	lw	a0,28(sp)
    3ab8:	00c7e6b3          	or	a3,a5,a2
    3abc:	00a6e6b3          	or	a3,a3,a0
    3ac0:	00b6e6b3          	or	a3,a3,a1
    3ac4:	00071863          	bnez	a4,3ad4 <__trunctfdf2+0x280>
    3ac8:	00d036b3          	snez	a3,a3
    3acc:	00000793          	li	a5,0
    3ad0:	e7dff06f          	j	394c <__trunctfdf2+0xf8>
    3ad4:	0c068663          	beqz	a3,3ba0 <__trunctfdf2+0x34c>
    3ad8:	01c65693          	srli	a3,a2,0x1c
    3adc:	00451513          	slli	a0,a0,0x4
    3ae0:	00479613          	slli	a2,a5,0x4
    3ae4:	01c7d793          	srli	a5,a5,0x1c
    3ae8:	00400737          	lui	a4,0x400
    3aec:	00c6e6b3          	or	a3,a3,a2
    3af0:	00a7e7b3          	or	a5,a5,a0
    3af4:	00e7e7b3          	or	a5,a5,a4
    3af8:	ff86f693          	andi	a3,a3,-8
    3afc:	7ff00713          	li	a4,2047
    3b00:	e4dff06f          	j	394c <__trunctfdf2+0xf8>
    3b04:	00000793          	li	a5,0
    3b08:	00000693          	li	a3,0
    3b0c:	7ff00713          	li	a4,2047
    3b10:	00800637          	lui	a2,0x800
    3b14:	00c7f633          	and	a2,a5,a2
    3b18:	00060e63          	beqz	a2,3b34 <__trunctfdf2+0x2e0>
    3b1c:	00170713          	addi	a4,a4,1 # 400001 <__data_region_end+0x3d090d>
    3b20:	7ff00613          	li	a2,2047
    3b24:	08c70263          	beq	a4,a2,3ba8 <__trunctfdf2+0x354>
    3b28:	ff800637          	lui	a2,0xff800
    3b2c:	fff60613          	addi	a2,a2,-1 # ff7fffff <CONFIG_SYSTEM_WORKQUEUE_PRIORITY+0xff800000>
    3b30:	00c7f7b3          	and	a5,a5,a2
    3b34:	01d79613          	slli	a2,a5,0x1d
    3b38:	0036d693          	srli	a3,a3,0x3
    3b3c:	00d666b3          	or	a3,a2,a3
    3b40:	7ff00613          	li	a2,2047
    3b44:	0037d793          	srli	a5,a5,0x3
    3b48:	00c71e63          	bne	a4,a2,3b64 <__trunctfdf2+0x310>
    3b4c:	00f6e6b3          	or	a3,a3,a5
    3b50:	00000793          	li	a5,0
    3b54:	00068863          	beqz	a3,3b64 <__trunctfdf2+0x310>
    3b58:	000807b7          	lui	a5,0x80
    3b5c:	00000693          	li	a3,0
    3b60:	00000413          	li	s0,0
    3b64:	01471713          	slli	a4,a4,0x14
    3b68:	7ff00637          	lui	a2,0x7ff00
    3b6c:	00c79793          	slli	a5,a5,0xc
    3b70:	00c77733          	and	a4,a4,a2
    3b74:	00c7d793          	srli	a5,a5,0xc
    3b78:	01f41413          	slli	s0,s0,0x1f
    3b7c:	00f767b3          	or	a5,a4,a5
    3b80:	02c12083          	lw	ra,44(sp)
    3b84:	0087e733          	or	a4,a5,s0
    3b88:	02812403          	lw	s0,40(sp)
    3b8c:	02412483          	lw	s1,36(sp)
    3b90:	00068513          	mv	a0,a3
    3b94:	00070593          	mv	a1,a4
    3b98:	03010113          	addi	sp,sp,48
    3b9c:	00008067          	ret
    3ba0:	00000793          	li	a5,0
    3ba4:	f69ff06f          	j	3b0c <__trunctfdf2+0x2b8>
    3ba8:	00000793          	li	a5,0
    3bac:	00000693          	li	a3,0
    3bb0:	f85ff06f          	j	3b34 <__trunctfdf2+0x2e0>

00003bb4 <_OffsetAbsSyms>:
 * point regs
 */
GEN_ABSOLUTE_SYM(_K_THREAD_NO_FLOAT_SIZEOF,
		 STACK_ROUND_UP(sizeof(struct k_thread)));

GEN_ABS_SYM_END
    3bb4:	00008067          	ret

00003bb8 <thread_software>:
    *acceleratorBusyFlag = 0;
    k_sem_give(&accel_thread_sem);
}

void thread_software() {
    printf("Inside software thread!\n");
    3bb8:	0000d537          	lui	a0,0xd
    3bbc:	1c050513          	addi	a0,a0,448 # d1c0 <__mprec_tens+0xc8>
    3bc0:	3010506f          	j	96c0 <iprintf>

00003bc4 <thread_accelerator>:
    //     printf("New matmul added to the stack!\n");
    // }
}

void thread_accelerator() {
    printf("Inside accelerator thread!\n");
    3bc4:	0000d537          	lui	a0,0xd
    3bc8:	1dc50513          	addi	a0,a0,476 # d1dc <__mprec_tens+0xe4>
    3bcc:	2f50506f          	j	96c0 <iprintf>

00003bd0 <my_isr>:
    *acceleratorGIER = 0;
    3bd0:	900007b7          	lui	a5,0x90000
    3bd4:	0007a223          	sw	zero,4(a5) # 90000004 <CONFIG_SYSTEM_WORKQUEUE_PRIORITY+0x90000005>
    *acceleratorIP_IER = 0;
    3bd8:	0007a423          	sw	zero,8(a5)
    *acceleratorBusyFlag = 0;
    3bdc:	0002f7b7          	lui	a5,0x2f
    3be0:	45c7a783          	lw	a5,1116(a5) # 2f45c <acceleratorBusyFlag>
    3be4:	0007a023          	sw	zero,0(a5)
		arch_syscall_invoke1(*(uintptr_t *)&sem, K_SYSCALL_K_SEM_GIVE);
		return;
	}
#endif
	compiler_barrier();
	z_impl_k_sem_give(sem);
    3be8:	0002f537          	lui	a0,0x2f
    3bec:	6e450513          	addi	a0,a0,1764 # 2f6e4 <accel_thread_sem>
    3bf0:	3c40306f          	j	6fb4 <z_impl_k_sem_give>

00003bf4 <my_isr_installer>:
    arch_irq_enable(ACCEL_IRQ);
    3bf4:	00f00513          	li	a0,15
    3bf8:	4580206f          	j	6050 <arch_irq_enable>

00003bfc <main>:
    printf("*** Starting matmul UC 1 ***\n\n");
    3bfc:	0000d537          	lui	a0,0xd
{
    3c00:	fd010113          	addi	sp,sp,-48
    printf("*** Starting matmul UC 1 ***\n\n");
    3c04:	1f850513          	addi	a0,a0,504 # d1f8 <__mprec_tens+0x100>
{
    3c08:	02112623          	sw	ra,44(sp)
    3c0c:	02912223          	sw	s1,36(sp)
    3c10:	02812423          	sw	s0,40(sp)
    3c14:	03212023          	sw	s2,32(sp)
    3c18:	01312e23          	sw	s3,28(sp)
    3c1c:	01412c23          	sw	s4,24(sp)
    3c20:	01512a23          	sw	s5,20(sp)
    printf("*** Starting matmul UC 1 ***\n\n");
    3c24:	29d050ef          	jal	ra,96c0 <iprintf>
    printf("Installing ISR...\n");
    3c28:	0000d537          	lui	a0,0xd
    3c2c:	21850513          	addi	a0,a0,536 # d218 <__mprec_tens+0x120>
    3c30:	291050ef          	jal	ra,96c0 <iprintf>
    my_isr_installer();
    3c34:	fc1ff0ef          	jal	ra,3bf4 <my_isr_installer>
    head = (struct matmul *)k_malloc(sizeof(struct matmul));
    3c38:	02000513          	li	a0,32
    3c3c:	0000e4b7          	lui	s1,0xe
    3c40:	6f0040ef          	jal	ra,8330 <k_malloc>
    3c44:	98a4a223          	sw	a0,-1660(s1) # d984 <head>
    if(head == NULL) printf("Error allocating memory for matmul linked list head!\n");
    3c48:	98448493          	addi	s1,s1,-1660
    3c4c:	00051863          	bnez	a0,3c5c <main+0x60>
    3c50:	0000d537          	lui	a0,0xd
    3c54:	22c50513          	addi	a0,a0,556 # d22c <__mprec_tens+0x134>
    3c58:	269050ef          	jal	ra,96c0 <iprintf>
    init_matmul(head, 0, 0, 0);
    3c5c:	0004a503          	lw	a0,0(s1)
    3c60:	00000693          	li	a3,0
    3c64:	00000613          	li	a2,0
    3c68:	00000593          	li	a1,0
    3c6c:	300000ef          	jal	ra,3f6c <init_matmul>
    printf("Defining %d matmuls and adding them to the queue...\n", NUM_MATMULS);
    3c70:	0000d537          	lui	a0,0xd
    3c74:	06400593          	li	a1,100
    3c78:	26450513          	addi	a0,a0,612 # d264 <__mprec_tens+0x16c>
    3c7c:	245050ef          	jal	ra,96c0 <iprintf>
    for(int i=0; i<NUM_MATMULS; i++) {
    3c80:	00000413          	li	s0,0
        if(err == -1) {
    3c84:	fff00a13          	li	s4,-1
    for(int i=0; i<NUM_MATMULS; i++) {
    3c88:	06400993          	li	s3,100
        struct matmul *newNode = (struct matmul *)k_malloc(sizeof(struct matmul));
    3c8c:	02000513          	li	a0,32
    3c90:	6a0040ef          	jal	ra,8330 <k_malloc>
    3c94:	00050913          	mv	s2,a0
        if(newNode == NULL) {
    3c98:	1e051063          	bnez	a0,3e78 <main+0x27c>
            printf("Could not allocate space for matmul %d!\n", i);
    3c9c:	0000d537          	lui	a0,0xd
    3ca0:	00040593          	mv	a1,s0
    3ca4:	29c50513          	addi	a0,a0,668 # d29c <__mprec_tens+0x1a4>
    3ca8:	219050ef          	jal	ra,96c0 <iprintf>
    printf("%d matmuls added to the queue!\n", NUM_MATMULS);
    3cac:	0000d537          	lui	a0,0xd
    3cb0:	06400593          	li	a1,100
    3cb4:	2c850513          	addi	a0,a0,712 # d2c8 <__mprec_tens+0x1d0>
    3cb8:	209050ef          	jal	ra,96c0 <iprintf>
    printf("\nPerforming software matrix multiplication...\n");
    3cbc:	0000d537          	lui	a0,0xd
    3cc0:	2e850513          	addi	a0,a0,744 # d2e8 <__mprec_tens+0x1f0>
    3cc4:	1fd050ef          	jal	ra,96c0 <iprintf>
    node = head->next;
    3cc8:	0004a783          	lw	a5,0(s1)
    3ccc:	01c7a403          	lw	s0,28(a5)
		}
	} else if (mul_ratio) {
		if (result32) {
			return ((uint32_t)t) * (to_hz / from_hz);
		} else {
			return t * ((uint64_t)to_hz / from_hz);
    3cd0:	00a00913          	li	s2,10
	return z_impl_k_uptime_ticks();
    3cd4:	514040ef          	jal	ra,81e8 <z_impl_k_uptime_ticks>
    3cd8:	02a90933          	mul	s2,s2,a0
    start_sw_ms = k_uptime_get();
    3cdc:	06400993          	li	s3,100
        multiply_mat_sw(node->resultSW, node->mat1, node->mat2, node->mat1Rows, node->mat1Cols, node->mat2Cols);
    3ce0:	01042783          	lw	a5,16(s0)
    3ce4:	00c42703          	lw	a4,12(s0)
    3ce8:	00842683          	lw	a3,8(s0)
    3cec:	00442603          	lw	a2,4(s0)
    3cf0:	00042583          	lw	a1,0(s0)
    3cf4:	01842503          	lw	a0,24(s0)
    for(int i=0; i<NUM_MATMULS; i++) {
    3cf8:	fff98993          	addi	s3,s3,-1
        multiply_mat_sw(node->resultSW, node->mat1, node->mat2, node->mat1Rows, node->mat1Cols, node->mat2Cols);
    3cfc:	430000ef          	jal	ra,412c <multiply_mat_sw>
        node = node->next;
    3d00:	01c42403          	lw	s0,28(s0)
    for(int i=0; i<NUM_MATMULS; i++) {
    3d04:	fc099ee3          	bnez	s3,3ce0 <main+0xe4>
    3d08:	00a00413          	li	s0,10
    3d0c:	4dc040ef          	jal	ra,81e8 <z_impl_k_uptime_ticks>
    3d10:	02a40433          	mul	s0,s0,a0
    printf("Completed software matrix multiplication!\n");
    3d14:	0000d537          	lui	a0,0xd
    3d18:	31850513          	addi	a0,a0,792 # d318 <__mprec_tens+0x220>
    3d1c:	1a5050ef          	jal	ra,96c0 <iprintf>
    3d20:	fff00a13          	li	s4,-1
    3d24:	fff00a93          	li	s5,-1
    time_sw = finish_sw_ms - start_sw_ms;
    3d28:	41240433          	sub	s0,s0,s2
	return z_impl_k_thread_create(new_thread, stack, stack_size, entry, p1, p2, p3, prio, options, delay);
    3d2c:	0000e937          	lui	s2,0xe
    3d30:	000046b7          	lui	a3,0x4
    3d34:	0000e5b7          	lui	a1,0xe
    3d38:	01412423          	sw	s4,8(sp)
    3d3c:	01512623          	sw	s5,12(sp)
    3d40:	00012023          	sw	zero,0(sp)
    3d44:	00500893          	li	a7,5
    3d48:	00000813          	li	a6,0
    3d4c:	00000793          	li	a5,0
    3d50:	00000713          	li	a4,0
    3d54:	bc468693          	addi	a3,a3,-1084 # 3bc4 <thread_accelerator>
    3d58:	40000613          	li	a2,1024
    3d5c:	c9058593          	addi	a1,a1,-880 # dc90 <threadA_stack_area>
    3d60:	9c890513          	addi	a0,s2,-1592 # d9c8 <threadA_data>
    3d64:	645020ef          	jal	ra,6ba8 <z_impl_k_thread_create>
    accel_thread_id = k_thread_create(&threadA_data, threadA_stack_area,
    3d68:	0000e7b7          	lui	a5,0xe
    3d6c:	98a7a023          	sw	a0,-1664(a5) # d980 <accel_thread_id>
	return z_impl_k_thread_name_set(thread, str);
    3d70:	0000d5b7          	lui	a1,0xd
    3d74:	34458593          	addi	a1,a1,836 # d344 <__mprec_tens+0x24c>
    3d78:	9c890513          	addi	a0,s2,-1592
    3d7c:	531020ef          	jal	ra,6aac <z_impl_k_thread_name_set>
	z_impl_k_thread_start(thread);
    3d80:	9c890513          	addi	a0,s2,-1592
    3d84:	569020ef          	jal	ra,6aec <z_impl_k_thread_start>
	return z_impl_k_thread_create(new_thread, stack, stack_size, entry, p1, p2, p3, prio, options, delay);
    3d88:	0000e937          	lui	s2,0xe
    3d8c:	000046b7          	lui	a3,0x4
    3d90:	0000e5b7          	lui	a1,0xe
    3d94:	01412423          	sw	s4,8(sp)
    3d98:	01512623          	sw	s5,12(sp)
    3d9c:	00012023          	sw	zero,0(sp)
    3da0:	00900893          	li	a7,9
    3da4:	00000813          	li	a6,0
    3da8:	00000793          	li	a5,0
    3dac:	00000713          	li	a4,0
    3db0:	bb868693          	addi	a3,a3,-1096 # 3bb8 <thread_software>
    3db4:	40000613          	li	a2,1024
    3db8:	09058593          	addi	a1,a1,144 # e090 <threadB_stack_area>
    3dbc:	a7090513          	addi	a0,s2,-1424 # da70 <threadB_data>
    3dc0:	5e9020ef          	jal	ra,6ba8 <z_impl_k_thread_create>
    sw_thread_id = k_thread_create(&threadB_data, threadB_stack_area,
    3dc4:	0000e7b7          	lui	a5,0xe
    3dc8:	98a7a423          	sw	a0,-1656(a5) # d988 <sw_thread_id>
	return z_impl_k_thread_name_set(thread, str);
    3dcc:	0000d5b7          	lui	a1,0xd
    3dd0:	35058593          	addi	a1,a1,848 # d350 <__mprec_tens+0x258>
    3dd4:	a7090513          	addi	a0,s2,-1424
    3dd8:	4d5020ef          	jal	ra,6aac <z_impl_k_thread_name_set>
	z_impl_k_thread_start(thread);
    3ddc:	a7090513          	addi	a0,s2,-1424
    3de0:	50d020ef          	jal	ra,6aec <z_impl_k_thread_start>
	return z_impl_k_sleep(timeout);
    3de4:	00000593          	li	a1,0
    3de8:	06400513          	li	a0,100
    3dec:	5d5030ef          	jal	ra,7bc0 <z_impl_k_sleep>
    time_hw =0;
    3df0:	0000e937          	lui	s2,0xe
    printf("\n%d matmuls done with %d errors!\n", NUM_MATMULS, numErrors);
    3df4:	0000d537          	lui	a0,0xd
    3df8:	00000613          	li	a2,0
    time_hw =0;
    3dfc:	98c90913          	addi	s2,s2,-1652 # d98c <time_hw>
    printf("\n%d matmuls done with %d errors!\n", NUM_MATMULS, numErrors);
    3e00:	06400593          	li	a1,100
    3e04:	35c50513          	addi	a0,a0,860 # d35c <__mprec_tens+0x264>
    time_hw =0;
    3e08:	00092023          	sw	zero,0(s2)
    printf("\n%d matmuls done with %d errors!\n", NUM_MATMULS, numErrors);
    3e0c:	0b5050ef          	jal	ra,96c0 <iprintf>
    printf("Software took %u miliseconds\n", time_sw);
    3e10:	0000d537          	lui	a0,0xd
    3e14:	00040593          	mv	a1,s0
    3e18:	38050513          	addi	a0,a0,896 # d380 <__mprec_tens+0x288>
    3e1c:	0a5050ef          	jal	ra,96c0 <iprintf>
    printf("Hardware took %u miliseconds\n", time_hw);
    3e20:	00092583          	lw	a1,0(s2)
    3e24:	0000d537          	lui	a0,0xd
    3e28:	3a050513          	addi	a0,a0,928 # d3a0 <__mprec_tens+0x2a8>
    3e2c:	095050ef          	jal	ra,96c0 <iprintf>
    printf("\nFreeing memory...\n");
    3e30:	0000d537          	lui	a0,0xd
    3e34:	3c050513          	addi	a0,a0,960 # d3c0 <__mprec_tens+0x2c8>
    3e38:	089050ef          	jal	ra,96c0 <iprintf>
    free_queue(head);
    3e3c:	0004a503          	lw	a0,0(s1)
    3e40:	2a4000ef          	jal	ra,40e4 <free_queue>
    printf("\n*** Exiting matmul UC 1 ***\n");
    3e44:	0000d537          	lui	a0,0xd
    3e48:	3d450513          	addi	a0,a0,980 # d3d4 <__mprec_tens+0x2dc>
    3e4c:	075050ef          	jal	ra,96c0 <iprintf>
}
    3e50:	02812403          	lw	s0,40(sp)
    3e54:	02c12083          	lw	ra,44(sp)
    3e58:	02412483          	lw	s1,36(sp)
    3e5c:	02012903          	lw	s2,32(sp)
    3e60:	01c12983          	lw	s3,28(sp)
    3e64:	01812a03          	lw	s4,24(sp)
    3e68:	01412a83          	lw	s5,20(sp)
    exit(0);
    3e6c:	00000513          	li	a0,0
}
    3e70:	03010113          	addi	sp,sp,48
    exit(0);
    3e74:	6a40406f          	j	8518 <exit>
        int err = init_matmul(newNode, 8, 8, 8);
    3e78:	00800693          	li	a3,8
    3e7c:	00800613          	li	a2,8
    3e80:	00800593          	li	a1,8
    3e84:	0e8000ef          	jal	ra,3f6c <init_matmul>
        if(err == -1) {
    3e88:	e1450ae3          	beq	a0,s4,3c9c <main+0xa0>
        fill_matmul(newNode);
    3e8c:	00090513          	mv	a0,s2
    3e90:	194000ef          	jal	ra,4024 <fill_matmul>
        push_matmul(head, newNode);
    3e94:	0004a503          	lw	a0,0(s1)
    3e98:	00090593          	mv	a1,s2
    for(int i=0; i<NUM_MATMULS; i++) {
    3e9c:	00140413          	addi	s0,s0,1
        push_matmul(head, newNode);
    3ea0:	1c0000ef          	jal	ra,4060 <push_matmul>
    for(int i=0; i<NUM_MATMULS; i++) {
    3ea4:	df3414e3          	bne	s0,s3,3c8c <main+0x90>
    3ea8:	e05ff06f          	j	3cac <main+0xb0>

00003eac <create_mat>:
 * @param matrix 
 * @param rows 
 * @param cols 
 */
void create_mat(float *matrix, int rows, int cols)
{
    3eac:	fd010113          	addi	sp,sp,-48
    for (int i=0; i<rows; i++) {
        for (int j=0; j<cols; j++) {
            int random_integer = sys_rand32_get()%100;
            matrix[i*cols+j] = (float)random_integer / 10;
    3eb0:	0000d7b7          	lui	a5,0xd
{
    3eb4:	01812423          	sw	s8,8(sp)
            matrix[i*cols+j] = (float)random_integer / 10;
    3eb8:	ec87ac03          	lw	s8,-312(a5) # cec8 <__device_handles_end+0x54>
{
    3ebc:	02912223          	sw	s1,36(sp)
    3ec0:	01312e23          	sw	s3,28(sp)
    3ec4:	01412c23          	sw	s4,24(sp)
    3ec8:	01512a23          	sw	s5,20(sp)
    3ecc:	01612823          	sw	s6,16(sp)
    3ed0:	01712623          	sw	s7,12(sp)
    3ed4:	02112623          	sw	ra,44(sp)
    3ed8:	02812423          	sw	s0,40(sp)
    3edc:	03212023          	sw	s2,32(sp)
    3ee0:	00050993          	mv	s3,a0
    3ee4:	00058b13          	mv	s6,a1
    3ee8:	00060493          	mv	s1,a2
    for (int i=0; i<rows; i++) {
    3eec:	00000a13          	li	s4,0
    3ef0:	00000a93          	li	s5,0
            int random_integer = sys_rand32_get()%100;
    3ef4:	06400b93          	li	s7,100
    for (int i=0; i<rows; i++) {
    3ef8:	056ad263          	bge	s5,s6,3f3c <create_mat+0x90>
    3efc:	002a1413          	slli	s0,s4,0x2
    3f00:	00898433          	add	s0,s3,s0
        for (int j=0; j<cols; j++) {
    3f04:	00000913          	li	s2,0
    3f08:	0240006f          	j	3f2c <create_mat+0x80>
		/* coverity[OVERRUN] */
		return (uint32_t) arch_syscall_invoke0(K_SYSCALL_SYS_RAND32_GET);
	}
#endif
	compiler_barrier();
	return z_impl_sys_rand32_get();
    3f0c:	7bd010ef          	jal	ra,5ec8 <z_impl_sys_rand32_get>
            matrix[i*cols+j] = (float)random_integer / 10;
    3f10:	03757533          	remu	a0,a0,s7
        for (int j=0; j<cols; j++) {
    3f14:	00190913          	addi	s2,s2,1
    3f18:	00440413          	addi	s0,s0,4
            matrix[i*cols+j] = (float)random_integer / 10;
    3f1c:	d35fe0ef          	jal	ra,2c50 <__floatsisf>
    3f20:	000c0593          	mv	a1,s8
    3f24:	ef4fe0ef          	jal	ra,2618 <__divsf3>
    3f28:	fea42e23          	sw	a0,-4(s0)
        for (int j=0; j<cols; j++) {
    3f2c:	fe9940e3          	blt	s2,s1,3f0c <create_mat+0x60>
    for (int i=0; i<rows; i++) {
    3f30:	001a8a93          	addi	s5,s5,1 # 800001 <__data_region_end+0x7d090d>
    3f34:	009a0a33          	add	s4,s4,s1
    3f38:	fc1ff06f          	j	3ef8 <create_mat+0x4c>
            // matrix[i*cols+j] = 1;
        }
    }
}
    3f3c:	02c12083          	lw	ra,44(sp)
    3f40:	02812403          	lw	s0,40(sp)
    3f44:	02412483          	lw	s1,36(sp)
    3f48:	02012903          	lw	s2,32(sp)
    3f4c:	01c12983          	lw	s3,28(sp)
    3f50:	01812a03          	lw	s4,24(sp)
    3f54:	01412a83          	lw	s5,20(sp)
    3f58:	01012b03          	lw	s6,16(sp)
    3f5c:	00c12b83          	lw	s7,12(sp)
    3f60:	00812c03          	lw	s8,8(sp)
    3f64:	03010113          	addi	sp,sp,48
    3f68:	00008067          	ret

00003f6c <init_matmul>:
 * @param cols1 
 * @param cols2 
 * @return -1 if any error occured allocating memory; 0 otherwise
 */
int init_matmul(struct matmul *node, int rows1, int cols1, int cols2)
{
    3f6c:	fe010113          	addi	sp,sp,-32
    3f70:	00812c23          	sw	s0,24(sp)
    3f74:	00050413          	mv	s0,a0
    node->mat1 = (float *)k_malloc(rows1*cols1*sizeof(float));
    3f78:	02c58533          	mul	a0,a1,a2
{
    3f7c:	00912a23          	sw	s1,20(sp)
    3f80:	01212823          	sw	s2,16(sp)
    3f84:	01312623          	sw	s3,12(sp)
    3f88:	00112e23          	sw	ra,28(sp)
    3f8c:	01412423          	sw	s4,8(sp)
    3f90:	00058993          	mv	s3,a1
    3f94:	00060913          	mv	s2,a2
    3f98:	00068493          	mv	s1,a3
    node->mat1 = (float *)k_malloc(rows1*cols1*sizeof(float));
    3f9c:	00251513          	slli	a0,a0,0x2
    3fa0:	390040ef          	jal	ra,8330 <k_malloc>
    3fa4:	00a42023          	sw	a0,0(s0)
    if(node->mat1 == NULL) return -1;
    3fa8:	02051463          	bnez	a0,3fd0 <init_matmul+0x64>
    3fac:	fff00513          	li	a0,-1
    node->mat2Cols = cols2;

    node->next = NULL;

    return 0;
}
    3fb0:	01c12083          	lw	ra,28(sp)
    3fb4:	01812403          	lw	s0,24(sp)
    3fb8:	01412483          	lw	s1,20(sp)
    3fbc:	01012903          	lw	s2,16(sp)
    3fc0:	00c12983          	lw	s3,12(sp)
    3fc4:	00812a03          	lw	s4,8(sp)
    3fc8:	02010113          	addi	sp,sp,32
    3fcc:	00008067          	ret
    node->mat2 = (float *)k_malloc(cols1*cols2*sizeof(float));
    3fd0:	02990533          	mul	a0,s2,s1
    3fd4:	00251513          	slli	a0,a0,0x2
    3fd8:	358040ef          	jal	ra,8330 <k_malloc>
    3fdc:	00a42223          	sw	a0,4(s0)
    if(node->mat2 == NULL) return -1;
    3fe0:	fc0506e3          	beqz	a0,3fac <init_matmul+0x40>
    node->resultHW = (float *)k_malloc(rows1*cols2*sizeof(float));
    3fe4:	02998a33          	mul	s4,s3,s1
    3fe8:	002a1a13          	slli	s4,s4,0x2
    3fec:	000a0513          	mv	a0,s4
    3ff0:	340040ef          	jal	ra,8330 <k_malloc>
    3ff4:	00a42a23          	sw	a0,20(s0)
    if(node->resultHW == NULL) return -1;
    3ff8:	fa050ae3          	beqz	a0,3fac <init_matmul+0x40>
    node->resultSW = (float *)k_malloc(rows1*cols2*sizeof(float));
    3ffc:	000a0513          	mv	a0,s4
    4000:	330040ef          	jal	ra,8330 <k_malloc>
    4004:	00a42c23          	sw	a0,24(s0)
    if(node->resultSW == NULL) return -1;
    4008:	fa0502e3          	beqz	a0,3fac <init_matmul+0x40>
    node->mat1Rows = rows1;
    400c:	01342423          	sw	s3,8(s0)
    node->mat1Cols = cols1;
    4010:	01242623          	sw	s2,12(s0)
    node->mat2Cols = cols2;
    4014:	00942823          	sw	s1,16(s0)
    node->next = NULL;
    4018:	00042e23          	sw	zero,28(s0)
    return 0;
    401c:	00000513          	li	a0,0
    4020:	f91ff06f          	j	3fb0 <init_matmul+0x44>

00004024 <fill_matmul>:
 * @brief fill both input matrixes in node
 * 
 * @param node 
 */
void fill_matmul(struct matmul *node)
{
    4024:	ff010113          	addi	sp,sp,-16
    4028:	00812423          	sw	s0,8(sp)
    create_mat(node->mat1, node->mat1Rows, node->mat1Cols);
    402c:	00c52603          	lw	a2,12(a0)
{
    4030:	00050413          	mv	s0,a0
    create_mat(node->mat1, node->mat1Rows, node->mat1Cols);
    4034:	00852583          	lw	a1,8(a0)
    4038:	00052503          	lw	a0,0(a0)
{
    403c:	00112623          	sw	ra,12(sp)
    create_mat(node->mat1, node->mat1Rows, node->mat1Cols);
    4040:	e6dff0ef          	jal	ra,3eac <create_mat>
    create_mat(node->mat2, node->mat1Cols, node->mat2Cols);
    4044:	01042603          	lw	a2,16(s0)
    4048:	00c42583          	lw	a1,12(s0)
    404c:	00442503          	lw	a0,4(s0)
}
    4050:	00812403          	lw	s0,8(sp)
    4054:	00c12083          	lw	ra,12(sp)
    4058:	01010113          	addi	sp,sp,16
    create_mat(node->mat2, node->mat1Cols, node->mat2Cols);
    405c:	e51ff06f          	j	3eac <create_mat>

00004060 <push_matmul>:
 * @param head 
 * @param newNode 
 */
void push_matmul(struct matmul *head, struct matmul *newNode)
{
    if (head == NULL) {
    4060:	00050a63          	beqz	a0,4074 <push_matmul+0x14>
        head = newNode;
    } else {
        struct matmul *current = head;
        while (current->next != NULL) {
    4064:	00050793          	mv	a5,a0
    4068:	01c52503          	lw	a0,28(a0)
    406c:	fe051ce3          	bnez	a0,4064 <push_matmul+0x4>
            current = current->next;
        }
        current->next = newNode;
    4070:	00b7ae23          	sw	a1,28(a5)
    }
}
    4074:	00008067          	ret

00004078 <pop2_matmul>:
 * @param head 
 * @param node 
 */
void pop2_matmul(struct matmul *head, struct matmul **node)
{
    if (head->next == NULL) {
    4078:	01c52783          	lw	a5,28(a0)
    407c:	00079863          	bnez	a5,408c <pop2_matmul+0x14>
        printf("Stack is empty!\n");
    4080:	0000d537          	lui	a0,0xd
    4084:	3f450513          	addi	a0,a0,1012 # d3f4 <__mprec_tens+0x2fc>
    4088:	6380506f          	j	96c0 <iprintf>
        return;
    }
    
    *node = head->next;
    408c:	00f5a023          	sw	a5,0(a1)

    if(head->next->next != NULL)
    4090:	01c7a783          	lw	a5,28(a5)
        head->next = head->next->next;
    4094:	00f52e23          	sw	a5,28(a0)
    else
        head->next = NULL;
}
    4098:	00008067          	ret

0000409c <free_matmul>:
 * @brief free memory used buy a single node
 * 
 * @param node 
 */
void free_matmul(struct matmul *node)
{
    409c:	ff010113          	addi	sp,sp,-16
    40a0:	00812423          	sw	s0,8(sp)
    40a4:	00050413          	mv	s0,a0
    k_free(node->mat1);
    40a8:	00052503          	lw	a0,0(a0)
{
    40ac:	00112623          	sw	ra,12(sp)
    k_free(node->mat1);
    40b0:	258040ef          	jal	ra,8308 <k_free>
    k_free(node->mat2);
    40b4:	00442503          	lw	a0,4(s0)
    40b8:	250040ef          	jal	ra,8308 <k_free>
    k_free(node->resultHW);
    40bc:	01442503          	lw	a0,20(s0)
    40c0:	248040ef          	jal	ra,8308 <k_free>
    k_free(node->resultSW);
    40c4:	01842503          	lw	a0,24(s0)
    40c8:	240040ef          	jal	ra,8308 <k_free>
    node->next = NULL;
    k_free(node);
    40cc:	00040513          	mv	a0,s0
    node->next = NULL;
    40d0:	00042e23          	sw	zero,28(s0)
}
    40d4:	00812403          	lw	s0,8(sp)
    40d8:	00c12083          	lw	ra,12(sp)
    40dc:	01010113          	addi	sp,sp,16
    k_free(node);
    40e0:	2280406f          	j	8308 <k_free>

000040e4 <free_queue>:
 * @brief free full queue
 * 
 * @param head 
 */
void free_queue(struct matmul *head)
{
    40e4:	fe010113          	addi	sp,sp,-32
    40e8:	00812c23          	sw	s0,24(sp)
    40ec:	00112e23          	sw	ra,28(sp)
    40f0:	00050413          	mv	s0,a0
    struct matmul *node;
    while(head->next != NULL) {
    40f4:	01c42783          	lw	a5,28(s0)
    40f8:	00079e63          	bnez	a5,4114 <free_queue+0x30>
        pop2_matmul(head, &node);
        free_matmul(node);
    }
    free_matmul(head);
    40fc:	00040513          	mv	a0,s0
    4100:	f9dff0ef          	jal	ra,409c <free_matmul>
    4104:	01c12083          	lw	ra,28(sp)
    4108:	01812403          	lw	s0,24(sp)
    410c:	02010113          	addi	sp,sp,32
    4110:	00008067          	ret
        pop2_matmul(head, &node);
    4114:	00040513          	mv	a0,s0
    4118:	00c10593          	addi	a1,sp,12
    411c:	f5dff0ef          	jal	ra,4078 <pop2_matmul>
        free_matmul(node);
    4120:	00c12503          	lw	a0,12(sp)
    4124:	f79ff0ef          	jal	ra,409c <free_matmul>
    4128:	fcdff06f          	j	40f4 <free_queue+0x10>

0000412c <multiply_mat_sw>:
#include "multiply.h"

void multiply_mat_sw(float *result, float *mat1, float *mat2, int rows1, int cols1, int cols2)
{
    412c:	fa010113          	addi	sp,sp,-96
    4130:	04912a23          	sw	s1,84(sp)
    4134:	05512223          	sw	s5,68(sp)
    4138:	03712e23          	sw	s7,60(sp)
    413c:	03812c23          	sw	s8,56(sp)
    4140:	03912a23          	sw	s9,52(sp)
    4144:	03a12823          	sw	s10,48(sp)
    4148:	03b12623          	sw	s11,44(sp)
    414c:	04112e23          	sw	ra,92(sp)
    4150:	04812c23          	sw	s0,88(sp)
    4154:	05212823          	sw	s2,80(sp)
    4158:	05312623          	sw	s3,76(sp)
    415c:	05412423          	sw	s4,72(sp)
    4160:	05612023          	sw	s6,64(sp)
    4164:	00050c93          	mv	s9,a0
    4168:	00058b93          	mv	s7,a1
    416c:	00070a93          	mv	s5,a4
    4170:	00078493          	mv	s1,a5
    4174:	00279813          	slli	a6,a5,0x2
    for (int i=0; i<rows1; i++) {
    4178:	00000c13          	li	s8,0
    417c:	00000d13          	li	s10,0
    4180:	00000d93          	li	s11,0
    4184:	0addd463          	bge	s11,a3,422c <multiply_mat_sw+0x100>
    4188:	002d1413          	slli	s0,s10,0x2
    418c:	002c1b13          	slli	s6,s8,0x2
    4190:	008c8433          	add	s0,s9,s0
    4194:	016b8b33          	add	s6,s7,s6
        for (int j=0; j<cols2; j++) {
    4198:	00000a13          	li	s4,0
    419c:	0640006f          	j	4200 <multiply_mat_sw+0xd4>
            float val = 0;
            for (int k=0; k<cols1; k++) {
                val += mat1[i*cols1+k]*mat2[k*cols2+j];
    41a0:	0009a583          	lw	a1,0(s3)
    41a4:	00072503          	lw	a0,0(a4)
    41a8:	00d12e23          	sw	a3,28(sp)
    41ac:	00c12c23          	sw	a2,24(sp)
    41b0:	01012a23          	sw	a6,20(sp)
    41b4:	00f12823          	sw	a5,16(sp)
    41b8:	00e12623          	sw	a4,12(sp)
    41bc:	f90fe0ef          	jal	ra,294c <__mulsf3>
    41c0:	00050593          	mv	a1,a0
    41c4:	00090513          	mv	a0,s2
    41c8:	ff5fd0ef          	jal	ra,21bc <__addsf3>
            for (int k=0; k<cols1; k++) {
    41cc:	01012783          	lw	a5,16(sp)
    41d0:	00c12703          	lw	a4,12(sp)
    41d4:	01412803          	lw	a6,20(sp)
    41d8:	01c12683          	lw	a3,28(sp)
    41dc:	01812603          	lw	a2,24(sp)
                val += mat1[i*cols1+k]*mat2[k*cols2+j];
    41e0:	00050913          	mv	s2,a0
            for (int k=0; k<cols1; k++) {
    41e4:	00178793          	addi	a5,a5,1
    41e8:	00470713          	addi	a4,a4,4
    41ec:	010989b3          	add	s3,s3,a6
    41f0:	fb57c8e3          	blt	a5,s5,41a0 <multiply_mat_sw+0x74>
            }
            result[i*cols2+j] = val;
    41f4:	01242023          	sw	s2,0(s0)
        for (int j=0; j<cols2; j++) {
    41f8:	001a0a13          	addi	s4,s4,1
    41fc:	00440413          	addi	s0,s0,4
    4200:	009a5e63          	bge	s4,s1,421c <multiply_mat_sw+0xf0>
    4204:	002a1993          	slli	s3,s4,0x2
    4208:	013609b3          	add	s3,a2,s3
    420c:	000b0713          	mv	a4,s6
            for (int k=0; k<cols1; k++) {
    4210:	00000793          	li	a5,0
            float val = 0;
    4214:	00000913          	li	s2,0
    4218:	fd9ff06f          	j	41f0 <multiply_mat_sw+0xc4>
    for (int i=0; i<rows1; i++) {
    421c:	001d8d93          	addi	s11,s11,1
    4220:	009d0d33          	add	s10,s10,s1
    4224:	015c0c33          	add	s8,s8,s5
    4228:	f5dff06f          	j	4184 <multiply_mat_sw+0x58>
        }
    }
}
    422c:	05c12083          	lw	ra,92(sp)
    4230:	05812403          	lw	s0,88(sp)
    4234:	05412483          	lw	s1,84(sp)
    4238:	05012903          	lw	s2,80(sp)
    423c:	04c12983          	lw	s3,76(sp)
    4240:	04812a03          	lw	s4,72(sp)
    4244:	04412a83          	lw	s5,68(sp)
    4248:	04012b03          	lw	s6,64(sp)
    424c:	03c12b83          	lw	s7,60(sp)
    4250:	03812c03          	lw	s8,56(sp)
    4254:	03412c83          	lw	s9,52(sp)
    4258:	03012d03          	lw	s10,48(sp)
    425c:	02c12d83          	lw	s11,44(sp)
    4260:	06010113          	addi	sp,sp,96
    4264:	00008067          	ret

00004268 <arch_printk_char_out>:
{
	ARG_UNUSED(c);

	/* do nothing */
	return 0;
}
    4268:	00000513          	li	a0,0
    426c:	00008067          	ret

00004270 <char_out>:

static int char_out(int c, void *ctx_p)
{
	struct out_context *ctx = ctx_p;

	ctx->count++;
    4270:	0005a783          	lw	a5,0(a1)
    4274:	00178793          	addi	a5,a5,1
    4278:	00f5a023          	sw	a5,0(a1)
	return _char_out(c);
    427c:	0002f7b7          	lui	a5,0x2f
    4280:	4607a783          	lw	a5,1120(a5) # 2f460 <_char_out>
    4284:	00078067          	jr	a5

00004288 <str_out>:
	int count;
};

static int str_out(int c, struct str_context *ctx)
{
	if (ctx->str == NULL || ctx->count >= ctx->max) {
    4288:	0085a703          	lw	a4,8(a1)
    428c:	0005a783          	lw	a5,0(a1)
		ctx->count++;
		return c;
	}

	if (ctx->count == ctx->max - 1) {
		ctx->str[ctx->count++] = '\0';
    4290:	00170613          	addi	a2,a4,1
	if (ctx->str == NULL || ctx->count >= ctx->max) {
    4294:	00078663          	beqz	a5,42a0 <str_out+0x18>
    4298:	0045a683          	lw	a3,4(a1)
    429c:	00d74663          	blt	a4,a3,42a8 <str_out+0x20>
		ctx->count++;
    42a0:	00c5a423          	sw	a2,8(a1)
		return c;
    42a4:	00008067          	ret
	if (ctx->count == ctx->max - 1) {
    42a8:	fff68693          	addi	a3,a3,-1
		ctx->str[ctx->count++] = '\0';
    42ac:	00c5a423          	sw	a2,8(a1)
    42b0:	00e787b3          	add	a5,a5,a4
	if (ctx->count == ctx->max - 1) {
    42b4:	00e69663          	bne	a3,a4,42c0 <str_out+0x38>
		ctx->str[ctx->count++] = '\0';
    42b8:	00078023          	sb	zero,0(a5)
    42bc:	00008067          	ret
	} else {
		ctx->str[ctx->count++] = c;
    42c0:	00a78023          	sb	a0,0(a5)
	}

	return c;
}
    42c4:	00008067          	ret

000042c8 <__printk_hook_install>:
	_char_out = fn;
    42c8:	0002f7b7          	lui	a5,0x2f
    42cc:	46a7a023          	sw	a0,1120(a5) # 2f460 <_char_out>
}
    42d0:	00008067          	ret

000042d4 <vprintk>:
{
    42d4:	fe010113          	addi	sp,sp,-32
    42d8:	00050613          	mv	a2,a0
		cbvprintf(char_out, &ctx, fmt, ap);
    42dc:	00004537          	lui	a0,0x4
{
    42e0:	00058693          	mv	a3,a1
		cbvprintf(char_out, &ctx, fmt, ap);
    42e4:	27050513          	addi	a0,a0,624 # 4270 <char_out>
    42e8:	00c10593          	addi	a1,sp,12
{
    42ec:	00112e23          	sw	ra,28(sp)
		struct out_context ctx = { 0 };
    42f0:	00012623          	sw	zero,12(sp)
		cbvprintf(char_out, &ctx, fmt, ap);
    42f4:	605000ef          	jal	ra,50f8 <cbvprintf>
}
    42f8:	01c12083          	lw	ra,28(sp)
    42fc:	02010113          	addi	sp,sp,32
    4300:	00008067          	ret

00004304 <printk>:
{
    4304:	fc010113          	addi	sp,sp,-64
    4308:	02b12223          	sw	a1,36(sp)
	va_start(ap, fmt);
    430c:	02410593          	addi	a1,sp,36
{
    4310:	00112e23          	sw	ra,28(sp)
    4314:	02c12423          	sw	a2,40(sp)
    4318:	02d12623          	sw	a3,44(sp)
    431c:	02e12823          	sw	a4,48(sp)
    4320:	02f12a23          	sw	a5,52(sp)
    4324:	03012c23          	sw	a6,56(sp)
    4328:	03112e23          	sw	a7,60(sp)
	va_start(ap, fmt);
    432c:	00b12623          	sw	a1,12(sp)
	vprintk(fmt, ap);
    4330:	fa5ff0ef          	jal	ra,42d4 <vprintk>
}
    4334:	01c12083          	lw	ra,28(sp)
    4338:	04010113          	addi	sp,sp,64
    433c:	00008067          	ret

00004340 <vsnprintk>:

	return ret;
}

int vsnprintk(char *str, size_t size, const char *fmt, va_list ap)
{
    4340:	fe010113          	addi	sp,sp,-32
    4344:	00812c23          	sw	s0,24(sp)
	struct str_context ctx = { str, size, 0 };
    4348:	00a12223          	sw	a0,4(sp)
{
    434c:	00050413          	mv	s0,a0

	cbvprintf(str_out, &ctx, fmt, ap);
    4350:	00004537          	lui	a0,0x4
	struct str_context ctx = { str, size, 0 };
    4354:	00b12423          	sw	a1,8(sp)
	cbvprintf(str_out, &ctx, fmt, ap);
    4358:	28850513          	addi	a0,a0,648 # 4288 <str_out>
    435c:	00410593          	addi	a1,sp,4
{
    4360:	00112e23          	sw	ra,28(sp)
	struct str_context ctx = { str, size, 0 };
    4364:	00012623          	sw	zero,12(sp)
	cbvprintf(str_out, &ctx, fmt, ap);
    4368:	591000ef          	jal	ra,50f8 <cbvprintf>

	if (ctx.count < ctx.max) {
    436c:	00c12503          	lw	a0,12(sp)
    4370:	00812783          	lw	a5,8(sp)
    4374:	00f55663          	bge	a0,a5,4380 <vsnprintk+0x40>
		str[ctx.count] = '\0';
    4378:	00a40433          	add	s0,s0,a0
    437c:	00040023          	sb	zero,0(s0)
	}

	return ctx.count;
}
    4380:	01c12083          	lw	ra,28(sp)
    4384:	01812403          	lw	s0,24(sp)
    4388:	02010113          	addi	sp,sp,32
    438c:	00008067          	ret

00004390 <snprintk>:
{
    4390:	fc010113          	addi	sp,sp,-64
    4394:	02d12623          	sw	a3,44(sp)
	va_start(ap, fmt);
    4398:	02c10693          	addi	a3,sp,44
{
    439c:	00112e23          	sw	ra,28(sp)
    43a0:	02e12823          	sw	a4,48(sp)
    43a4:	02f12a23          	sw	a5,52(sp)
    43a8:	03012c23          	sw	a6,56(sp)
    43ac:	03112e23          	sw	a7,60(sp)
	va_start(ap, fmt);
    43b0:	00d12623          	sw	a3,12(sp)
	ret = vsnprintk(str, size, fmt, ap);
    43b4:	f8dff0ef          	jal	ra,4340 <vsnprintk>
}
    43b8:	01c12083          	lw	ra,28(sp)
    43bc:	04010113          	addi	sp,sp,64
    43c0:	00008067          	ret

000043c4 <z_thread_entry>:
 * This routine does not return, and is marked as such so the compiler won't
 * generate preamble code that is only used by functions that actually return.
 */
FUNC_NORETURN void z_thread_entry(k_thread_entry_t entry,
				 void *p1, void *p2, void *p3)
{
    43c4:	ff010113          	addi	sp,sp,-16
    43c8:	00050793          	mv	a5,a0
    43cc:	00058513          	mv	a0,a1
    43d0:	00060593          	mv	a1,a2
#ifdef CONFIG_THREAD_LOCAL_STORAGE
	z_tls_current = z_current_get();
#endif
	entry(p1, p2, p3);
    43d4:	00068613          	mv	a2,a3
{
    43d8:	00112623          	sw	ra,12(sp)
	entry(p1, p2, p3);
    43dc:	000780e7          	jalr	a5
	return z_impl_z_current_get();
    43e0:	021030ef          	jal	ra,7c00 <z_impl_z_current_get>
	z_impl_k_thread_abort(thread);
    43e4:	11d030ef          	jal	ra,7d00 <z_impl_k_thread_abort>

000043e8 <chunk_field>:
				    enum chunk_fields f)
{
	chunk_unit_t *buf = chunk_buf(h);
	void *cmem = &buf[c];

	if (big_heap(h)) {
    43e8:	00852703          	lw	a4,8(a0)
	void *cmem = &buf[c];
    43ec:	00359593          	slli	a1,a1,0x3
	if (big_heap(h)) {
    43f0:	000087b7          	lui	a5,0x8
	void *cmem = &buf[c];
    43f4:	00b505b3          	add	a1,a0,a1
	if (big_heap(h)) {
    43f8:	00f76a63          	bltu	a4,a5,440c <chunk_field+0x24>
		return ((uint32_t *)cmem)[f];
    43fc:	00261613          	slli	a2,a2,0x2
    4400:	00c585b3          	add	a1,a1,a2
    4404:	0005a503          	lw	a0,0(a1)
    4408:	00008067          	ret
	} else {
		return ((uint16_t *)cmem)[f];
    440c:	00161613          	slli	a2,a2,0x1
    4410:	00c585b3          	add	a1,a1,a2
    4414:	0005d503          	lhu	a0,0(a1)
	}
}
    4418:	00008067          	ret

0000441c <chunk_set>:
	CHECK(c <= h->end_chunk);

	chunk_unit_t *buf = chunk_buf(h);
	void *cmem = &buf[c];

	if (big_heap(h)) {
    441c:	00852703          	lw	a4,8(a0)
	void *cmem = &buf[c];
    4420:	00359593          	slli	a1,a1,0x3
	if (big_heap(h)) {
    4424:	000087b7          	lui	a5,0x8
	void *cmem = &buf[c];
    4428:	00b505b3          	add	a1,a0,a1
	if (big_heap(h)) {
    442c:	00f76a63          	bltu	a4,a5,4440 <chunk_set+0x24>
		CHECK(val == (uint32_t)val);
		((uint32_t *)cmem)[f] = val;
    4430:	00261613          	slli	a2,a2,0x2
    4434:	00c585b3          	add	a1,a1,a2
    4438:	00d5a023          	sw	a3,0(a1)
    443c:	00008067          	ret
	} else {
		CHECK(val == (uint16_t)val);
		((uint16_t *)cmem)[f] = val;
    4440:	00161613          	slli	a2,a2,0x1
    4444:	00c585b3          	add	a1,a1,a2
    4448:	00d59023          	sh	a3,0(a1)
	}
}
    444c:	00008067          	ret

00004450 <chunk_size>:
{
	return chunk_field(h, c, SIZE_AND_USED) & 1U;
}

static inline chunksz_t chunk_size(struct z_heap *h, chunkid_t c)
{
    4450:	ff010113          	addi	sp,sp,-16
	return chunk_field(h, c, SIZE_AND_USED) >> 1;
    4454:	00100613          	li	a2,1
{
    4458:	00112623          	sw	ra,12(sp)
	return chunk_field(h, c, SIZE_AND_USED) >> 1;
    445c:	f8dff0ef          	jal	ra,43e8 <chunk_field>
}
    4460:	00c12083          	lw	ra,12(sp)
    4464:	00155513          	srli	a0,a0,0x1
    4468:	01010113          	addi	sp,sp,16
    446c:	00008067          	ret

00004470 <set_chunk_used>:
static inline void set_chunk_used(struct z_heap *h, chunkid_t c, bool used)
{
	chunk_unit_t *buf = chunk_buf(h);
	void *cmem = &buf[c];

	if (big_heap(h)) {
    4470:	00852703          	lw	a4,8(a0)
	void *cmem = &buf[c];
    4474:	00359593          	slli	a1,a1,0x3
	if (big_heap(h)) {
    4478:	000087b7          	lui	a5,0x8
	void *cmem = &buf[c];
    447c:	00b505b3          	add	a1,a0,a1
	if (big_heap(h)) {
    4480:	02f76063          	bltu	a4,a5,44a0 <set_chunk_used+0x30>
		if (used) {
			((uint32_t *)cmem)[SIZE_AND_USED] |= 1U;
    4484:	0045a783          	lw	a5,4(a1)
		if (used) {
    4488:	00060863          	beqz	a2,4498 <set_chunk_used+0x28>
			((uint32_t *)cmem)[SIZE_AND_USED] |= 1U;
    448c:	0017e793          	ori	a5,a5,1
		} else {
			((uint32_t *)cmem)[SIZE_AND_USED] &= ~1U;
    4490:	00f5a223          	sw	a5,4(a1)
    4494:	00008067          	ret
    4498:	ffe7f793          	andi	a5,a5,-2
    449c:	ff5ff06f          	j	4490 <set_chunk_used+0x20>
		}
	} else {
		if (used) {
			((uint16_t *)cmem)[SIZE_AND_USED] |= 1U;
    44a0:	0025d783          	lhu	a5,2(a1)
		if (used) {
    44a4:	00060863          	beqz	a2,44b4 <set_chunk_used+0x44>
			((uint16_t *)cmem)[SIZE_AND_USED] |= 1U;
    44a8:	0017e793          	ori	a5,a5,1
		} else {
			((uint16_t *)cmem)[SIZE_AND_USED] &= ~1U;
    44ac:	00f59123          	sh	a5,2(a1)
		}
	}
}
    44b0:	00008067          	ret
			((uint16_t *)cmem)[SIZE_AND_USED] &= ~1U;
    44b4:	ffe7f793          	andi	a5,a5,-2
    44b8:	ff5ff06f          	j	44ac <set_chunk_used+0x3c>

000044bc <set_chunk_size>:
 * when its size is modified, and potential set_chunk_used() is always
 * invoked after set_chunk_size().
 */
static inline void set_chunk_size(struct z_heap *h, chunkid_t c, chunksz_t size)
{
	chunk_set(h, c, SIZE_AND_USED, size << 1);
    44bc:	00161693          	slli	a3,a2,0x1
    44c0:	00100613          	li	a2,1
    44c4:	f59ff06f          	j	441c <chunk_set>

000044c8 <bucket_idx.isra.0>:
static inline size_t chunksz_to_bytes(struct z_heap *h, chunksz_t chunksz_in)
{
	return chunksz_in * CHUNK_UNIT - chunk_header_bytes(h);
}

static inline int bucket_idx(struct z_heap *h, chunksz_t sz)
    44c8:	ff010113          	addi	sp,sp,-16
    44cc:	00112623          	sw	ra,12(sp)
	return big_heap(h) ? 8 : 4;
    44d0:	000087b7          	lui	a5,0x8
    44d4:	02f57863          	bgeu	a0,a5,4504 <bucket_idx.isra.0+0x3c>
    44d8:	00400793          	li	a5,4
	return (bytes + CHUNK_UNIT - 1U) / CHUNK_UNIT;
    44dc:	00878793          	addi	a5,a5,8 # 8008 <z_set_timeout_expiry+0x10>
    44e0:	0037d793          	srli	a5,a5,0x3
{
	unsigned int usable_sz = sz - min_chunk_size(h) + 1;
    44e4:	00158593          	addi	a1,a1,1
	return 31 - __builtin_clz(usable_sz);
    44e8:	40f58533          	sub	a0,a1,a5
    44ec:	e05fb0ef          	jal	ra,2f0 <__clzsi2>
}
    44f0:	00c12083          	lw	ra,12(sp)
    44f4:	01f00793          	li	a5,31
    44f8:	40a78533          	sub	a0,a5,a0
    44fc:	01010113          	addi	sp,sp,16
    4500:	00008067          	ret
	return big_heap(h) ? 8 : 4;
    4504:	00800793          	li	a5,8
    4508:	fd5ff06f          	j	44dc <bucket_idx.isra.0+0x14>

0000450c <free_list_remove_bidx>:

	return ret;
}

static void free_list_remove_bidx(struct z_heap *h, chunkid_t c, int bidx)
{
    450c:	fe010113          	addi	sp,sp,-32
    4510:	01412423          	sw	s4,8(sp)
    4514:	00060a13          	mv	s4,a2
	return chunk_field(h, c, FREE_NEXT);
    4518:	00300613          	li	a2,3
    451c:	00812c23          	sw	s0,24(sp)
    4520:	00912a23          	sw	s1,20(sp)
    4524:	01312623          	sw	s3,12(sp)
    4528:	00112e23          	sw	ra,28(sp)
    452c:	01212823          	sw	s2,16(sp)
    4530:	00050413          	mv	s0,a0
    4534:	00058993          	mv	s3,a1
    4538:	eb1ff0ef          	jal	ra,43e8 <chunk_field>
    453c:	004a0493          	addi	s1,s4,4

	CHECK(!chunk_used(h, c));
	CHECK(b->next != 0);
	CHECK(h->avail_buckets & (1 << bidx));

	if (next_free_chunk(h, c) == c) {
    4540:	04a99463          	bne	s3,a0,4588 <free_list_remove_bidx+0x7c>
		/* this is the last chunk */
		h->avail_buckets &= ~(1 << bidx);
    4544:	00100793          	li	a5,1
    4548:	01479633          	sll	a2,a5,s4
    454c:	00c42783          	lw	a5,12(s0)
    4550:	fff64613          	not	a2,a2
		b->next = 0;
    4554:	00249493          	slli	s1,s1,0x2
		h->avail_buckets &= ~(1 << bidx);
    4558:	00c7f633          	and	a2,a5,a2
    455c:	00c42623          	sw	a2,12(s0)
		b->next = 0;
    4560:	00940433          	add	s0,s0,s1

		b->next = second;
		set_next_free_chunk(h, first, second);
		set_prev_free_chunk(h, second, first);
	}
}
    4564:	01c12083          	lw	ra,28(sp)
		b->next = 0;
    4568:	00042023          	sw	zero,0(s0)
}
    456c:	01812403          	lw	s0,24(sp)
    4570:	01412483          	lw	s1,20(sp)
    4574:	01012903          	lw	s2,16(sp)
    4578:	00c12983          	lw	s3,12(sp)
    457c:	00812a03          	lw	s4,8(sp)
    4580:	02010113          	addi	sp,sp,32
    4584:	00008067          	ret
    4588:	00050913          	mv	s2,a0
	return chunk_field(h, c, FREE_PREV);
    458c:	00098593          	mv	a1,s3
    4590:	00200613          	li	a2,2
    4594:	00040513          	mv	a0,s0
		b->next = second;
    4598:	00249493          	slli	s1,s1,0x2
    459c:	e4dff0ef          	jal	ra,43e8 <chunk_field>
    45a0:	009404b3          	add	s1,s0,s1
    45a4:	00050993          	mv	s3,a0
    45a8:	0124a023          	sw	s2,0(s1)
	chunk_set(h, c, FREE_NEXT, next);
    45ac:	00090693          	mv	a3,s2
    45b0:	00050593          	mv	a1,a0
    45b4:	00300613          	li	a2,3
    45b8:	00040513          	mv	a0,s0
    45bc:	e61ff0ef          	jal	ra,441c <chunk_set>
	chunk_set(h, c, FREE_PREV, prev);
    45c0:	00040513          	mv	a0,s0
}
    45c4:	01812403          	lw	s0,24(sp)
    45c8:	01c12083          	lw	ra,28(sp)
    45cc:	01412483          	lw	s1,20(sp)
    45d0:	00812a03          	lw	s4,8(sp)
    45d4:	00098693          	mv	a3,s3
    45d8:	00090593          	mv	a1,s2
    45dc:	00c12983          	lw	s3,12(sp)
    45e0:	01012903          	lw	s2,16(sp)
    45e4:	00200613          	li	a2,2
    45e8:	02010113          	addi	sp,sp,32
    45ec:	e31ff06f          	j	441c <chunk_set>

000045f0 <free_list_remove>:

static void free_list_remove(struct z_heap *h, chunkid_t c)
{
    45f0:	ff010113          	addi	sp,sp,-16
    45f4:	01212023          	sw	s2,0(sp)
	return big_heap_chunks(h->end_chunk);
    45f8:	00852903          	lw	s2,8(a0)
    45fc:	00812423          	sw	s0,8(sp)
    4600:	00912223          	sw	s1,4(sp)
    4604:	00112623          	sw	ra,12(sp)
    4608:	00058493          	mv	s1,a1
    460c:	00050413          	mv	s0,a0
	return big_heap(h) && chunk_size(h, c) == 1U;
    4610:	e41ff0ef          	jal	ra,4450 <chunk_size>
    4614:	000087b7          	lui	a5,0x8
    4618:	00050593          	mv	a1,a0
    461c:	00f96663          	bltu	s2,a5,4628 <free_list_remove+0x38>
	if (!solo_free_header(h, c)) {
    4620:	00100793          	li	a5,1
    4624:	02f50863          	beq	a0,a5,4654 <free_list_remove+0x64>
		int bidx = bucket_idx(h, chunk_size(h, c));
    4628:	00090513          	mv	a0,s2
    462c:	e9dff0ef          	jal	ra,44c8 <bucket_idx.isra.0>
    4630:	00050613          	mv	a2,a0
		free_list_remove_bidx(h, c, bidx);
    4634:	00040513          	mv	a0,s0
	}
}
    4638:	00812403          	lw	s0,8(sp)
    463c:	00c12083          	lw	ra,12(sp)
    4640:	00012903          	lw	s2,0(sp)
		free_list_remove_bidx(h, c, bidx);
    4644:	00048593          	mv	a1,s1
}
    4648:	00412483          	lw	s1,4(sp)
    464c:	01010113          	addi	sp,sp,16
		free_list_remove_bidx(h, c, bidx);
    4650:	ebdff06f          	j	450c <free_list_remove_bidx>
}
    4654:	00c12083          	lw	ra,12(sp)
    4658:	00812403          	lw	s0,8(sp)
    465c:	00412483          	lw	s1,4(sp)
    4660:	00012903          	lw	s2,0(sp)
    4664:	01010113          	addi	sp,sp,16
    4668:	00008067          	ret

0000466c <alloc_chunk>:
	set_chunk_used(h, c, false);
	free_chunk(h, c);
}

static chunkid_t alloc_chunk(struct z_heap *h, chunksz_t sz)
{
    466c:	fe010113          	addi	sp,sp,-32
    4670:	00912a23          	sw	s1,20(sp)
    4674:	00050493          	mv	s1,a0
	int bi = bucket_idx(h, sz);
    4678:	00852503          	lw	a0,8(a0)
{
    467c:	01212823          	sw	s2,16(sp)
    4680:	01312623          	sw	s3,12(sp)
    4684:	01512223          	sw	s5,4(sp)
    4688:	01612023          	sw	s6,0(sp)
    468c:	00112e23          	sw	ra,28(sp)
    4690:	00812c23          	sw	s0,24(sp)
    4694:	01412423          	sw	s4,8(sp)
    4698:	00058a93          	mv	s5,a1
	int bi = bucket_idx(h, sz);
    469c:	e2dff0ef          	jal	ra,44c8 <bucket_idx.isra.0>
    46a0:	00251993          	slli	s3,a0,0x2
    46a4:	013489b3          	add	s3,s1,s3
	 * course.  But even in pathological situations we still
	 * maintain our constant time performance and at worst see
	 * fragmentation waste of the order of the block allocated
	 * only.
	 */
	if (b->next) {
    46a8:	0109ab03          	lw	s6,16(s3)
	int bi = bucket_idx(h, sz);
    46ac:	00050913          	mv	s2,a0
	if (b->next) {
    46b0:	060b0c63          	beqz	s6,4728 <alloc_chunk+0xbc>
    46b4:	00300a13          	li	s4,3
		chunkid_t first = b->next;
		int i = CONFIG_SYS_HEAP_ALLOC_LOOPS;
		do {
			chunkid_t c = b->next;
    46b8:	0109a403          	lw	s0,16(s3)
			if (chunk_size(h, c) >= sz) {
    46bc:	00048513          	mv	a0,s1
    46c0:	00040593          	mv	a1,s0
    46c4:	d8dff0ef          	jal	ra,4450 <chunk_size>
    46c8:	05556063          	bltu	a0,s5,4708 <alloc_chunk+0x9c>
				free_list_remove_bidx(h, c, bi);
    46cc:	00090613          	mv	a2,s2

	if (bmask != 0U) {
		int minbucket = __builtin_ctz(bmask);
		chunkid_t c = h->buckets[minbucket].next;

		free_list_remove_bidx(h, c, minbucket);
    46d0:	00040593          	mv	a1,s0
    46d4:	00048513          	mv	a0,s1
    46d8:	e35ff0ef          	jal	ra,450c <free_list_remove_bidx>
		CHECK(chunk_size(h, c) >= sz);
		return c;
	}

	return 0;
}
    46dc:	01c12083          	lw	ra,28(sp)
    46e0:	00040513          	mv	a0,s0
    46e4:	01812403          	lw	s0,24(sp)
    46e8:	01412483          	lw	s1,20(sp)
    46ec:	01012903          	lw	s2,16(sp)
    46f0:	00c12983          	lw	s3,12(sp)
    46f4:	00812a03          	lw	s4,8(sp)
    46f8:	00412a83          	lw	s5,4(sp)
    46fc:	00012b03          	lw	s6,0(sp)
    4700:	02010113          	addi	sp,sp,32
    4704:	00008067          	ret
	return chunk_field(h, c, FREE_NEXT);
    4708:	00300613          	li	a2,3
    470c:	00040593          	mv	a1,s0
    4710:	00048513          	mv	a0,s1
    4714:	cd5ff0ef          	jal	ra,43e8 <chunk_field>
			b->next = next_free_chunk(h, c);
    4718:	00a9a823          	sw	a0,16(s3)
		} while (--i && b->next != first);
    471c:	fffa0a13          	addi	s4,s4,-1
    4720:	000a0463          	beqz	s4,4728 <alloc_chunk+0xbc>
    4724:	f8ab1ae3          	bne	s6,a0,46b8 <alloc_chunk+0x4c>
	uint32_t bmask = h->avail_buckets & ~((1 << (bi + 1)) - 1);
    4728:	00c4a583          	lw	a1,12(s1)
    472c:	00190913          	addi	s2,s2,1
    4730:	fff00413          	li	s0,-1
    4734:	01241433          	sll	s0,s0,s2
    4738:	00b47433          	and	s0,s0,a1
	if (bmask != 0U) {
    473c:	fa0400e3          	beqz	s0,46dc <alloc_chunk+0x70>
		int minbucket = __builtin_ctz(bmask);
    4740:	00040513          	mv	a0,s0
    4744:	bf9fb0ef          	jal	ra,33c <__ctzsi2>
		chunkid_t c = h->buckets[minbucket].next;
    4748:	00450793          	addi	a5,a0,4
    474c:	00279793          	slli	a5,a5,0x2
    4750:	00f487b3          	add	a5,s1,a5
    4754:	0007a403          	lw	s0,0(a5) # 8000 <z_set_timeout_expiry+0x8>
		int minbucket = __builtin_ctz(bmask);
    4758:	00050613          	mv	a2,a0
		chunkid_t c = h->buckets[minbucket].next;
    475c:	f75ff06f          	j	46d0 <alloc_chunk+0x64>

00004760 <split_chunks>:
{
    4760:	fd010113          	addi	sp,sp,-48
    4764:	02112623          	sw	ra,44(sp)
    4768:	02812423          	sw	s0,40(sp)
    476c:	02912223          	sw	s1,36(sp)
    4770:	03212023          	sw	s2,32(sp)
    4774:	01312e23          	sw	s3,28(sp)
    4778:	00060413          	mv	s0,a2
    477c:	00050493          	mv	s1,a0
    4780:	00058913          	mv	s2,a1
	chunksz_t sz0 = chunk_size(h, lc);
    4784:	ccdff0ef          	jal	ra,4450 <chunk_size>
	chunksz_t lsz = rc - lc;
    4788:	412406b3          	sub	a3,s0,s2
	chunksz_t rsz = sz0 - lsz;
    478c:	408909b3          	sub	s3,s2,s0
    4790:	00a989b3          	add	s3,s3,a0
	set_chunk_size(h, lc, lsz);
    4794:	00068613          	mv	a2,a3
    4798:	00090593          	mv	a1,s2
    479c:	00048513          	mv	a0,s1
    47a0:	00d12623          	sw	a3,12(sp)
    47a4:	d19ff0ef          	jal	ra,44bc <set_chunk_size>
	set_chunk_size(h, rc, rsz);
    47a8:	00098613          	mv	a2,s3
    47ac:	00040593          	mv	a1,s0
    47b0:	00048513          	mv	a0,s1
    47b4:	d09ff0ef          	jal	ra,44bc <set_chunk_size>
	chunk_set(h, c, LEFT_SIZE, size);
    47b8:	00c12683          	lw	a3,12(sp)
    47bc:	00000613          	li	a2,0
    47c0:	00040593          	mv	a1,s0
    47c4:	00048513          	mv	a0,s1
    47c8:	c55ff0ef          	jal	ra,441c <chunk_set>
	return c + chunk_size(h, c);
    47cc:	00040593          	mv	a1,s0
    47d0:	00048513          	mv	a0,s1
    47d4:	c7dff0ef          	jal	ra,4450 <chunk_size>
	chunk_set(h, c, LEFT_SIZE, size);
    47d8:	00a405b3          	add	a1,s0,a0
}
    47dc:	02812403          	lw	s0,40(sp)
    47e0:	02c12083          	lw	ra,44(sp)
    47e4:	02012903          	lw	s2,32(sp)
    47e8:	00098693          	mv	a3,s3
    47ec:	00048513          	mv	a0,s1
    47f0:	01c12983          	lw	s3,28(sp)
    47f4:	02412483          	lw	s1,36(sp)
    47f8:	00000613          	li	a2,0
    47fc:	03010113          	addi	sp,sp,48
    4800:	c1dff06f          	j	441c <chunk_set>

00004804 <merge_chunks>:
{
    4804:	fe010113          	addi	sp,sp,-32
    4808:	00112e23          	sw	ra,28(sp)
    480c:	00812c23          	sw	s0,24(sp)
    4810:	00912a23          	sw	s1,20(sp)
    4814:	01212823          	sw	s2,16(sp)
    4818:	01312623          	sw	s3,12(sp)
    481c:	00060913          	mv	s2,a2
    4820:	00050413          	mv	s0,a0
    4824:	00058993          	mv	s3,a1
	chunksz_t newsz = chunk_size(h, lc) + chunk_size(h, rc);
    4828:	c29ff0ef          	jal	ra,4450 <chunk_size>
    482c:	00090593          	mv	a1,s2
    4830:	00050493          	mv	s1,a0
    4834:	00040513          	mv	a0,s0
    4838:	c19ff0ef          	jal	ra,4450 <chunk_size>
    483c:	00a484b3          	add	s1,s1,a0
	set_chunk_size(h, lc, newsz);
    4840:	00048613          	mv	a2,s1
    4844:	00098593          	mv	a1,s3
    4848:	00040513          	mv	a0,s0
    484c:	c71ff0ef          	jal	ra,44bc <set_chunk_size>
	return c + chunk_size(h, c);
    4850:	00090593          	mv	a1,s2
    4854:	00040513          	mv	a0,s0
    4858:	bf9ff0ef          	jal	ra,4450 <chunk_size>
	chunk_set(h, c, LEFT_SIZE, size);
    485c:	00a905b3          	add	a1,s2,a0
    4860:	00040513          	mv	a0,s0
}
    4864:	01812403          	lw	s0,24(sp)
    4868:	01c12083          	lw	ra,28(sp)
    486c:	01012903          	lw	s2,16(sp)
    4870:	00c12983          	lw	s3,12(sp)
    4874:	00048693          	mv	a3,s1
    4878:	01412483          	lw	s1,20(sp)
    487c:	00000613          	li	a2,0
    4880:	02010113          	addi	sp,sp,32
    4884:	b99ff06f          	j	441c <chunk_set>

00004888 <free_list_add>:
{
    4888:	fe010113          	addi	sp,sp,-32
    488c:	01212823          	sw	s2,16(sp)
	return big_heap_chunks(h->end_chunk);
    4890:	00852903          	lw	s2,8(a0)
    4894:	00812c23          	sw	s0,24(sp)
    4898:	00912a23          	sw	s1,20(sp)
    489c:	00112e23          	sw	ra,28(sp)
    48a0:	00058493          	mv	s1,a1
    48a4:	01312623          	sw	s3,12(sp)
    48a8:	00050413          	mv	s0,a0
	return big_heap(h) && chunk_size(h, c) == 1U;
    48ac:	ba5ff0ef          	jal	ra,4450 <chunk_size>
    48b0:	000087b7          	lui	a5,0x8
    48b4:	00050593          	mv	a1,a0
    48b8:	00f96663          	bltu	s2,a5,48c4 <free_list_add+0x3c>
	if (!solo_free_header(h, c)) {
    48bc:	00100793          	li	a5,1
    48c0:	0cf50a63          	beq	a0,a5,4994 <free_list_add+0x10c>
		int bidx = bucket_idx(h, chunk_size(h, c));
    48c4:	00090513          	mv	a0,s2
    48c8:	c01ff0ef          	jal	ra,44c8 <bucket_idx.isra.0>
	if (b->next == 0U) {
    48cc:	00251793          	slli	a5,a0,0x2
    48d0:	00f407b3          	add	a5,s0,a5
    48d4:	0107a903          	lw	s2,16(a5) # 8010 <z_set_timeout_expiry+0x18>
    48d8:	04091e63          	bnez	s2,4934 <free_list_add+0xac>
		h->avail_buckets |= (1 << bidx);
    48dc:	00100713          	li	a4,1
    48e0:	00a71733          	sll	a4,a4,a0
    48e4:	00c42503          	lw	a0,12(s0)
	chunk_set(h, c, FREE_PREV, prev);
    48e8:	00048693          	mv	a3,s1
    48ec:	00200613          	li	a2,2
    48f0:	00e56533          	or	a0,a0,a4
    48f4:	00a42623          	sw	a0,12(s0)
    48f8:	00048593          	mv	a1,s1
		b->next = c;
    48fc:	0097a823          	sw	s1,16(a5)
    4900:	00040513          	mv	a0,s0
    4904:	b19ff0ef          	jal	ra,441c <chunk_set>
	chunk_set(h, c, FREE_NEXT, next);
    4908:	00048693          	mv	a3,s1
    490c:	00300613          	li	a2,3
    4910:	00048593          	mv	a1,s1
	chunk_set(h, c, FREE_PREV, prev);
    4914:	00040513          	mv	a0,s0
}
    4918:	01812403          	lw	s0,24(sp)
    491c:	01c12083          	lw	ra,28(sp)
    4920:	01412483          	lw	s1,20(sp)
    4924:	01012903          	lw	s2,16(sp)
    4928:	00c12983          	lw	s3,12(sp)
    492c:	02010113          	addi	sp,sp,32
    4930:	aedff06f          	j	441c <chunk_set>
	return chunk_field(h, c, FREE_PREV);
    4934:	00200613          	li	a2,2
    4938:	00090593          	mv	a1,s2
    493c:	00040513          	mv	a0,s0
    4940:	aa9ff0ef          	jal	ra,43e8 <chunk_field>
	chunk_set(h, c, FREE_PREV, prev);
    4944:	00050693          	mv	a3,a0
	return chunk_field(h, c, FREE_PREV);
    4948:	00050993          	mv	s3,a0
	chunk_set(h, c, FREE_PREV, prev);
    494c:	00200613          	li	a2,2
    4950:	00048593          	mv	a1,s1
    4954:	00040513          	mv	a0,s0
    4958:	ac5ff0ef          	jal	ra,441c <chunk_set>
	chunk_set(h, c, FREE_NEXT, next);
    495c:	00090693          	mv	a3,s2
    4960:	00300613          	li	a2,3
    4964:	00048593          	mv	a1,s1
    4968:	00040513          	mv	a0,s0
    496c:	ab1ff0ef          	jal	ra,441c <chunk_set>
    4970:	00048693          	mv	a3,s1
    4974:	00300613          	li	a2,3
    4978:	00098593          	mv	a1,s3
    497c:	00040513          	mv	a0,s0
    4980:	a9dff0ef          	jal	ra,441c <chunk_set>
	chunk_set(h, c, FREE_PREV, prev);
    4984:	00048693          	mv	a3,s1
    4988:	00200613          	li	a2,2
    498c:	00090593          	mv	a1,s2
    4990:	f85ff06f          	j	4914 <free_list_add+0x8c>
    4994:	01c12083          	lw	ra,28(sp)
    4998:	01812403          	lw	s0,24(sp)
    499c:	01412483          	lw	s1,20(sp)
    49a0:	01012903          	lw	s2,16(sp)
    49a4:	00c12983          	lw	s3,12(sp)
    49a8:	02010113          	addi	sp,sp,32
    49ac:	00008067          	ret

000049b0 <free_chunk>:
{
    49b0:	fe010113          	addi	sp,sp,-32
    49b4:	00112e23          	sw	ra,28(sp)
    49b8:	00812c23          	sw	s0,24(sp)
    49bc:	00912a23          	sw	s1,20(sp)
    49c0:	00058413          	mv	s0,a1
    49c4:	00050493          	mv	s1,a0
	return c + chunk_size(h, c);
    49c8:	a89ff0ef          	jal	ra,4450 <chunk_size>
    49cc:	00a405b3          	add	a1,s0,a0
	return chunk_field(h, c, SIZE_AND_USED) & 1U;
    49d0:	00100613          	li	a2,1
    49d4:	00048513          	mv	a0,s1
    49d8:	00b12623          	sw	a1,12(sp)
    49dc:	a0dff0ef          	jal	ra,43e8 <chunk_field>
	if (!chunk_used(h, right_chunk(h, c))) {
    49e0:	00157513          	andi	a0,a0,1
    49e4:	00c12583          	lw	a1,12(sp)
    49e8:	02051463          	bnez	a0,4a10 <free_chunk+0x60>
		free_list_remove(h, right_chunk(h, c));
    49ec:	00048513          	mv	a0,s1
    49f0:	c01ff0ef          	jal	ra,45f0 <free_list_remove>
	return c + chunk_size(h, c);
    49f4:	00040593          	mv	a1,s0
    49f8:	00048513          	mv	a0,s1
    49fc:	a55ff0ef          	jal	ra,4450 <chunk_size>
		merge_chunks(h, c, right_chunk(h, c));
    4a00:	00a40633          	add	a2,s0,a0
    4a04:	00040593          	mv	a1,s0
    4a08:	00048513          	mv	a0,s1
    4a0c:	df9ff0ef          	jal	ra,4804 <merge_chunks>
	return c - chunk_field(h, c, LEFT_SIZE);
    4a10:	00000613          	li	a2,0
    4a14:	00040593          	mv	a1,s0
    4a18:	00048513          	mv	a0,s1
    4a1c:	9cdff0ef          	jal	ra,43e8 <chunk_field>
    4a20:	40a405b3          	sub	a1,s0,a0
	return chunk_field(h, c, SIZE_AND_USED) & 1U;
    4a24:	00100613          	li	a2,1
    4a28:	00048513          	mv	a0,s1
    4a2c:	00b12623          	sw	a1,12(sp)
    4a30:	9b9ff0ef          	jal	ra,43e8 <chunk_field>
	if (!chunk_used(h, left_chunk(h, c))) {
    4a34:	00157513          	andi	a0,a0,1
    4a38:	00c12583          	lw	a1,12(sp)
    4a3c:	04051063          	bnez	a0,4a7c <free_chunk+0xcc>
		free_list_remove(h, left_chunk(h, c));
    4a40:	00048513          	mv	a0,s1
    4a44:	badff0ef          	jal	ra,45f0 <free_list_remove>
	return c - chunk_field(h, c, LEFT_SIZE);
    4a48:	00040593          	mv	a1,s0
    4a4c:	00000613          	li	a2,0
    4a50:	00048513          	mv	a0,s1
    4a54:	995ff0ef          	jal	ra,43e8 <chunk_field>
		merge_chunks(h, left_chunk(h, c), c);
    4a58:	40a405b3          	sub	a1,s0,a0
    4a5c:	00040613          	mv	a2,s0
    4a60:	00048513          	mv	a0,s1
    4a64:	da1ff0ef          	jal	ra,4804 <merge_chunks>
    4a68:	00040593          	mv	a1,s0
    4a6c:	00000613          	li	a2,0
    4a70:	00048513          	mv	a0,s1
    4a74:	975ff0ef          	jal	ra,43e8 <chunk_field>
    4a78:	40a40433          	sub	s0,s0,a0
	free_list_add(h, c);
    4a7c:	00040593          	mv	a1,s0
}
    4a80:	01812403          	lw	s0,24(sp)
    4a84:	01c12083          	lw	ra,28(sp)
	free_list_add(h, c);
    4a88:	00048513          	mv	a0,s1
}
    4a8c:	01412483          	lw	s1,20(sp)
    4a90:	02010113          	addi	sp,sp,32
	free_list_add(h, c);
    4a94:	df5ff06f          	j	4888 <free_list_add>

00004a98 <sys_heap_free>:
	if (mem == NULL) {
    4a98:	04058a63          	beqz	a1,4aec <sys_heap_free+0x54>
    4a9c:	00052503          	lw	a0,0(a0)
{
    4aa0:	fe010113          	addi	sp,sp,-32
    4aa4:	00112e23          	sw	ra,28(sp)
	return big_heap(h) ? 8 : 4;
    4aa8:	00852683          	lw	a3,8(a0)
    4aac:	00008737          	lui	a4,0x8
    4ab0:	00800793          	li	a5,8
    4ab4:	00e6f463          	bgeu	a3,a4,4abc <sys_heap_free+0x24>
    4ab8:	00400793          	li	a5,4
	return (mem - chunk_header_bytes(h) - base) / CHUNK_UNIT;
    4abc:	40f585b3          	sub	a1,a1,a5
    4ac0:	40a585b3          	sub	a1,a1,a0
    4ac4:	0035d593          	srli	a1,a1,0x3
	set_chunk_used(h, c, false);
    4ac8:	00000613          	li	a2,0
    4acc:	00b12623          	sw	a1,12(sp)
    4ad0:	00a12423          	sw	a0,8(sp)
    4ad4:	99dff0ef          	jal	ra,4470 <set_chunk_used>
	free_chunk(h, c);
    4ad8:	00c12583          	lw	a1,12(sp)
    4adc:	00812503          	lw	a0,8(sp)
}
    4ae0:	01c12083          	lw	ra,28(sp)
    4ae4:	02010113          	addi	sp,sp,32
	free_chunk(h, c);
    4ae8:	ec9ff06f          	j	49b0 <free_chunk>
    4aec:	00008067          	ret

00004af0 <sys_heap_alloc>:

void *sys_heap_alloc(struct sys_heap *heap, size_t bytes)
{
    4af0:	ff010113          	addi	sp,sp,-16
    4af4:	01212023          	sw	s2,0(sp)
    4af8:	00112623          	sw	ra,12(sp)
    4afc:	00812423          	sw	s0,8(sp)
    4b00:	00912223          	sw	s1,4(sp)
	struct z_heap *h = heap->heap;
    4b04:	00052903          	lw	s2,0(a0)

	if (bytes == 0U || size_too_big(h, bytes)) {
    4b08:	02059063          	bnez	a1,4b28 <sys_heap_alloc+0x38>
		return NULL;
    4b0c:	00000513          	li	a0,0
		free_list_add(h, c + chunk_sz);
	}

	set_chunk_used(h, c, true);
	return chunk_mem(h, c);
}
    4b10:	00c12083          	lw	ra,12(sp)
    4b14:	00812403          	lw	s0,8(sp)
    4b18:	00412483          	lw	s1,4(sp)
    4b1c:	00012903          	lw	s2,0(sp)
    4b20:	01010113          	addi	sp,sp,16
    4b24:	00008067          	ret
{
	/*
	 * Quick check to bail out early if size is too big.
	 * Also guards against potential arithmetic overflows elsewhere.
	 */
	return (bytes / CHUNK_UNIT) >= h->end_chunk;
    4b28:	00892783          	lw	a5,8(s2)
    4b2c:	0035d713          	srli	a4,a1,0x3
	if (bytes == 0U || size_too_big(h, bytes)) {
    4b30:	fcf77ee3          	bgeu	a4,a5,4b0c <sys_heap_alloc+0x1c>
	return big_heap(h) ? 8 : 4;
    4b34:	00008737          	lui	a4,0x8
    4b38:	00800613          	li	a2,8
    4b3c:	00e7f463          	bgeu	a5,a4,4b44 <sys_heap_alloc+0x54>
    4b40:	00400613          	li	a2,4
	return (bytes + CHUNK_UNIT - 1U) / CHUNK_UNIT;
    4b44:	00758413          	addi	s0,a1,7
    4b48:	00c40433          	add	s0,s0,a2
    4b4c:	00345413          	srli	s0,s0,0x3
	chunkid_t c = alloc_chunk(h, chunk_sz);
    4b50:	00040593          	mv	a1,s0
    4b54:	00090513          	mv	a0,s2
    4b58:	b15ff0ef          	jal	ra,466c <alloc_chunk>
    4b5c:	00050493          	mv	s1,a0
	if (c == 0U) {
    4b60:	fa0506e3          	beqz	a0,4b0c <sys_heap_alloc+0x1c>
	if (chunk_size(h, c) > chunk_sz) {
    4b64:	00050593          	mv	a1,a0
    4b68:	00090513          	mv	a0,s2
    4b6c:	8e5ff0ef          	jal	ra,4450 <chunk_size>
    4b70:	02a47263          	bgeu	s0,a0,4b94 <sys_heap_alloc+0xa4>
		split_chunks(h, c, c + chunk_sz);
    4b74:	00848433          	add	s0,s1,s0
    4b78:	00048593          	mv	a1,s1
    4b7c:	00090513          	mv	a0,s2
    4b80:	00040613          	mv	a2,s0
    4b84:	bddff0ef          	jal	ra,4760 <split_chunks>
		free_list_add(h, c + chunk_sz);
    4b88:	00040593          	mv	a1,s0
    4b8c:	00090513          	mv	a0,s2
    4b90:	cf9ff0ef          	jal	ra,4888 <free_list_add>
	set_chunk_used(h, c, true);
    4b94:	00048593          	mv	a1,s1
    4b98:	00090513          	mv	a0,s2
    4b9c:	00100613          	li	a2,1
    4ba0:	8d1ff0ef          	jal	ra,4470 <set_chunk_used>
	return big_heap(h) ? 8 : 4;
    4ba4:	00892703          	lw	a4,8(s2)
    4ba8:	000087b7          	lui	a5,0x8
	uint8_t *ret = ((uint8_t *)&buf[c]) + chunk_header_bytes(h);
    4bac:	00349493          	slli	s1,s1,0x3
    4bb0:	00800513          	li	a0,8
    4bb4:	00f77463          	bgeu	a4,a5,4bbc <sys_heap_alloc+0xcc>
    4bb8:	00400513          	li	a0,4
    4bbc:	00a48533          	add	a0,s1,a0
    4bc0:	00a90533          	add	a0,s2,a0
	return chunk_mem(h, c);
    4bc4:	f4dff06f          	j	4b10 <sys_heap_alloc+0x20>

00004bc8 <sys_heap_aligned_alloc>:

void *sys_heap_aligned_alloc(struct sys_heap *heap, size_t align, size_t bytes)
{
    4bc8:	fd010113          	addi	sp,sp,-48
    4bcc:	01412c23          	sw	s4,24(sp)
	struct z_heap *h = heap->heap;
    4bd0:	00052a03          	lw	s4,0(a0)
{
    4bd4:	01312e23          	sw	s3,28(sp)
	 * We allow for one bit of rewind in addition to the alignment
	 * value to efficiently accommodate z_heap_aligned_alloc().
	 * So if e.g. align = 0x28 (32 | 8) this means we align to a 32-byte
	 * boundary and then rewind 8 bytes.
	 */
	rew = align & -align;
    4bd8:	40b009b3          	neg	s3,a1
{
    4bdc:	02812423          	sw	s0,40(sp)
    4be0:	02112623          	sw	ra,44(sp)
    4be4:	02912223          	sw	s1,36(sp)
    4be8:	03212023          	sw	s2,32(sp)
    4bec:	01512a23          	sw	s5,20(sp)
	rew = align & -align;
    4bf0:	00b9f9b3          	and	s3,s3,a1
	return big_heap_chunks(h->end_chunk);
    4bf4:	008a2703          	lw	a4,8(s4)
{
    4bf8:	00060413          	mv	s0,a2
	if (align != rew) {
    4bfc:	05358e63          	beq	a1,s3,4c58 <sys_heap_aligned_alloc+0x90>
	return big_heap(h) ? 8 : 4;
    4c00:	000087b7          	lui	a5,0x8
		align -= rew;
    4c04:	413585b3          	sub	a1,a1,s3
    4c08:	00400693          	li	a3,4
    4c0c:	00f76463          	bltu	a4,a5,4c14 <sys_heap_aligned_alloc+0x4c>
    4c10:	00800693          	li	a3,8
    4c14:	00098793          	mv	a5,s3
    4c18:	0136f463          	bgeu	a3,s3,4c20 <sys_heap_aligned_alloc+0x58>
    4c1c:	00068793          	mv	a5,a3
    4c20:	00098a93          	mv	s5,s3
    4c24:	00058993          	mv	s3,a1
		rew = 0;
		gap = chunk_header_bytes(h);
	}
	__ASSERT((align & (align - 1)) == 0, "align must be a power of 2");

	if (bytes == 0 || size_too_big(h, bytes)) {
    4c28:	06041863          	bnez	s0,4c98 <sys_heap_aligned_alloc+0xd0>
		return NULL;
    4c2c:	00000993          	li	s3,0
		free_list_add(h, c_end);
	}

	set_chunk_used(h, c, true);
	return mem;
}
    4c30:	02c12083          	lw	ra,44(sp)
    4c34:	02812403          	lw	s0,40(sp)
    4c38:	02412483          	lw	s1,36(sp)
    4c3c:	02012903          	lw	s2,32(sp)
    4c40:	01812a03          	lw	s4,24(sp)
    4c44:	01412a83          	lw	s5,20(sp)
    4c48:	00098513          	mv	a0,s3
    4c4c:	01c12983          	lw	s3,28(sp)
    4c50:	03010113          	addi	sp,sp,48
    4c54:	00008067          	ret
    4c58:	000086b7          	lui	a3,0x8
    4c5c:	00400793          	li	a5,4
    4c60:	00d76463          	bltu	a4,a3,4c68 <sys_heap_aligned_alloc+0xa0>
    4c64:	00800793          	li	a5,8
		rew = 0;
    4c68:	00000a93          	li	s5,0
		if (align <= chunk_header_bytes(h)) {
    4c6c:	fb37eee3          	bltu	a5,s3,4c28 <sys_heap_aligned_alloc+0x60>
			return sys_heap_alloc(heap, bytes);
    4c70:	00040593          	mv	a1,s0
}
    4c74:	02812403          	lw	s0,40(sp)
    4c78:	02c12083          	lw	ra,44(sp)
    4c7c:	02412483          	lw	s1,36(sp)
    4c80:	02012903          	lw	s2,32(sp)
    4c84:	01c12983          	lw	s3,28(sp)
    4c88:	01812a03          	lw	s4,24(sp)
    4c8c:	01412a83          	lw	s5,20(sp)
    4c90:	03010113          	addi	sp,sp,48
			return sys_heap_alloc(heap, bytes);
    4c94:	e5dff06f          	j	4af0 <sys_heap_alloc>
	return (bytes / CHUNK_UNIT) >= h->end_chunk;
    4c98:	00345693          	srli	a3,s0,0x3
	if (bytes == 0 || size_too_big(h, bytes)) {
    4c9c:	f8e6f8e3          	bgeu	a3,a4,4c2c <sys_heap_aligned_alloc+0x64>
	chunksz_t padded_sz = bytes_to_chunksz(h, bytes + align - gap);
    4ca0:	00740593          	addi	a1,s0,7
	return big_heap(h) ? 8 : 4;
    4ca4:	00008637          	lui	a2,0x8
    4ca8:	013585b3          	add	a1,a1,s3
    4cac:	00800693          	li	a3,8
    4cb0:	00c77463          	bgeu	a4,a2,4cb8 <sys_heap_aligned_alloc+0xf0>
    4cb4:	00400693          	li	a3,4
	return (bytes + CHUNK_UNIT - 1U) / CHUNK_UNIT;
    4cb8:	40f585b3          	sub	a1,a1,a5
    4cbc:	00d585b3          	add	a1,a1,a3
	chunkid_t c0 = alloc_chunk(h, padded_sz);
    4cc0:	0035d593          	srli	a1,a1,0x3
    4cc4:	000a0513          	mv	a0,s4
    4cc8:	9a5ff0ef          	jal	ra,466c <alloc_chunk>
    4ccc:	00050593          	mv	a1,a0
	if (c0 == 0) {
    4cd0:	f4050ee3          	beqz	a0,4c2c <sys_heap_aligned_alloc+0x64>
	return big_heap(h) ? 8 : 4;
    4cd4:	008a2703          	lw	a4,8(s4)
    4cd8:	000087b7          	lui	a5,0x8
	uint8_t *ret = ((uint8_t *)&buf[c]) + chunk_header_bytes(h);
    4cdc:	00351493          	slli	s1,a0,0x3
    4ce0:	00800913          	li	s2,8
    4ce4:	00f77463          	bgeu	a4,a5,4cec <sys_heap_aligned_alloc+0x124>
    4ce8:	00400913          	li	s2,4
	mem = (uint8_t *) ROUND_UP(mem + rew, align) - rew;
    4cec:	009a84b3          	add	s1,s5,s1
    4cf0:	012484b3          	add	s1,s1,s2
    4cf4:	fff98793          	addi	a5,s3,-1
    4cf8:	009a04b3          	add	s1,s4,s1
    4cfc:	00f484b3          	add	s1,s1,a5
    4d00:	413009b3          	neg	s3,s3
    4d04:	0134f9b3          	and	s3,s1,s3
    4d08:	415989b3          	sub	s3,s3,s5
	chunk_unit_t *end = (chunk_unit_t *) ROUND_UP(mem + bytes, CHUNK_UNIT);
    4d0c:	00898433          	add	s0,s3,s0
	return (mem - chunk_header_bytes(h) - base) / CHUNK_UNIT;
    4d10:	41298933          	sub	s2,s3,s2
	chunk_unit_t *end = (chunk_unit_t *) ROUND_UP(mem + bytes, CHUNK_UNIT);
    4d14:	00740413          	addi	s0,s0,7
	return (mem - chunk_header_bytes(h) - base) / CHUNK_UNIT;
    4d18:	41490933          	sub	s2,s2,s4
	chunk_unit_t *end = (chunk_unit_t *) ROUND_UP(mem + bytes, CHUNK_UNIT);
    4d1c:	ff847413          	andi	s0,s0,-8
	chunkid_t c_end = end - chunk_buf(h);
    4d20:	41440433          	sub	s0,s0,s4
	return (mem - chunk_header_bytes(h) - base) / CHUNK_UNIT;
    4d24:	00395913          	srli	s2,s2,0x3
	chunkid_t c_end = end - chunk_buf(h);
    4d28:	40345413          	srai	s0,s0,0x3
	if (c > c0) {
    4d2c:	0325f063          	bgeu	a1,s2,4d4c <sys_heap_aligned_alloc+0x184>
		split_chunks(h, c0, c);
    4d30:	000a0513          	mv	a0,s4
    4d34:	00090613          	mv	a2,s2
    4d38:	00b12623          	sw	a1,12(sp)
    4d3c:	a25ff0ef          	jal	ra,4760 <split_chunks>
		free_list_add(h, c0);
    4d40:	00c12583          	lw	a1,12(sp)
    4d44:	000a0513          	mv	a0,s4
    4d48:	b41ff0ef          	jal	ra,4888 <free_list_add>
	return c + chunk_size(h, c);
    4d4c:	00090593          	mv	a1,s2
    4d50:	000a0513          	mv	a0,s4
    4d54:	efcff0ef          	jal	ra,4450 <chunk_size>
    4d58:	00a90533          	add	a0,s2,a0
	if (right_chunk(h, c) > c_end) {
    4d5c:	02a47063          	bgeu	s0,a0,4d7c <sys_heap_aligned_alloc+0x1b4>
		split_chunks(h, c, c_end);
    4d60:	00090593          	mv	a1,s2
    4d64:	000a0513          	mv	a0,s4
    4d68:	00040613          	mv	a2,s0
    4d6c:	9f5ff0ef          	jal	ra,4760 <split_chunks>
		free_list_add(h, c_end);
    4d70:	00040593          	mv	a1,s0
    4d74:	000a0513          	mv	a0,s4
    4d78:	b11ff0ef          	jal	ra,4888 <free_list_add>
	set_chunk_used(h, c, true);
    4d7c:	00100613          	li	a2,1
    4d80:	00090593          	mv	a1,s2
    4d84:	000a0513          	mv	a0,s4
    4d88:	ee8ff0ef          	jal	ra,4470 <set_chunk_used>
	return mem;
    4d8c:	ea5ff06f          	j	4c30 <sys_heap_aligned_alloc+0x68>

00004d90 <sys_heap_init>:
	}
	return ptr2;
}

void sys_heap_init(struct sys_heap *heap, void *mem, size_t bytes)
{
    4d90:	fe010113          	addi	sp,sp,-32
    4d94:	00812c23          	sw	s0,24(sp)
    4d98:	00112e23          	sw	ra,28(sp)
    4d9c:	00912a23          	sw	s1,20(sp)
    4da0:	01212823          	sw	s2,16(sp)
    4da4:	01312623          	sw	s3,12(sp)
	return big_heap_bytes(size) ? 8 : 4;
    4da8:	000407b7          	lui	a5,0x40
    4dac:	00400413          	li	s0,4
    4db0:	00f66463          	bltu	a2,a5,4db8 <sys_heap_init+0x28>
    4db4:	00800413          	li	s0,8
	/* Must fit in a 31 bit count of HUNK_UNIT */
	__ASSERT(bytes / CHUNK_UNIT <= 0x7fffffffU, "heap size is too big");

	/* Reserve the end marker chunk's header */
	__ASSERT(bytes > heap_footer_bytes(bytes), "heap size is too small");
	bytes -= heap_footer_bytes(bytes);
    4db8:	40860433          	sub	s0,a2,s0

	/* Round the start up, the end down */
	uintptr_t addr = ROUND_UP(mem, CHUNK_UNIT);
    4dbc:	00758493          	addi	s1,a1,7
	uintptr_t end = ROUND_DOWN((uint8_t *)mem + bytes, CHUNK_UNIT);
    4dc0:	00858433          	add	s0,a1,s0
	uintptr_t addr = ROUND_UP(mem, CHUNK_UNIT);
    4dc4:	ff84f493          	andi	s1,s1,-8
	uintptr_t end = ROUND_DOWN((uint8_t *)mem + bytes, CHUNK_UNIT);
    4dc8:	ff847413          	andi	s0,s0,-8
	chunksz_t heap_sz = (end - addr) / CHUNK_UNIT;
    4dcc:	40940433          	sub	s0,s0,s1

	CHECK(end > addr);
	__ASSERT(heap_sz > chunksz(sizeof(struct z_heap)), "heap size is too small");

	struct z_heap *h = (struct z_heap *)addr;
	heap->heap = h;
    4dd0:	00952023          	sw	s1,0(a0)
	chunksz_t heap_sz = (end - addr) / CHUNK_UNIT;
    4dd4:	00345413          	srli	s0,s0,0x3
	h->end_chunk = heap_sz;
    4dd8:	0084a423          	sw	s0,8(s1)
	h->avail_buckets = 0;
    4ddc:	0004a623          	sw	zero,12(s1)

	int nb_buckets = bucket_idx(h, heap_sz) + 1;
    4de0:	00040593          	mv	a1,s0
    4de4:	00040513          	mv	a0,s0
    4de8:	ee0ff0ef          	jal	ra,44c8 <bucket_idx.isra.0>
	chunksz_t chunk0_size = chunksz(sizeof(struct z_heap) +
    4dec:	00251913          	slli	s2,a0,0x2
	return (bytes + CHUNK_UNIT - 1U) / CHUNK_UNIT;
    4df0:	01b90913          	addi	s2,s2,27
	int nb_buckets = bucket_idx(h, heap_sz) + 1;
    4df4:	00150693          	addi	a3,a0,1
    4df8:	00395913          	srli	s2,s2,0x3
				     nb_buckets * sizeof(struct z_heap_bucket));

	__ASSERT(chunk0_size + min_chunk_size(h) <= heap_sz, "heap size is too small");

	for (int i = 0; i < nb_buckets; i++) {
    4dfc:	01048713          	addi	a4,s1,16
    4e00:	00000793          	li	a5,0
    4e04:	0ad7cc63          	blt	a5,a3,4ebc <sys_heap_init+0x12c>
		h->buckets[i].next = 0;
	}

	/* chunk containing our struct z_heap */
	set_chunk_size(h, 0, chunk0_size);
    4e08:	00090613          	mv	a2,s2
    4e0c:	00048513          	mv	a0,s1
    4e10:	00000593          	li	a1,0
    4e14:	ea8ff0ef          	jal	ra,44bc <set_chunk_size>
	chunk_set(h, c, LEFT_SIZE, size);
    4e18:	00000693          	li	a3,0
    4e1c:	00048513          	mv	a0,s1
    4e20:	00000613          	li	a2,0
    4e24:	00000593          	li	a1,0
    4e28:	df4ff0ef          	jal	ra,441c <chunk_set>
	set_left_chunk_size(h, 0, 0);
	set_chunk_used(h, 0, true);
    4e2c:	00048513          	mv	a0,s1
    4e30:	00100613          	li	a2,1
    4e34:	00000593          	li	a1,0
    4e38:	e38ff0ef          	jal	ra,4470 <set_chunk_used>

	/* chunk containing the free heap */
	set_chunk_size(h, chunk0_size, heap_sz - chunk0_size);
    4e3c:	412409b3          	sub	s3,s0,s2
    4e40:	00098613          	mv	a2,s3
    4e44:	00090593          	mv	a1,s2
    4e48:	00048513          	mv	a0,s1
    4e4c:	e70ff0ef          	jal	ra,44bc <set_chunk_size>
    4e50:	00090693          	mv	a3,s2
    4e54:	00090593          	mv	a1,s2
    4e58:	00048513          	mv	a0,s1
    4e5c:	00000613          	li	a2,0
    4e60:	dbcff0ef          	jal	ra,441c <chunk_set>
	set_left_chunk_size(h, chunk0_size, chunk0_size);

	/* the end marker chunk */
	set_chunk_size(h, heap_sz, 0);
    4e64:	00040593          	mv	a1,s0
    4e68:	00048513          	mv	a0,s1
    4e6c:	00000613          	li	a2,0
    4e70:	e4cff0ef          	jal	ra,44bc <set_chunk_size>
    4e74:	00098693          	mv	a3,s3
    4e78:	00040593          	mv	a1,s0
    4e7c:	00048513          	mv	a0,s1
    4e80:	00000613          	li	a2,0
    4e84:	d98ff0ef          	jal	ra,441c <chunk_set>
	set_left_chunk_size(h, heap_sz, heap_sz - chunk0_size);
	set_chunk_used(h, heap_sz, true);
    4e88:	00040593          	mv	a1,s0
    4e8c:	00048513          	mv	a0,s1
    4e90:	00100613          	li	a2,1
    4e94:	ddcff0ef          	jal	ra,4470 <set_chunk_used>

	free_list_add(h, chunk0_size);
}
    4e98:	01812403          	lw	s0,24(sp)
    4e9c:	01c12083          	lw	ra,28(sp)
    4ea0:	00c12983          	lw	s3,12(sp)
	free_list_add(h, chunk0_size);
    4ea4:	00090593          	mv	a1,s2
    4ea8:	00048513          	mv	a0,s1
}
    4eac:	01012903          	lw	s2,16(sp)
    4eb0:	01412483          	lw	s1,20(sp)
    4eb4:	02010113          	addi	sp,sp,32
	free_list_add(h, chunk0_size);
    4eb8:	9d1ff06f          	j	4888 <free_list_add>
		h->buckets[i].next = 0;
    4ebc:	00072023          	sw	zero,0(a4) # 8000 <z_set_timeout_expiry+0x8>
	for (int i = 0; i < nb_buckets; i++) {
    4ec0:	00178793          	addi	a5,a5,1 # 40001 <__data_region_end+0x1090d>
    4ec4:	00470713          	addi	a4,a4,4
    4ec8:	f3dff06f          	j	4e04 <sys_heap_init+0x74>

00004ecc <extract_decimal>:
static size_t extract_decimal(const char **str)
{
	const char *sp = *str;
	size_t val = 0;

	while (isdigit((int)(unsigned char)*sp)) {
    4ecc:	0000d637          	lui	a2,0xd
	const char *sp = *str;
    4ed0:	00052683          	lw	a3,0(a0)
{
    4ed4:	00050713          	mv	a4,a0
	while (isdigit((int)(unsigned char)*sp)) {
    4ed8:	60560613          	addi	a2,a2,1541 # d605 <_ctype_+0x1>
	size_t val = 0;
    4edc:	00000513          	li	a0,0
		val = 10U * val + *sp++ - '0';
    4ee0:	00a00813          	li	a6,10
	while (isdigit((int)(unsigned char)*sp)) {
    4ee4:	0006c583          	lbu	a1,0(a3) # 8000 <z_set_timeout_expiry+0x8>
    4ee8:	00c587b3          	add	a5,a1,a2
    4eec:	0007c783          	lbu	a5,0(a5)
    4ef0:	0047f793          	andi	a5,a5,4
    4ef4:	00079663          	bnez	a5,4f00 <extract_decimal+0x34>
	}
	*str = sp;
    4ef8:	00d72023          	sw	a3,0(a4)
	return val;
}
    4efc:	00008067          	ret
		val = 10U * val + *sp++ - '0';
    4f00:	03050533          	mul	a0,a0,a6
    4f04:	00168693          	addi	a3,a3,1
    4f08:	fd050793          	addi	a5,a0,-48
    4f0c:	00b78533          	add	a0,a5,a1
    4f10:	fd5ff06f          	j	4ee4 <extract_decimal+0x18>

00004f14 <encode_uint>:
 */
static char *encode_uint(uint_value_type value,
			 struct conversion *conv,
			 char *bps,
			 const char *bpe)
{
    4f14:	fd010113          	addi	sp,sp,-48
    4f18:	02812423          	sw	s0,40(sp)
    4f1c:	02912223          	sw	s1,36(sp)
    4f20:	03212023          	sw	s2,32(sp)
    4f24:	01712623          	sw	s7,12(sp)
    4f28:	01812423          	sw	s8,8(sp)
    4f2c:	01912223          	sw	s9,4(sp)
    4f30:	02112623          	sw	ra,44(sp)
    4f34:	01312e23          	sw	s3,28(sp)
    4f38:	01412c23          	sw	s4,24(sp)
    4f3c:	01512a23          	sw	s5,20(sp)
    4f40:	01612823          	sw	s6,16(sp)
	bool upcase = isupper((int)conv->specifier);
    4f44:	00364783          	lbu	a5,3(a2)
{
    4f48:	00068913          	mv	s2,a3
	bool upcase = isupper((int)conv->specifier);
    4f4c:	0000d6b7          	lui	a3,0xd
    4f50:	60568693          	addi	a3,a3,1541 # d605 <_ctype_+0x1>
    4f54:	00d786b3          	add	a3,a5,a3
    4f58:	0006c983          	lbu	s3,0(a3)
{
    4f5c:	00070413          	mv	s0,a4
	switch (specifier) {
    4f60:	06f00713          	li	a4,111
{
    4f64:	00050c13          	mv	s8,a0
    4f68:	00058c93          	mv	s9,a1
    4f6c:	00060b93          	mv	s7,a2
    4f70:	0039f993          	andi	s3,s3,3
	switch (specifier) {
    4f74:	00800493          	li	s1,8
    4f78:	00e78c63          	beq	a5,a4,4f90 <encode_uint+0x7c>
    4f7c:	0cf76263          	bltu	a4,a5,5040 <encode_uint+0x12c>
    4f80:	05800713          	li	a4,88
		return 10;
    4f84:	00a00493          	li	s1,10
	switch (specifier) {
    4f88:	00e79463          	bne	a5,a4,4f90 <encode_uint+0x7c>
		return 16;
    4f8c:	01000493          	li	s1,16
	const unsigned int radix = conversion_radix(conv->specifier);
	char *bp = bps + (bpe - bps);

	do {
		unsigned int lsv = (unsigned int)(value % radix);
    4f90:	00000a93          	li	s5,0

		*--bp = (lsv <= 9) ? ('0' + lsv)
    4f94:	00900a13          	li	s4,9
    4f98:	00100b13          	li	s6,1
		unsigned int lsv = (unsigned int)(value % radix);
    4f9c:	00048613          	mv	a2,s1
    4fa0:	00000693          	li	a3,0
    4fa4:	000c0513          	mv	a0,s8
    4fa8:	000c8593          	mv	a1,s9
    4fac:	815fb0ef          	jal	ra,7c0 <__umoddi3>
		*--bp = (lsv <= 9) ? ('0' + lsv)
    4fb0:	0ff57793          	andi	a5,a0,255
    4fb4:	0aaa6263          	bltu	s4,a0,5058 <encode_uint+0x144>
    4fb8:	03078793          	addi	a5,a5,48
    4fbc:	0ff7f793          	andi	a5,a5,255
			: upcase ? ('A' + lsv - 10) : ('a' + lsv - 10);
		value /= radix;
    4fc0:	00048613          	mv	a2,s1
    4fc4:	00000693          	li	a3,0
    4fc8:	000c0513          	mv	a0,s8
    4fcc:	000c8593          	mv	a1,s9
		*--bp = (lsv <= 9) ? ('0' + lsv)
    4fd0:	fef40fa3          	sb	a5,-1(s0)
    4fd4:	fff40413          	addi	s0,s0,-1
		value /= radix;
    4fd8:	bb4fb0ef          	jal	ra,38c <__udivdi3>
	} while ((value != 0) && (bps < bp));
    4fdc:	019a9463          	bne	s5,s9,4fe4 <encode_uint+0xd0>
    4fe0:	009c6463          	bltu	s8,s1,4fe8 <encode_uint+0xd4>
    4fe4:	06896463          	bltu	s2,s0,504c <encode_uint+0x138>

	/* Record required alternate forms.  This can be determined
	 * from the radix without re-checking specifier.
	 */
	if (conv->flag_hash) {
    4fe8:	000bd783          	lhu	a5,0(s7)
    4fec:	0207f793          	andi	a5,a5,32
    4ff0:	00078c63          	beqz	a5,5008 <encode_uint+0xf4>
		if (radix == 8) {
    4ff4:	00800793          	li	a5,8
    4ff8:	06f49a63          	bne	s1,a5,506c <encode_uint+0x158>
			conv->altform_0 = true;
    4ffc:	002bc783          	lbu	a5,2(s7)
    5000:	0087e793          	ori	a5,a5,8
		} else if (radix == 16) {
			conv->altform_0c = true;
    5004:	00fb8123          	sb	a5,2(s7)
			;
		}
	}

	return bp;
}
    5008:	02c12083          	lw	ra,44(sp)
    500c:	00040513          	mv	a0,s0
    5010:	02812403          	lw	s0,40(sp)
    5014:	02412483          	lw	s1,36(sp)
    5018:	02012903          	lw	s2,32(sp)
    501c:	01c12983          	lw	s3,28(sp)
    5020:	01812a03          	lw	s4,24(sp)
    5024:	01412a83          	lw	s5,20(sp)
    5028:	01012b03          	lw	s6,16(sp)
    502c:	00c12b83          	lw	s7,12(sp)
    5030:	00812c03          	lw	s8,8(sp)
    5034:	00412c83          	lw	s9,4(sp)
    5038:	03010113          	addi	sp,sp,48
    503c:	00008067          	ret
	switch (specifier) {
    5040:	0f77f793          	andi	a5,a5,247
    5044:	07000713          	li	a4,112
    5048:	f3dff06f          	j	4f84 <encode_uint+0x70>
		value /= radix;
    504c:	00050c13          	mv	s8,a0
    5050:	00058c93          	mv	s9,a1
    5054:	f49ff06f          	j	4f9c <encode_uint+0x88>
		*--bp = (lsv <= 9) ? ('0' + lsv)
    5058:	01699663          	bne	s3,s6,5064 <encode_uint+0x150>
    505c:	03778793          	addi	a5,a5,55
    5060:	f5dff06f          	j	4fbc <encode_uint+0xa8>
    5064:	05778793          	addi	a5,a5,87
    5068:	f55ff06f          	j	4fbc <encode_uint+0xa8>
		} else if (radix == 16) {
    506c:	01000793          	li	a5,16
    5070:	f8f49ce3          	bne	s1,a5,5008 <encode_uint+0xf4>
			conv->altform_0c = true;
    5074:	002bc783          	lbu	a5,2(s7)
    5078:	0107e793          	ori	a5,a5,16
    507c:	f89ff06f          	j	5004 <encode_uint+0xf0>

00005080 <outs>:
/* Outline function to emit all characters in [sp, ep). */
static int outs(cbprintf_cb out,
		void *ctx,
		const char *sp,
		const char *ep)
{
    5080:	fe010113          	addi	sp,sp,-32
    5084:	00812c23          	sw	s0,24(sp)
    5088:	00912a23          	sw	s1,20(sp)
    508c:	01212823          	sw	s2,16(sp)
    5090:	01312623          	sw	s3,12(sp)
    5094:	01412423          	sw	s4,8(sp)
    5098:	00112e23          	sw	ra,28(sp)
    509c:	00050993          	mv	s3,a0
    50a0:	00058a13          	mv	s4,a1
    50a4:	00060493          	mv	s1,a2
    50a8:	00068913          	mv	s2,a3
	size_t count = 0;

	while ((sp < ep) || ((ep == NULL) && *sp)) {
    50ac:	00060413          	mv	s0,a2
    50b0:	40940533          	sub	a0,s0,s1
    50b4:	01246863          	bltu	s0,s2,50c4 <outs+0x44>
    50b8:	02091063          	bnez	s2,50d8 <outs+0x58>
    50bc:	00044783          	lbu	a5,0(s0)
    50c0:	00078c63          	beqz	a5,50d8 <outs+0x58>
		int rc = out((int)*sp++, ctx);
    50c4:	00044503          	lbu	a0,0(s0)
    50c8:	000a0593          	mv	a1,s4
    50cc:	00140413          	addi	s0,s0,1
    50d0:	000980e7          	jalr	s3

		if (rc < 0) {
    50d4:	fc055ee3          	bgez	a0,50b0 <outs+0x30>
		}
		++count;
	}

	return (int)count;
}
    50d8:	01c12083          	lw	ra,28(sp)
    50dc:	01812403          	lw	s0,24(sp)
    50e0:	01412483          	lw	s1,20(sp)
    50e4:	01012903          	lw	s2,16(sp)
    50e8:	00c12983          	lw	s3,12(sp)
    50ec:	00812a03          	lw	s4,8(sp)
    50f0:	02010113          	addi	sp,sp,32
    50f4:	00008067          	ret

000050f8 <cbvprintf>:

int cbvprintf(cbprintf_cb out, void *ctx, const char *fp, va_list ap)
{
    50f8:	f7010113          	addi	sp,sp,-144
    50fc:	07512a23          	sw	s5,116(sp)
	switch (conv->specifier) {
    5100:	0000dab7          	lui	s5,0xd
    5104:	410a8793          	addi	a5,s5,1040 # d410 <__mprec_tens+0x318>
{
    5108:	07612823          	sw	s6,112(sp)
		}

		/* Do formatting, either into the buffer or
		 * referencing external data.
		 */
		switch (conv->specifier) {
    510c:	0000db37          	lui	s6,0xd
{
    5110:	07712623          	sw	s7,108(sp)
    5114:	07812423          	sw	s8,104(sp)
	switch (conv->specifier) {
    5118:	00f12223          	sw	a5,4(sp)
	switch ((enum length_mod_enum)conv->length_mod) {
    511c:	0000dbb7          	lui	s7,0xd
		switch (conv->specifier) {
    5120:	494b0793          	addi	a5,s6,1172 # d494 <__mprec_tens+0x39c>

				goto prec_int_pad0;
			}

			bps = "(nil)";
			bpe = bps + 5;
    5124:	0000dc37          	lui	s8,0xd
{
    5128:	08812423          	sw	s0,136(sp)
    512c:	09212023          	sw	s2,128(sp)
    5130:	07312e23          	sw	s3,124(sp)
    5134:	07912223          	sw	s9,100(sp)
    5138:	05b12e23          	sw	s11,92(sp)
    513c:	08112623          	sw	ra,140(sp)
    5140:	08912223          	sw	s1,132(sp)
    5144:	07412c23          	sw	s4,120(sp)
    5148:	07a12023          	sw	s10,96(sp)
    514c:	00050913          	mv	s2,a0
    5150:	00058993          	mv	s3,a1
    5154:	00060c93          	mv	s9,a2
    5158:	00068413          	mv	s0,a3
	size_t count = 0;
    515c:	00000d93          	li	s11,0
		switch (conv->specifier) {
    5160:	00f12423          	sw	a5,8(sp)
	switch ((enum length_mod_enum)conv->length_mod) {
    5164:	4ecb8b93          	addi	s7,s7,1260 # d4ec <__mprec_tens+0x3f4>
			bpe = bps + 5;
    5168:	40dc0c13          	addi	s8,s8,1037 # d40d <__mprec_tens+0x315>
	while (*fp != 0) {
    516c:	000cc483          	lbu	s1,0(s9)
    5170:	00049663          	bnez	s1,517c <cbvprintf+0x84>
			OUTC(' ');
			--width;
		}
	}

	return count;
    5174:	000d8513          	mv	a0,s11
    5178:	1990006f          	j	5b10 <cbvprintf+0xa18>
		if (*fp != '%') {
    517c:	02500793          	li	a5,37
			OUTC(*fp++);
    5180:	001c8a13          	addi	s4,s9,1
		if (*fp != '%') {
    5184:	00f48e63          	beq	s1,a5,51a0 <cbvprintf+0xa8>
			OUTC(*fp++);
    5188:	00098593          	mv	a1,s3
    518c:	00048513          	mv	a0,s1
			OUTC('%');
    5190:	000900e7          	jalr	s2
    5194:	16054ee3          	bltz	a0,5b10 <cbvprintf+0xa18>
    5198:	001d8d93          	addi	s11,s11,1
			break;
    519c:	5200006f          	j	56bc <cbvprintf+0x5c4>
		} state = {
    51a0:	02000613          	li	a2,32
    51a4:	00000593          	li	a1,0
    51a8:	03010513          	addi	a0,sp,48
    51ac:	bd1fd0ef          	jal	ra,2d7c <memset>
	if (*sp == '%') {
    51b0:	001cc783          	lbu	a5,1(s9)
    51b4:	10978263          	beq	a5,s1,52b8 <cbvprintf+0x1c0>
		switch (*sp) {
    51b8:	02b00693          	li	a3,43
    51bc:	02d00613          	li	a2,45
    51c0:	03000593          	li	a1,48
    51c4:	02000513          	li	a0,32
    51c8:	02300813          	li	a6,35
    51cc:	000a4703          	lbu	a4,0(s4)
    51d0:	04015783          	lhu	a5,64(sp)
    51d4:	14d70c63          	beq	a4,a3,532c <cbvprintf+0x234>
    51d8:	12e6ea63          	bltu	a3,a4,530c <cbvprintf+0x214>
    51dc:	14a70c63          	beq	a4,a0,5334 <cbvprintf+0x23c>
    51e0:	15070e63          	beq	a4,a6,533c <cbvprintf+0x244>
	if (conv->flag_zero && conv->flag_dash) {
    51e4:	04012703          	lw	a4,64(sp)
    51e8:	04400693          	li	a3,68
    51ec:	04477713          	andi	a4,a4,68
    51f0:	00d71663          	bne	a4,a3,51fc <cbvprintf+0x104>
		conv->flag_zero = false;
    51f4:	fbf7f793          	andi	a5,a5,-65
    51f8:	04f11023          	sh	a5,64(sp)
	conv->width_present = true;
    51fc:	04015783          	lhu	a5,64(sp)
    5200:	01412a23          	sw	s4,20(sp)
    5204:	0807e713          	ori	a4,a5,128
    5208:	04e11023          	sh	a4,64(sp)
	if (*sp == '*') {
    520c:	000a4683          	lbu	a3,0(s4)
    5210:	02a00713          	li	a4,42
    5214:	12e69863          	bne	a3,a4,5344 <cbvprintf+0x24c>
		conv->width_star = true;
    5218:	1807e793          	ori	a5,a5,384
    521c:	04f11023          	sh	a5,64(sp)
		return ++sp;
    5220:	001a0793          	addi	a5,s4,1
	sp = extract_prec(conv, sp);
    5224:	00f12a23          	sw	a5,20(sp)
	conv->prec_present = (*sp == '.');
    5228:	0007c603          	lbu	a2,0(a5)
    522c:	fd260713          	addi	a4,a2,-46
    5230:	00173713          	seqz	a4,a4
    5234:	00971693          	slli	a3,a4,0x9
    5238:	04015703          	lhu	a4,64(sp)
    523c:	dff77713          	andi	a4,a4,-513
    5240:	00d76733          	or	a4,a4,a3
    5244:	04e11023          	sh	a4,64(sp)
	if (!conv->prec_present) {
    5248:	02e00693          	li	a3,46
    524c:	02d61263          	bne	a2,a3,5270 <cbvprintf+0x178>
	++sp;
    5250:	00178693          	addi	a3,a5,1
    5254:	00d12a23          	sw	a3,20(sp)
	if (*sp == '*') {
    5258:	0017c603          	lbu	a2,1(a5)
    525c:	02a00693          	li	a3,42
    5260:	12d61463          	bne	a2,a3,5388 <cbvprintf+0x290>
		conv->prec_star = true;
    5264:	40076713          	ori	a4,a4,1024
    5268:	04e11023          	sh	a4,64(sp)
		return ++sp;
    526c:	00278793          	addi	a5,a5,2
	switch (*sp) {
    5270:	0007c603          	lbu	a2,0(a5)
    5274:	06c00713          	li	a4,108
		if (*++sp == 'h') {
    5278:	00178593          	addi	a1,a5,1
	switch (*sp) {
    527c:	22e60263          	beq	a2,a4,54a0 <cbvprintf+0x3a8>
    5280:	14c76263          	bltu	a4,a2,53c4 <cbvprintf+0x2cc>
    5284:	06800713          	li	a4,104
    5288:	16e60663          	beq	a2,a4,53f4 <cbvprintf+0x2fc>
    528c:	06a00713          	li	a4,106
    5290:	22e60e63          	beq	a2,a4,54cc <cbvprintf+0x3d4>
    5294:	04c00713          	li	a4,76
    5298:	26e60263          	beq	a2,a4,54fc <cbvprintf+0x404>
		conv->length_mod = LENGTH_NONE;
    529c:	04015703          	lhu	a4,64(sp)
    52a0:	ffff86b7          	lui	a3,0xffff8
    52a4:	7ff68693          	addi	a3,a3,2047 # ffff87ff <CONFIG_SYSTEM_WORKQUEUE_PRIORITY+0xffff8800>
    52a8:	00d77733          	and	a4,a4,a3
    52ac:	04e11023          	sh	a4,64(sp)
		break;
    52b0:	00078593          	mv	a1,a5
    52b4:	16c0006f          	j	5420 <cbvprintf+0x328>
		conv->specifier = *sp++;
    52b8:	002c8a13          	addi	s4,s9,2
    52bc:	04f101a3          	sb	a5,67(sp)
		if (conv->width_star) {
    52c0:	04015783          	lhu	a5,64(sp)
    52c4:	1007f713          	andi	a4,a5,256
    52c8:	32070c63          	beqz	a4,5600 <cbvprintf+0x508>
			width = va_arg(ap, int);
    52cc:	00042483          	lw	s1,0(s0)
    52d0:	00440693          	addi	a3,s0,4
			if (width < 0) {
    52d4:	0004d863          	bgez	s1,52e4 <cbvprintf+0x1ec>
				conv->flag_dash = true;
    52d8:	0047e793          	ori	a5,a5,4
    52dc:	04f11023          	sh	a5,64(sp)
				width = -width;
    52e0:	409004b3          	neg	s1,s1
		if (conv->prec_star) {
    52e4:	04015703          	lhu	a4,64(sp)
    52e8:	40077793          	andi	a5,a4,1024
    52ec:	32078a63          	beqz	a5,5620 <cbvprintf+0x528>
			int arg = va_arg(ap, int);
    52f0:	0006aa83          	lw	s5,0(a3)
    52f4:	00468413          	addi	s0,a3,4
			if (arg < 0) {
    52f8:	320adc63          	bgez	s5,5630 <cbvprintf+0x538>
				conv->prec_present = false;
    52fc:	dff77713          	andi	a4,a4,-513
    5300:	04e11023          	sh	a4,64(sp)
		int precision = -1;
    5304:	fff00a93          	li	s5,-1
    5308:	3280006f          	j	5630 <cbvprintf+0x538>
		switch (*sp) {
    530c:	00c70863          	beq	a4,a2,531c <cbvprintf+0x224>
    5310:	ecb71ae3          	bne	a4,a1,51e4 <cbvprintf+0xec>
			conv->flag_zero = true;
    5314:	0407e793          	ori	a5,a5,64
    5318:	0080006f          	j	5320 <cbvprintf+0x228>
			conv->flag_dash = true;
    531c:	0047e793          	ori	a5,a5,4
			conv->flag_zero = true;
    5320:	04f11023          	sh	a5,64(sp)
			++sp;
    5324:	001a0a13          	addi	s4,s4,1
	} while (loop);
    5328:	ea5ff06f          	j	51cc <cbvprintf+0xd4>
			conv->flag_plus = true;
    532c:	0087e793          	ori	a5,a5,8
    5330:	ff1ff06f          	j	5320 <cbvprintf+0x228>
			conv->flag_space = true;
    5334:	0107e793          	ori	a5,a5,16
    5338:	fe9ff06f          	j	5320 <cbvprintf+0x228>
			conv->flag_hash = true;
    533c:	0207e793          	ori	a5,a5,32
    5340:	fe1ff06f          	j	5320 <cbvprintf+0x228>
	size_t width = extract_decimal(&sp);
    5344:	01410513          	addi	a0,sp,20
    5348:	b85ff0ef          	jal	ra,4ecc <extract_decimal>
	if (sp != wp) {
    534c:	01412783          	lw	a5,20(sp)
    5350:	ed478ae3          	beq	a5,s4,5224 <cbvprintf+0x12c>
		conv->unsupported |= ((conv->width_value < 0)
    5354:	04012703          	lw	a4,64(sp)
    5358:	04014683          	lbu	a3,64(sp)
		conv->width_value = width;
    535c:	04a12223          	sw	a0,68(sp)
		conv->unsupported |= ((conv->width_value < 0)
    5360:	00175713          	srli	a4,a4,0x1
    5364:	00177713          	andi	a4,a4,1
				      || (width != (size_t)conv->width_value));
    5368:	01f55513          	srli	a0,a0,0x1f
		conv->unsupported |= ((conv->width_value < 0)
    536c:	00a76733          	or	a4,a4,a0
    5370:	00171713          	slli	a4,a4,0x1
    5374:	f8076713          	ori	a4,a4,-128
    5378:	07d6f693          	andi	a3,a3,125
    537c:	00d76733          	or	a4,a4,a3
    5380:	04e10023          	sb	a4,64(sp)
    5384:	ea1ff06f          	j	5224 <cbvprintf+0x12c>
	size_t prec = extract_decimal(&sp);
    5388:	01410513          	addi	a0,sp,20
    538c:	b41ff0ef          	jal	ra,4ecc <extract_decimal>
	conv->unsupported |= ((conv->prec_value < 0)
    5390:	04012783          	lw	a5,64(sp)
    5394:	04015703          	lhu	a4,64(sp)
	conv->prec_value = prec;
    5398:	04a12423          	sw	a0,72(sp)
	conv->unsupported |= ((conv->prec_value < 0)
    539c:	0017d793          	srli	a5,a5,0x1
    53a0:	0017f793          	andi	a5,a5,1
			      || (prec != (size_t)conv->prec_value));
    53a4:	01f55513          	srli	a0,a0,0x1f
	conv->unsupported |= ((conv->prec_value < 0)
    53a8:	00a7e7b3          	or	a5,a5,a0
    53ac:	00179793          	slli	a5,a5,0x1
    53b0:	ffd77713          	andi	a4,a4,-3
    53b4:	00f767b3          	or	a5,a4,a5
    53b8:	04f11023          	sh	a5,64(sp)
	return sp;
    53bc:	01412783          	lw	a5,20(sp)
    53c0:	eb1ff06f          	j	5270 <cbvprintf+0x178>
	switch (*sp) {
    53c4:	07400693          	li	a3,116
    53c8:	04015703          	lhu	a4,64(sp)
    53cc:	10d60e63          	beq	a2,a3,54e8 <cbvprintf+0x3f0>
    53d0:	07a00693          	li	a3,122
    53d4:	ecd614e3          	bne	a2,a3,529c <cbvprintf+0x1a4>
		conv->length_mod = LENGTH_Z;
    53d8:	ffff87b7          	lui	a5,0xffff8
    53dc:	7ff78793          	addi	a5,a5,2047 # ffff87ff <CONFIG_SYSTEM_WORKQUEUE_PRIORITY+0xffff8800>
    53e0:	00e7f7b3          	and	a5,a5,a4
    53e4:	00003737          	lui	a4,0x3
		conv->unsupported = true;
    53e8:	00e7e7b3          	or	a5,a5,a4
    53ec:	04f11023          	sh	a5,64(sp)
		break;
    53f0:	0300006f          	j	5420 <cbvprintf+0x328>
		if (*++sp == 'h') {
    53f4:	04015503          	lhu	a0,64(sp)
    53f8:	0017c803          	lbu	a6,1(a5)
    53fc:	ffff86b7          	lui	a3,0xffff8
    5400:	7ff68713          	addi	a4,a3,2047 # ffff87ff <CONFIG_SYSTEM_WORKQUEUE_PRIORITY+0xffff8800>
			conv->length_mod = LENGTH_HH;
    5404:	00a77733          	and	a4,a4,a0
		if (*++sp == 'h') {
    5408:	08c81463          	bne	a6,a2,5490 <cbvprintf+0x398>
			conv->length_mod = LENGTH_HH;
    540c:	000016b7          	lui	a3,0x1
    5410:	80068693          	addi	a3,a3,-2048 # 800 <CONFIG_ISR_STACK_SIZE>
			conv->length_mod = LENGTH_LL;
    5414:	00d76733          	or	a4,a4,a3
    5418:	04e11023          	sh	a4,64(sp)
			++sp;
    541c:	00278593          	addi	a1,a5,2
	conv->specifier = *sp++;
    5420:	0005c703          	lbu	a4,0(a1)
	switch (conv->specifier) {
    5424:	07800793          	li	a5,120
	conv->specifier = *sp++;
    5428:	00158a13          	addi	s4,a1,1
    542c:	04e101a3          	sb	a4,67(sp)
	switch (conv->specifier) {
    5430:	1ae7ee63          	bltu	a5,a4,55ec <cbvprintf+0x4f4>
    5434:	05700793          	li	a5,87
    5438:	0ee7e063          	bltu	a5,a4,5518 <cbvprintf+0x420>
    543c:	04100793          	li	a5,65
    5440:	00f70a63          	beq	a4,a5,5454 <cbvprintf+0x35c>
    5444:	fbb70713          	addi	a4,a4,-69 # 2fbb <__adddf3+0x223>
    5448:	0ff77713          	andi	a4,a4,255
    544c:	00200793          	li	a5,2
    5450:	18e7ee63          	bltu	a5,a4,55ec <cbvprintf+0x4f4>
		conv->specifier_cat = SPECIFIER_FP;
    5454:	04214783          	lbu	a5,66(sp)
    5458:	ff87f793          	andi	a5,a5,-8
    545c:	0047e793          	ori	a5,a5,4
    5460:	04f10123          	sb	a5,66(sp)
			unsupported = true;
    5464:	00100793          	li	a5,1
	conv->unsupported |= unsupported;
    5468:	04012703          	lw	a4,64(sp)
    546c:	00175713          	srli	a4,a4,0x1
    5470:	00177713          	andi	a4,a4,1
    5474:	00e7e7b3          	or	a5,a5,a4
    5478:	04015703          	lhu	a4,64(sp)
    547c:	00179793          	slli	a5,a5,0x1
    5480:	ffd77713          	andi	a4,a4,-3
    5484:	00f767b3          	or	a5,a4,a5
    5488:	04f11023          	sh	a5,64(sp)
	return sp;
    548c:	e35ff06f          	j	52c0 <cbvprintf+0x1c8>
			conv->length_mod = LENGTH_H;
    5490:	000017b7          	lui	a5,0x1
			conv->length_mod = LENGTH_L;
    5494:	00f76733          	or	a4,a4,a5
    5498:	04e11023          	sh	a4,64(sp)
    549c:	f85ff06f          	j	5420 <cbvprintf+0x328>
		if (*++sp == 'l') {
    54a0:	04015503          	lhu	a0,64(sp)
    54a4:	0017c803          	lbu	a6,1(a5) # 1001 <__divdf3+0x43d>
    54a8:	ffff86b7          	lui	a3,0xffff8
    54ac:	7ff68713          	addi	a4,a3,2047 # ffff87ff <CONFIG_SYSTEM_WORKQUEUE_PRIORITY+0xffff8800>
			conv->length_mod = LENGTH_LL;
    54b0:	00a77733          	and	a4,a4,a0
		if (*++sp == 'l') {
    54b4:	00c81663          	bne	a6,a2,54c0 <cbvprintf+0x3c8>
			conv->length_mod = LENGTH_LL;
    54b8:	000026b7          	lui	a3,0x2
    54bc:	f59ff06f          	j	5414 <cbvprintf+0x31c>
			conv->length_mod = LENGTH_L;
    54c0:	000027b7          	lui	a5,0x2
    54c4:	80078793          	addi	a5,a5,-2048 # 1800 <__muldf3+0x478>
    54c8:	fcdff06f          	j	5494 <cbvprintf+0x39c>
		conv->length_mod = LENGTH_J;
    54cc:	04015783          	lhu	a5,64(sp)
    54d0:	ffff8737          	lui	a4,0xffff8
    54d4:	7ff70713          	addi	a4,a4,2047 # ffff87ff <CONFIG_SYSTEM_WORKQUEUE_PRIORITY+0xffff8800>
    54d8:	00e7f7b3          	and	a5,a5,a4
    54dc:	00003737          	lui	a4,0x3
		conv->length_mod = LENGTH_T;
    54e0:	80070713          	addi	a4,a4,-2048 # 2800 <__divsf3+0x1e8>
    54e4:	f05ff06f          	j	53e8 <cbvprintf+0x2f0>
    54e8:	ffff87b7          	lui	a5,0xffff8
    54ec:	7ff78793          	addi	a5,a5,2047 # ffff87ff <CONFIG_SYSTEM_WORKQUEUE_PRIORITY+0xffff8800>
    54f0:	00e7f7b3          	and	a5,a5,a4
    54f4:	00004737          	lui	a4,0x4
    54f8:	fe9ff06f          	j	54e0 <cbvprintf+0x3e8>
		conv->unsupported = true;
    54fc:	04015783          	lhu	a5,64(sp)
    5500:	ffff8737          	lui	a4,0xffff8
    5504:	7fd70713          	addi	a4,a4,2045 # ffff87fd <CONFIG_SYSTEM_WORKQUEUE_PRIORITY+0xffff87fe>
    5508:	00e7f7b3          	and	a5,a5,a4
    550c:	00004737          	lui	a4,0x4
    5510:	00270713          	addi	a4,a4,2 # 4002 <init_matmul+0x96>
    5514:	ed5ff06f          	j	53e8 <cbvprintf+0x2f0>
	switch (conv->specifier) {
    5518:	fa870793          	addi	a5,a4,-88
    551c:	0ff7f793          	andi	a5,a5,255
    5520:	02000693          	li	a3,32
    5524:	0cf6e463          	bltu	a3,a5,55ec <cbvprintf+0x4f4>
    5528:	00412683          	lw	a3,4(sp)
    552c:	00279793          	slli	a5,a5,0x2
    5530:	00d787b3          	add	a5,a5,a3
    5534:	0007a783          	lw	a5,0(a5)
    5538:	00078067          	jr	a5
		conv->specifier_cat = SPECIFIER_SINT;
    553c:	04214783          	lbu	a5,66(sp)
    5540:	ff87f793          	andi	a5,a5,-8
    5544:	0017e793          	ori	a5,a5,1
		if (conv->length_mod == LENGTH_UPPER_L) {
    5548:	04015683          	lhu	a3,64(sp)
		conv->specifier_cat = SPECIFIER_UINT;
    554c:	04f10123          	sb	a5,66(sp)
		if (conv->length_mod == LENGTH_UPPER_L) {
    5550:	000087b7          	lui	a5,0x8
    5554:	80078793          	addi	a5,a5,-2048 # 7800 <z_impl_k_thread_suspend>
    5558:	00f6f7b3          	and	a5,a3,a5
    555c:	01079793          	slli	a5,a5,0x10
    5560:	0107d793          	srli	a5,a5,0x10
    5564:	00004637          	lui	a2,0x4
    5568:	00c79663          	bne	a5,a2,5574 <cbvprintf+0x47c>
			conv->invalid = true;
    556c:	0016e693          	ori	a3,a3,1
    5570:	04d11023          	sh	a3,64(sp)
		if (conv->specifier == 'c') {
    5574:	06300693          	li	a3,99
	bool unsupported = false;
    5578:	00000793          	li	a5,0
		if (conv->specifier == 'c') {
    557c:	eed716e3          	bne	a4,a3,5468 <cbvprintf+0x370>
		if (conv->length_mod != LENGTH_NONE) {
    5580:	04015703          	lhu	a4,64(sp)
    5584:	000087b7          	lui	a5,0x8
    5588:	80078793          	addi	a5,a5,-2048 # 7800 <z_impl_k_thread_suspend>
    558c:	00e7f7b3          	and	a5,a5,a4
    5590:	00f037b3          	snez	a5,a5
    5594:	ed5ff06f          	j	5468 <cbvprintf+0x370>
		conv->specifier_cat = SPECIFIER_UINT;
    5598:	04214783          	lbu	a5,66(sp)
    559c:	ff87f793          	andi	a5,a5,-8
    55a0:	0027e793          	ori	a5,a5,2
    55a4:	fa5ff06f          	j	5548 <cbvprintf+0x450>
		conv->specifier_cat = SPECIFIER_PTR;
    55a8:	04214783          	lbu	a5,66(sp)
		if (conv->length_mod == LENGTH_UPPER_L) {
    55ac:	04015703          	lhu	a4,64(sp)
		conv->specifier_cat = SPECIFIER_PTR;
    55b0:	ff87f793          	andi	a5,a5,-8
    55b4:	0037e793          	ori	a5,a5,3
    55b8:	04f10123          	sb	a5,66(sp)
		if (conv->length_mod == LENGTH_UPPER_L) {
    55bc:	000087b7          	lui	a5,0x8
    55c0:	80078793          	addi	a5,a5,-2048 # 7800 <z_impl_k_thread_suspend>
    55c4:	00e7f7b3          	and	a5,a5,a4
    55c8:	ffffc737          	lui	a4,0xffffc
    55cc:	00e787b3          	add	a5,a5,a4
    55d0:	0017b793          	seqz	a5,a5
    55d4:	e95ff06f          	j	5468 <cbvprintf+0x370>
		conv->specifier_cat = SPECIFIER_PTR;
    55d8:	04214783          	lbu	a5,66(sp)
    55dc:	ff87f793          	andi	a5,a5,-8
    55e0:	0037e793          	ori	a5,a5,3
    55e4:	04f10123          	sb	a5,66(sp)
    55e8:	f99ff06f          	j	5580 <cbvprintf+0x488>
		conv->invalid = true;
    55ec:	04015783          	lhu	a5,64(sp)
    55f0:	0017e793          	ori	a5,a5,1
    55f4:	04f11023          	sh	a5,64(sp)
	bool unsupported = false;
    55f8:	00000793          	li	a5,0
		break;
    55fc:	e6dff06f          	j	5468 <cbvprintf+0x370>
		} else if (conv->width_present) {
    5600:	0807f793          	andi	a5,a5,128
    5604:	00078863          	beqz	a5,5614 <cbvprintf+0x51c>
			width = conv->width_value;
    5608:	04412483          	lw	s1,68(sp)
    560c:	00040693          	mv	a3,s0
    5610:	cd5ff06f          	j	52e4 <cbvprintf+0x1ec>
    5614:	00040693          	mv	a3,s0
		int width = -1;
    5618:	fff00493          	li	s1,-1
    561c:	cc9ff06f          	j	52e4 <cbvprintf+0x1ec>
		} else if (conv->prec_present) {
    5620:	20077713          	andi	a4,a4,512
    5624:	0a070063          	beqz	a4,56c4 <cbvprintf+0x5cc>
			precision = conv->prec_value;
    5628:	04812a83          	lw	s5,72(sp)
    562c:	00068413          	mv	s0,a3
			= (enum specifier_cat_enum)conv->specifier_cat;
    5630:	04012583          	lw	a1,64(sp)
		conv->pad0_value = 0;
    5634:	04012223          	sw	zero,68(sp)
		conv->pad0_pre_exp = 0;
    5638:	04012423          	sw	zero,72(sp)
			= (enum specifier_cat_enum)conv->specifier_cat;
    563c:	0105d693          	srli	a3,a1,0x10
			= (enum length_mod_enum)conv->length_mod;
    5640:	00b5d713          	srli	a4,a1,0xb
		enum specifier_cat_enum specifier_cat
    5644:	0076f693          	andi	a3,a3,7
		if (specifier_cat == SPECIFIER_SINT) {
    5648:	00100613          	li	a2,1
			= (enum length_mod_enum)conv->length_mod;
    564c:	00f77713          	andi	a4,a4,15
		if (specifier_cat == SPECIFIER_SINT) {
    5650:	0cc69863          	bne	a3,a2,5720 <cbvprintf+0x628>
			switch (length_mod) {
    5654:	00500613          	li	a2,5
    5658:	08c70863          	beq	a4,a2,56e8 <cbvprintf+0x5f0>
    565c:	00e66a63          	bltu	a2,a4,5670 <cbvprintf+0x578>
    5660:	00300693          	li	a3,3
    5664:	06d70463          	beq	a4,a3,56cc <cbvprintf+0x5d4>
    5668:	00400693          	li	a3,4
    566c:	06d70e63          	beq	a4,a3,56e8 <cbvprintf+0x5f0>
					(sint_value_type)va_arg(ap, ptrdiff_t);
    5670:	00042683          	lw	a3,0(s0)
    5674:	00440413          	addi	s0,s0,4
    5678:	02d12823          	sw	a3,48(sp)
    567c:	41f6d693          	srai	a3,a3,0x1f
    5680:	02d12a23          	sw	a3,52(sp)
			if (length_mod == LENGTH_HH) {
    5684:	00100693          	li	a3,1
    5688:	06d71e63          	bne	a4,a3,5704 <cbvprintf+0x60c>
				value->uint = (unsigned char)value->uint;
    568c:	03014683          	lbu	a3,48(sp)
				value->uint = (unsigned short)value->uint;
    5690:	02d12823          	sw	a3,48(sp)
    5694:	02012a23          	sw	zero,52(sp)
		if (conv->invalid || conv->unsupported) {
    5698:	0035f593          	andi	a1,a1,3
    569c:	14058863          	beqz	a1,57ec <cbvprintf+0x6f4>
			OUTS(sp, fp);
    56a0:	000a0693          	mv	a3,s4
    56a4:	000c8613          	mv	a2,s9
    56a8:	00098593          	mv	a1,s3
    56ac:	00090513          	mv	a0,s2
    56b0:	9d1ff0ef          	jal	ra,5080 <outs>
    56b4:	44054e63          	bltz	a0,5b10 <cbvprintf+0xa18>
    56b8:	00ad8db3          	add	s11,s11,a0
			OUTS(bps, bpe);
    56bc:	000a0c93          	mv	s9,s4
    56c0:	aadff06f          	j	516c <cbvprintf+0x74>
    56c4:	00068413          	mv	s0,a3
    56c8:	c3dff06f          	j	5304 <cbvprintf+0x20c>
					value->sint = va_arg(ap, long);
    56cc:	00042683          	lw	a3,0(s0)
				value->sint = va_arg(ap, int);
    56d0:	00440513          	addi	a0,s0,4
					value->sint = va_arg(ap, long);
    56d4:	02d12823          	sw	a3,48(sp)
    56d8:	41f6d693          	srai	a3,a3,0x1f
				value->sint =
    56dc:	02d12a23          	sw	a3,52(sp)
					(uint_value_type)va_arg(ap, size_t);
    56e0:	00050413          	mv	s0,a0
    56e4:	fb5ff06f          	j	5698 <cbvprintf+0x5a0>
					(sint_value_type)va_arg(ap, long long);
    56e8:	00740413          	addi	s0,s0,7
    56ec:	ff847413          	andi	s0,s0,-8
				value->sint =
    56f0:	00042603          	lw	a2,0(s0)
    56f4:	00442683          	lw	a3,4(s0)
					(sint_value_type)va_arg(ap, long long);
    56f8:	00840513          	addi	a0,s0,8
				value->sint =
    56fc:	02c12823          	sw	a2,48(sp)
    5700:	fddff06f          	j	56dc <cbvprintf+0x5e4>
			} else if (length_mod == LENGTH_H) {
    5704:	00200693          	li	a3,2
    5708:	f8d718e3          	bne	a4,a3,5698 <cbvprintf+0x5a0>
				value->sint = (short)value->sint;
    570c:	03011683          	lh	a3,48(sp)
    5710:	02d12823          	sw	a3,48(sp)
    5714:	41f6d693          	srai	a3,a3,0x1f
				value->dbl = va_arg(ap, double);
    5718:	02d12a23          	sw	a3,52(sp)
    571c:	f7dff06f          	j	5698 <cbvprintf+0x5a0>
		} else if (specifier_cat == SPECIFIER_UINT) {
    5720:	00200513          	li	a0,2
    5724:	04a69e63          	bne	a3,a0,5780 <cbvprintf+0x688>
			switch (length_mod) {
    5728:	00500693          	li	a3,5
    572c:	fad70ee3          	beq	a4,a3,56e8 <cbvprintf+0x5f0>
    5730:	00e6ea63          	bltu	a3,a4,5744 <cbvprintf+0x64c>
    5734:	00300693          	li	a3,3
    5738:	02d70a63          	beq	a4,a3,576c <cbvprintf+0x674>
    573c:	00400693          	li	a3,4
    5740:	fad704e3          	beq	a4,a3,56e8 <cbvprintf+0x5f0>
					(uint_value_type)va_arg(ap, size_t);
    5744:	00042683          	lw	a3,0(s0)
    5748:	02012a23          	sw	zero,52(sp)
    574c:	00440413          	addi	s0,s0,4
    5750:	02d12823          	sw	a3,48(sp)
			if (length_mod == LENGTH_HH) {
    5754:	00100693          	li	a3,1
    5758:	f2d70ae3          	beq	a4,a3,568c <cbvprintf+0x594>
			} else if (length_mod == LENGTH_H) {
    575c:	00200693          	li	a3,2
    5760:	f2d71ce3          	bne	a4,a3,5698 <cbvprintf+0x5a0>
				value->uint = (unsigned short)value->uint;
    5764:	03015683          	lhu	a3,48(sp)
    5768:	f29ff06f          	j	5690 <cbvprintf+0x598>
					value->uint = va_arg(ap, unsigned long);
    576c:	00042683          	lw	a3,0(s0)
    5770:	00440513          	addi	a0,s0,4
    5774:	02012a23          	sw	zero,52(sp)
    5778:	02d12823          	sw	a3,48(sp)
				break;
    577c:	f65ff06f          	j	56e0 <cbvprintf+0x5e8>
		} else if (specifier_cat == SPECIFIER_FP) {
    5780:	00400613          	li	a2,4
    5784:	04c69a63          	bne	a3,a2,57d8 <cbvprintf+0x6e0>
			if (length_mod == LENGTH_UPPER_L) {
    5788:	00800693          	li	a3,8
    578c:	02d71863          	bne	a4,a3,57bc <cbvprintf+0x6c4>
				value->ldbl = va_arg(ap, long double);
    5790:	00042683          	lw	a3,0(s0)
    5794:	0006a803          	lw	a6,0(a3) # 2000 <CONFIG_SRAM_SIZE>
    5798:	0046a503          	lw	a0,4(a3)
    579c:	0086a603          	lw	a2,8(a3)
    57a0:	00c6a683          	lw	a3,12(a3)
    57a4:	03012823          	sw	a6,48(sp)
    57a8:	02a12a23          	sw	a0,52(sp)
    57ac:	02c12c23          	sw	a2,56(sp)
    57b0:	02d12e23          	sw	a3,60(sp)
			value->ptr = va_arg(ap, void *);
    57b4:	00440413          	addi	s0,s0,4
    57b8:	ee1ff06f          	j	5698 <cbvprintf+0x5a0>
				value->dbl = va_arg(ap, double);
    57bc:	00740693          	addi	a3,s0,7
    57c0:	ff86f693          	andi	a3,a3,-8
    57c4:	0006a603          	lw	a2,0(a3)
    57c8:	00868413          	addi	s0,a3,8
    57cc:	0046a683          	lw	a3,4(a3)
    57d0:	02c12823          	sw	a2,48(sp)
    57d4:	f45ff06f          	j	5718 <cbvprintf+0x620>
		} else if (specifier_cat == SPECIFIER_PTR) {
    57d8:	00300613          	li	a2,3
    57dc:	eac69ee3          	bne	a3,a2,5698 <cbvprintf+0x5a0>
			value->ptr = va_arg(ap, void *);
    57e0:	00042683          	lw	a3,0(s0)
    57e4:	02d12823          	sw	a3,48(sp)
    57e8:	fcdff06f          	j	57b4 <cbvprintf+0x6bc>
		switch (conv->specifier) {
    57ec:	04314683          	lbu	a3,67(sp)
    57f0:	07800613          	li	a2,120
    57f4:	ecd664e3          	bltu	a2,a3,56bc <cbvprintf+0x5c4>
    57f8:	06200613          	li	a2,98
    57fc:	00d66e63          	bltu	a2,a3,5818 <cbvprintf+0x720>
    5800:	02500713          	li	a4,37
    5804:	02e68c63          	beq	a3,a4,583c <cbvprintf+0x744>
    5808:	05800713          	li	a4,88
    580c:	eae698e3          	bne	a3,a4,56bc <cbvprintf+0x5c4>
    5810:	00000b13          	li	s6,0
    5814:	1fc0006f          	j	5a10 <cbvprintf+0x918>
    5818:	f9d68693          	addi	a3,a3,-99
    581c:	0ff6f693          	andi	a3,a3,255
    5820:	01500613          	li	a2,21
    5824:	e8d66ce3          	bltu	a2,a3,56bc <cbvprintf+0x5c4>
    5828:	00812783          	lw	a5,8(sp)
    582c:	00269693          	slli	a3,a3,0x2
    5830:	00f686b3          	add	a3,a3,a5
    5834:	0006a683          	lw	a3,0(a3)
    5838:	00068067          	jr	a3
			OUTC('%');
    583c:	00098593          	mv	a1,s3
    5840:	02500513          	li	a0,37
    5844:	94dff06f          	j	5190 <cbvprintf+0x98>
			bps = (const char *)value->ptr;
    5848:	03012c83          	lw	s9,48(sp)
			if (precision >= 0) {
    584c:	160ac063          	bltz	s5,59ac <cbvprintf+0x8b4>
				len = strnlen(bps, precision);
    5850:	000a8593          	mv	a1,s5
    5854:	000c8513          	mv	a0,s9
    5858:	779030ef          	jal	ra,97d0 <strnlen>
			bpe = bps + len;
    585c:	00ac8d33          	add	s10,s9,a0
		char sign = 0;
    5860:	00000b13          	li	s6,0
		if (bps == NULL) {
    5864:	e40c8ce3          	beqz	s9,56bc <cbvprintf+0x5c4>
		size_t nj_len = (bpe - bps);
    5868:	419d07b3          	sub	a5,s10,s9
		if (sign != 0) {
    586c:	000b0463          	beqz	s6,5874 <cbvprintf+0x77c>
			nj_len += 1U;
    5870:	00178793          	addi	a5,a5,1
		if (conv->altform_0c) {
    5874:	04214703          	lbu	a4,66(sp)
    5878:	01077693          	andi	a3,a4,16
    587c:	26068663          	beqz	a3,5ae8 <cbvprintf+0x9f0>
			nj_len += 2U;
    5880:	00278793          	addi	a5,a5,2
		nj_len += conv->pad0_value;
    5884:	04412683          	lw	a3,68(sp)
		if (conv->pad_fp) {
    5888:	04077713          	andi	a4,a4,64
		nj_len += conv->pad0_value;
    588c:	00d787b3          	add	a5,a5,a3
		if (conv->pad_fp) {
    5890:	00070663          	beqz	a4,589c <cbvprintf+0x7a4>
			nj_len += conv->pad0_pre_exp;
    5894:	04812703          	lw	a4,72(sp)
    5898:	00e787b3          	add	a5,a5,a4
		if (width > 0) {
    589c:	04905c63          	blez	s1,58f4 <cbvprintf+0x7fc>
			width -= (int)nj_len;
    58a0:	40f484b3          	sub	s1,s1,a5
			if (!conv->flag_dash) {
    58a4:	04012783          	lw	a5,64(sp)
    58a8:	0027d793          	srli	a5,a5,0x2
    58ac:	0017f793          	andi	a5,a5,1
    58b0:	04079263          	bnez	a5,58f4 <cbvprintf+0x7fc>
				if (conv->flag_zero) {
    58b4:	04015783          	lhu	a5,64(sp)
    58b8:	0407f793          	andi	a5,a5,64
    58bc:	28078863          	beqz	a5,5b4c <cbvprintf+0xa54>
					if (sign != 0) {
    58c0:	280b0a63          	beqz	s6,5b54 <cbvprintf+0xa5c>
						OUTC(sign);
    58c4:	00098593          	mv	a1,s3
    58c8:	000b0513          	mv	a0,s6
    58cc:	000900e7          	jalr	s2
    58d0:	24054063          	bltz	a0,5b10 <cbvprintf+0xa18>
    58d4:	001d8d93          	addi	s11,s11,1
					pad = '0';
    58d8:	03000793          	li	a5,48
						sign = 0;
    58dc:	00000b13          	li	s6,0
    58e0:	01b48ab3          	add	s5,s1,s11
    58e4:	00048713          	mv	a4,s1
    58e8:	409a8db3          	sub	s11,s5,s1
				while (width-- > 0) {
    58ec:	fff48493          	addi	s1,s1,-1
    58f0:	20e04463          	bgtz	a4,5af8 <cbvprintf+0xa00>
		if (sign != 0) {
    58f4:	000b0c63          	beqz	s6,590c <cbvprintf+0x814>
			OUTC(sign);
    58f8:	00098593          	mv	a1,s3
    58fc:	000b0513          	mv	a0,s6
    5900:	000900e7          	jalr	s2
    5904:	20054663          	bltz	a0,5b10 <cbvprintf+0xa18>
    5908:	001d8d93          	addi	s11,s11,1
			if (conv->altform_0c | conv->altform_0) {
    590c:	04012783          	lw	a5,64(sp)
    5910:	0147d713          	srli	a4,a5,0x14
    5914:	00177713          	andi	a4,a4,1
    5918:	00071863          	bnez	a4,5928 <cbvprintf+0x830>
    591c:	0137d793          	srli	a5,a5,0x13
    5920:	0017f793          	andi	a5,a5,1
    5924:	00078c63          	beqz	a5,593c <cbvprintf+0x844>
				OUTC('0');
    5928:	00098593          	mv	a1,s3
    592c:	03000513          	li	a0,48
    5930:	000900e7          	jalr	s2
    5934:	1c054e63          	bltz	a0,5b10 <cbvprintf+0xa18>
    5938:	001d8d93          	addi	s11,s11,1
			if (conv->altform_0c) {
    593c:	04214783          	lbu	a5,66(sp)
    5940:	0107f793          	andi	a5,a5,16
    5944:	00078c63          	beqz	a5,595c <cbvprintf+0x864>
				OUTC(conv->specifier);
    5948:	04314503          	lbu	a0,67(sp)
    594c:	00098593          	mv	a1,s3
    5950:	000900e7          	jalr	s2
    5954:	1a054e63          	bltz	a0,5b10 <cbvprintf+0xa18>
    5958:	001d8d93          	addi	s11,s11,1
			while (pad_len-- > 0) {
    595c:	04412783          	lw	a5,68(sp)
    5960:	01b78ab3          	add	s5,a5,s11
    5964:	41ba8733          	sub	a4,s5,s11
    5968:	1ee04a63          	bgtz	a4,5b5c <cbvprintf+0xa64>
			OUTS(bps, bpe);
    596c:	000d0693          	mv	a3,s10
    5970:	000c8613          	mv	a2,s9
    5974:	00098593          	mv	a1,s3
    5978:	00090513          	mv	a0,s2
    597c:	f04ff0ef          	jal	ra,5080 <outs>
    5980:	18054863          	bltz	a0,5b10 <cbvprintf+0xa18>
    5984:	01b50db3          	add	s11,a0,s11
		while (width > 0) {
    5988:	01b484b3          	add	s1,s1,s11
    598c:	41b487b3          	sub	a5,s1,s11
    5990:	d2f056e3          	blez	a5,56bc <cbvprintf+0x5c4>
			OUTC(' ');
    5994:	00098593          	mv	a1,s3
    5998:	02000513          	li	a0,32
    599c:	000900e7          	jalr	s2
    59a0:	16054863          	bltz	a0,5b10 <cbvprintf+0xa18>
    59a4:	001d8d93          	addi	s11,s11,1
			--width;
    59a8:	fe5ff06f          	j	598c <cbvprintf+0x894>
				len = strlen(bps);
    59ac:	000c8513          	mv	a0,s9
    59b0:	5cd030ef          	jal	ra,977c <strlen>
    59b4:	ea9ff06f          	j	585c <cbvprintf+0x764>
			buf[0] = CHAR_IS_SIGNED ? value->sint : value->uint;
    59b8:	03012783          	lw	a5,48(sp)
			bpe = buf + 1;
    59bc:	01910d13          	addi	s10,sp,25
			bps = buf;
    59c0:	01810c93          	addi	s9,sp,24
			buf[0] = CHAR_IS_SIGNED ? value->sint : value->uint;
    59c4:	00f10c23          	sb	a5,24(sp)
			break;
    59c8:	00000b13          	li	s6,0
    59cc:	e9dff06f          	j	5868 <cbvprintf+0x770>
			if (conv->flag_plus) {
    59d0:	04015703          	lhu	a4,64(sp)
				sign = '+';
    59d4:	02b00b13          	li	s6,43
			if (conv->flag_plus) {
    59d8:	00877693          	andi	a3,a4,8
    59dc:	00069663          	bnez	a3,59e8 <cbvprintf+0x8f0>
				sign = ' ';
    59e0:	00171b13          	slli	s6,a4,0x1
    59e4:	020b7b13          	andi	s6,s6,32
			sint = value->sint;
    59e8:	03412703          	lw	a4,52(sp)
    59ec:	03012683          	lw	a3,48(sp)
			if (sint < 0) {
    59f0:	02075063          	bgez	a4,5a10 <cbvprintf+0x918>
				value->uint = (uint_value_type)-sint;
    59f4:	40d00633          	neg	a2,a3
    59f8:	40e00733          	neg	a4,a4
    59fc:	00d036b3          	snez	a3,a3
    5a00:	40d70733          	sub	a4,a4,a3
    5a04:	02c12823          	sw	a2,48(sp)
    5a08:	02e12a23          	sw	a4,52(sp)
				sign = '-';
    5a0c:	02d00b13          	li	s6,45
			bps = encode_uint(value->uint, conv, buf, bpe);
    5a10:	03012503          	lw	a0,48(sp)
    5a14:	03412583          	lw	a1,52(sp)
    5a18:	02e10713          	addi	a4,sp,46
    5a1c:	01810693          	addi	a3,sp,24
    5a20:	04010613          	addi	a2,sp,64
    5a24:	cf0ff0ef          	jal	ra,4f14 <encode_uint>
    5a28:	00050c93          	mv	s9,a0
			if (precision >= 0) {
    5a2c:	02e10d13          	addi	s10,sp,46
    5a30:	e20acae3          	bltz	s5,5864 <cbvprintf+0x76c>
				conv->flag_zero = false;
    5a34:	04015683          	lhu	a3,64(sp)
				size_t len = bpe - bps;
    5a38:	419d0733          	sub	a4,s10,s9
				conv->flag_zero = false;
    5a3c:	fbf6f693          	andi	a3,a3,-65
    5a40:	04d11023          	sh	a3,64(sp)
				if (len < (size_t)precision) {
    5a44:	e35770e3          	bgeu	a4,s5,5864 <cbvprintf+0x76c>
					conv->pad0_value = precision - (int)len;
    5a48:	40ea87b3          	sub	a5,s5,a4
    5a4c:	04f12223          	sw	a5,68(sp)
    5a50:	e15ff06f          	j	5864 <cbvprintf+0x76c>
			if (value->ptr != NULL) {
    5a54:	03012503          	lw	a0,48(sp)
    5a58:	08050063          	beqz	a0,5ad8 <cbvprintf+0x9e0>
				bps = encode_uint((uintptr_t)value->ptr, conv,
    5a5c:	02e10713          	addi	a4,sp,46
    5a60:	01810693          	addi	a3,sp,24
    5a64:	04010613          	addi	a2,sp,64
    5a68:	00000593          	li	a1,0
    5a6c:	ca8ff0ef          	jal	ra,4f14 <encode_uint>
				conv->altform_0c = true;
    5a70:	04215703          	lhu	a4,66(sp)
    5a74:	000086b7          	lui	a3,0x8
    5a78:	81068693          	addi	a3,a3,-2032 # 7810 <z_impl_k_thread_suspend+0x10>
    5a7c:	0ef77713          	andi	a4,a4,239
    5a80:	00d76733          	or	a4,a4,a3
				bps = encode_uint((uintptr_t)value->ptr, conv,
    5a84:	00050c93          	mv	s9,a0
				conv->altform_0c = true;
    5a88:	04e11123          	sh	a4,66(sp)
		char sign = 0;
    5a8c:	00000b13          	li	s6,0
				goto prec_int_pad0;
    5a90:	f9dff06f          	j	5a2c <cbvprintf+0x934>
	switch ((enum length_mod_enum)conv->length_mod) {
    5a94:	00700693          	li	a3,7
				store_count(conv, value->ptr, count);
    5a98:	03012783          	lw	a5,48(sp)
	switch ((enum length_mod_enum)conv->length_mod) {
    5a9c:	c2e6e0e3          	bltu	a3,a4,56bc <cbvprintf+0x5c4>
    5aa0:	00271713          	slli	a4,a4,0x2
    5aa4:	01770733          	add	a4,a4,s7
    5aa8:	00072703          	lw	a4,0(a4) # ffffc000 <CONFIG_SYSTEM_WORKQUEUE_PRIORITY+0xffffc001>
    5aac:	00070067          	jr	a4
		*(signed char *)dp = (signed char)count;
    5ab0:	01b78023          	sb	s11,0(a5)
		break;
    5ab4:	c09ff06f          	j	56bc <cbvprintf+0x5c4>
		*(short *)dp = (short)count;
    5ab8:	01b79023          	sh	s11,0(a5)
		break;
    5abc:	c01ff06f          	j	56bc <cbvprintf+0x5c4>
		*(intmax_t *)dp = (intmax_t)count;
    5ac0:	41fdd713          	srai	a4,s11,0x1f
    5ac4:	01b7a023          	sw	s11,0(a5)
    5ac8:	00e7a223          	sw	a4,4(a5)
		break;
    5acc:	bf1ff06f          	j	56bc <cbvprintf+0x5c4>
		*(ptrdiff_t *)dp = (ptrdiff_t)count;
    5ad0:	01b7a023          	sw	s11,0(a5)
		break;
    5ad4:	be9ff06f          	j	56bc <cbvprintf+0x5c4>
			bps = "(nil)";
    5ad8:	0000dcb7          	lui	s9,0xd
			bpe = bps + 5;
    5adc:	000c0d13          	mv	s10,s8
			bps = "(nil)";
    5ae0:	408c8c93          	addi	s9,s9,1032 # d408 <__mprec_tens+0x310>
    5ae4:	ee5ff06f          	j	59c8 <cbvprintf+0x8d0>
		} else if (conv->altform_0) {
    5ae8:	00877693          	andi	a3,a4,8
    5aec:	d8068ce3          	beqz	a3,5884 <cbvprintf+0x78c>
			nj_len += 1U;
    5af0:	00178793          	addi	a5,a5,1
    5af4:	d91ff06f          	j	5884 <cbvprintf+0x78c>
					OUTC(pad);
    5af8:	00078513          	mv	a0,a5
    5afc:	00098593          	mv	a1,s3
    5b00:	00f12623          	sw	a5,12(sp)
    5b04:	000900e7          	jalr	s2
    5b08:	00c12783          	lw	a5,12(sp)
    5b0c:	dc055ce3          	bgez	a0,58e4 <cbvprintf+0x7ec>
#undef OUTS
#undef OUTC
}
    5b10:	08c12083          	lw	ra,140(sp)
    5b14:	08812403          	lw	s0,136(sp)
    5b18:	08412483          	lw	s1,132(sp)
    5b1c:	08012903          	lw	s2,128(sp)
    5b20:	07c12983          	lw	s3,124(sp)
    5b24:	07812a03          	lw	s4,120(sp)
    5b28:	07412a83          	lw	s5,116(sp)
    5b2c:	07012b03          	lw	s6,112(sp)
    5b30:	06c12b83          	lw	s7,108(sp)
    5b34:	06812c03          	lw	s8,104(sp)
    5b38:	06412c83          	lw	s9,100(sp)
    5b3c:	06012d03          	lw	s10,96(sp)
    5b40:	05c12d83          	lw	s11,92(sp)
    5b44:	09010113          	addi	sp,sp,144
    5b48:	00008067          	ret
				char pad = ' ';
    5b4c:	02000793          	li	a5,32
    5b50:	d91ff06f          	j	58e0 <cbvprintf+0x7e8>
					pad = '0';
    5b54:	03000793          	li	a5,48
    5b58:	d89ff06f          	j	58e0 <cbvprintf+0x7e8>
				OUTC('0');
    5b5c:	00098593          	mv	a1,s3
    5b60:	03000513          	li	a0,48
    5b64:	000900e7          	jalr	s2
    5b68:	fa0544e3          	bltz	a0,5b10 <cbvprintf+0xa18>
    5b6c:	001d8d93          	addi	s11,s11,1
    5b70:	df5ff06f          	j	5964 <cbvprintf+0x86c>

00005b74 <_ConfigAbsSyms>:
GEN_ABSOLUTE_SYM_KCONFIG(CONFIG_OUTPUT_DISASSEMBLY, 1);
GEN_ABSOLUTE_SYM_KCONFIG(CONFIG_OUTPUT_PRINT_MEMORY_USAGE, 1);
GEN_ABSOLUTE_SYM_KCONFIG(CONFIG_BUILD_OUTPUT_BIN, 1);
GEN_ABSOLUTE_SYM_KCONFIG(CONFIG_COMPAT_INCLUDES, 1);

GEN_ABS_SYM_END
    5b74:	00008067          	ret

00005b78 <soc_interrupt_init>:
static ALWAYS_INLINE unsigned int arch_irq_lock(void)
{
	unsigned int key;
	ulong_t mstatus;

	__asm__ volatile ("csrrc %0, mstatus, %1"
    5b78:	00800793          	li	a5,8
    5b7c:	3007b7f3          	csrrc	a5,mstatus,a5
void soc_interrupt_init(void)
{
	/* ensure that all interrupts are disabled */
	(void)irq_lock();

	__asm__ volatile ("csrwi mie, 0\n"
    5b80:	30405073          	csrwi	mie,0
    5b84:	34405073          	csrwi	mip,0
			  "csrwi mip, 0\n");
}
    5b88:	00008067          	ret

00005b8c <fix_baud_rate>:
	*(volatile uint16_t *)addr = data;
}

static ALWAYS_INLINE uint32_t sys_read32(mem_addr_t addr)
{
	return *(volatile uint32_t *)addr;
    5b8c:	800017b7          	lui	a5,0x80001
    5b90:	03c7a783          	lw	a5,60(a5) # 8000103c <CONFIG_SYSTEM_WORKQUEUE_PRIORITY+0x8000103d>

	/*
	 * calculate baud rate divisor. a variant of
	 * (uint32_t)(dev_cfg->sys_clk_freq / (16.0 * baud_rate) + 0.5)
	 */
	divisor = ((sys_clk_freq + (baud_rate << 3))
    5b94:	000e1737          	lui	a4,0xe1
	return *(volatile uint8_t *)addr;
    5b98:	800026b7          	lui	a3,0x80002
    5b9c:	00e787b3          	add	a5,a5,a4
		   / baud_rate) >> 4;
    5ba0:	0001c737          	lui	a4,0x1c
    5ba4:	20070713          	addi	a4,a4,512 # 1c200 <kheap__system_heap+0xcf70>
    5ba8:	02e7d7b3          	divu	a5,a5,a4
    5bac:	00c6c703          	lbu	a4,12(a3) # 8000200c <CONFIG_SYSTEM_WORKQUEUE_PRIORITY+0x8000200d>
	sys_write8((divisor >> 8) & 0xff, REG_BRDH);

	sys_write8(lcr_cache, REG_LCR);

	return 0;
}
    5bb0:	00000513          	li	a0,0
    5bb4:	0ff77613          	andi	a2,a4,255
	sys_write8(lcr_cache | LCR_DLAB, REG_LCR);
    5bb8:	f8076713          	ori	a4,a4,-128
    5bbc:	0ff77713          	andi	a4,a4,255
	*(volatile uint8_t *)addr = data;
    5bc0:	00e68623          	sb	a4,12(a3)
	divisor = ((sys_clk_freq + (baud_rate << 3))
    5bc4:	0047d713          	srli	a4,a5,0x4
	sys_write8( divisor       & 0xff, REG_BRDL);
    5bc8:	0ff77713          	andi	a4,a4,255
	sys_write8((divisor >> 8) & 0xff, REG_BRDH);
    5bcc:	00c7d793          	srli	a5,a5,0xc
    5bd0:	00e68023          	sb	a4,0(a3)
    5bd4:	0ff7f793          	andi	a5,a5,255
    5bd8:	00f68223          	sb	a5,4(a3)
    5bdc:	00c68623          	sb	a2,12(a3)
}
    5be0:	00008067          	ret

00005be4 <arch_cpu_idle>:
 */
static ALWAYS_INLINE void arch_irq_unlock(unsigned int key)
{
	ulong_t mstatus;

	__asm__ volatile ("csrrs %0, mstatus, %1"
    5be4:	00800793          	li	a5,8
    5be8:	3007a7f3          	csrrs	a5,mstatus,a5
 */

void __weak arch_cpu_idle(void)
{
	irq_unlock(MSTATUS_IEN);
}
    5bec:	00008067          	ret

00005bf0 <z_riscv_fatal_error>:
 #define NO_REG "                "
#endif

FUNC_NORETURN void z_riscv_fatal_error(unsigned int reason,
				       const z_arch_esf_t *esf)
{
    5bf0:	ff010113          	addi	sp,sp,-16
    5bf4:	00112623          	sw	ra,12(sp)
		LOG_ERR("   mepc: " PR_REG, esf->mepc);
		LOG_ERR("mstatus: " PR_REG, esf->mstatus);
		LOG_ERR("");
	}

	z_fatal_error(reason, esf);
    5bf8:	455000ef          	jal	ra,684c <z_fatal_error>

00005bfc <_Fault>:
		return "unknown";
	}
}

void _Fault(z_arch_esf_t *esf)
{
    5bfc:	ff010113          	addi	sp,sp,-16
    5c00:	00112623          	sw	ra,12(sp)
    5c04:	00050593          	mv	a1,a0
		}
	}
#endif /* CONFIG_USERSPACE */
	ulong_t mcause;

	__asm__ volatile("csrr %0, mcause" : "=r" (mcause));
    5c08:	342027f3          	csrr	a5,mcause

#ifndef CONFIG_SOC_OPENISA_RV32M1_RISCV32
	ulong_t mtval;
	__asm__ volatile("csrr %0, mtval" : "=r" (mtval));
    5c0c:	343027f3          	csrr	a5,mtval
	z_fatal_error(reason, esf);
    5c10:	00000513          	li	a0,0
    5c14:	439000ef          	jal	ra,684c <z_fatal_error>

00005c18 <z_irq_spurious>:
#include <kernel_internal.h>
#include <logging/log.h>
LOG_MODULE_DECLARE(os, CONFIG_KERNEL_LOG_LEVEL);

FUNC_NORETURN void z_irq_spurious(const void *unused)
{
    5c18:	ff010113          	addi	sp,sp,-16
    5c1c:	00112623          	sw	ra,12(sp)
	ulong_t mcause;

	ARG_UNUSED(unused);

	__asm__ volatile("csrr %0, mcause" : "=r" (mcause));
    5c20:	342027f3          	csrr	a5,mcause
	if (mcause == RISCV_MACHINE_EXT_IRQ) {
		LOG_ERR("PLIC interrupt line causing the IRQ: %d",
			riscv_plic_get_irq());
	}
#endif
	z_riscv_fatal_error(K_ERR_SPURIOUS_IRQ, NULL);
    5c24:	00000593          	li	a1,0
    5c28:	00100513          	li	a0,1
    5c2c:	fc5ff0ef          	jal	ra,5bf0 <z_riscv_fatal_error>

00005c30 <_PrepC>:
 *
 * @return N/A
 */

void _PrepC(void)
{
    5c30:	ff010113          	addi	sp,sp,-16
    5c34:	00112623          	sw	ra,12(sp)
	z_bss_zero();
    5c38:	575000ef          	jal	ra,69ac <z_bss_zero>
#ifdef CONFIG_XIP
	z_data_copy();
#endif
#if defined(CONFIG_RISCV_SOC_INTERRUPT_INIT)
	soc_interrupt_init();
    5c3c:	f3dff0ef          	jal	ra,5b78 <soc_interrupt_init>
#endif
#ifdef CONFIG_PMP_STACK_GUARD
	z_riscv_configure_interrupt_stack_guard();
#endif
	z_cstart();
    5c40:	58d000ef          	jal	ra,69cc <z_cstart>

00005c44 <__initialize>:
SECTION_FUNC(TEXT, __initialize)
	/*
	 * This will boot master core, just halt other cores.
	 * Note: need to be updated for complete SMP support
	 */
	csrr a0, mhartid
    5c44:	f1402573          	csrr	a0,mhartid
	beqz a0, boot_master_core
    5c48:	00050663          	beqz	a0,5c54 <boot_master_core>

00005c4c <loop_slave_core>:

loop_slave_core:
	wfi
    5c4c:	10500073          	wfi
	j loop_slave_core
    5c50:	ffdff06f          	j	5c4c <loop_slave_core>

00005c54 <boot_master_core>:

	/*
	 * Initially, setup stack pointer to
	 * z_interrupt_stacks + CONFIG_ISR_STACK_SIZE
	 */
	la sp, z_interrupt_stacks
    5c54:	00009117          	auipc	sp,0x9
    5c58:	e3c10113          	addi	sp,sp,-452 # ea90 <z_interrupt_stacks>
	li t0, CONFIG_ISR_STACK_SIZE
    5c5c:	000012b7          	lui	t0,0x1
    5c60:	80028293          	addi	t0,t0,-2048 # 800 <CONFIG_ISR_STACK_SIZE>
	add sp, sp, t0
    5c64:	00510133          	add	sp,sp,t0

	csrw mscratch, sp
    5c68:	34011073          	csrw	mscratch,sp

	/*
	 * Jump into C domain. _PrepC zeroes BSS, copies rw data into RAM,
	 * and then enters kernel z_cstart
	 */
	call _PrepC
    5c6c:	fc5ff0ef          	jal	ra,5c30 <_PrepC>

00005c70 <z_thread_entry_wrapper>:
	 * in registers a0, a1, a2 and a3. These registers are used as arguments
	 * to function z_thread_entry. Hence, just call z_thread_entry with
	 * return address set to 0 to indicate a non-returning function call.
	 */

	jal x0, z_thread_entry
    5c70:	f54fe06f          	j	43c4 <z_thread_entry>

00005c74 <arch_new_thread>:
#ifdef CONFIG_RISCV_SOC_CONTEXT_SAVE
	const struct soc_esf soc_esf_init = {SOC_ESF_INIT};
#endif

	/* Initial stack frame for thread */
	stack_init = (struct __esf *)Z_STACK_PTR_ALIGN(
    5c74:	fb460613          	addi	a2,a2,-76 # 3fb4 <init_matmul+0x48>
 * @param ptr Proposed stack pointer address
 * @return Properly aligned stack pointer address
 */
static inline char *z_stack_ptr_align(char *ptr)
{
	return (char *)ROUND_DOWN(ptr, ARCH_STACK_PTR_ALIGN);
    5c78:	ff067613          	andi	a2,a2,-16
				);

	/* Setup the initial stack frame */
	stack_init->a0 = (ulong_t)entry;
	stack_init->a1 = (ulong_t)p1;
	stack_init->a2 = (ulong_t)p2;
    5c7c:	02f62623          	sw	a5,44(a2)
	 *    restored following the MSTATUS value set within the thread stack;
	 * 2) the core will jump to z_thread_entry_wrapper, as the program
	 *    counter will be restored following the MEPC value set within the
	 *    thread stack.
	 */
	stack_init->mstatus = MSTATUS_DEF_RESTORE;
    5c80:	000027b7          	lui	a5,0x2
    5c84:	88078793          	addi	a5,a5,-1920 # 1880 <__muldf3+0x4f8>
    5c88:	04f62423          	sw	a5,72(a2)
#elif defined(CONFIG_FPU)
	/* Unshared FP mode: enable FPU of each thread. */
	stack_init->mstatus |= MSTATUS_FS_INIT;
#endif

	stack_init->mepc = (ulong_t)z_thread_entry_wrapper;
    5c8c:	000067b7          	lui	a5,0x6
    5c90:	c7078793          	addi	a5,a5,-912 # 5c70 <z_thread_entry_wrapper>
	stack_init->a0 = (ulong_t)entry;
    5c94:	02d62223          	sw	a3,36(a2)
	stack_init->a1 = (ulong_t)p1;
    5c98:	02e62423          	sw	a4,40(a2)
	stack_init->a3 = (ulong_t)p3;
    5c9c:	03062823          	sw	a6,48(a2)
	stack_init->mepc = (ulong_t)z_thread_entry_wrapper;
    5ca0:	04f62223          	sw	a5,68(a2)

#ifdef CONFIG_RISCV_SOC_CONTEXT_SAVE
	stack_init->soc_context = soc_esf_init;
#endif

	thread->callee_saved.sp = (ulong_t)stack_init;
    5ca4:	02c52c23          	sw	a2,56(a0)
}
    5ca8:	00008067          	ret

00005cac <malloc_prepare>:
		 "memory space available for newlib heap is less than the "
		 "minimum required size specified by "
		 "CONFIG_NEWLIB_LIBC_MIN_REQUIRED_HEAP_SIZE");

	return 0;
}
    5cac:	00000513          	li	a0,0
    5cb0:	00008067          	ret

00005cb4 <_stdout_hook_default>:
static int _stdout_hook_default(int c)
{
	(void)(c);  /* Prevent warning about unused argument */

	return EOF;
}
    5cb4:	fff00513          	li	a0,-1
    5cb8:	00008067          	ret

00005cbc <_stdin_hook_default>:
}

static unsigned char _stdin_hook_default(void)
{
	return 0;
}
    5cbc:	00000513          	li	a0,0
    5cc0:	00008067          	ret

00005cc4 <__stdout_hook_install>:
	_stdout_hook = hook;
    5cc4:	0002f7b7          	lui	a5,0x2f
    5cc8:	46a7a423          	sw	a0,1128(a5) # 2f468 <_stdout_hook>
}
    5ccc:	00008067          	ret

00005cd0 <z_impl_zephyr_read_stdin>:
{
	_stdin_hook = hook;
}

int z_impl_zephyr_read_stdin(char *buf, int nbytes)
{
    5cd0:	fe010113          	addi	sp,sp,-32
    5cd4:	00812c23          	sw	s0,24(sp)
    5cd8:	00912a23          	sw	s1,20(sp)
    5cdc:	01212823          	sw	s2,16(sp)
    5ce0:	01312623          	sw	s3,12(sp)
    5ce4:	01412423          	sw	s4,8(sp)
    5ce8:	01512223          	sw	s5,4(sp)
    5cec:	00112e23          	sw	ra,28(sp)
    5cf0:	00050913          	mv	s2,a0
    5cf4:	00058493          	mv	s1,a1
	int i = 0;

	for (i = 0; i < nbytes; i++) {
    5cf8:	00000413          	li	s0,0
		*(buf + i) = _stdin_hook();
    5cfc:	0002f9b7          	lui	s3,0x2f
		if ((*(buf + i) == '\n') || (*(buf + i) == '\r')) {
    5d00:	00a00a13          	li	s4,10
    5d04:	00d00a93          	li	s5,13
	for (i = 0; i < nbytes; i++) {
    5d08:	02945063          	bge	s0,s1,5d28 <z_impl_zephyr_read_stdin+0x58>
		*(buf + i) = _stdin_hook();
    5d0c:	4649a783          	lw	a5,1124(s3) # 2f464 <_stdin_hook>
    5d10:	000780e7          	jalr	a5
    5d14:	008907b3          	add	a5,s2,s0
    5d18:	00a78023          	sb	a0,0(a5)
	for (i = 0; i < nbytes; i++) {
    5d1c:	00140413          	addi	s0,s0,1
		if ((*(buf + i) == '\n') || (*(buf + i) == '\r')) {
    5d20:	01450463          	beq	a0,s4,5d28 <z_impl_zephyr_read_stdin+0x58>
    5d24:	ff5512e3          	bne	a0,s5,5d08 <z_impl_zephyr_read_stdin+0x38>
			i++;
			break;
		}
	}
	return i;
}
    5d28:	01c12083          	lw	ra,28(sp)
    5d2c:	00040513          	mv	a0,s0
    5d30:	01812403          	lw	s0,24(sp)
    5d34:	01412483          	lw	s1,20(sp)
    5d38:	01012903          	lw	s2,16(sp)
    5d3c:	00c12983          	lw	s3,12(sp)
    5d40:	00812a03          	lw	s4,8(sp)
    5d44:	00412a83          	lw	s5,4(sp)
    5d48:	02010113          	addi	sp,sp,32
    5d4c:	00008067          	ret

00005d50 <z_impl_zephyr_write_stdout>:
}
#include <syscalls/zephyr_read_stdin_mrsh.c>
#endif

int z_impl_zephyr_write_stdout(const void *buffer, int nbytes)
{
    5d50:	fe010113          	addi	sp,sp,-32
    5d54:	00812c23          	sw	s0,24(sp)
    5d58:	00912a23          	sw	s1,20(sp)
    5d5c:	01212823          	sw	s2,16(sp)
    5d60:	01512223          	sw	s5,4(sp)
    5d64:	01612023          	sw	s6,0(sp)
    5d68:	00112e23          	sw	ra,28(sp)
    5d6c:	01312623          	sw	s3,12(sp)
    5d70:	01412423          	sw	s4,8(sp)
    5d74:	00050913          	mv	s2,a0
    5d78:	00058413          	mv	s0,a1
	const char *buf = buffer;
	int i;

	for (i = 0; i < nbytes; i++) {
    5d7c:	00000493          	li	s1,0
		if (*(buf + i) == '\n') {
    5d80:	00a00a93          	li	s5,10
    5d84:	0002fb37          	lui	s6,0x2f
	for (i = 0; i < nbytes; i++) {
    5d88:	0284c863          	blt	s1,s0,5db8 <z_impl_zephyr_write_stdout+0x68>
			_stdout_hook('\r');
		}
		_stdout_hook(*(buf + i));
	}
	return nbytes;
}
    5d8c:	01c12083          	lw	ra,28(sp)
    5d90:	00040513          	mv	a0,s0
    5d94:	01812403          	lw	s0,24(sp)
    5d98:	01412483          	lw	s1,20(sp)
    5d9c:	01012903          	lw	s2,16(sp)
    5da0:	00c12983          	lw	s3,12(sp)
    5da4:	00812a03          	lw	s4,8(sp)
    5da8:	00412a83          	lw	s5,4(sp)
    5dac:	00012b03          	lw	s6,0(sp)
    5db0:	02010113          	addi	sp,sp,32
    5db4:	00008067          	ret
		if (*(buf + i) == '\n') {
    5db8:	009909b3          	add	s3,s2,s1
    5dbc:	0009c783          	lbu	a5,0(s3)
    5dc0:	468b0a13          	addi	s4,s6,1128 # 2f468 <_stdout_hook>
    5dc4:	01579863          	bne	a5,s5,5dd4 <z_impl_zephyr_write_stdout+0x84>
			_stdout_hook('\r');
    5dc8:	000a2783          	lw	a5,0(s4)
    5dcc:	00d00513          	li	a0,13
    5dd0:	000780e7          	jalr	a5
		_stdout_hook(*(buf + i));
    5dd4:	000a2783          	lw	a5,0(s4)
    5dd8:	0009c503          	lbu	a0,0(s3)
	for (i = 0; i < nbytes; i++) {
    5ddc:	00148493          	addi	s1,s1,1
		_stdout_hook(*(buf + i));
    5de0:	000780e7          	jalr	a5
	for (i = 0; i < nbytes; i++) {
    5de4:	fa5ff06f          	j	5d88 <z_impl_zephyr_write_stdout+0x38>

00005de8 <_read>:
#include <syscalls/zephyr_write_stdout_mrsh.c>
#endif

#ifndef CONFIG_POSIX_API
int _read(int fd, char *buf, int nbytes)
{
    5de8:	00058513          	mv	a0,a1
    5dec:	00060593          	mv	a1,a2
		/* coverity[OVERRUN] */
		return (int) arch_syscall_invoke2(*(uintptr_t *)&buf, *(uintptr_t *)&nbytes, K_SYSCALL_ZEPHYR_READ_STDIN);
	}
#endif
	compiler_barrier();
	return z_impl_zephyr_read_stdin(buf, nbytes);
    5df0:	ee1ff06f          	j	5cd0 <z_impl_zephyr_read_stdin>

00005df4 <_write>:
	return zephyr_read_stdin(buf, nbytes);
}
__weak FUNC_ALIAS(_read, read, int);

int _write(int fd, const void *buf, int nbytes)
{
    5df4:	00058513          	mv	a0,a1
    5df8:	00060593          	mv	a1,a2
		/* coverity[OVERRUN] */
		return (int) arch_syscall_invoke2(*(uintptr_t *)&buf, *(uintptr_t *)&nbytes, K_SYSCALL_ZEPHYR_WRITE_STDOUT);
	}
#endif
	compiler_barrier();
	return z_impl_zephyr_write_stdout(buf, nbytes);
    5dfc:	f55ff06f          	j	5d50 <z_impl_zephyr_write_stdout>

00005e00 <_close>:
    5e00:	fff00513          	li	a0,-1
    5e04:	00008067          	ret

00005e08 <_lseek>:
__weak FUNC_ALIAS(_close, close, int);

int _lseek(int file, int ptr, int dir)
{
	return 0;
}
    5e08:	00000513          	li	a0,0
    5e0c:	00008067          	ret

00005e10 <_isatty>:
#endif

int _isatty(int file)
{
	return file <= 2;
}
    5e10:	00352513          	slti	a0,a0,3
    5e14:	00008067          	ret

00005e18 <_kill>:
__weak FUNC_ALIAS(_isatty, isatty, int);

int _kill(int i, int j)
{
	return 0;
}
    5e18:	00000513          	li	a0,0
    5e1c:	00008067          	ret

00005e20 <_getpid>:
__weak FUNC_ALIAS(_kill, kill, int);

int _getpid(void)
{
	return 0;
}
    5e20:	00000513          	li	a0,0
    5e24:	00008067          	ret

00005e28 <_fstat>:
__weak FUNC_ALIAS(_getpid, getpid, int);

int _fstat(int file, struct stat *st)
{
	st->st_mode = S_IFCHR;
    5e28:	000027b7          	lui	a5,0x2
    5e2c:	00f5a223          	sw	a5,4(a1)
	return 0;
}
    5e30:	00000513          	li	a0,0
    5e34:	00008067          	ret

00005e38 <_exit>:
__weak FUNC_ALIAS(_fstat, fstat, int);

__weak void _exit(int status)
{
    5e38:	ff010113          	addi	sp,sp,-16
    5e3c:	00112623          	sw	ra,12(sp)
    5e40:	0000d537          	lui	a0,0xd
    5e44:	00500593          	li	a1,5
    5e48:	52050513          	addi	a0,a0,1312 # d520 <dts_ord_9_cfg+0xc>
    5e4c:	f05ff0ef          	jal	ra,5d50 <z_impl_zephyr_write_stdout>
	_write(1, "exit\n", 5);
	while (1) {
    5e50:	0000006f          	j	5e50 <_exit+0x18>

00005e54 <_sbrk>:

void *_sbrk(intptr_t count)
{
	void *ret, *ptr;

	ptr = ((char *)HEAP_BASE) + heap_sz;
    5e54:	0000e737          	lui	a4,0xe
    5e58:	99870713          	addi	a4,a4,-1640 # d998 <heap_sz>
    5e5c:	00072783          	lw	a5,0(a4)

	if ((heap_sz + count) < MAX_HEAP_SIZE) {
    5e60:	00800637          	lui	a2,0x800
    5e64:	00f506b3          	add	a3,a0,a5
    5e68:	0002f537          	lui	a0,0x2f
    5e6c:	6f450513          	addi	a0,a0,1780 # 2f6f4 <__data_region_end>
    5e70:	40a60633          	sub	a2,a2,a0
    5e74:	00c6f863          	bgeu	a3,a2,5e84 <_sbrk+0x30>
	ptr = ((char *)HEAP_BASE) + heap_sz;
    5e78:	00a78533          	add	a0,a5,a0
		heap_sz += count;
    5e7c:	00d72023          	sw	a3,0(a4)
		ret = ptr;
    5e80:	00008067          	ret
	} else {
		ret = (void *)-1;
    5e84:	fff00513          	li	a0,-1
	}

	return ret;
}
    5e88:	00008067          	ret

00005e8c <__retarget_lock_init_recursive>:
	k_sem_init((struct k_sem *)*lock, 1, 1);
}

/* Create a new dynamic recursive lock */
void __retarget_lock_init_recursive(_LOCK_T *lock)
{
    5e8c:	ff010113          	addi	sp,sp,-16
    5e90:	00812423          	sw	s0,8(sp)
    5e94:	00050413          	mv	s0,a0
	__ASSERT_NO_MSG(lock != NULL);

	/* Allocate mutex object */
#ifndef CONFIG_USERSPACE
	*lock = malloc(sizeof(struct k_mutex));
    5e98:	01400513          	li	a0,20
{
    5e9c:	00112623          	sw	ra,12(sp)
	*lock = malloc(sizeof(struct k_mutex));
    5ea0:	6b8020ef          	jal	ra,8558 <malloc>
    5ea4:	00a42023          	sw	a0,0(s0)
	*lock = k_object_alloc(K_OBJ_MUTEX);
#endif /* !CONFIG_USERSPACE */
	__ASSERT(*lock != NULL, "recursive lock allocation failed");

	k_mutex_init((struct k_mutex *)*lock);
}
    5ea8:	00812403          	lw	s0,8(sp)
    5eac:	00c12083          	lw	ra,12(sp)
    5eb0:	01010113          	addi	sp,sp,16
	return z_impl_k_mutex_init(mutex);
    5eb4:	6c10006f          	j	6d74 <z_impl_k_mutex_init>

00005eb8 <__retarget_lock_acquire_recursive>:
	return z_impl_k_mutex_lock(mutex, timeout);
    5eb8:	fff00593          	li	a1,-1
    5ebc:	fff00613          	li	a2,-1
    5ec0:	6cd0006f          	j	6d8c <z_impl_k_mutex_lock>

00005ec4 <__retarget_lock_release_recursive>:
	return z_impl_k_mutex_unlock(mutex);
    5ec4:	0280106f          	j	6eec <z_impl_k_mutex_unlock>

00005ec8 <z_impl_sys_rand32_get>:
 *
 * @return a 32-bit number
 */

uint32_t z_impl_sys_rand32_get(void)
{
    5ec8:	ff010113          	addi	sp,sp,-16
    5ecc:	00812423          	sw	s0,8(sp)
    5ed0:	00112623          	sw	ra,12(sp)

extern uint32_t sys_clock_cycle_get_32(void);

static inline uint32_t arch_k_cycle_get_32(void)
{
	return sys_clock_cycle_get_32();
    5ed4:	079000ef          	jal	ra,674c <sys_clock_cycle_get_32>
    5ed8:	00050413          	mv	s0,a0
		/* coverity[OVERRUN] */
		return (atomic_val_t) arch_syscall_invoke2(*(uintptr_t *)&target, *(uintptr_t *)&value, K_SYSCALL_ATOMIC_ADD);
	}
#endif
	compiler_barrier();
	return z_impl_atomic_add(target, value);
    5edc:	3b9ad5b7          	lui	a1,0x3b9ad
    5ee0:	0000e537          	lui	a0,0xe
    5ee4:	a0358593          	addi	a1,a1,-1533 # 3b9aca03 <CONFIG_SYS_CLOCK_HW_CYCLES_PER_SEC+0x389fd983>
    5ee8:	99c50513          	addi	a0,a0,-1636 # d99c <_rand32_counter>
    5eec:	3a0020ef          	jal	ra,828c <z_impl_atomic_add>
	return k_cycle_get_32() + atomic_add(&_rand32_counter, _RAND32_INC);
}
    5ef0:	00c12083          	lw	ra,12(sp)
    5ef4:	00850533          	add	a0,a0,s0
    5ef8:	00812403          	lw	s0,8(sp)
    5efc:	01010113          	addi	sp,sp,16
    5f00:	00008067          	ret

00005f04 <swerv_pic_init>:
	return *(volatile uint32_t *)(DT_INST_REG_ADDR(0) + reg);
}

static void swerv_pic_write(uint32_t reg, uint32_t val)
{
	*(volatile uint32_t *)(DT_INST_REG_ADDR(0) + reg) = val;
    5f04:	f00c37b7          	lui	a5,0xf00c3
    5f08:	0007a023          	sw	zero,0(a5) # f00c3000 <CONFIG_SYSTEM_WORKQUEUE_PRIORITY+0xf00c3001>
    5f0c:	f00c27b7          	lui	a5,0xf00c2
    5f10:	00478713          	addi	a4,a5,4 # f00c2004 <CONFIG_SYSTEM_WORKQUEUE_PRIORITY+0xf00c2005>

	/* Init priority order to 0, 0=lowest to 15=highest */
	swerv_pic_write(SWERV_PIC_mpiccfg, 0);

	/* Ensure that all interrupts are disabled initially */
	for (i = 1; i < SWERV_PIC_MAX_ID; i++) {
    5f14:	12c78793          	addi	a5,a5,300
	*(volatile uint32_t *)(DT_INST_REG_ADDR(0) + reg) = val;
    5f18:	00072023          	sw	zero,0(a4)
	for (i = 1; i < SWERV_PIC_MAX_ID; i++) {
    5f1c:	00470713          	addi	a4,a4,4
    5f20:	fef71ce3          	bne	a4,a5,5f18 <swerv_pic_init+0x14>
    5f24:	f00c07b7          	lui	a5,0xf00c0
    5f28:	00478713          	addi	a4,a5,4 # f00c0004 <CONFIG_SYSTEM_WORKQUEUE_PRIORITY+0xf00c0005>
	*(volatile uint32_t *)(DT_INST_REG_ADDR(0) + reg) = val;
    5f2c:	00f00693          	li	a3,15
		swerv_pic_write(SWERV_PIC_meie(i), 0);
	}

	/* Set priority of each interrupt line to 0 initially */
	for (i = 1; i < SWERV_PIC_MAX_ID; i++) {
    5f30:	12c78793          	addi	a5,a5,300
	*(volatile uint32_t *)(DT_INST_REG_ADDR(0) + reg) = val;
    5f34:	00d72023          	sw	a3,0(a4)
	for (i = 1; i < SWERV_PIC_MAX_ID; i++) {
    5f38:	00470713          	addi	a4,a4,4
    5f3c:	fef71ce3          	bne	a4,a5,5f34 <swerv_pic_init+0x30>
    5f40:	f00c47b7          	lui	a5,0xf00c4
    5f44:	00478713          	addi	a4,a5,4 # f00c4004 <CONFIG_SYSTEM_WORKQUEUE_PRIORITY+0xf00c4005>
		swerv_pic_write(SWERV_PIC_meipl(i), 15);
	}

	/* Set property of each interrupt line to level-triggered/high */
	for (i = 1; i < SWERV_PIC_MAX_ID; i++) {
    5f48:	12c78793          	addi	a5,a5,300
	*(volatile uint32_t *)(DT_INST_REG_ADDR(0) + reg) = val;
    5f4c:	00072023          	sw	zero,0(a4)
	for (i = 1; i < SWERV_PIC_MAX_ID; i++) {
    5f50:	00470713          	addi	a4,a4,4
    5f54:	fef71ce3          	bne	a4,a5,5f4c <swerv_pic_init+0x48>
    5f58:	f00c57b7          	lui	a5,0xf00c5
    5f5c:	00478713          	addi	a4,a5,4 # f00c5004 <CONFIG_SYSTEM_WORKQUEUE_PRIORITY+0xf00c5005>
		swerv_pic_write(SWERV_PIC_meigwctrl(i), (0<<1)|(0<<0));
	}

	/* clear pending of each interrupt line */
	for (i = 1; i < SWERV_PIC_MAX_ID; i++) {
    5f60:	12c78793          	addi	a5,a5,300
	*(volatile uint32_t *)(DT_INST_REG_ADDR(0) + reg) = val;
    5f64:	00072023          	sw	zero,0(a4)
	for (i = 1; i < SWERV_PIC_MAX_ID; i++) {
    5f68:	00470713          	addi	a4,a4,4
    5f6c:	fef71ce3          	bne	a4,a5,5f64 <swerv_pic_init+0x60>
		swerv_pic_write(SWERV_PIC_meigwclr(i), 0);
	}

	/* No interrupts masked */
	__asm__ swerv_pic_writecsr(meipt, 0);
    5f70:	bc905073          	csrwi	0xbc9,0
	__asm__ swerv_pic_writecsr(meicidpl, 0);
    5f74:	bcb05073          	csrwi	0xbcb,0
	__asm__ swerv_pic_writecsr(meicurpl, 0);
    5f78:	bcc05073          	csrwi	0xbcc,0

	/*
	 * CSR mie register is updated using atomic instruction csrrs
	 * (atomic read and set bits in CSR register)
	 */
	__asm__ volatile ("csrrs %0, mie, %1\n"
    5f7c:	000017b7          	lui	a5,0x1
    5f80:	80078793          	addi	a5,a5,-2048 # 800 <CONFIG_ISR_STACK_SIZE>
    5f84:	3047a7f3          	csrrs	a5,mie,a5
}
    5f88:	00000513          	li	a0,0
    5f8c:	00008067          	ret

00005f90 <swerv_pic_irq_handler>:
{
    5f90:	ff010113          	addi	sp,sp,-16
    5f94:	00112623          	sw	ra,12(sp)
    5f98:	00812423          	sw	s0,8(sp)
	__asm__ swerv_pic_writecsr(meicpct, 0);
    5f9c:	bca05073          	csrwi	0xbca,0
	__asm__ swerv_pic_readcsr(meihap, tmp);
    5fa0:	fc802473          	csrr	s0,0xfc8
	irq = (tmp >> 2) & 0xff;
    5fa4:	00245413          	srli	s0,s0,0x2
    5fa8:	0ff47413          	andi	s0,s0,255
	save_irq = irq;
    5fac:	0000e7b7          	lui	a5,0xe
    5fb0:	9a87a023          	sw	s0,-1632(a5) # d9a0 <save_irq>
	if (irq == 0U || irq >= 64) {
    5fb4:	fff40713          	addi	a4,s0,-1
    5fb8:	03e00793          	li	a5,62
    5fbc:	00e7f663          	bgeu	a5,a4,5fc8 <swerv_pic_irq_handler+0x38>
		z_irq_spurious(NULL);
    5fc0:	00000513          	li	a0,0
    5fc4:	c55ff0ef          	jal	ra,5c18 <z_irq_spurious>
	irq += RISCV_MAX_GENERIC_IRQ;
    5fc8:	00b40713          	addi	a4,s0,11
	if (ite->isr)
    5fcc:	0002f7b7          	lui	a5,0x2f
    5fd0:	00371713          	slli	a4,a4,0x3
    5fd4:	48478793          	addi	a5,a5,1156 # 2f484 <_sw_isr_table>
    5fd8:	00e787b3          	add	a5,a5,a4
    5fdc:	0047a703          	lw	a4,4(a5)
    5fe0:	00070663          	beqz	a4,5fec <swerv_pic_irq_handler+0x5c>
		ite->isr(ite->arg);
    5fe4:	0007a503          	lw	a0,0(a5)
    5fe8:	000700e7          	jalr	a4
	swerv_pic_write(SWERV_PIC_meigwclr(irq), 0);
    5fec:	000017b7          	lui	a5,0x1
    5ff0:	40b78793          	addi	a5,a5,1035 # 140b <__muldf3+0x83>
    5ff4:	00f40433          	add	s0,s0,a5
    5ff8:	00241413          	slli	s0,s0,0x2
	*(volatile uint32_t *)(DT_INST_REG_ADDR(0) + reg) = val;
    5ffc:	f00c07b7          	lui	a5,0xf00c0
    6000:	00f40433          	add	s0,s0,a5
}
    6004:	00c12083          	lw	ra,12(sp)
	*(volatile uint32_t *)(DT_INST_REG_ADDR(0) + reg) = val;
    6008:	00042023          	sw	zero,0(s0)
}
    600c:	00812403          	lw	s0,8(sp)
    6010:	01010113          	addi	sp,sp,16
    6014:	00008067          	ret

00006018 <swerv_pic_irq_enable>:
	if ((irq >= SWERV_PIC_MAX_ID) || (irq < RISCV_MAX_GENERIC_IRQ)) {
    6018:	ff550713          	addi	a4,a0,-11
    601c:	03f00793          	li	a5,63
    6020:	02e7e663          	bltu	a5,a4,604c <swerv_pic_irq_enable+0x34>
	__asm__ volatile ("csrrc %0, mstatus, %1"
    6024:	00800793          	li	a5,8
    6028:	3007b7f3          	csrrc	a5,mstatus,a5
	swerv_pic_write(SWERV_PIC_meie(irq - RISCV_MAX_GENERIC_IRQ), 1);
    602c:	7f550513          	addi	a0,a0,2037
	*(volatile uint32_t *)(DT_INST_REG_ADDR(0) + reg) = val;
    6030:	f00c0737          	lui	a4,0xf00c0
	swerv_pic_write(SWERV_PIC_meie(irq - RISCV_MAX_GENERIC_IRQ), 1);
    6034:	00251513          	slli	a0,a0,0x2
	*(volatile uint32_t *)(DT_INST_REG_ADDR(0) + reg) = val;
    6038:	00e50533          	add	a0,a0,a4
    603c:	00100713          	li	a4,1
    6040:	00e52023          	sw	a4,0(a0)
	key = (mstatus & MSTATUS_IEN);
    6044:	0087f793          	andi	a5,a5,8
	__asm__ volatile ("csrrs %0, mstatus, %1"
    6048:	3007a7f3          	csrrs	a5,mstatus,a5
}
    604c:	00008067          	ret

00006050 <arch_irq_enable>:
	if (irq > RISCV_MAX_GENERIC_IRQ) {
    6050:	00b00793          	li	a5,11
    6054:	00a7f463          	bgeu	a5,a0,605c <arch_irq_enable+0xc>
		swerv_pic_irq_enable(irq);
    6058:	fc1ff06f          	j	6018 <swerv_pic_irq_enable>
			  : "=r" (mie)
			  : "r" (1 << irq));
    605c:	00100793          	li	a5,1
    6060:	00a79533          	sll	a0,a5,a0
	__asm__ volatile ("csrrs %0, mie, %1\n"
    6064:	30452573          	csrrs	a0,mie,a0
}
    6068:	00008067          	ret

0000606c <uart_console_init>:
{

	ARG_UNUSED(arg);

	/* Claim console device */
	uart_console_dev = DEVICE_DT_GET(DT_CHOSEN(zephyr_console));
    606c:	0000d537          	lui	a0,0xd
{
    6070:	ff010113          	addi	sp,sp,-16
	uart_console_dev = DEVICE_DT_GET(DT_CHOSEN(zephyr_console));
    6074:	e1450713          	addi	a4,a0,-492 # ce14 <__device_dts_ord_11>
    6078:	0000e7b7          	lui	a5,0xe
{
    607c:	00112623          	sw	ra,12(sp)
    6080:	00812423          	sw	s0,8(sp)
	uart_console_dev = DEVICE_DT_GET(DT_CHOSEN(zephyr_console));
    6084:	9ae7a223          	sw	a4,-1628(a5) # d9a4 <uart_console_dev>
 *
 * @return a non-positive integer as documented in device_usable_check().
 */
static inline int z_device_usable_check(const struct device *dev)
{
	return z_device_ready(dev) ? 0 : -ENODEV;
    6088:	e1450513          	addi	a0,a0,-492
    608c:	784000ef          	jal	ra,6810 <z_device_ready>
    6090:	fed00793          	li	a5,-19
    6094:	00050e63          	beqz	a0,60b0 <uart_console_init+0x44>
	__stdout_hook_install(console_out);
    6098:	00006437          	lui	s0,0x6
    609c:	0c440513          	addi	a0,s0,196 # 60c4 <console_out>
    60a0:	c25ff0ef          	jal	ra,5cc4 <__stdout_hook_install>
	__printk_hook_install(console_out);
    60a4:	0c440513          	addi	a0,s0,196
    60a8:	a20fe0ef          	jal	ra,42c8 <__printk_hook_install>
		return -ENODEV;
	}

	uart_console_hook_install();

	return 0;
    60ac:	00000793          	li	a5,0
}
    60b0:	00c12083          	lw	ra,12(sp)
    60b4:	00812403          	lw	s0,8(sp)
    60b8:	00078513          	mv	a0,a5
    60bc:	01010113          	addi	sp,sp,16
    60c0:	00008067          	ret

000060c4 <console_out>:
{
    60c4:	ff010113          	addi	sp,sp,-16
    60c8:	00812423          	sw	s0,8(sp)
    60cc:	00912223          	sw	s1,4(sp)
    60d0:	00112623          	sw	ra,12(sp)
    60d4:	0000e4b7          	lui	s1,0xe
	if ('\n' == c) {
    60d8:	00a00793          	li	a5,10
{
    60dc:	00050413          	mv	s0,a0
    60e0:	9a448493          	addi	s1,s1,-1628 # d9a4 <uart_console_dev>
	if ('\n' == c) {
    60e4:	00f51c63          	bne	a0,a5,60fc <console_out+0x38>
		uart_poll_out(uart_console_dev, '\r');
    60e8:	0004a503          	lw	a0,0(s1)
						unsigned char out_char)
{
	const struct uart_driver_api *api =
		(const struct uart_driver_api *)dev->api;

	api->poll_out(dev, out_char);
    60ec:	00852783          	lw	a5,8(a0)
    60f0:	00d00593          	li	a1,13
    60f4:	0047a783          	lw	a5,4(a5)
    60f8:	000780e7          	jalr	a5
	uart_poll_out(uart_console_dev, c);
    60fc:	0004a503          	lw	a0,0(s1)
    6100:	00852783          	lw	a5,8(a0)
    6104:	0ff47593          	andi	a1,s0,255
    6108:	0047a783          	lw	a5,4(a5)
    610c:	000780e7          	jalr	a5
}
    6110:	00c12083          	lw	ra,12(sp)
    6114:	00040513          	mv	a0,s0
    6118:	00812403          	lw	s0,8(sp)
    611c:	00412483          	lw	s1,4(sp)
    6120:	01010113          	addi	sp,sp,16
    6124:	00008067          	ret

00006128 <gpio_mmio32_config>:

static int gpio_mmio32_config(const struct device *dev,
			      gpio_pin_t pin, gpio_flags_t flags)
{
	struct gpio_mmio32_context *context = dev->data;
	const struct gpio_mmio32_config *config = context->config;
    6128:	01052783          	lw	a5,16(a0)
    612c:	0047a683          	lw	a3,4(a5)

	if ((config->mask & (1 << pin)) == 0) {
    6130:	00100793          	li	a5,1
    6134:	00b795b3          	sll	a1,a5,a1
    6138:	0086a783          	lw	a5,8(a3)
    613c:	00f5f7b3          	and	a5,a1,a5
    6140:	06078c63          	beqz	a5,61b8 <gpio_mmio32_config+0x90>
		return -EINVAL; /* Pin not in our validity mask */
	}

	if (flags & ~(GPIO_INPUT | GPIO_OUTPUT |
    6144:	fffff7b7          	lui	a5,0xfffff
    6148:	0fe78793          	addi	a5,a5,254 # fffff0fe <CONFIG_SYSTEM_WORKQUEUE_PRIORITY+0xfffff0ff>
    614c:	00f677b3          	and	a5,a2,a5
		      GPIO_OUTPUT_INIT_LOW | GPIO_OUTPUT_INIT_HIGH |
		      GPIO_ACTIVE_LOW)) {
		/* We ignore direction and fake polarity, rest is unsupported */
		return -ENOTSUP;
    6150:	f7a00513          	li	a0,-134
	if (flags & ~(GPIO_INPUT | GPIO_OUTPUT |
    6154:	06079463          	bnez	a5,61bc <gpio_mmio32_config+0x94>
	}

	if ((flags & GPIO_OUTPUT) != 0) {
    6158:	20067793          	andi	a5,a2,512
			*reg = (*reg & (config->mask & ~(1 << pin)));
		}
		irq_unlock(key);
	}

	return 0;
    615c:	00000513          	li	a0,0
	if ((flags & GPIO_OUTPUT) != 0) {
    6160:	04078e63          	beqz	a5,61bc <gpio_mmio32_config+0x94>
		volatile uint32_t *reg = config->reg;
    6164:	0046a703          	lw	a4,4(a3)
	__asm__ volatile ("csrrc %0, mstatus, %1"
    6168:	00800793          	li	a5,8
    616c:	3007b7f3          	csrrc	a5,mstatus,a5
		if ((flags & GPIO_OUTPUT_INIT_HIGH) != 0) {
    6170:	00b65513          	srli	a0,a2,0xb
    6174:	00157513          	andi	a0,a0,1
	key = (mstatus & MSTATUS_IEN);
    6178:	0087f793          	andi	a5,a5,8
    617c:	00050e63          	beqz	a0,6198 <gpio_mmio32_config+0x70>
			*reg = (*reg | (1 << pin));
    6180:	00072683          	lw	a3,0(a4) # f00c0000 <CONFIG_SYSTEM_WORKQUEUE_PRIORITY+0xf00c0001>
    6184:	00d5e5b3          	or	a1,a1,a3
			*reg = (*reg & (config->mask & ~(1 << pin)));
    6188:	00b72023          	sw	a1,0(a4)
	__asm__ volatile ("csrrs %0, mstatus, %1"
    618c:	3007a7f3          	csrrs	a5,mstatus,a5
	return 0;
    6190:	00000513          	li	a0,0
}
    6194:	00008067          	ret
		} else if ((flags & GPIO_OUTPUT_INIT_LOW) != 0) {
    6198:	40067613          	andi	a2,a2,1024
    619c:	fe0608e3          	beqz	a2,618c <gpio_mmio32_config+0x64>
			*reg = (*reg & (config->mask & ~(1 << pin)));
    61a0:	0086a683          	lw	a3,8(a3)
    61a4:	00072603          	lw	a2,0(a4)
    61a8:	fff5c593          	not	a1,a1
    61ac:	00d5f5b3          	and	a1,a1,a3
    61b0:	00c5f5b3          	and	a1,a1,a2
    61b4:	fd5ff06f          	j	6188 <gpio_mmio32_config+0x60>
		return -EINVAL; /* Pin not in our validity mask */
    61b8:	fea00513          	li	a0,-22
}
    61bc:	00008067          	ret

000061c0 <gpio_mmio32_port_get_raw>:

static int gpio_mmio32_port_get_raw(const struct device *dev, uint32_t *value)
{
	struct gpio_mmio32_context *context = dev->data;
	const struct gpio_mmio32_config *config = context->config;
    61c0:	01052783          	lw	a5,16(a0)

	*value = *config->reg & config->mask;

	return 0;
}
    61c4:	00000513          	li	a0,0
	const struct gpio_mmio32_config *config = context->config;
    61c8:	0047a703          	lw	a4,4(a5)
	*value = *config->reg & config->mask;
    61cc:	00472783          	lw	a5,4(a4)
    61d0:	0007a683          	lw	a3,0(a5)
    61d4:	00872783          	lw	a5,8(a4)
    61d8:	00d7f7b3          	and	a5,a5,a3
    61dc:	00f5a023          	sw	a5,0(a1)
}
    61e0:	00008067          	ret

000061e4 <gpio_mmio32_port_set_masked_raw>:
static int gpio_mmio32_port_set_masked_raw(const struct device *dev,
					   uint32_t mask,
					   uint32_t value)
{
	struct gpio_mmio32_context *context = dev->data;
	const struct gpio_mmio32_config *config = context->config;
    61e4:	01052783          	lw	a5,16(a0)
    61e8:	0047a783          	lw	a5,4(a5)
	volatile uint32_t *reg = config->reg;
    61ec:	0047a703          	lw	a4,4(a5)
	unsigned int key;

	mask &= config->mask;
    61f0:	0087a783          	lw	a5,8(a5)
    61f4:	00f5f5b3          	and	a1,a1,a5
	__asm__ volatile ("csrrc %0, mstatus, %1"
    61f8:	00800793          	li	a5,8
    61fc:	3007b7f3          	csrrc	a5,mstatus,a5
	value &= mask;

	/* Update pin state atomically */
	key = irq_lock();
	*reg = (*reg & ~mask) | value;
    6200:	00072683          	lw	a3,0(a4)
	key = (mstatus & MSTATUS_IEN);
    6204:	0087f793          	andi	a5,a5,8
    6208:	00c6c633          	xor	a2,a3,a2
    620c:	00b67633          	and	a2,a2,a1
    6210:	00d64633          	xor	a2,a2,a3
    6214:	00c72023          	sw	a2,0(a4)
	__asm__ volatile ("csrrs %0, mstatus, %1"
    6218:	3007a7f3          	csrrs	a5,mstatus,a5
	irq_unlock(key);

	return 0;
}
    621c:	00000513          	li	a0,0
    6220:	00008067          	ret

00006224 <gpio_mmio32_port_set_bits_raw>:

static int gpio_mmio32_port_set_bits_raw(const struct device *dev,
					 uint32_t mask)
{
	struct gpio_mmio32_context *context = dev->data;
	const struct gpio_mmio32_config *config = context->config;
    6224:	01052783          	lw	a5,16(a0)
    6228:	0047a783          	lw	a5,4(a5)
	volatile uint32_t *reg = config->reg;
	unsigned int key;

	mask &= config->mask;
    622c:	0087a703          	lw	a4,8(a5)
	volatile uint32_t *reg = config->reg;
    6230:	0047a683          	lw	a3,4(a5)
	__asm__ volatile ("csrrc %0, mstatus, %1"
    6234:	00800793          	li	a5,8
	mask &= config->mask;
    6238:	00e5f733          	and	a4,a1,a4
    623c:	3007b7f3          	csrrc	a5,mstatus,a5

	/* Update pin state atomically */
	key = irq_lock();
	*reg = (*reg | mask);
    6240:	0006a583          	lw	a1,0(a3)
	key = (mstatus & MSTATUS_IEN);
    6244:	0087f793          	andi	a5,a5,8
    6248:	00e5e5b3          	or	a1,a1,a4
    624c:	00b6a023          	sw	a1,0(a3)
	__asm__ volatile ("csrrs %0, mstatus, %1"
    6250:	3007a7f3          	csrrs	a5,mstatus,a5
	irq_unlock(key);

	return 0;
}
    6254:	00000513          	li	a0,0
    6258:	00008067          	ret

0000625c <gpio_mmio32_port_clear_bits_raw>:

static int gpio_mmio32_port_clear_bits_raw(const struct device *dev,
					   uint32_t mask)
{
	struct gpio_mmio32_context *context = dev->data;
	const struct gpio_mmio32_config *config = context->config;
    625c:	01052783          	lw	a5,16(a0)
    6260:	0047a783          	lw	a5,4(a5)
	volatile uint32_t *reg = config->reg;
    6264:	0047a703          	lw	a4,4(a5)
	unsigned int key;

	mask &= config->mask;
    6268:	0087a783          	lw	a5,8(a5)
    626c:	00f5f5b3          	and	a1,a1,a5
	__asm__ volatile ("csrrc %0, mstatus, %1"
    6270:	00800793          	li	a5,8
    6274:	3007b7f3          	csrrc	a5,mstatus,a5

	/* Update pin state atomically */
	key = irq_lock();
	*reg = (*reg & ~mask);
    6278:	00072683          	lw	a3,0(a4)
    627c:	fff5c593          	not	a1,a1
	key = (mstatus & MSTATUS_IEN);
    6280:	0087f793          	andi	a5,a5,8
    6284:	00d5f5b3          	and	a1,a1,a3
    6288:	00b72023          	sw	a1,0(a4)
	__asm__ volatile ("csrrs %0, mstatus, %1"
    628c:	3007a7f3          	csrrs	a5,mstatus,a5
	irq_unlock(key);

	return 0;
}
    6290:	00000513          	li	a0,0
    6294:	00008067          	ret

00006298 <gpio_mmio32_port_toggle_bits>:

static int gpio_mmio32_port_toggle_bits(const struct device *dev,
					uint32_t mask)
{
	struct gpio_mmio32_context *context = dev->data;
	const struct gpio_mmio32_config *config = context->config;
    6298:	01052783          	lw	a5,16(a0)
    629c:	0047a783          	lw	a5,4(a5)
	volatile uint32_t *reg = config->reg;
	unsigned int key;

	mask &= config->mask;
    62a0:	0087a703          	lw	a4,8(a5)
	volatile uint32_t *reg = config->reg;
    62a4:	0047a683          	lw	a3,4(a5)
	__asm__ volatile ("csrrc %0, mstatus, %1"
    62a8:	00800793          	li	a5,8
	mask &= config->mask;
    62ac:	00e5f733          	and	a4,a1,a4
    62b0:	3007b7f3          	csrrc	a5,mstatus,a5

	/* Update pin state atomically */
	key = irq_lock();
	*reg = (*reg ^ mask);
    62b4:	0006a583          	lw	a1,0(a3)
	key = (mstatus & MSTATUS_IEN);
    62b8:	0087f793          	andi	a5,a5,8
    62bc:	00e5c5b3          	xor	a1,a1,a4
    62c0:	00b6a023          	sw	a1,0(a3)
	__asm__ volatile ("csrrs %0, mstatus, %1"
    62c4:	3007a7f3          	csrrs	a5,mstatus,a5
	irq_unlock(key);

	return 0;
}
    62c8:	00000513          	li	a0,0
    62cc:	00008067          	ret

000062d0 <gpio_mmio32_pin_interrupt_configure>:
static int gpio_mmio32_pin_interrupt_configure(const struct device *dev,
					       gpio_pin_t pin,
					       enum gpio_int_mode mode,
					       enum gpio_int_trig trig)
{
	if (mode != GPIO_INT_MODE_DISABLED) {
    62d0:	000027b7          	lui	a5,0x2
		return -ENOTSUP;
	}

	return 0;
    62d4:	00000513          	li	a0,0
	if (mode != GPIO_INT_MODE_DISABLED) {
    62d8:	00f60463          	beq	a2,a5,62e0 <gpio_mmio32_pin_interrupt_configure+0x10>
		return -ENOTSUP;
    62dc:	f7a00513          	li	a0,-134
}
    62e0:	00008067          	ret

000062e4 <gpio_mmio32_init>:
int gpio_mmio32_init(const struct device *dev)
{
	struct gpio_mmio32_context *context = dev->data;
	const struct gpio_mmio32_config *config = dev->config;

	context->config = config;
    62e4:	01052783          	lw	a5,16(a0)
    62e8:	00452703          	lw	a4,4(a0)

	return 0;
}
    62ec:	00000513          	li	a0,0
	context->config = config;
    62f0:	00e7a223          	sw	a4,4(a5) # 2004 <CONFIG_SRAM_SIZE+0x4>
}
    62f4:	00008067          	ret

000062f8 <gpio_veerwolf_init>:
/* Driver functions */

static int gpio_veerwolf_init(const struct device *dev)
{
	return 0;
}
    62f8:	00000513          	li	a0,0
    62fc:	00008067          	ret

00006300 <gpio_veerwolf_configure>:

static int gpio_veerwolf_configure(const struct device *dev,
				gpio_pin_t pin, gpio_flags_t flags)
{
	return 0;
}
    6300:	00000513          	li	a0,0
    6304:	00008067          	ret

00006308 <gpio_veerwolf_port_get_raw>:

static int gpio_veerwolf_port_get_raw(const struct device *dev,
				   gpio_port_value_t *value)
{
	mem_addr_t addr = DEV_GPIO_ADDR(dev);
    6308:	00452783          	lw	a5,4(a0)

	*value = sys_read32(addr);
	return 0;
}
    630c:	00000513          	li	a0,0
	mem_addr_t addr = DEV_GPIO_ADDR(dev);
    6310:	0007a783          	lw	a5,0(a5)
	return *(volatile uint32_t *)addr;
    6314:	0007a783          	lw	a5,0(a5)
	*value = sys_read32(addr);
    6318:	00f5a023          	sw	a5,0(a1)
}
    631c:	00008067          	ret

00006320 <gpio_veerwolf_port_set_masked_raw>:

static int gpio_veerwolf_port_set_masked_raw(const struct device *dev,
					  gpio_port_pins_t mask,
					  gpio_port_value_t value)
{
	mem_addr_t addr = DEV_GPIO_ADDR(dev);
    6320:	00452783          	lw	a5,4(a0)
	port_val = sys_read32(addr);
	port_val = (port_val & ~mask) | (value & mask);
	sys_write32(port_val, addr);

	return 0;
}
    6324:	00000513          	li	a0,0
	mem_addr_t addr = DEV_GPIO_ADDR(dev);
    6328:	0007a783          	lw	a5,0(a5)
    632c:	0007a703          	lw	a4,0(a5)
	port_val = (port_val & ~mask) | (value & mask);
    6330:	00e64633          	xor	a2,a2,a4
    6334:	00b67633          	and	a2,a2,a1
    6338:	00e64633          	xor	a2,a2,a4
}

static ALWAYS_INLINE void sys_write32(uint32_t data, mem_addr_t addr)
{
	*(volatile uint32_t *)addr = data;
    633c:	00c7a023          	sw	a2,0(a5)
}
    6340:	00008067          	ret

00006344 <gpio_veerwolf_port_set_bits_raw>:

static int gpio_veerwolf_port_set_bits_raw(const struct device *dev,
					gpio_port_pins_t pins)
{
	mem_addr_t addr = DEV_GPIO_ADDR(dev);
    6344:	00452783          	lw	a5,4(a0)

	port_val = sys_read32(addr) | pins;
	sys_write32(port_val, addr);

	return 0;
}
    6348:	00000513          	li	a0,0
	mem_addr_t addr = DEV_GPIO_ADDR(dev);
    634c:	0007a783          	lw	a5,0(a5)
	return *(volatile uint32_t *)addr;
    6350:	0007a703          	lw	a4,0(a5)
	port_val = sys_read32(addr) | pins;
    6354:	00e5e5b3          	or	a1,a1,a4
	*(volatile uint32_t *)addr = data;
    6358:	00b7a023          	sw	a1,0(a5)
}
    635c:	00008067          	ret

00006360 <gpio_veerwolf_port_clear_bits_raw>:

static int gpio_veerwolf_port_clear_bits_raw(const struct device *dev,
					  gpio_port_pins_t pins)
{
	mem_addr_t addr = DEV_GPIO_ADDR(dev);
    6360:	00452783          	lw	a5,4(a0)
	uint32_t port_val;

	port_val = sys_read32(addr) & ~pins;
    6364:	fff5c593          	not	a1,a1
	sys_write32(port_val, addr);

	return 0;
}
    6368:	00000513          	li	a0,0
	mem_addr_t addr = DEV_GPIO_ADDR(dev);
    636c:	0007a783          	lw	a5,0(a5)
	return *(volatile uint32_t *)addr;
    6370:	0007a703          	lw	a4,0(a5)
	port_val = sys_read32(addr) & ~pins;
    6374:	00e5f5b3          	and	a1,a1,a4
	*(volatile uint32_t *)addr = data;
    6378:	00b7a023          	sw	a1,0(a5)
}
    637c:	00008067          	ret

00006380 <gpio_veerwolf_port_toggle_bits>:

static int gpio_veerwolf_port_toggle_bits(const struct device *dev,
				       gpio_port_pins_t pins)
{
	mem_addr_t addr = DEV_GPIO_ADDR(dev);
    6380:	00452783          	lw	a5,4(a0)

	port_val = sys_read32(addr) ^ pins;
	sys_write32(port_val, addr);

	return 0;
}
    6384:	00000513          	li	a0,0
	mem_addr_t addr = DEV_GPIO_ADDR(dev);
    6388:	0007a783          	lw	a5,0(a5)
	return *(volatile uint32_t *)addr;
    638c:	0007a703          	lw	a4,0(a5)
	port_val = sys_read32(addr) ^ pins;
    6390:	00e5c5b3          	xor	a1,a1,a4
	*(volatile uint32_t *)addr = data;
    6394:	00b7a023          	sw	a1,0(a5)
}
    6398:	00008067          	ret

0000639c <gpio_veerwolf_pin_interrupt_configure>:
					      enum gpio_int_mode mode,
					      enum gpio_int_trig trig)
{
	int ret = 0;

	if (mode != GPIO_INT_MODE_DISABLED) {
    639c:	000027b7          	lui	a5,0x2
	int ret = 0;
    63a0:	00000513          	li	a0,0
	if (mode != GPIO_INT_MODE_DISABLED) {
    63a4:	00f60463          	beq	a2,a5,63ac <gpio_veerwolf_pin_interrupt_configure+0x10>
		ret = -ENOTSUP;
    63a8:	f7a00513          	li	a0,-134
	}
	return ret;
}
    63ac:	00008067          	ret

000063b0 <uart_ns16550_configure>:
}

static int uart_ns16550_configure(const struct device *dev,
				  const struct uart_config *cfg)
{
	struct uart_ns16550_dev_data * const dev_data = DEV_DATA(dev);
    63b0:	01052883          	lw	a7,16(a0)
{
    63b4:	00050793          	mv	a5,a0
	__asm__ volatile ("csrrc %0, mstatus, %1"
    63b8:	00800693          	li	a3,8
    63bc:	3006b6f3          	csrrc	a3,mstatus,a3
		OUTWORD(PCP(dev), pcp & ~PCP_UPDATE);
		OUTWORD(PCP(dev), pcp | PCP_UPDATE);
	}
#endif

	set_baud_rate(dev, cfg->baudrate);
    63c0:	0005a503          	lw	a0,0(a1)
	key = (mstatus & MSTATUS_IEN);
    63c4:	0086f693          	andi	a3,a3,8
	if ((baud_rate != 0U) && (dev_cfg->sys_clk_freq != 0U)) {
    63c8:	06050863          	beqz	a0,6438 <uart_ns16550_configure+0x88>
	const struct uart_ns16550_device_config * const dev_cfg = DEV_CFG(dev);
    63cc:	0047a603          	lw	a2,4(a5) # 2004 <CONFIG_SRAM_SIZE+0x4>
	if ((baud_rate != 0U) && (dev_cfg->sys_clk_freq != 0U)) {
    63d0:	00462803          	lw	a6,4(a2) # 800004 <__data_region_end+0x7d0910>
    63d4:	06080263          	beqz	a6,6438 <uart_ns16550_configure+0x88>
		divisor = ((dev_cfg->sys_clk_freq + (baud_rate << 3))
    63d8:	00351713          	slli	a4,a0,0x3
    63dc:	01070733          	add	a4,a4,a6
					/ baud_rate) >> 4;
    63e0:	02a75733          	divu	a4,a4,a0
		lcr_cache = INBYTE(LCR(dev));
    63e4:	00062803          	lw	a6,0(a2)
	struct uart_ns16550_dev_data * const dev_data = DEV_DATA(dev);
    63e8:	0107a303          	lw	t1,16(a5)
	return *(volatile uint8_t *)addr;
    63ec:	00c84603          	lbu	a2,12(a6)
    63f0:	0ff67e13          	andi	t3,a2,255
		OUTBYTE(LCR(dev), LCR_DLAB | lcr_cache);
    63f4:	f8066613          	ori	a2,a2,-128
    63f8:	0ff67613          	andi	a2,a2,255
	*(volatile uint8_t *)addr = data;
    63fc:	00c80623          	sb	a2,12(a6)
	return DEVICE_MMIO_GET(dev);
    6400:	0047a803          	lw	a6,4(a5)
    6404:	00082803          	lw	a6,0(a6)
		divisor = ((dev_cfg->sys_clk_freq + (baud_rate << 3))
    6408:	00475613          	srli	a2,a4,0x4
		OUTBYTE(BRDL(dev), (unsigned char)(divisor & 0xff));
    640c:	0ff67613          	andi	a2,a2,255
    6410:	00c80023          	sb	a2,0(a6)
	return DEVICE_MMIO_GET(dev);
    6414:	0047a603          	lw	a2,4(a5)
		OUTBYTE(BRDH(dev), (unsigned char)((divisor >> 8) & 0xff));
    6418:	00c75713          	srli	a4,a4,0xc
    641c:	0ff77713          	andi	a4,a4,255
    6420:	00062603          	lw	a2,0(a2)
    6424:	00e60223          	sb	a4,4(a2)
	return DEVICE_MMIO_GET(dev);
    6428:	0047a703          	lw	a4,4(a5)
		OUTBYTE(LCR(dev), lcr_cache);
    642c:	00072703          	lw	a4,0(a4)
    6430:	01c70623          	sb	t3,12(a4)
		dev_data->uart_config.baudrate = baud_rate;
    6434:	00a32023          	sw	a0,0(t1)

	/* Local structure to hold temporary values to pass to OUTBYTE() */
	struct uart_config uart_cfg;

	switch (cfg->data_bits) {
    6438:	0065c603          	lbu	a2,6(a1)
    643c:	00300713          	li	a4,3
		break;
	case UART_CFG_DATA_BITS_8:
		uart_cfg.data_bits = LCR_CS8;
		break;
	default:
		ret = -ENOTSUP;
    6440:	f7a00513          	li	a0,-134
    6444:	08c76663          	bltu	a4,a2,64d0 <uart_ns16550_configure+0x120>
		goto out;
	}

	switch (cfg->stop_bits) {
    6448:	0055c803          	lbu	a6,5(a1)
    644c:	00100513          	li	a0,1
    6450:	08a80463          	beq	a6,a0,64d8 <uart_ns16550_configure+0x128>
    6454:	f7a00513          	li	a0,-134
    6458:	06e81c63          	bne	a6,a4,64d0 <uart_ns16550_configure+0x120>
    645c:	00400813          	li	a6,4
	default:
		ret = -ENOTSUP;
		goto out;
	}

	switch (cfg->parity) {
    6460:	0045c703          	lbu	a4,4(a1)
    6464:	00070a63          	beqz	a4,6478 <uart_ns16550_configure+0xc8>
    6468:	00200313          	li	t1,2
    646c:	f7a00513          	li	a0,-134
    6470:	06671063          	bne	a4,t1,64d0 <uart_ns16550_configure+0x120>
    6474:	01000713          	li	a4,16
	default:
		ret = -ENOTSUP;
		goto out;
	}

	dev_data->uart_config = *cfg;
    6478:	0005a503          	lw	a0,0(a1)

	/* data bits, stop bits, parity, clear DLAB */
	OUTBYTE(LCR(dev),
    647c:	01066633          	or	a2,a2,a6
    6480:	00c76733          	or	a4,a4,a2
	return DEVICE_MMIO_GET(dev);
    6484:	0047a603          	lw	a2,4(a5)
	dev_data->uart_config = *cfg;
    6488:	00a8a023          	sw	a0,0(a7) # 80000 <__data_region_end+0x5090c>
    648c:	0045a583          	lw	a1,4(a1)
	OUTBYTE(LCR(dev),
    6490:	00062603          	lw	a2,0(a2)
	int ret = 0;
    6494:	00000513          	li	a0,0
	dev_data->uart_config = *cfg;
    6498:	00b8a223          	sw	a1,4(a7)
    649c:	00e60623          	sb	a4,12(a2)
	return DEVICE_MMIO_GET(dev);
    64a0:	0047a703          	lw	a4,4(a5)
    64a4:	00b00613          	li	a2,11
	if (cfg->flow_ctrl == UART_CFG_FLOW_CTRL_RTS_CTS) {
		mdc |= MCR_AFCE;
	}
#endif

	OUTBYTE(MDC(dev), mdc);
    64a8:	00072703          	lw	a4,0(a4)
    64ac:	00c70823          	sb	a2,16(a4)
	return DEVICE_MMIO_GET(dev);
    64b0:	0047a703          	lw	a4,4(a5)
    64b4:	f8700613          	li	a2,-121
	/*
	 * Program FIFO: enabled, mode 0 (set for compatibility with quark),
	 * generate the interrupt at 8th byte
	 * Clear TX and RX FIFO
	 */
	OUTBYTE(FCR(dev),
    64b8:	00072703          	lw	a4,0(a4)
    64bc:	00c70423          	sb	a2,8(a4)
	return DEVICE_MMIO_GET(dev);
    64c0:	0047a783          	lw	a5,4(a5)
    64c4:	0007a783          	lw	a5,0(a5)
	return *(volatile uint8_t *)addr;
    64c8:	0007c703          	lbu	a4,0(a5)
	*(volatile uint8_t *)addr = data;
    64cc:	00078223          	sb	zero,4(a5)
	__asm__ volatile ("csrrs %0, mstatus, %1"
    64d0:	3006a6f3          	csrrs	a3,mstatus,a3
	OUTBYTE(IER(dev), 0x00);

out:
	k_spin_unlock(&dev_data->lock, key);
	return ret;
};
    64d4:	00008067          	ret
		uart_cfg.stop_bits = LCR_1_STB;
    64d8:	00000813          	li	a6,0
    64dc:	f85ff06f          	j	6460 <uart_ns16550_configure+0xb0>

000064e0 <uart_ns16550_config_get>:

#ifdef CONFIG_UART_USE_RUNTIME_CONFIGURE
static int uart_ns16550_config_get(const struct device *dev,
				   struct uart_config *cfg)
{
	struct uart_ns16550_dev_data *data = DEV_DATA(dev);
    64e0:	01052783          	lw	a5,16(a0)
	cfg->stop_bits = data->uart_config.stop_bits;
	cfg->data_bits = data->uart_config.data_bits;
	cfg->flow_ctrl = data->uart_config.flow_ctrl;

	return 0;
}
    64e4:	00000513          	li	a0,0
	cfg->baudrate = data->uart_config.baudrate;
    64e8:	0007a703          	lw	a4,0(a5)
    64ec:	00e5a023          	sw	a4,0(a1)
	cfg->parity = data->uart_config.parity;
    64f0:	0047c703          	lbu	a4,4(a5)
    64f4:	00e58223          	sb	a4,4(a1)
	cfg->stop_bits = data->uart_config.stop_bits;
    64f8:	0057c703          	lbu	a4,5(a5)
    64fc:	00e582a3          	sb	a4,5(a1)
	cfg->data_bits = data->uart_config.data_bits;
    6500:	0067c703          	lbu	a4,6(a5)
    6504:	00e58323          	sb	a4,6(a1)
	cfg->flow_ctrl = data->uart_config.flow_ctrl;
    6508:	0077c783          	lbu	a5,7(a5)
    650c:	00f583a3          	sb	a5,7(a1)
}
    6510:	00008067          	ret

00006514 <uart_ns16550_init>:
 */
static int uart_ns16550_init(const struct device *dev)
{
	int ret;

	ret = uart_ns16550_configure(dev, &DEV_DATA(dev)->uart_config);
    6514:	01052583          	lw	a1,16(a0)
    6518:	e99ff06f          	j	63b0 <uart_ns16550_configure>

0000651c <uart_ns16550_poll_in>:
	__asm__ volatile ("csrrc %0, mstatus, %1"
    651c:	00800793          	li	a5,8
    6520:	3007b7f3          	csrrc	a5,mstatus,a5
	return DEVICE_MMIO_GET(dev);
    6524:	00452703          	lw	a4,4(a0)
	key = (mstatus & MSTATUS_IEN);
    6528:	0087f793          	andi	a5,a5,8
 *
 * @return 0 if a character arrived, -1 if the input buffer if empty.
 */
static int uart_ns16550_poll_in(const struct device *dev, unsigned char *c)
{
	int ret = -1;
    652c:	fff00513          	li	a0,-1
	return DEVICE_MMIO_GET(dev);
    6530:	00072683          	lw	a3,0(a4)
	return *(volatile uint8_t *)addr;
    6534:	0146c703          	lbu	a4,20(a3)
	k_spinlock_key_t key = k_spin_lock(&DEV_DATA(dev)->lock);

	if ((INBYTE(LSR(dev)) & LSR_RXRDY) != 0) {
    6538:	00177713          	andi	a4,a4,1
    653c:	00070863          	beqz	a4,654c <uart_ns16550_poll_in+0x30>
    6540:	0006c703          	lbu	a4,0(a3)
		/* got a character */
		*c = INBYTE(RDR(dev));
		ret = 0;
    6544:	00000513          	li	a0,0
		*c = INBYTE(RDR(dev));
    6548:	00e58023          	sb	a4,0(a1)
	__asm__ volatile ("csrrs %0, mstatus, %1"
    654c:	3007a7f3          	csrrs	a5,mstatus,a5
	}

	k_spin_unlock(&DEV_DATA(dev)->lock, key);

	return ret;
}
    6550:	00008067          	ret

00006554 <uart_ns16550_poll_out>:
	__asm__ volatile ("csrrc %0, mstatus, %1"
    6554:	00800793          	li	a5,8
    6558:	3007b7f3          	csrrc	a5,mstatus,a5
	return DEVICE_MMIO_GET(dev);
    655c:	00452703          	lw	a4,4(a0)
	key = (mstatus & MSTATUS_IEN);
    6560:	0087f793          	andi	a5,a5,8
    6564:	00072683          	lw	a3,0(a4)
static void uart_ns16550_poll_out(const struct device *dev,
					   unsigned char c)
{
	k_spinlock_key_t key = k_spin_lock(&DEV_DATA(dev)->lock);

	while ((INBYTE(LSR(dev)) & LSR_THRE) == 0) {
    6568:	01468613          	addi	a2,a3,20
    656c:	00064703          	lbu	a4,0(a2)
    6570:	02077713          	andi	a4,a4,32
    6574:	fe070ce3          	beqz	a4,656c <uart_ns16550_poll_out+0x18>
	*(volatile uint8_t *)addr = data;
    6578:	00b68023          	sb	a1,0(a3)
	__asm__ volatile ("csrrs %0, mstatus, %1"
    657c:	3007a7f3          	csrrs	a5,mstatus,a5
	}

	OUTBYTE(THR(dev), c);

	k_spin_unlock(&DEV_DATA(dev)->lock, key);
}
    6580:	00008067          	ret

00006584 <uart_ns16550_err_check>:
	__asm__ volatile ("csrrc %0, mstatus, %1"
    6584:	00800793          	li	a5,8
    6588:	3007b7f3          	csrrc	a5,mstatus,a5
	return DEVICE_MMIO_GET(dev);
    658c:	00452703          	lw	a4,4(a0)
	key = (mstatus & MSTATUS_IEN);
    6590:	0087f793          	andi	a5,a5,8
 * UART_BREAK if an error was detected, 0 otherwise.
 */
static int uart_ns16550_err_check(const struct device *dev)
{
	k_spinlock_key_t key = k_spin_lock(&DEV_DATA(dev)->lock);
	int check = (INBYTE(LSR(dev)) & LSR_EOB_MASK);
    6594:	00072703          	lw	a4,0(a4)
	return *(volatile uint8_t *)addr;
    6598:	01474503          	lbu	a0,20(a4)
    659c:	0ff57513          	andi	a0,a0,255
	__asm__ volatile ("csrrs %0, mstatus, %1"
    65a0:	3007a7f3          	csrrs	a5,mstatus,a5
    65a4:	01e57513          	andi	a0,a0,30

	k_spin_unlock(&DEV_DATA(dev)->lock, key);

	return check >> 1;
}
    65a8:	00155513          	srli	a0,a0,0x1
    65ac:	00008067          	ret

000065b0 <mtime>:
	volatile uint32_t *r = (uint32_t *)RISCV_MTIME_BASE;
	uint32_t lo, hi;

	/* Likewise, must guard against rollover when reading */
	do {
		hi = r[1];
    65b0:	800017b7          	lui	a5,0x80001
    65b4:	0247a703          	lw	a4,36(a5) # 80001024 <CONFIG_SYSTEM_WORKQUEUE_PRIORITY+0x80001025>
		lo = r[0];
    65b8:	0207a503          	lw	a0,32(a5)
	} while (r[1] != hi);
    65bc:	0247a583          	lw	a1,36(a5)
    65c0:	fee59ae3          	bne	a1,a4,65b4 <mtime+0x4>

	return (((uint64_t)hi) << 32) | lo;
#endif
}
    65c4:	00008067          	ret

000065c8 <timer_isr>:

static void timer_isr(const void *arg)
{
    65c8:	fe010113          	addi	sp,sp,-32
    65cc:	01312623          	sw	s3,12(sp)
    65d0:	00112e23          	sw	ra,28(sp)
    65d4:	00812c23          	sw	s0,24(sp)
    65d8:	00912a23          	sw	s1,20(sp)
    65dc:	01212823          	sw	s2,16(sp)
    65e0:	01412423          	sw	s4,8(sp)
    65e4:	01512223          	sw	s5,4(sp)
	__asm__ volatile ("csrrc %0, mstatus, %1"
    65e8:	00800993          	li	s3,8
    65ec:	3009b9f3          	csrrc	s3,mstatus,s3
	ARG_UNUSED(arg);

	k_spinlock_key_t key = k_spin_lock(&lock);
	uint64_t now = mtime();
    65f0:	fc1ff0ef          	jal	ra,65b0 <mtime>
	key = (mstatus & MSTATUS_IEN);
    65f4:	0089f993          	andi	s3,s3,8
    65f8:	00050a13          	mv	s4,a0
    65fc:	00058913          	mv	s2,a1
	uint32_t dticks = (uint32_t)((now - last_count) / CYC_PER_TICK);

	last_count = now;
    6600:	0000e437          	lui	s0,0xe
    6604:	97040413          	addi	s0,s0,-1680 # d970 <last_count>
    6608:	00a42023          	sw	a0,0(s0)
    660c:	00b42223          	sw	a1,4(s0)
	return z_clock_hw_cycles_per_sec;
    6610:	0002fab7          	lui	s5,0x2f

	if (!TICKLESS) {
		uint64_t next = last_count + CYC_PER_TICK;
    6614:	47caa503          	lw	a0,1148(s5) # 2f47c <z_clock_hw_cycles_per_sec>
    6618:	00000693          	li	a3,0
    661c:	06400613          	li	a2,100
    6620:	41f55593          	srai	a1,a0,0x1f
    6624:	d69f90ef          	jal	ra,38c <__udivdi3>
    6628:	00042483          	lw	s1,0(s0)
    662c:	00442783          	lw	a5,4(s0)
    6630:	009504b3          	add	s1,a0,s1
    6634:	00a4b433          	sltu	s0,s1,a0
    6638:	00f40433          	add	s0,s0,a5

		if ((int64_t)(next - now) < MIN_DELAY) {
    663c:	41448a33          	sub	s4,s1,s4
    6640:	0144b5b3          	sltu	a1,s1,s4
    6644:	41240933          	sub	s2,s0,s2
    6648:	40b90933          	sub	s2,s2,a1
		uint64_t next = last_count + CYC_PER_TICK;
    664c:	00048793          	mv	a5,s1
    6650:	00040693          	mv	a3,s0
		if ((int64_t)(next - now) < MIN_DELAY) {
    6654:	03204863          	bgtz	s2,6684 <timer_isr+0xbc>
    6658:	00091663          	bnez	s2,6664 <timer_isr+0x9c>
    665c:	3e700713          	li	a4,999
    6660:	03476263          	bltu	a4,s4,6684 <timer_isr+0xbc>
			next += CYC_PER_TICK;
    6664:	47caa503          	lw	a0,1148(s5)
    6668:	00000693          	li	a3,0
    666c:	06400613          	li	a2,100
    6670:	41f55593          	srai	a1,a0,0x1f
    6674:	d19f90ef          	jal	ra,38c <__udivdi3>
    6678:	00a487b3          	add	a5,s1,a0
    667c:	0097b4b3          	sltu	s1,a5,s1
    6680:	008486b3          	add	a3,s1,s0
	r[1] = 0xffffffff;
    6684:	80001737          	lui	a4,0x80001
    6688:	fff00613          	li	a2,-1
    668c:	02c72623          	sw	a2,44(a4) # 8000102c <CONFIG_SYSTEM_WORKQUEUE_PRIORITY+0x8000102d>
	r[0] = (uint32_t)time;
    6690:	02f72423          	sw	a5,40(a4)
	r[1] = (uint32_t)(time >> 32);
    6694:	02d72623          	sw	a3,44(a4)
	__asm__ volatile ("csrrs %0, mstatus, %1"
    6698:	3009a9f3          	csrrs	s3,mstatus,s3
		set_mtimecmp(next);
	}

	k_spin_unlock(&lock, key);
	sys_clock_announce(IS_ENABLED(CONFIG_TICKLESS_KERNEL) ? dticks : 1);
}
    669c:	01812403          	lw	s0,24(sp)
    66a0:	01c12083          	lw	ra,28(sp)
    66a4:	01412483          	lw	s1,20(sp)
    66a8:	01012903          	lw	s2,16(sp)
    66ac:	00c12983          	lw	s3,12(sp)
    66b0:	00812a03          	lw	s4,8(sp)
    66b4:	00412a83          	lw	s5,4(sp)
	sys_clock_announce(IS_ENABLED(CONFIG_TICKLESS_KERNEL) ? dticks : 1);
    66b8:	00100513          	li	a0,1
}
    66bc:	02010113          	addi	sp,sp,32
	sys_clock_announce(IS_ENABLED(CONFIG_TICKLESS_KERNEL) ? dticks : 1);
    66c0:	1910106f          	j	8050 <sys_clock_announce>

000066c4 <sys_clock_driver_init>:

int sys_clock_driver_init(const struct device *dev)
{
    66c4:	ff010113          	addi	sp,sp,-16
    66c8:	00812423          	sw	s0,8(sp)
	ARG_UNUSED(dev);

	IRQ_CONNECT(RISCV_MACHINE_TIMER_IRQ, 0, timer_isr, NULL, 0);
	last_count = mtime();
    66cc:	0000e437          	lui	s0,0xe
{
    66d0:	00112623          	sw	ra,12(sp)
	last_count = mtime();
    66d4:	97040413          	addi	s0,s0,-1680 # d970 <last_count>
    66d8:	ed9ff0ef          	jal	ra,65b0 <mtime>
    66dc:	00a42023          	sw	a0,0(s0)
    66e0:	00b42223          	sw	a1,4(s0)
    66e4:	0002f7b7          	lui	a5,0x2f
	set_mtimecmp(last_count + CYC_PER_TICK);
    66e8:	47c7a503          	lw	a0,1148(a5) # 2f47c <z_clock_hw_cycles_per_sec>
    66ec:	06400613          	li	a2,100
    66f0:	00000693          	li	a3,0
    66f4:	41f55593          	srai	a1,a0,0x1f
    66f8:	c95f90ef          	jal	ra,38c <__udivdi3>
    66fc:	00042783          	lw	a5,0(s0)
    6700:	00442703          	lw	a4,4(s0)
	r[1] = 0xffffffff;
    6704:	fff00693          	li	a3,-1
	set_mtimecmp(last_count + CYC_PER_TICK);
    6708:	00f507b3          	add	a5,a0,a5
    670c:	00a7b533          	sltu	a0,a5,a0
    6710:	00e50533          	add	a0,a0,a4
	r[1] = 0xffffffff;
    6714:	80001737          	lui	a4,0x80001
    6718:	02d72623          	sw	a3,44(a4) # 8000102c <CONFIG_SYSTEM_WORKQUEUE_PRIORITY+0x8000102d>
	r[0] = (uint32_t)time;
    671c:	02f72423          	sw	a5,40(a4)
	r[1] = (uint32_t)(time >> 32);
    6720:	02a72623          	sw	a0,44(a4)
	irq_enable(RISCV_MACHINE_TIMER_IRQ);
    6724:	00700513          	li	a0,7
    6728:	929ff0ef          	jal	ra,6050 <arch_irq_enable>
	return 0;
}
    672c:	00c12083          	lw	ra,12(sp)
    6730:	00812403          	lw	s0,8(sp)
    6734:	00000513          	li	a0,0
    6738:	01010113          	addi	sp,sp,16
    673c:	00008067          	ret

00006740 <sys_clock_set_timeout>:
	}

	set_mtimecmp(cyc + last_count);
	k_spin_unlock(&lock, key);
#endif
}
    6740:	00008067          	ret

00006744 <sys_clock_elapsed>:
	k_spinlock_key_t key = k_spin_lock(&lock);
	uint32_t ret = ((uint32_t)mtime() - (uint32_t)last_count) / CYC_PER_TICK;

	k_spin_unlock(&lock, key);
	return ret;
}
    6744:	00000513          	li	a0,0
    6748:	00008067          	ret

0000674c <sys_clock_cycle_get_32>:

uint32_t sys_clock_cycle_get_32(void)
{
    674c:	ff010113          	addi	sp,sp,-16
    6750:	00112623          	sw	ra,12(sp)
	return (uint32_t)mtime();
    6754:	e5dff0ef          	jal	ra,65b0 <mtime>
}
    6758:	00c12083          	lw	ra,12(sp)
    675c:	01010113          	addi	sp,sp,16
    6760:	00008067          	ret

00006764 <z_device_state_init>:

	while (dev < __device_end) {
		z_object_init(dev);
		++dev;
	}
}
    6764:	00008067          	ret

00006768 <z_sys_init_run_level>:
		/* End marker */
		__init_end,
	};
	const struct init_entry *entry;

	for (entry = levels[level]; entry < levels[level+1]; entry++) {
    6768:	00251713          	slli	a4,a0,0x2
    676c:	0000d7b7          	lui	a5,0xd
    6770:	00150513          	addi	a0,a0,1
    6774:	5ac78793          	addi	a5,a5,1452 # d5ac <levels.0>
    6778:	00251513          	slli	a0,a0,0x2
{
    677c:	fe010113          	addi	sp,sp,-32
	for (entry = levels[level]; entry < levels[level+1]; entry++) {
    6780:	00e78733          	add	a4,a5,a4
    6784:	00a78533          	add	a0,a5,a0
{
    6788:	00812c23          	sw	s0,24(sp)
    678c:	01212823          	sw	s2,16(sp)
	for (entry = levels[level]; entry < levels[level+1]; entry++) {
    6790:	00072403          	lw	s0,0(a4)
    6794:	00052903          	lw	s2,0(a0)
{
    6798:	01312623          	sw	s3,12(sp)
    679c:	00112e23          	sw	ra,28(sp)
    67a0:	00912a23          	sw	s1,20(sp)
					rc = -rc;
				}
				if (rc > UINT8_MAX) {
					rc = UINT8_MAX;
				}
				dev->state->init_res = rc;
    67a4:	0ff00993          	li	s3,255
	for (entry = levels[level]; entry < levels[level+1]; entry++) {
    67a8:	03246063          	bltu	s0,s2,67c8 <z_sys_init_run_level+0x60>
			}
			dev->state->initialized = true;
		}
	}
}
    67ac:	01c12083          	lw	ra,28(sp)
    67b0:	01812403          	lw	s0,24(sp)
    67b4:	01412483          	lw	s1,20(sp)
    67b8:	01012903          	lw	s2,16(sp)
    67bc:	00c12983          	lw	s3,12(sp)
    67c0:	02010113          	addi	sp,sp,32
    67c4:	00008067          	ret
		const struct device *dev = entry->dev;
    67c8:	00442483          	lw	s1,4(s0)
		int rc = entry->init(dev);
    67cc:	00042783          	lw	a5,0(s0)
    67d0:	00048513          	mv	a0,s1
    67d4:	000780e7          	jalr	a5
		if (dev != NULL) {
    67d8:	02048863          	beqz	s1,6808 <z_sys_init_run_level+0xa0>
				dev->state->init_res = rc;
    67dc:	00c4a783          	lw	a5,12(s1)
			if (rc != 0) {
    67e0:	00050e63          	beqz	a0,67fc <z_sys_init_run_level+0x94>
				if (rc < 0) {
    67e4:	41f55713          	srai	a4,a0,0x1f
    67e8:	00a74533          	xor	a0,a4,a0
    67ec:	40e50533          	sub	a0,a0,a4
				dev->state->init_res = rc;
    67f0:	00a9d463          	bge	s3,a0,67f8 <z_sys_init_run_level+0x90>
    67f4:	0ff00513          	li	a0,255
    67f8:	00a78023          	sb	a0,0(a5)
			dev->state->initialized = true;
    67fc:	0007d703          	lhu	a4,0(a5)
    6800:	10076713          	ori	a4,a4,256
    6804:	00e79023          	sh	a4,0(a5)
	for (entry = levels[level]; entry < levels[level+1]; entry++) {
    6808:	00840413          	addi	s0,s0,8
    680c:	f9dff06f          	j	67a8 <z_sys_init_run_level+0x40>

00006810 <z_device_ready>:
{
	/*
	 * if an invalid device pointer is passed as argument, this call
	 * reports the `device` as not ready for usage.
	 */
	if (dev == NULL) {
    6810:	00050e63          	beqz	a0,682c <z_device_ready+0x1c>
		return false;
	}

	return dev->state->initialized && (dev->state->init_res == 0U);
    6814:	00c52783          	lw	a5,12(a0)
    6818:	0007a503          	lw	a0,0(a5)
    681c:	1ff57513          	andi	a0,a0,511
    6820:	f0050513          	addi	a0,a0,-256
    6824:	00153513          	seqz	a0,a0
    6828:	00008067          	ret
		return false;
    682c:	00000513          	li	a0,0
}
    6830:	00008067          	ret

00006834 <arch_system_halt>:
	__asm__ volatile ("csrrc %0, mstatus, %1"
    6834:	00800793          	li	a5,8
    6838:	3007b7f3          	csrrc	a5,mstatus,a5
	/* TODO: What's the best way to totally halt the system if SMP
	 * is enabled?
	 */

	(void)arch_irq_lock();
	for (;;) {
    683c:	0000006f          	j	683c <arch_system_halt+0x8>

00006840 <k_sys_fatal_error_handler>:
/* LCOV_EXCL_STOP */

/* LCOV_EXCL_START */
__weak void k_sys_fatal_error_handler(unsigned int reason,
				      const z_arch_esf_t *esf)
{
    6840:	ff010113          	addi	sp,sp,-16
    6844:	00112623          	sw	ra,12(sp)
	ARG_UNUSED(esf);

	LOG_PANIC();
	LOG_ERR("Halting system");
	arch_system_halt(reason);
    6848:	fedff0ef          	jal	ra,6834 <arch_system_halt>

0000684c <z_fatal_error>:
	return 0;
#endif
}

void z_fatal_error(unsigned int reason, const z_arch_esf_t *esf)
{
    684c:	fe010113          	addi	sp,sp,-32
    6850:	00812c23          	sw	s0,24(sp)
    6854:	01212823          	sw	s2,16(sp)
    6858:	00112e23          	sw	ra,28(sp)
    685c:	00912a23          	sw	s1,20(sp)
    6860:	00050913          	mv	s2,a0
    6864:	00b12623          	sw	a1,12(sp)
    6868:	00800413          	li	s0,8
    686c:	30043473          	csrrc	s0,mstatus,s0
	return z_impl_z_current_get();
    6870:	390010ef          	jal	ra,7c00 <z_impl_z_current_get>
	LOG_ERR("Current thread: %p (%s)", thread,
		log_strdup(thread_name_get(thread)));

	coredump(reason, esf, thread);

	k_sys_fatal_error_handler(reason, esf);
    6874:	00c12583          	lw	a1,12(sp)
    6878:	00050493          	mv	s1,a0
    687c:	00090513          	mv	a0,s2
    6880:	fc1ff0ef          	jal	ra,6840 <k_sys_fatal_error_handler>
	key = (mstatus & MSTATUS_IEN);
    6884:	00847413          	andi	s0,s0,8
	__asm__ volatile ("csrrs %0, mstatus, %1"
    6888:	30042473          	csrrs	s0,mstatus,s0
	arch_irq_unlock(key);

	if (IS_ENABLED(CONFIG_MULTITHREADING)) {
		k_thread_abort(thread);
	}
}
    688c:	01812403          	lw	s0,24(sp)
    6890:	01c12083          	lw	ra,28(sp)
    6894:	01012903          	lw	s2,16(sp)
	z_impl_k_thread_abort(thread);
    6898:	00048513          	mv	a0,s1
    689c:	01412483          	lw	s1,20(sp)
    68a0:	02010113          	addi	sp,sp,32
    68a4:	45c0106f          	j	7d00 <z_impl_k_thread_abort>

000068a8 <init_idle_thread>:
} /* LCOV_EXCL_LINE ... because we just dumped final coverage data */

#if defined(CONFIG_MULTITHREADING)
__boot_func
static void init_idle_thread(int i)
{
    68a8:	fd010113          	addi	sp,sp,-48
    68ac:	02912223          	sw	s1,36(sp)
	k_thread_stack_t *stack = z_idle_stacks[i];

#ifdef CONFIG_THREAD_NAME
	char tname[8];

	snprintk(tname, 8, "idle %02d", i);
    68b0:	0000d637          	lui	a2,0xd
    68b4:	01810493          	addi	s1,sp,24
{
    68b8:	02812423          	sw	s0,40(sp)
	snprintk(tname, 8, "idle %02d", i);
    68bc:	00050693          	mv	a3,a0
{
    68c0:	00050413          	mv	s0,a0
	snprintk(tname, 8, "idle %02d", i);
    68c4:	5c060613          	addi	a2,a2,1472 # d5c0 <levels.0+0x14>
    68c8:	00800593          	li	a1,8
    68cc:	00048513          	mv	a0,s1
{
    68d0:	02112623          	sw	ra,44(sp)
	snprintk(tname, 8, "idle %02d", i);
    68d4:	abdfd0ef          	jal	ra,4390 <snprintk>
	struct k_thread *thread = &z_idle_threads[i];
    68d8:	0a800693          	li	a3,168
#else
	char *tname = NULL;
#endif /* CONFIG_THREAD_NAME */

	z_setup_new_thread(thread, stack,
			  CONFIG_IDLE_STACK_SIZE, idle, &_kernel.cpus[i],
    68dc:	01800613          	li	a2,24
    68e0:	02c40633          	mul	a2,s0,a2
	k_thread_stack_t *stack = z_idle_stacks[i];
    68e4:	00941313          	slli	t1,s0,0x9
	z_setup_new_thread(thread, stack,
    68e8:	0000e737          	lui	a4,0xe
    68ec:	0000f5b7          	lui	a1,0xf
    68f0:	00100793          	li	a5,1
    68f4:	c6870713          	addi	a4,a4,-920 # dc68 <_kernel>
    68f8:	89058593          	addi	a1,a1,-1904 # e890 <z_idle_stacks>
    68fc:	00912223          	sw	s1,4(sp)
    6900:	00f12023          	sw	a5,0(sp)
    6904:	00f00893          	li	a7,15
	struct k_thread *thread = &z_idle_threads[i];
    6908:	02d40433          	mul	s0,s0,a3
    690c:	0000e6b7          	lui	a3,0xe
    6910:	b1868693          	addi	a3,a3,-1256 # db18 <z_idle_threads>
	z_setup_new_thread(thread, stack,
    6914:	00000793          	li	a5,0
    6918:	00c70733          	add	a4,a4,a2
    691c:	00000813          	li	a6,0
    6920:	20000613          	li	a2,512
    6924:	006585b3          	add	a1,a1,t1
	struct k_thread *thread = &z_idle_threads[i];
    6928:	00868433          	add	s0,a3,s0
	z_setup_new_thread(thread, stack,
    692c:	000076b7          	lui	a3,0x7
    6930:	00040513          	mv	a0,s0
    6934:	d4468693          	addi	a3,a3,-700 # 6d44 <idle>
    6938:	1b8000ef          	jal	ra,6af0 <z_setup_new_thread>
	SYS_PORT_TRACING_FUNC(k_thread, sched_resume, thread);
}

static inline void z_mark_thread_as_started(struct k_thread *thread)
{
	thread->base.thread_state &= ~_THREAD_PRESTART;
    693c:	00d44783          	lbu	a5,13(s0)
	z_mark_thread_as_started(thread);

#ifdef CONFIG_SMP
	thread->base.is_idle = 1U;
#endif
}
    6940:	02c12083          	lw	ra,44(sp)
    6944:	02412483          	lw	s1,36(sp)
    6948:	ffb7f793          	andi	a5,a5,-5
    694c:	00f406a3          	sb	a5,13(s0)
    6950:	02812403          	lw	s0,40(sp)
    6954:	03010113          	addi	sp,sp,48
    6958:	00008067          	ret

0000695c <bg_thread_main>:
{
    695c:	ff010113          	addi	sp,sp,-16
	z_sys_post_kernel = true;
    6960:	0000e7b7          	lui	a5,0xe
    6964:	00100713          	li	a4,1
	z_sys_init_run_level(_SYS_INIT_LEVEL_POST_KERNEL);
    6968:	00200513          	li	a0,2
{
    696c:	00112623          	sw	ra,12(sp)
	z_sys_post_kernel = true;
    6970:	9ce78223          	sb	a4,-1596(a5) # d9c4 <z_sys_post_kernel>
	z_sys_init_run_level(_SYS_INIT_LEVEL_POST_KERNEL);
    6974:	df5ff0ef          	jal	ra,6768 <z_sys_init_run_level>
	boot_banner();
    6978:	1c5010ef          	jal	ra,833c <boot_banner>
	z_sys_init_run_level(_SYS_INIT_LEVEL_APPLICATION);
    697c:	00300513          	li	a0,3
    6980:	de9ff0ef          	jal	ra,6768 <z_sys_init_run_level>
	z_init_static_threads();
    6984:	2a8000ef          	jal	ra,6c2c <z_init_static_threads>
	main();
    6988:	a74fd0ef          	jal	ra,3bfc <main>
	z_main_thread.base.user_options &= ~K_ESSENTIAL;
    698c:	0000e7b7          	lui	a5,0xe
    6990:	bc078793          	addi	a5,a5,-1088 # dbc0 <z_main_thread>
    6994:	00c7c703          	lbu	a4,12(a5)
    6998:	ffe77713          	andi	a4,a4,-2
    699c:	00e78623          	sb	a4,12(a5)
} /* LCOV_EXCL_LINE ... because we just dumped final coverage data */
    69a0:	00c12083          	lw	ra,12(sp)
    69a4:	01010113          	addi	sp,sp,16
    69a8:	00008067          	ret

000069ac <z_bss_zero>:
	(void)memset(__bss_start, 0, __bss_end - __bss_start);
    69ac:	0000e537          	lui	a0,0xe

__BEGIN_DECLS
__ssp_bos_icheck3_restrict(memcpy, void *, const void *)
__ssp_bos_icheck3(memmove, void *, const void *)
__ssp_bos_icheck3_restrict(mempcpy, void *, const void *)
__ssp_bos_icheck3(memset, void *, int)
    69b0:	0000e7b7          	lui	a5,0xe
    69b4:	97050613          	addi	a2,a0,-1680 # d970 <last_count>
    69b8:	c8c78793          	addi	a5,a5,-884 # dc8c <sched_spinlock>
    69bc:	40c78633          	sub	a2,a5,a2
    69c0:	00000593          	li	a1,0
    69c4:	97050513          	addi	a0,a0,-1680
    69c8:	bb4fc06f          	j	2d7c <memset>

000069cc <z_cstart>:
 *
 * @return Does not return
 */
__boot_func
FUNC_NORETURN void z_cstart(void)
{
    69cc:	f3010113          	addi	sp,sp,-208
 */
static inline void z_dummy_thread_init(struct k_thread *dummy_thread)
{
	dummy_thread->base.thread_state = _THREAD_DUMMY;
#ifdef CONFIG_SCHED_CPU_MASK
	dummy_thread->base.cpu_mask = -1;
    69d0:	fff00793          	li	a5,-1
    69d4:	0c812423          	sw	s0,200(sp)
    69d8:	02f10623          	sb	a5,44(sp)
#endif
#ifdef CONFIG_USERSPACE
	dummy_thread->mem_domain_info.mem_domain = &k_mem_domain_default;
#endif

	_current_cpu->current = dummy_thread;
    69dc:	0000e437          	lui	s0,0xe
	dummy_thread->base.user_options = K_ESSENTIAL;
    69e0:	10100793          	li	a5,257
	_current_cpu->current = dummy_thread;
    69e4:	c6840413          	addi	s0,s0,-920 # dc68 <_kernel>
	dummy_thread->base.user_options = K_ESSENTIAL;
    69e8:	02f11223          	sh	a5,36(sp)
	_current_cpu->current = dummy_thread;
    69ec:	01810793          	addi	a5,sp,24
    69f0:	0c112623          	sw	ra,204(sp)
    69f4:	00f42423          	sw	a5,8(s0)
    69f8:	0c912223          	sw	s1,196(sp)
    69fc:	0d212023          	sw	s2,192(sp)
	struct k_thread dummy_thread;

	z_dummy_thread_init(&dummy_thread);
#endif
	/* do any necessary initialization of static devices */
	z_device_state_init();
    6a00:	d65ff0ef          	jal	ra,6764 <z_device_state_init>

	/* perform basic hardware initialization */
	z_sys_init_run_level(_SYS_INIT_LEVEL_PRE_KERNEL_1);
    6a04:	00000513          	li	a0,0
    6a08:	d61ff0ef          	jal	ra,6768 <z_sys_init_run_level>
	z_sys_init_run_level(_SYS_INIT_LEVEL_PRE_KERNEL_2);
    6a0c:	00100513          	li	a0,1
    6a10:	d59ff0ef          	jal	ra,6768 <z_sys_init_run_level>
	z_sched_init();
    6a14:	7bd000ef          	jal	ra,79d0 <z_sched_init>
	stack_ptr = z_setup_new_thread(&z_main_thread, z_main_stack,
    6a18:	0000d7b7          	lui	a5,0xd
    6a1c:	5cc78793          	addi	a5,a5,1484 # d5cc <levels.0+0x20>
	_kernel.ready_q.cache = &z_main_thread;
    6a20:	0000e4b7          	lui	s1,0xe
	stack_ptr = z_setup_new_thread(&z_main_thread, z_main_stack,
    6a24:	00f12223          	sw	a5,4(sp)
    6a28:	000076b7          	lui	a3,0x7
    6a2c:	00100793          	li	a5,1
    6a30:	0000e5b7          	lui	a1,0xe
	_kernel.ready_q.cache = &z_main_thread;
    6a34:	bc048913          	addi	s2,s1,-1088 # dbc0 <z_main_thread>
	stack_ptr = z_setup_new_thread(&z_main_thread, z_main_stack,
    6a38:	00000893          	li	a7,0
    6a3c:	00000813          	li	a6,0
    6a40:	00000713          	li	a4,0
    6a44:	95c68693          	addi	a3,a3,-1700 # 695c <bg_thread_main>
    6a48:	40000613          	li	a2,1024
    6a4c:	49058593          	addi	a1,a1,1168 # e490 <z_main_stack>
    6a50:	00f12023          	sw	a5,0(sp)
    6a54:	bc048513          	addi	a0,s1,-1088
    6a58:	00000793          	li	a5,0
	_kernel.ready_q.cache = &z_main_thread;
    6a5c:	01242c23          	sw	s2,24(s0)
	stack_ptr = z_setup_new_thread(&z_main_thread, z_main_stack,
    6a60:	090000ef          	jal	ra,6af0 <z_setup_new_thread>
    6a64:	00d94783          	lbu	a5,13(s2)
	z_ready_thread(&z_main_thread);
    6a68:	bc048513          	addi	a0,s1,-1088
    6a6c:	ffb7f793          	andi	a5,a5,-5
    6a70:	00f906a3          	sb	a5,13(s2)
    6a74:	329000ef          	jal	ra,759c <z_ready_thread>
		init_idle_thread(i);
    6a78:	00000513          	li	a0,0
    6a7c:	e2dff0ef          	jal	ra,68a8 <init_idle_thread>
		_kernel.cpus[i].idle_thread = &z_idle_threads[i];
    6a80:	0000e7b7          	lui	a5,0xe
    6a84:	b1878793          	addi	a5,a5,-1256 # db18 <z_idle_threads>
    6a88:	00f42623          	sw	a5,12(s0)
		_kernel.cpus[i].irq_stack =
    6a8c:	0000f7b7          	lui	a5,0xf
    6a90:	29078793          	addi	a5,a5,656 # f290 <kheap__system_heap>
		_kernel.cpus[i].id = i;
    6a94:	00040a23          	sb	zero,20(s0)
		_kernel.cpus[i].irq_stack =
    6a98:	00f42223          	sw	a5,4(s0)
	__asm__ volatile ("csrrc %0, mstatus, %1"
    6a9c:	00800513          	li	a0,8
    6aa0:	30053573          	csrrc	a0,mstatus,a0
	ret = arch_swap(key);
    6aa4:	00857513          	andi	a0,a0,8
    6aa8:	825f90ef          	jal	ra,2cc <arch_swap>

00006aac <z_impl_k_thread_name_set>:
	k_spin_unlock(&z_thread_monitor_lock, key);
}
#endif

int z_impl_k_thread_name_set(struct k_thread *thread, const char *value)
{
    6aac:	ff010113          	addi	sp,sp,-16
    6ab0:	00812423          	sw	s0,8(sp)
    6ab4:	00112623          	sw	ra,12(sp)
    6ab8:	00050413          	mv	s0,a0
#ifdef CONFIG_THREAD_NAME
	if (thread == NULL) {
    6abc:	00051663          	bnez	a0,6ac8 <z_impl_k_thread_name_set+0x1c>
		thread = _current;
    6ac0:	0000e7b7          	lui	a5,0xe
    6ac4:	c707a403          	lw	s0,-912(a5) # dc70 <_kernel+0x8>
#if __GNUC_PREREQ__(4,8) || defined(__clang__)
__ssp_bos_icheck3_restrict(stpncpy, char *, const char *)
#endif
__ssp_bos_icheck2_restrict(strcpy, char *, const char *)
__ssp_bos_icheck2_restrict(strcat, char *, const char *)
__ssp_bos_icheck3_restrict(strncpy, char *, const char *)
    6ac8:	07840513          	addi	a0,s0,120
    6acc:	01f00613          	li	a2,31
    6ad0:	4c9020ef          	jal	ra,9798 <strncpy>
	}

	strncpy(thread->name, value, CONFIG_THREAD_MAX_NAME_LEN);
	thread->name[CONFIG_THREAD_MAX_NAME_LEN - 1] = '\0';
    6ad4:	08040ba3          	sb	zero,151(s0)

	SYS_PORT_TRACING_OBJ_FUNC(k_thread, name_set, thread, -ENOSYS);

	return -ENOSYS;
#endif /* CONFIG_THREAD_NAME */
}
    6ad8:	00c12083          	lw	ra,12(sp)
    6adc:	00812403          	lw	s0,8(sp)
    6ae0:	00000513          	li	a0,0
    6ae4:	01010113          	addi	sp,sp,16
    6ae8:	00008067          	ret

00006aec <z_impl_k_thread_start>:

void z_impl_k_thread_start(struct k_thread *thread)
{
	SYS_PORT_TRACING_OBJ_FUNC(k_thread, start, thread);

	z_sched_start(thread);
    6aec:	4950006f          	j	7780 <z_sched_start>

00006af0 <z_setup_new_thread>:
char *z_setup_new_thread(struct k_thread *new_thread,
			 k_thread_stack_t *stack, size_t stack_size,
			 k_thread_entry_t entry,
			 void *p1, void *p2, void *p3,
			 int prio, uint32_t options, const char *name)
{
    6af0:	ff010113          	addi	sp,sp,-16
    6af4:	00812423          	sw	s0,8(sp)
    6af8:	00912223          	sw	s1,4(sp)
    6afc:	01212023          	sw	s2,0(sp)
    6b00:	00112623          	sw	ra,12(sp)
	SYS_DLIST_FOR_EACH_CONTAINER(&((wq)->waitq), thread_ptr, \
				     base.qnode_dlist)

static inline void z_waitq_init(_wait_q_t *w)
{
	sys_dlist_init(&w->waitq);
    6b04:	07050313          	addi	t1,a0,112
 * @return N/A
 */

static inline void sys_dlist_init(sys_dlist_t *list)
{
	list->head = (sys_dnode_t *)list;
    6b08:	06652823          	sw	t1,112(a0)
	list->tail = (sys_dnode_t *)list;
    6b0c:	06652a23          	sw	t1,116(a0)
void z_init_thread_base(struct _thread_base *thread_base, int priority,
		       uint32_t initial_state, unsigned int options)
{
	/* k_q_node is initialized upon first insertion in a list */
	thread_base->pended_on = NULL;
	thread_base->user_options = (uint8_t)options;
    6b10:	01012303          	lw	t1,16(sp)
		stack_obj_size = Z_KERNEL_STACK_SIZE_ADJUST(stack_size);
    6b14:	00f60613          	addi	a2,a2,15
    6b18:	ff067613          	andi	a2,a2,-16
	thread_base->user_options = (uint8_t)options;
    6b1c:	00650623          	sb	t1,12(a0)
	stack_ptr = (char *)stack + stack_obj_size;
    6b20:	00c584b3          	add	s1,a1,a2
	thread_base->thread_state = (uint8_t)initial_state;
    6b24:	00400313          	li	t1,4
{
    6b28:	01412903          	lw	s2,20(sp)
    6b2c:	00050413          	mv	s0,a0
	thread_base->pended_on = NULL;
    6b30:	00052423          	sw	zero,8(a0)
	thread_base->thread_state = (uint8_t)initial_state;
    6b34:	006506a3          	sb	t1,13(a0)

	thread_base->prio = priority;
    6b38:	01150723          	sb	a7,14(a0)

	thread_base->sched_locked = 0U;
    6b3c:	000507a3          	sb	zero,15(a0)
 * @return N/A
 */

static inline void sys_dnode_init(sys_dnode_t *node)
{
	node->next = NULL;
    6b40:	02052023          	sw	zero,32(a0)
	node->prev = NULL;
    6b44:	02052223          	sw	zero,36(a0)
	arch_new_thread(new_thread, stack, stack_ptr, entry, p1, p2, p3);
    6b48:	00048613          	mv	a2,s1
    6b4c:	928ff0ef          	jal	ra,5c74 <arch_new_thread>
	new_thread->init_data = NULL;
    6b50:	06042623          	sw	zero,108(s0)
	if (name != NULL) {
    6b54:	04090663          	beqz	s2,6ba0 <z_setup_new_thread+0xb0>
    6b58:	01f00613          	li	a2,31
    6b5c:	00090593          	mv	a1,s2
    6b60:	07840513          	addi	a0,s0,120
    6b64:	435020ef          	jal	ra,9798 <strncpy>
		new_thread->name[CONFIG_THREAD_MAX_NAME_LEN - 1] = '\0';
    6b68:	08040ba3          	sb	zero,151(s0)
	new_thread->base.cpu_mask = -1;
    6b6c:	fff00793          	li	a5,-1
    6b70:	00f40a23          	sb	a5,20(s0)
	new_thread->resource_pool = _current->resource_pool;
    6b74:	0000e7b7          	lui	a5,0xe
    6b78:	c707a783          	lw	a5,-912(a5) # dc70 <_kernel+0x8>
}
    6b7c:	00c12083          	lw	ra,12(sp)
    6b80:	00012903          	lw	s2,0(sp)
	new_thread->resource_pool = _current->resource_pool;
    6b84:	09c7a783          	lw	a5,156(a5)
}
    6b88:	00048513          	mv	a0,s1
    6b8c:	00412483          	lw	s1,4(sp)
	new_thread->resource_pool = _current->resource_pool;
    6b90:	08f42e23          	sw	a5,156(s0)
}
    6b94:	00812403          	lw	s0,8(sp)
    6b98:	01010113          	addi	sp,sp,16
    6b9c:	00008067          	ret
		new_thread->name[0] = '\0';
    6ba0:	06040c23          	sb	zero,120(s0)
    6ba4:	fc9ff06f          	j	6b6c <z_setup_new_thread+0x7c>

00006ba8 <z_impl_k_thread_create>:
{
    6ba8:	fe010113          	addi	sp,sp,-32
	z_setup_new_thread(new_thread, stack, stack_size, entry, p1, p2, p3,
    6bac:	02012303          	lw	t1,32(sp)
{
    6bb0:	01212823          	sw	s2,16(sp)
	z_setup_new_thread(new_thread, stack, stack_size, entry, p1, p2, p3,
    6bb4:	00012223          	sw	zero,4(sp)
{
    6bb8:	02812903          	lw	s2,40(sp)
	z_setup_new_thread(new_thread, stack, stack_size, entry, p1, p2, p3,
    6bbc:	00612023          	sw	t1,0(sp)
{
    6bc0:	00812c23          	sw	s0,24(sp)
    6bc4:	00912a23          	sw	s1,20(sp)
    6bc8:	00112e23          	sw	ra,28(sp)
    6bcc:	02c12483          	lw	s1,44(sp)
    6bd0:	00050413          	mv	s0,a0
	z_setup_new_thread(new_thread, stack, stack_size, entry, p1, p2, p3,
    6bd4:	f1dff0ef          	jal	ra,6af0 <z_setup_new_thread>
	if (!K_TIMEOUT_EQ(delay, K_FOREVER)) {
    6bd8:	fff00693          	li	a3,-1
    6bdc:	00d91463          	bne	s2,a3,6be4 <z_impl_k_thread_create+0x3c>
    6be0:	01248a63          	beq	s1,s2,6bf4 <z_impl_k_thread_create+0x4c>
	if (K_TIMEOUT_EQ(delay, K_NO_WAIT)) {
    6be4:	0124e7b3          	or	a5,s1,s2
    6be8:	02079463          	bnez	a5,6c10 <z_impl_k_thread_create+0x68>
	z_sched_start(thread);
    6bec:	00040513          	mv	a0,s0
    6bf0:	391000ef          	jal	ra,7780 <z_sched_start>
}
    6bf4:	01c12083          	lw	ra,28(sp)
    6bf8:	00040513          	mv	a0,s0
    6bfc:	01812403          	lw	s0,24(sp)
    6c00:	01412483          	lw	s1,20(sp)
    6c04:	01012903          	lw	s2,16(sp)
    6c08:	02010113          	addi	sp,sp,32
    6c0c:	00008067          	ret

extern void z_thread_timeout(struct _timeout *timeout);

static inline void z_add_thread_timeout(struct k_thread *thread, k_timeout_t ticks)
{
	z_add_timeout(&thread->base.timeout, z_thread_timeout, ticks);
    6c10:	000075b7          	lui	a1,0x7
    6c14:	00090613          	mv	a2,s2
    6c18:	00048693          	mv	a3,s1
    6c1c:	2cc58593          	addi	a1,a1,716 # 72cc <z_thread_timeout>
    6c20:	02040513          	addi	a0,s0,32
    6c24:	1e0010ef          	jal	ra,7e04 <z_add_timeout>
    6c28:	fcdff06f          	j	6bf4 <z_impl_k_thread_create+0x4c>

00006c2c <z_init_static_threads>:
{
    6c2c:	fd010113          	addi	sp,sp,-48
	_FOREACH_STATIC_THREAD(thread_data) {
    6c30:	0002f7b7          	lui	a5,0x2f
{
    6c34:	03212023          	sw	s2,32(sp)
	_FOREACH_STATIC_THREAD(thread_data) {
    6c38:	0002f937          	lui	s2,0x2f
{
    6c3c:	02812423          	sw	s0,40(sp)
    6c40:	02912223          	sw	s1,36(sp)
    6c44:	02112623          	sw	ra,44(sp)
    6c48:	01312e23          	sw	s3,28(sp)
    6c4c:	01412c23          	sw	s4,24(sp)
    6c50:	01512a23          	sw	s5,20(sp)
	_FOREACH_STATIC_THREAD(thread_data) {
    6c54:	69478413          	addi	s0,a5,1684 # 2f694 <_system_heap>
    6c58:	69478493          	addi	s1,a5,1684
    6c5c:	69490913          	addi	s2,s2,1684 # 2f694 <_system_heap>
    6c60:	05246063          	bltu	s0,s2,6ca0 <z_init_static_threads+0x74>
	k_sched_lock();
    6c64:	449000ef          	jal	ra,78ac <k_sched_lock>
	_FOREACH_STATIC_THREAD(thread_data) {
    6c68:	00048413          	mv	s0,s1
		if (thread_data->init_delay != K_TICKS_FOREVER) {
    6c6c:	fff00993          	li	s3,-1
		t += off;
    6c70:	00900a13          	li	s4,9
    6c74:	00007ab7          	lui	s5,0x7
	_FOREACH_STATIC_THREAD(thread_data) {
    6c78:	07246663          	bltu	s0,s2,6ce4 <z_init_static_threads+0xb8>
}
    6c7c:	02812403          	lw	s0,40(sp)
    6c80:	02c12083          	lw	ra,44(sp)
    6c84:	02412483          	lw	s1,36(sp)
    6c88:	02012903          	lw	s2,32(sp)
    6c8c:	01c12983          	lw	s3,28(sp)
    6c90:	01812a03          	lw	s4,24(sp)
    6c94:	01412a83          	lw	s5,20(sp)
    6c98:	03010113          	addi	sp,sp,48
	k_sched_unlock();
    6c9c:	4390006f          	j	78d4 <k_sched_unlock>
		z_setup_new_thread(
    6ca0:	02c42783          	lw	a5,44(s0)
    6ca4:	00f12223          	sw	a5,4(sp)
    6ca8:	02042783          	lw	a5,32(s0)
    6cac:	00f12023          	sw	a5,0(sp)
    6cb0:	01442783          	lw	a5,20(s0)
    6cb4:	01c42883          	lw	a7,28(s0)
    6cb8:	01842803          	lw	a6,24(s0)
    6cbc:	01042703          	lw	a4,16(s0)
    6cc0:	00c42683          	lw	a3,12(s0)
    6cc4:	00842603          	lw	a2,8(s0)
    6cc8:	00442583          	lw	a1,4(s0)
    6ccc:	00042503          	lw	a0,0(s0)
    6cd0:	e21ff0ef          	jal	ra,6af0 <z_setup_new_thread>
		thread_data->init_thread->init_data = thread_data;
    6cd4:	00042783          	lw	a5,0(s0)
    6cd8:	0687a623          	sw	s0,108(a5)
	_FOREACH_STATIC_THREAD(thread_data) {
    6cdc:	03040413          	addi	s0,s0,48
    6ce0:	f81ff06f          	j	6c60 <z_init_static_threads+0x34>
		if (thread_data->init_delay != K_TICKS_FOREVER) {
    6ce4:	02442783          	lw	a5,36(s0)
    6ce8:	03378863          	beq	a5,s3,6d18 <z_init_static_threads+0xec>
			schedule_new_thread(thread_data->init_thread,
    6cec:	00042483          	lw	s1,0(s0)
					    K_MSEC(thread_data->init_delay));
    6cf0:	0007d463          	bgez	a5,6cf8 <z_init_static_threads+0xcc>
    6cf4:	00000793          	li	a5,0
    6cf8:	00978513          	addi	a0,a5,9
    6cfc:	41f7d593          	srai	a1,a5,0x1f
    6d00:	00f537b3          	sltu	a5,a0,a5
    6d04:	00b785b3          	add	a1,a5,a1
	if (K_TIMEOUT_EQ(delay, K_NO_WAIT)) {
    6d08:	01451c63          	bne	a0,s4,6d20 <z_init_static_threads+0xf4>
    6d0c:	00059a63          	bnez	a1,6d20 <z_init_static_threads+0xf4>
	z_sched_start(thread);
    6d10:	00048513          	mv	a0,s1
    6d14:	26d000ef          	jal	ra,7780 <z_sched_start>
	_FOREACH_STATIC_THREAD(thread_data) {
    6d18:	03040413          	addi	s0,s0,48
    6d1c:	f5dff06f          	j	6c78 <z_init_static_threads+0x4c>
			return t / ((uint64_t)from_hz / to_hz);
    6d20:	00a00613          	li	a2,10
    6d24:	00000693          	li	a3,0
    6d28:	e64f90ef          	jal	ra,38c <__udivdi3>
    6d2c:	00050613          	mv	a2,a0
    6d30:	00058693          	mv	a3,a1
    6d34:	02048513          	addi	a0,s1,32
    6d38:	2cca8593          	addi	a1,s5,716 # 72cc <z_thread_timeout>
    6d3c:	0c8010ef          	jal	ra,7e04 <z_add_timeout>
    6d40:	fd9ff06f          	j	6d18 <z_init_static_threads+0xec>

00006d44 <idle>:
#endif	/* CONFIG_PM */
	sys_clock_idle_exit();
}

void idle(void *unused1, void *unused2, void *unused3)
{
    6d44:	ff010113          	addi	sp,sp,-16
    6d48:	00812423          	sw	s0,8(sp)
    6d4c:	00112623          	sw	ra,12(sp)
    6d50:	00800413          	li	s0,8
    6d54:	300437f3          	csrrc	a5,mstatus,s0
 *
 * @return N/A
 */
static inline void k_cpu_idle(void)
{
	arch_cpu_idle();
    6d58:	e8dfe0ef          	jal	ra,5be4 <arch_cpu_idle>
    6d5c:	ff9ff06f          	j	6d54 <idle+0x10>

00006d60 <adjust_owner_prio.isra.0>:
	return new_prio;
}

static bool adjust_owner_prio(struct k_mutex *mutex, int32_t new_prio)
{
	if (mutex->owner->base.prio != new_prio) {
    6d60:	00e50783          	lb	a5,14(a0)
    6d64:	00b78463          	beq	a5,a1,6d6c <adjust_owner_prio.isra.0+0xc>
		LOG_DBG("%p (ready (y/n): %c) prio changed to %d (was %d)",
			mutex->owner, z_is_thread_ready(mutex->owner) ?
			'y' : 'n',
			new_prio, mutex->owner->base.prio);

		return z_set_prio(mutex->owner, new_prio);
    6d68:	0e90006f          	j	7650 <z_set_prio>
	}
	return false;
}
    6d6c:	00000513          	li	a0,0
    6d70:	00008067          	ret

00006d74 <z_impl_k_mutex_init>:
	mutex->owner = NULL;
    6d74:	00052423          	sw	zero,8(a0)
	mutex->lock_count = 0U;
    6d78:	00052623          	sw	zero,12(a0)
	list->head = (sys_dnode_t *)list;
    6d7c:	00a52023          	sw	a0,0(a0)
	list->tail = (sys_dnode_t *)list;
    6d80:	00a52223          	sw	a0,4(a0)
}
    6d84:	00000513          	li	a0,0
    6d88:	00008067          	ret

00006d8c <z_impl_k_mutex_lock>:

int z_impl_k_mutex_lock(struct k_mutex *mutex, k_timeout_t timeout)
{
    6d8c:	fd010113          	addi	sp,sp,-48
    6d90:	02812423          	sw	s0,40(sp)
    6d94:	02912223          	sw	s1,36(sp)
    6d98:	02112623          	sw	ra,44(sp)
    6d9c:	03212023          	sw	s2,32(sp)
    6da0:	01312e23          	sw	s3,28(sp)
    6da4:	00050413          	mv	s0,a0
    6da8:	00060713          	mv	a4,a2
    6dac:	00800493          	li	s1,8
    6db0:	3004b4f3          	csrrc	s1,mstatus,s1

	SYS_PORT_TRACING_OBJ_FUNC_ENTER(k_mutex, lock, mutex, timeout);

	key = k_spin_lock(&lock);

	if (likely((mutex->lock_count == 0U) || (mutex->owner == _current))) {
    6db4:	00c52603          	lw	a2,12(a0)
    6db8:	0000e7b7          	lui	a5,0xe
	key = (mstatus & MSTATUS_IEN);
    6dbc:	0084f493          	andi	s1,s1,8
    6dc0:	c6878793          	addi	a5,a5,-920 # dc68 <_kernel>
    6dc4:	02060463          	beqz	a2,6dec <z_impl_k_mutex_lock+0x60>
    6dc8:	00058693          	mv	a3,a1
    6dcc:	00852503          	lw	a0,8(a0)
    6dd0:	0087a583          	lw	a1,8(a5)
    6dd4:	04b50c63          	beq	a0,a1,6e2c <z_impl_k_mutex_lock+0xa0>
		SYS_PORT_TRACING_OBJ_FUNC_EXIT(k_mutex, lock, mutex, timeout, 0);

		return 0;
	}

	if (unlikely(K_TIMEOUT_EQ(timeout, K_NO_WAIT))) {
    6dd8:	00e6e7b3          	or	a5,a3,a4
    6ddc:	04079c63          	bnez	a5,6e34 <z_impl_k_mutex_lock+0xa8>
	__asm__ volatile ("csrrs %0, mstatus, %1"
    6de0:	3004a4f3          	csrrs	s1,mstatus,s1
		k_spin_unlock(&lock, key);

		SYS_PORT_TRACING_OBJ_FUNC_EXIT(k_mutex, lock, mutex, timeout, -EBUSY);

		return -EBUSY;
    6de4:	ff000513          	li	a0,-16
    6de8:	0280006f          	j	6e10 <z_impl_k_mutex_lock+0x84>
					_current->base.prio :
    6dec:	0087a703          	lw	a4,8(a5)
    6df0:	00e70703          	lb	a4,14(a4)
		mutex->owner = _current;
    6df4:	0087a783          	lw	a5,8(a5)
		mutex->lock_count++;
    6df8:	00160613          	addi	a2,a2,1
		mutex->owner_orig_prio = (mutex->lock_count == 0U) ?
    6dfc:	00e42823          	sw	a4,16(s0)
		mutex->lock_count++;
    6e00:	00c42623          	sw	a2,12(s0)
		mutex->owner = _current;
    6e04:	00f42423          	sw	a5,8(s0)
    6e08:	3004a4f3          	csrrs	s1,mstatus,s1
		return 0;
    6e0c:	00000513          	li	a0,0
	}

	SYS_PORT_TRACING_OBJ_FUNC_EXIT(k_mutex, lock, mutex, timeout, -EAGAIN);

	return -EAGAIN;
}
    6e10:	02c12083          	lw	ra,44(sp)
    6e14:	02812403          	lw	s0,40(sp)
    6e18:	02412483          	lw	s1,36(sp)
    6e1c:	02012903          	lw	s2,32(sp)
    6e20:	01c12983          	lw	s3,28(sp)
    6e24:	03010113          	addi	sp,sp,48
    6e28:	00008067          	ret
					_current->base.prio :
    6e2c:	01042703          	lw	a4,16(s0)
    6e30:	fc5ff06f          	j	6df4 <z_impl_k_mutex_lock+0x68>
	new_prio = new_prio_for_inheritance(_current->base.prio,
    6e34:	00e50783          	lb	a5,14(a0)
    6e38:	00e58583          	lb	a1,14(a1)
    6e3c:	00b7d463          	bge	a5,a1,6e44 <z_impl_k_mutex_lock+0xb8>
    6e40:	00078593          	mv	a1,a5
    6e44:	f8100613          	li	a2,-127
    6e48:	00c5d463          	bge	a1,a2,6e50 <z_impl_k_mutex_lock+0xc4>
    6e4c:	f8100593          	li	a1,-127
	bool resched = false;
    6e50:	00000993          	li	s3,0
	if (z_is_prio_higher(new_prio, mutex->owner->base.prio)) {
    6e54:	00f5de63          	bge	a1,a5,6e70 <z_impl_k_mutex_lock+0xe4>
    6e58:	00e12623          	sw	a4,12(sp)
    6e5c:	00d12423          	sw	a3,8(sp)
		resched = adjust_owner_prio(mutex, new_prio);
    6e60:	f01ff0ef          	jal	ra,6d60 <adjust_owner_prio.isra.0>
    6e64:	00c12703          	lw	a4,12(sp)
    6e68:	00812683          	lw	a3,8(sp)
    6e6c:	00050993          	mv	s3,a0
	int got_mutex = z_pend_curr(&lock, key, &mutex->wait_q, timeout);
    6e70:	0000e937          	lui	s2,0xe
    6e74:	00040613          	mv	a2,s0
    6e78:	00048593          	mv	a1,s1
    6e7c:	c8c90513          	addi	a0,s2,-884 # dc8c <sched_spinlock>
    6e80:	74c000ef          	jal	ra,75cc <z_pend_curr>
	if (got_mutex == 0) {
    6e84:	f80506e3          	beqz	a0,6e10 <z_impl_k_mutex_lock+0x84>
	__asm__ volatile ("csrrc %0, mstatus, %1"
    6e88:	00800493          	li	s1,8
    6e8c:	3004b4f3          	csrrc	s1,mstatus,s1
	if (likely(mutex->owner != NULL)) {
    6e90:	00842503          	lw	a0,8(s0)
	key = (mstatus & MSTATUS_IEN);
    6e94:	0084f493          	andi	s1,s1,8
    6e98:	02050a63          	beqz	a0,6ecc <z_impl_k_mutex_lock+0x140>
 * @return true if empty, false otherwise
 */

static inline bool sys_dlist_is_empty(sys_dlist_t *list)
{
	return list->head == list;
    6e9c:	00042783          	lw	a5,0(s0)
			new_prio_for_inheritance(waiter->base.prio, mutex->owner_orig_prio) :
    6ea0:	01042583          	lw	a1,16(s0)
 * @return a pointer to the head element, NULL if list is empty
 */

static inline sys_dnode_t *sys_dlist_peek_head(sys_dlist_t *list)
{
	return sys_dlist_is_empty(list) ? NULL : list->head;
    6ea4:	02f40063          	beq	s0,a5,6ec4 <z_impl_k_mutex_lock+0x138>
    6ea8:	00078e63          	beqz	a5,6ec4 <z_impl_k_mutex_lock+0x138>
    6eac:	00e78783          	lb	a5,14(a5)
    6eb0:	00b7d463          	bge	a5,a1,6eb8 <z_impl_k_mutex_lock+0x12c>
    6eb4:	00078593          	mv	a1,a5
    6eb8:	f8100793          	li	a5,-127
    6ebc:	00f5d463          	bge	a1,a5,6ec4 <z_impl_k_mutex_lock+0x138>
    6ec0:	f8100593          	li	a1,-127
		resched = adjust_owner_prio(mutex, new_prio) || resched;
    6ec4:	e9dff0ef          	jal	ra,6d60 <adjust_owner_prio.isra.0>
    6ec8:	00051463          	bnez	a0,6ed0 <z_impl_k_mutex_lock+0x144>
	if (resched) {
    6ecc:	00098c63          	beqz	s3,6ee4 <z_impl_k_mutex_lock+0x158>
		z_reschedule(&lock, key);
    6ed0:	00048593          	mv	a1,s1
    6ed4:	c8c90513          	addi	a0,s2,-884
    6ed8:	075000ef          	jal	ra,774c <z_reschedule>
	return -EAGAIN;
    6edc:	ff500513          	li	a0,-11
    6ee0:	f31ff06f          	j	6e10 <z_impl_k_mutex_lock+0x84>
	__asm__ volatile ("csrrs %0, mstatus, %1"
    6ee4:	3004a4f3          	csrrs	s1,mstatus,s1
    6ee8:	ff5ff06f          	j	6edc <z_impl_k_mutex_lock+0x150>

00006eec <z_impl_k_mutex_unlock>:

	__ASSERT(!arch_is_in_isr(), "mutexes cannot be used inside ISRs");

	SYS_PORT_TRACING_OBJ_FUNC_ENTER(k_mutex, unlock, mutex);

	CHECKIF(mutex->owner == NULL) {
    6eec:	00852783          	lw	a5,8(a0)
    6ef0:	0a078e63          	beqz	a5,6fac <z_impl_k_mutex_unlock+0xc0>
		return -EINVAL;
	}
	/*
	 * The current thread does not own the mutex.
	 */
	CHECKIF(mutex->owner != _current) {
    6ef4:	0000e737          	lui	a4,0xe
    6ef8:	c7072703          	lw	a4,-912(a4) # dc70 <_kernel+0x8>
{
    6efc:	ff010113          	addi	sp,sp,-16
    6f00:	00812423          	sw	s0,8(sp)
    6f04:	00112623          	sw	ra,12(sp)
    6f08:	00912223          	sw	s1,4(sp)
    6f0c:	00050413          	mv	s0,a0
		SYS_PORT_TRACING_OBJ_FUNC_EXIT(k_mutex, unlock, mutex, -EPERM);

		return -EPERM;
    6f10:	fff00513          	li	a0,-1
	CHECKIF(mutex->owner != _current) {
    6f14:	02e79663          	bne	a5,a4,6f40 <z_impl_k_mutex_unlock+0x54>
static inline void z_sched_lock(void)
{
	__ASSERT(!arch_is_in_isr(), "");
	__ASSERT(_current->base.sched_locked != 1U, "");

	--_current->base.sched_locked;
    6f18:	00f7c703          	lbu	a4,15(a5)
    6f1c:	fff70713          	addi	a4,a4,-1
    6f20:	00e787a3          	sb	a4,15(a5)

	/*
	 * If we are the owner and count is greater than 1, then decrement
	 * the count and return and keep current thread as the owner.
	 */
	if (mutex->lock_count > 1U) {
    6f24:	00c42783          	lw	a5,12(s0)
    6f28:	00100713          	li	a4,1
    6f2c:	02f77463          	bgeu	a4,a5,6f54 <z_impl_k_mutex_unlock+0x68>
		mutex->lock_count--;
    6f30:	fff78793          	addi	a5,a5,-1
    6f34:	00f42623          	sw	a5,12(s0)


k_mutex_unlock_return:
	SYS_PORT_TRACING_OBJ_FUNC_EXIT(k_mutex, unlock, mutex, 0);

	k_sched_unlock();
    6f38:	19d000ef          	jal	ra,78d4 <k_sched_unlock>

	return 0;
    6f3c:	00000513          	li	a0,0
}
    6f40:	00c12083          	lw	ra,12(sp)
    6f44:	00812403          	lw	s0,8(sp)
    6f48:	00412483          	lw	s1,4(sp)
    6f4c:	01010113          	addi	sp,sp,16
    6f50:	00008067          	ret
	__asm__ volatile ("csrrc %0, mstatus, %1"
    6f54:	00800493          	li	s1,8
    6f58:	3004b4f3          	csrrc	s1,mstatus,s1
	adjust_owner_prio(mutex, mutex->owner_orig_prio);
    6f5c:	01042583          	lw	a1,16(s0)
    6f60:	00842503          	lw	a0,8(s0)
	key = (mstatus & MSTATUS_IEN);
    6f64:	0084f493          	andi	s1,s1,8
    6f68:	df9ff0ef          	jal	ra,6d60 <adjust_owner_prio.isra.0>
	new_owner = z_unpend_first_thread(&mutex->wait_q);
    6f6c:	00040513          	mv	a0,s0
    6f70:	1c1000ef          	jal	ra,7930 <z_unpend_first_thread>
	mutex->owner = new_owner;
    6f74:	00a42423          	sw	a0,8(s0)
	if (new_owner != NULL) {
    6f78:	02050463          	beqz	a0,6fa0 <z_impl_k_mutex_unlock+0xb4>
		mutex->owner_orig_prio = new_owner->base.prio;
    6f7c:	00e50703          	lb	a4,14(a0)
    6f80:	00e42823          	sw	a4,16(s0)
}

static ALWAYS_INLINE void
arch_thread_return_value_set(struct k_thread *thread, unsigned int value)
{
	thread->arch.swap_return_value = value;
    6f84:	0a052023          	sw	zero,160(a0)
		z_ready_thread(new_owner);
    6f88:	614000ef          	jal	ra,759c <z_ready_thread>
		z_reschedule(&lock, key);
    6f8c:	0000e537          	lui	a0,0xe
    6f90:	00048593          	mv	a1,s1
    6f94:	c8c50513          	addi	a0,a0,-884 # dc8c <sched_spinlock>
    6f98:	7b4000ef          	jal	ra,774c <z_reschedule>
    6f9c:	f9dff06f          	j	6f38 <z_impl_k_mutex_unlock+0x4c>
		mutex->lock_count = 0U;
    6fa0:	00042623          	sw	zero,12(s0)
	__asm__ volatile ("csrrs %0, mstatus, %1"
    6fa4:	3004a4f3          	csrrs	s1,mstatus,s1
    6fa8:	f91ff06f          	j	6f38 <z_impl_k_mutex_unlock+0x4c>
		return -EINVAL;
    6fac:	fea00513          	li	a0,-22
}
    6fb0:	00008067          	ret

00006fb4 <z_impl_k_sem_give>:
	ARG_UNUSED(sem);
#endif
}

void z_impl_k_sem_give(struct k_sem *sem)
{
    6fb4:	ff010113          	addi	sp,sp,-16
    6fb8:	00812423          	sw	s0,8(sp)
    6fbc:	00912223          	sw	s1,4(sp)
    6fc0:	00112623          	sw	ra,12(sp)
    6fc4:	00050493          	mv	s1,a0
	__asm__ volatile ("csrrc %0, mstatus, %1"
    6fc8:	00800413          	li	s0,8
    6fcc:	30043473          	csrrc	s0,mstatus,s0
	key = (mstatus & MSTATUS_IEN);
    6fd0:	00847413          	andi	s0,s0,8
	k_spinlock_key_t key = k_spin_lock(&lock);
	struct k_thread *thread;

	SYS_PORT_TRACING_OBJ_FUNC_ENTER(k_sem, give, sem);

	thread = z_unpend_first_thread(&sem->wait_q);
    6fd4:	15d000ef          	jal	ra,7930 <z_unpend_first_thread>

	if (thread != NULL) {
    6fd8:	02050663          	beqz	a0,7004 <z_impl_k_sem_give+0x50>
    6fdc:	0a052023          	sw	zero,160(a0)
		arch_thread_return_value_set(thread, 0);
		z_ready_thread(thread);
    6fe0:	5bc000ef          	jal	ra,759c <z_ready_thread>
	} else {
		sem->count += (sem->count != sem->limit) ? 1U : 0U;
		handle_poll_events(sem);
	}

	z_reschedule(&lock, key);
    6fe4:	00040593          	mv	a1,s0

	SYS_PORT_TRACING_OBJ_FUNC_EXIT(k_sem, give, sem);
}
    6fe8:	00812403          	lw	s0,8(sp)
    6fec:	00c12083          	lw	ra,12(sp)
    6ff0:	00412483          	lw	s1,4(sp)
	z_reschedule(&lock, key);
    6ff4:	0000e537          	lui	a0,0xe
    6ff8:	c8c50513          	addi	a0,a0,-884 # dc8c <sched_spinlock>
}
    6ffc:	01010113          	addi	sp,sp,16
	z_reschedule(&lock, key);
    7000:	74c0006f          	j	774c <z_reschedule>
		sem->count += (sem->count != sem->limit) ? 1U : 0U;
    7004:	0084a703          	lw	a4,8(s1)
    7008:	00c4a783          	lw	a5,12(s1)
    700c:	40e787b3          	sub	a5,a5,a4
    7010:	00f037b3          	snez	a5,a5
    7014:	00e787b3          	add	a5,a5,a4
    7018:	00f4a423          	sw	a5,8(s1)
}
    701c:	fc9ff06f          	j	6fe4 <z_impl_k_sem_give+0x30>

00007020 <sys_dlist_remove>:
 * @return N/A
 */

static inline void sys_dlist_remove(sys_dnode_t *node)
{
	sys_dnode_t *const prev = node->prev;
    7020:	00452703          	lw	a4,4(a0)
	sys_dnode_t *const next = node->next;
    7024:	00052783          	lw	a5,0(a0)

	prev->next = next;
    7028:	00f72023          	sw	a5,0(a4)
	next->prev = prev;
    702c:	00e7a223          	sw	a4,4(a5)
	node->next = NULL;
    7030:	00052023          	sw	zero,0(a0)
	node->prev = NULL;
    7034:	00052223          	sw	zero,4(a0)
	sys_dnode_init(node);
}
    7038:	00008067          	ret

0000703c <unpend_thread_no_timeout>:
		pend_locked(thread, wait_q, timeout);
	}
}

static inline void unpend_thread_no_timeout(struct k_thread *thread)
{
    703c:	ff010113          	addi	sp,sp,-16
    7040:	00812423          	sw	s0,8(sp)
    7044:	00112623          	sw	ra,12(sp)
    7048:	00050413          	mv	s0,a0

void z_priq_dumb_remove(sys_dlist_t *pq, struct k_thread *thread)
{
	__ASSERT_NO_MSG(!z_is_idle_thread_object(thread));

	sys_dlist_remove(&thread->base.qnode_dlist);
    704c:	fd5ff0ef          	jal	ra,7020 <sys_dlist_remove>
	thread->base.thread_state &= ~_THREAD_PENDING;
    7050:	00d44783          	lbu	a5,13(s0)
}
    7054:	00c12083          	lw	ra,12(sp)
	thread->base.pended_on = NULL;
    7058:	00042423          	sw	zero,8(s0)
    705c:	ffd7f793          	andi	a5,a5,-3
    7060:	00f406a3          	sb	a5,13(s0)
}
    7064:	00812403          	lw	s0,8(sp)
    7068:	01010113          	addi	sp,sp,16
    706c:	00008067          	ret

00007070 <z_reset_time_slice>:
{
    7070:	ff010113          	addi	sp,sp,-16
    7074:	00812423          	sw	s0,8(sp)
	if (slice_time != 0) {
    7078:	0000e437          	lui	s0,0xe
    707c:	9b040413          	addi	s0,s0,-1616 # d9b0 <slice_time>
    7080:	00042783          	lw	a5,0(s0)
{
    7084:	00112623          	sw	ra,12(sp)
	if (slice_time != 0) {
    7088:	02078863          	beqz	a5,70b8 <z_reset_time_slice+0x48>
		_current_cpu->slice_ticks = slice_time + sys_clock_elapsed();
    708c:	eb8ff0ef          	jal	ra,6744 <sys_clock_elapsed>
    7090:	00050793          	mv	a5,a0
    7094:	00042503          	lw	a0,0(s0)
}
    7098:	00812403          	lw	s0,8(sp)
    709c:	00c12083          	lw	ra,12(sp)
		_current_cpu->slice_ticks = slice_time + sys_clock_elapsed();
    70a0:	00f507b3          	add	a5,a0,a5
    70a4:	0000e737          	lui	a4,0xe
    70a8:	c6f72c23          	sw	a5,-904(a4) # dc78 <_kernel+0x10>
		z_set_timeout_expiry(slice_time, false);
    70ac:	00000593          	li	a1,0
}
    70b0:	01010113          	addi	sp,sp,16
		z_set_timeout_expiry(slice_time, false);
    70b4:	7450006f          	j	7ff8 <z_set_timeout_expiry>
}
    70b8:	00c12083          	lw	ra,12(sp)
    70bc:	00812403          	lw	s0,8(sp)
    70c0:	01010113          	addi	sp,sp,16
    70c4:	00008067          	ret

000070c8 <update_cache>:
{
    70c8:	ff010113          	addi	sp,sp,-16
    70cc:	00912223          	sw	s1,4(sp)
	return list->head == list;
    70d0:	0000e4b7          	lui	s1,0xe
    70d4:	c6848793          	addi	a5,s1,-920 # dc68 <_kernel>
    70d8:	00812423          	sw	s0,8(sp)
    70dc:	01c7a403          	lw	s0,28(a5)
	return sys_dlist_is_empty(list) ? NULL : list->head;
    70e0:	0000e7b7          	lui	a5,0xe
    70e4:	00112623          	sw	ra,12(sp)
    70e8:	c8478793          	addi	a5,a5,-892 # dc84 <_kernel+0x1c>
    70ec:	c6848493          	addi	s1,s1,-920
    70f0:	02f40863          	beq	s0,a5,7120 <update_cache+0x58>
	SYS_DLIST_FOR_EACH_CONTAINER(pq, thread, base.qnode_dlist) {
    70f4:	02040663          	beqz	s0,7120 <update_cache+0x58>
		if ((thread->base.cpu_mask & BIT(_current_cpu->id)) != 0) {
    70f8:	0144c703          	lbu	a4,20(s1)
	return (node == list->tail) ? NULL : node->next;
    70fc:	0204a683          	lw	a3,32(s1)
    7100:	00100793          	li	a5,1
    7104:	00e797b3          	sll	a5,a5,a4
    7108:	01444703          	lbu	a4,20(s0)
    710c:	00f77733          	and	a4,a4,a5
    7110:	00071a63          	bnez	a4,7124 <update_cache+0x5c>
    7114:	00d40663          	beq	s0,a3,7120 <update_cache+0x58>
    7118:	00042403          	lw	s0,0(s0)
	SYS_DLIST_FOR_EACH_CONTAINER(pq, thread, base.qnode_dlist) {
    711c:	fe0416e3          	bnez	s0,7108 <update_cache+0x40>
	return (thread != NULL) ? thread : _current_cpu->idle_thread;
    7120:	00c4a403          	lw	s0,12(s1)
	if (z_is_thread_prevented_from_running(_current)) {
    7124:	0084a783          	lw	a5,8(s1)
	if (preempt_ok != 0) {
    7128:	02051a63          	bnez	a0,715c <update_cache+0x94>
	if (z_is_thread_prevented_from_running(_current)) {
    712c:	00d7c703          	lbu	a4,13(a5)
    7130:	01f77713          	andi	a4,a4,31
    7134:	02071463          	bnez	a4,715c <update_cache+0x94>
	if (is_preempt(_current) || is_metairq(thread)) {
    7138:	00e7d683          	lhu	a3,14(a5)
    713c:	07f00713          	li	a4,127
    7140:	00d77e63          	bgeu	a4,a3,715c <update_cache+0x94>
		_kernel.ready_q.cache = _current;
    7144:	00f4ac23          	sw	a5,24(s1)
}
    7148:	00c12083          	lw	ra,12(sp)
    714c:	00812403          	lw	s0,8(sp)
    7150:	00412483          	lw	s1,4(sp)
    7154:	01010113          	addi	sp,sp,16
    7158:	00008067          	ret
		if (thread != _current) {
    715c:	00878463          	beq	a5,s0,7164 <update_cache+0x9c>
			z_reset_time_slice();
    7160:	f11ff0ef          	jal	ra,7070 <z_reset_time_slice>
		_kernel.ready_q.cache = thread;
    7164:	0084ac23          	sw	s0,24(s1)
}
    7168:	fe1ff06f          	j	7148 <update_cache+0x80>

0000716c <move_thread_to_end_of_prio_q>:
{
    716c:	ff010113          	addi	sp,sp,-16
    7170:	00812423          	sw	s0,8(sp)
    7174:	00112623          	sw	ra,12(sp)
	return (thread->base.thread_state & state) != 0U;
    7178:	00d54783          	lbu	a5,13(a0)
    717c:	00050413          	mv	s0,a0
	if (z_is_thread_queued(thread)) {
    7180:	01879713          	slli	a4,a5,0x18
    7184:	41875713          	srai	a4,a4,0x18
    7188:	00075863          	bgez	a4,7198 <move_thread_to_end_of_prio_q+0x2c>
	thread->base.thread_state &= ~_THREAD_QUEUED;
    718c:	07f7f793          	andi	a5,a5,127
    7190:	00f506a3          	sb	a5,13(a0)
	sys_dlist_remove(&thread->base.qnode_dlist);
    7194:	e8dff0ef          	jal	ra,7020 <sys_dlist_remove>
	thread->base.thread_state |= _THREAD_QUEUED;
    7198:	00d44783          	lbu	a5,13(s0)
	return list->head == list;
    719c:	0000e737          	lui	a4,0xe
    71a0:	c6870693          	addi	a3,a4,-920 # dc68 <_kernel>
    71a4:	f807e793          	ori	a5,a5,-128
    71a8:	00f406a3          	sb	a5,13(s0)
    71ac:	01c6a783          	lw	a5,28(a3)
	return (node == list->tail) ? NULL : node->next;
    71b0:	0206a583          	lw	a1,32(a3)
    71b4:	0000e6b7          	lui	a3,0xe
    71b8:	c8468693          	addi	a3,a3,-892 # dc84 <_kernel+0x1c>
    71bc:	c6870713          	addi	a4,a4,-920
	return sys_dlist_is_empty(list) ? NULL : list->head;
    71c0:	04d78c63          	beq	a5,a3,7218 <move_thread_to_end_of_prio_q+0xac>
	SYS_DLIST_FOR_EACH_CONTAINER(pq, t, base.qnode_dlist) {
    71c4:	04078a63          	beqz	a5,7218 <move_thread_to_end_of_prio_q+0xac>
	int32_t b1 = thread_1->base.prio;
    71c8:	00e40503          	lb	a0,14(s0)
	int32_t b2 = thread_2->base.prio;
    71cc:	00e78603          	lb	a2,14(a5)
	if (b1 != b2) {
    71d0:	02c50e63          	beq	a0,a2,720c <move_thread_to_end_of_prio_q+0xa0>
		return b2 - b1;
    71d4:	40a60633          	sub	a2,a2,a0
		if (z_sched_prio_cmp(thread, t) > 0) {
    71d8:	02c05a63          	blez	a2,720c <move_thread_to_end_of_prio_q+0xa0>
	sys_dnode_t *const prev = successor->prev;
    71dc:	0047a683          	lw	a3,4(a5)
	node->next = successor;
    71e0:	00f42023          	sw	a5,0(s0)
	node->prev = prev;
    71e4:	00d42223          	sw	a3,4(s0)
	prev->next = node;
    71e8:	0086a023          	sw	s0,0(a3)
	successor->prev = node;
    71ec:	0087a223          	sw	s0,4(a5)
	update_cache(thread == _current);
    71f0:	00872503          	lw	a0,8(a4)
}
    71f4:	00c12083          	lw	ra,12(sp)
	update_cache(thread == _current);
    71f8:	40850533          	sub	a0,a0,s0
}
    71fc:	00812403          	lw	s0,8(sp)
	update_cache(thread == _current);
    7200:	00153513          	seqz	a0,a0
}
    7204:	01010113          	addi	sp,sp,16
	update_cache(thread == _current);
    7208:	ec1ff06f          	j	70c8 <update_cache>
	return (node == list->tail) ? NULL : node->next;
    720c:	00b78663          	beq	a5,a1,7218 <move_thread_to_end_of_prio_q+0xac>
    7210:	0007a783          	lw	a5,0(a5)
	SYS_DLIST_FOR_EACH_CONTAINER(pq, t, base.qnode_dlist) {
    7214:	fa079ce3          	bnez	a5,71cc <move_thread_to_end_of_prio_q+0x60>
	node->next = list;
    7218:	00d42023          	sw	a3,0(s0)
	node->prev = tail;
    721c:	00b42223          	sw	a1,4(s0)
	tail->next = node;
    7220:	0085a023          	sw	s0,0(a1)
	list->tail = node;
    7224:	02872023          	sw	s0,32(a4)
}
    7228:	fc9ff06f          	j	71f0 <move_thread_to_end_of_prio_q+0x84>

0000722c <ready_thread>:
    722c:	00d54783          	lbu	a5,13(a0)
	if (!z_is_thread_queued(thread) && z_is_thread_ready(thread)) {
    7230:	01879713          	slli	a4,a5,0x18
    7234:	41875713          	srai	a4,a4,0x18
    7238:	08074863          	bltz	a4,72c8 <ready_thread+0x9c>
	return !((z_is_thread_prevented_from_running(thread)) != 0U ||
    723c:	01f7f713          	andi	a4,a5,31
    7240:	08071463          	bnez	a4,72c8 <ready_thread+0x9c>
    7244:	02052703          	lw	a4,32(a0)
    7248:	08071063          	bnez	a4,72c8 <ready_thread+0x9c>
	thread->base.thread_state |= _THREAD_QUEUED;
    724c:	f807e793          	ori	a5,a5,-128
	return list->head == list;
    7250:	0000e737          	lui	a4,0xe
    7254:	c6870693          	addi	a3,a4,-920 # dc68 <_kernel>
    7258:	00f506a3          	sb	a5,13(a0)
    725c:	01c6a783          	lw	a5,28(a3)
	return (node == list->tail) ? NULL : node->next;
    7260:	0206a583          	lw	a1,32(a3)
    7264:	0000e6b7          	lui	a3,0xe
    7268:	c8468693          	addi	a3,a3,-892 # dc84 <_kernel+0x1c>
    726c:	c6870713          	addi	a4,a4,-920
	return sys_dlist_is_empty(list) ? NULL : list->head;
    7270:	04d78263          	beq	a5,a3,72b4 <ready_thread+0x88>
	SYS_DLIST_FOR_EACH_CONTAINER(pq, t, base.qnode_dlist) {
    7274:	04078063          	beqz	a5,72b4 <ready_thread+0x88>
	int32_t b1 = thread_1->base.prio;
    7278:	00e50803          	lb	a6,14(a0)
	int32_t b2 = thread_2->base.prio;
    727c:	00e78603          	lb	a2,14(a5)
	if (b1 != b2) {
    7280:	02c80463          	beq	a6,a2,72a8 <ready_thread+0x7c>
		return b2 - b1;
    7284:	41060633          	sub	a2,a2,a6
		if (z_sched_prio_cmp(thread, t) > 0) {
    7288:	02c05063          	blez	a2,72a8 <ready_thread+0x7c>
	sys_dnode_t *const prev = successor->prev;
    728c:	0047a703          	lw	a4,4(a5)
	node->next = successor;
    7290:	00f52023          	sw	a5,0(a0)
	node->prev = prev;
    7294:	00e52223          	sw	a4,4(a0)
	prev->next = node;
    7298:	00a72023          	sw	a0,0(a4)
	successor->prev = node;
    729c:	00a7a223          	sw	a0,4(a5)
		update_cache(0);
    72a0:	00000513          	li	a0,0
    72a4:	e25ff06f          	j	70c8 <update_cache>
	return (node == list->tail) ? NULL : node->next;
    72a8:	00b78663          	beq	a5,a1,72b4 <ready_thread+0x88>
    72ac:	0007a783          	lw	a5,0(a5)
	SYS_DLIST_FOR_EACH_CONTAINER(pq, t, base.qnode_dlist) {
    72b0:	fc0796e3          	bnez	a5,727c <ready_thread+0x50>
	node->next = list;
    72b4:	00d52023          	sw	a3,0(a0)
	node->prev = tail;
    72b8:	00b52223          	sw	a1,4(a0)
	tail->next = node;
    72bc:	00a5a023          	sw	a0,0(a1)
	list->tail = node;
    72c0:	02a72023          	sw	a0,32(a4)
}
    72c4:	fddff06f          	j	72a0 <ready_thread+0x74>
}
    72c8:	00008067          	ret

000072cc <z_thread_timeout>:
{
    72cc:	fe010113          	addi	sp,sp,-32
    72d0:	00912a23          	sw	s1,20(sp)
    72d4:	00112e23          	sw	ra,28(sp)
    72d8:	00812c23          	sw	s0,24(sp)
	__asm__ volatile ("csrrc %0, mstatus, %1"
    72dc:	00800493          	li	s1,8
    72e0:	3004b4f3          	csrrc	s1,mstatus,s1
		if (!killed) {
    72e4:	fed54783          	lbu	a5,-19(a0)
	key = (mstatus & MSTATUS_IEN);
    72e8:	0084f493          	andi	s1,s1,8
    72ec:	0287f793          	andi	a5,a5,40
    72f0:	02079863          	bnez	a5,7320 <z_thread_timeout+0x54>
    72f4:	00050413          	mv	s0,a0
			if (thread->base.pended_on != NULL) {
    72f8:	fe842783          	lw	a5,-24(s0)
	struct k_thread *thread = CONTAINER_OF(timeout,
    72fc:	fe050513          	addi	a0,a0,-32
			if (thread->base.pended_on != NULL) {
    7300:	00078863          	beqz	a5,7310 <z_thread_timeout+0x44>
				unpend_thread_no_timeout(thread);
    7304:	00a12623          	sw	a0,12(sp)
    7308:	d35ff0ef          	jal	ra,703c <unpend_thread_no_timeout>
    730c:	00c12503          	lw	a0,12(sp)
	thread->base.thread_state &= ~_THREAD_SUSPENDED;
    7310:	fed44783          	lbu	a5,-19(s0)
    7314:	feb7f793          	andi	a5,a5,-21
    7318:	fef406a3          	sb	a5,-19(s0)
			ready_thread(thread);
    731c:	f11ff0ef          	jal	ra,722c <ready_thread>
	__asm__ volatile ("csrrs %0, mstatus, %1"
    7320:	3004a4f3          	csrrs	s1,mstatus,s1
}
    7324:	01c12083          	lw	ra,28(sp)
    7328:	01812403          	lw	s0,24(sp)
    732c:	01412483          	lw	s1,20(sp)
    7330:	02010113          	addi	sp,sp,32
    7334:	00008067          	ret

00007338 <unready_thread>:
{
    7338:	ff010113          	addi	sp,sp,-16
    733c:	00812423          	sw	s0,8(sp)
    7340:	00112623          	sw	ra,12(sp)
	return (thread->base.thread_state & state) != 0U;
    7344:	00d54783          	lbu	a5,13(a0)
    7348:	00050413          	mv	s0,a0
	if (z_is_thread_queued(thread)) {
    734c:	01879713          	slli	a4,a5,0x18
    7350:	41875713          	srai	a4,a4,0x18
    7354:	00075863          	bgez	a4,7364 <unready_thread+0x2c>
	thread->base.thread_state &= ~_THREAD_QUEUED;
    7358:	07f7f793          	andi	a5,a5,127
    735c:	00f506a3          	sb	a5,13(a0)
	sys_dlist_remove(&thread->base.qnode_dlist);
    7360:	cc1ff0ef          	jal	ra,7020 <sys_dlist_remove>
	update_cache(thread == _current);
    7364:	0000e7b7          	lui	a5,0xe
    7368:	c707a503          	lw	a0,-912(a5) # dc70 <_kernel+0x8>
}
    736c:	00c12083          	lw	ra,12(sp)
	update_cache(thread == _current);
    7370:	40850533          	sub	a0,a0,s0
}
    7374:	00812403          	lw	s0,8(sp)
	update_cache(thread == _current);
    7378:	00153513          	seqz	a0,a0
}
    737c:	01010113          	addi	sp,sp,16
	update_cache(thread == _current);
    7380:	d49ff06f          	j	70c8 <update_cache>

00007384 <add_to_waitq_locked>:
{
    7384:	ff010113          	addi	sp,sp,-16
    7388:	00812423          	sw	s0,8(sp)
    738c:	00912223          	sw	s1,4(sp)
    7390:	00050413          	mv	s0,a0
    7394:	00112623          	sw	ra,12(sp)
    7398:	00058493          	mv	s1,a1
	unready_thread(thread);
    739c:	f9dff0ef          	jal	ra,7338 <unready_thread>
	thread->base.thread_state |= _THREAD_PENDING;
    73a0:	00d44783          	lbu	a5,13(s0)
    73a4:	0027e793          	ori	a5,a5,2
    73a8:	00f406a3          	sb	a5,13(s0)
	if (wait_q != NULL) {
    73ac:	02048e63          	beqz	s1,73e8 <add_to_waitq_locked+0x64>
	return list->head == list;
    73b0:	0004a783          	lw	a5,0(s1)
		thread->base.pended_on = wait_q;
    73b4:	00942423          	sw	s1,8(s0)
	return sys_dlist_is_empty(list) ? NULL : list->head;
    73b8:	04f48a63          	beq	s1,a5,740c <add_to_waitq_locked+0x88>
	SYS_DLIST_FOR_EACH_CONTAINER(pq, t, base.qnode_dlist) {
    73bc:	04078863          	beqz	a5,740c <add_to_waitq_locked+0x88>
	int32_t b1 = thread_1->base.prio;
    73c0:	00e40683          	lb	a3,14(s0)
	int32_t b2 = thread_2->base.prio;
    73c4:	00e78703          	lb	a4,14(a5)
	if (b1 != b2) {
    73c8:	02e68a63          	beq	a3,a4,73fc <add_to_waitq_locked+0x78>
		return b2 - b1;
    73cc:	40d70733          	sub	a4,a4,a3
		if (z_sched_prio_cmp(thread, t) > 0) {
    73d0:	02e05663          	blez	a4,73fc <add_to_waitq_locked+0x78>
	sys_dnode_t *const prev = successor->prev;
    73d4:	0047a703          	lw	a4,4(a5)
	node->next = successor;
    73d8:	00f42023          	sw	a5,0(s0)
	node->prev = prev;
    73dc:	00e42223          	sw	a4,4(s0)
	prev->next = node;
    73e0:	00872023          	sw	s0,0(a4)
	successor->prev = node;
    73e4:	0087a223          	sw	s0,4(a5)
}
    73e8:	00c12083          	lw	ra,12(sp)
    73ec:	00812403          	lw	s0,8(sp)
    73f0:	00412483          	lw	s1,4(sp)
    73f4:	01010113          	addi	sp,sp,16
    73f8:	00008067          	ret
	return (node == list->tail) ? NULL : node->next;
    73fc:	0044a703          	lw	a4,4(s1)
    7400:	00e78663          	beq	a5,a4,740c <add_to_waitq_locked+0x88>
    7404:	0007a783          	lw	a5,0(a5)
	SYS_DLIST_FOR_EACH_CONTAINER(pq, t, base.qnode_dlist) {
    7408:	fa079ee3          	bnez	a5,73c4 <add_to_waitq_locked+0x40>
	sys_dnode_t *const tail = list->tail;
    740c:	0044a783          	lw	a5,4(s1)
	node->next = list;
    7410:	00942023          	sw	s1,0(s0)
	node->prev = tail;
    7414:	00f42223          	sw	a5,4(s0)
	tail->next = node;
    7418:	0087a023          	sw	s0,0(a5)
	list->tail = node;
    741c:	0084a223          	sw	s0,4(s1)
}
    7420:	fc9ff06f          	j	73e8 <add_to_waitq_locked+0x64>

00007424 <pend_locked>:
{
    7424:	fe010113          	addi	sp,sp,-32
    7428:	00812c23          	sw	s0,24(sp)
    742c:	00c12623          	sw	a2,12(sp)
    7430:	00d12423          	sw	a3,8(sp)
    7434:	00112e23          	sw	ra,28(sp)
    7438:	00050413          	mv	s0,a0
	add_to_waitq_locked(thread, wait_q);
    743c:	f49ff0ef          	jal	ra,7384 <add_to_waitq_locked>
	add_thread_timeout(thread, timeout);
    7440:	00c12603          	lw	a2,12(sp)
	if (!K_TIMEOUT_EQ(timeout, K_FOREVER)) {
    7444:	fff00593          	li	a1,-1
    7448:	00812683          	lw	a3,8(sp)
    744c:	00b61463          	bne	a2,a1,7454 <pend_locked+0x30>
    7450:	02c68063          	beq	a3,a2,7470 <pend_locked+0x4c>
    7454:	02040513          	addi	a0,s0,32
}
    7458:	01812403          	lw	s0,24(sp)
    745c:	01c12083          	lw	ra,28(sp)
    7460:	000075b7          	lui	a1,0x7
    7464:	2cc58593          	addi	a1,a1,716 # 72cc <z_thread_timeout>
    7468:	02010113          	addi	sp,sp,32
    746c:	1990006f          	j	7e04 <z_add_timeout>
    7470:	01c12083          	lw	ra,28(sp)
    7474:	01812403          	lw	s0,24(sp)
    7478:	02010113          	addi	sp,sp,32
    747c:	00008067          	ret

00007480 <k_sched_time_slice_set>:
{
    7480:	ff010113          	addi	sp,sp,-16
    7484:	00812423          	sw	s0,8(sp)
    7488:	00912223          	sw	s1,4(sp)
    748c:	00112623          	sw	ra,12(sp)
    7490:	00050793          	mv	a5,a0
    7494:	00058493          	mv	s1,a1
	__asm__ volatile ("csrrc %0, mstatus, %1"
    7498:	00800413          	li	s0,8
    749c:	30043473          	csrrc	s0,mstatus,s0
		_current_cpu->slice_ticks = 0;
    74a0:	0000e737          	lui	a4,0xe
		t += off;
    74a4:	00950513          	addi	a0,a0,9
    74a8:	c6072c23          	sw	zero,-904(a4) # dc78 <_kernel+0x10>
	key = (mstatus & MSTATUS_IEN);
    74ac:	00847413          	andi	s0,s0,8
    74b0:	00f535b3          	sltu	a1,a0,a5
		if (result32 && (t < BIT64(32))) {
    74b4:	02f56c63          	bltu	a0,a5,74ec <k_sched_time_slice_set+0x6c>
			return ((uint32_t)t) / (from_hz / to_hz);
    74b8:	00a00793          	li	a5,10
    74bc:	02f55533          	divu	a0,a0,a5
		slice_time = k_ms_to_ticks_ceil32(slice);
    74c0:	0000e7b7          	lui	a5,0xe
    74c4:	9aa7a823          	sw	a0,-1616(a5) # d9b0 <slice_time>
		slice_max_prio = prio;
    74c8:	0000e7b7          	lui	a5,0xe
    74cc:	9a97a623          	sw	s1,-1620(a5) # d9ac <slice_max_prio>
		z_reset_time_slice();
    74d0:	ba1ff0ef          	jal	ra,7070 <z_reset_time_slice>
	__asm__ volatile ("csrrs %0, mstatus, %1"
    74d4:	30042473          	csrrs	s0,mstatus,s0
}
    74d8:	00c12083          	lw	ra,12(sp)
    74dc:	00812403          	lw	s0,8(sp)
    74e0:	00412483          	lw	s1,4(sp)
    74e4:	01010113          	addi	sp,sp,16
    74e8:	00008067          	ret
			return t / ((uint64_t)from_hz / to_hz);
    74ec:	00a00613          	li	a2,10
    74f0:	00000693          	li	a3,0
    74f4:	e99f80ef          	jal	ra,38c <__udivdi3>
    74f8:	fc9ff06f          	j	74c0 <k_sched_time_slice_set+0x40>

000074fc <z_time_slice>:
{
    74fc:	ff010113          	addi	sp,sp,-16
    7500:	00812423          	sw	s0,8(sp)
    7504:	00112623          	sw	ra,12(sp)
	__asm__ volatile ("csrrc %0, mstatus, %1"
    7508:	00800413          	li	s0,8
    750c:	30043473          	csrrc	s0,mstatus,s0
	if (slice_time && sliceable(_current)) {
    7510:	0000e7b7          	lui	a5,0xe
    7514:	9b07a703          	lw	a4,-1616(a5) # d9b0 <slice_time>
    7518:	0000e7b7          	lui	a5,0xe
	key = (mstatus & MSTATUS_IEN);
    751c:	00847413          	andi	s0,s0,8
    7520:	c6878793          	addi	a5,a5,-920 # dc68 <_kernel>
    7524:	06070863          	beqz	a4,7594 <z_time_slice+0x98>
    7528:	00050693          	mv	a3,a0
    752c:	0087a503          	lw	a0,8(a5)
		&& !z_is_idle_thread_object(thread);
    7530:	07f00713          	li	a4,127
    7534:	00e55603          	lhu	a2,14(a0)
    7538:	04c76e63          	bltu	a4,a2,7594 <z_time_slice+0x98>
		&& !z_is_thread_prevented_from_running(thread)
    753c:	00d54703          	lbu	a4,13(a0)
    7540:	01f77713          	andi	a4,a4,31
    7544:	04071863          	bnez	a4,7594 <z_time_slice+0x98>
		&& !z_is_prio_higher(thread->base.prio, slice_max_prio)
    7548:	0000e737          	lui	a4,0xe
    754c:	00e50603          	lb	a2,14(a0)
    7550:	9ac72703          	lw	a4,-1620(a4) # d9ac <slice_max_prio>
    7554:	04e64063          	blt	a2,a4,7594 <z_time_slice+0x98>
		&& !z_is_idle_thread_object(thread);
    7558:	0000e737          	lui	a4,0xe
    755c:	b1870713          	addi	a4,a4,-1256 # db18 <z_idle_threads>
    7560:	02e50a63          	beq	a0,a4,7594 <z_time_slice+0x98>
		if (ticks >= _current_cpu->slice_ticks) {
    7564:	0107a703          	lw	a4,16(a5)
    7568:	02e6c063          	blt	a3,a4,7588 <z_time_slice+0x8c>
			move_thread_to_end_of_prio_q(_current);
    756c:	c01ff0ef          	jal	ra,716c <move_thread_to_end_of_prio_q>
			z_reset_time_slice();
    7570:	b01ff0ef          	jal	ra,7070 <z_reset_time_slice>
	__asm__ volatile ("csrrs %0, mstatus, %1"
    7574:	30042473          	csrrs	s0,mstatus,s0
}
    7578:	00c12083          	lw	ra,12(sp)
    757c:	00812403          	lw	s0,8(sp)
    7580:	01010113          	addi	sp,sp,16
    7584:	00008067          	ret
			_current_cpu->slice_ticks -= ticks;
    7588:	40d70733          	sub	a4,a4,a3
    758c:	00e7a823          	sw	a4,16(a5)
    7590:	fe5ff06f          	j	7574 <z_time_slice+0x78>
		_current_cpu->slice_ticks = 0;
    7594:	0007a823          	sw	zero,16(a5)
    7598:	fddff06f          	j	7574 <z_time_slice+0x78>

0000759c <z_ready_thread>:
{
    759c:	ff010113          	addi	sp,sp,-16
    75a0:	00812423          	sw	s0,8(sp)
    75a4:	00112623          	sw	ra,12(sp)
	__asm__ volatile ("csrrc %0, mstatus, %1"
    75a8:	00800413          	li	s0,8
    75ac:	30043473          	csrrc	s0,mstatus,s0
			ready_thread(thread);
    75b0:	c7dff0ef          	jal	ra,722c <ready_thread>
	key = (mstatus & MSTATUS_IEN);
    75b4:	00847413          	andi	s0,s0,8
	__asm__ volatile ("csrrs %0, mstatus, %1"
    75b8:	30042473          	csrrs	s0,mstatus,s0
}
    75bc:	00c12083          	lw	ra,12(sp)
    75c0:	00812403          	lw	s0,8(sp)
    75c4:	01010113          	addi	sp,sp,16
    75c8:	00008067          	ret

000075cc <z_pend_curr>:
{
    75cc:	ff010113          	addi	sp,sp,-16
    75d0:	00812423          	sw	s0,8(sp)
    75d4:	00112623          	sw	ra,12(sp)
    75d8:	00058413          	mv	s0,a1
	__asm__ volatile ("csrrc %0, mstatus, %1"
    75dc:	00800793          	li	a5,8
    75e0:	00060593          	mv	a1,a2
    75e4:	00068613          	mv	a2,a3
    75e8:	00070693          	mv	a3,a4
    75ec:	3007b7f3          	csrrc	a5,mstatus,a5
	pend_locked(_current, wait_q, timeout);
    75f0:	0000e7b7          	lui	a5,0xe
    75f4:	c707a503          	lw	a0,-912(a5) # dc70 <_kernel+0x8>
    75f8:	e2dff0ef          	jal	ra,7424 <pend_locked>
    75fc:	00040513          	mv	a0,s0
}
    7600:	00812403          	lw	s0,8(sp)
    7604:	00c12083          	lw	ra,12(sp)
    7608:	01010113          	addi	sp,sp,16
    760c:	cc1f806f          	j	2cc <arch_swap>

00007610 <z_unpend_thread>:
{
    7610:	ff010113          	addi	sp,sp,-16
    7614:	00812423          	sw	s0,8(sp)
    7618:	00912223          	sw	s1,4(sp)
    761c:	00112623          	sw	ra,12(sp)
    7620:	00050493          	mv	s1,a0
    7624:	00800413          	li	s0,8
    7628:	30043473          	csrrc	s0,mstatus,s0
		unpend_thread_no_timeout(thread);
    762c:	a11ff0ef          	jal	ra,703c <unpend_thread_no_timeout>
	key = (mstatus & MSTATUS_IEN);
    7630:	00847413          	andi	s0,s0,8
	__asm__ volatile ("csrrs %0, mstatus, %1"
    7634:	30042473          	csrrs	s0,mstatus,s0
}
    7638:	00812403          	lw	s0,8(sp)
    763c:	00c12083          	lw	ra,12(sp)
}

static inline int z_abort_thread_timeout(struct k_thread *thread)
{
	return z_abort_timeout(&thread->base.timeout);
    7640:	02048513          	addi	a0,s1,32
    7644:	00412483          	lw	s1,4(sp)
    7648:	01010113          	addi	sp,sp,16
    764c:	1690006f          	j	7fb4 <z_abort_timeout>

00007650 <z_set_prio>:
{
    7650:	ff010113          	addi	sp,sp,-16
    7654:	00812423          	sw	s0,8(sp)
    7658:	01212023          	sw	s2,0(sp)
    765c:	00112623          	sw	ra,12(sp)
    7660:	00912223          	sw	s1,4(sp)
    7664:	00050413          	mv	s0,a0
	__asm__ volatile ("csrrc %0, mstatus, %1"
    7668:	00800913          	li	s2,8
    766c:	30093973          	csrrc	s2,mstatus,s2
	uint8_t state = thread->base.thread_state;
    7670:	00d54783          	lbu	a5,13(a0)
				thread->base.prio = prio;
    7674:	01859493          	slli	s1,a1,0x18
	key = (mstatus & MSTATUS_IEN);
    7678:	00897913          	andi	s2,s2,8
	return !((z_is_thread_prevented_from_running(thread)) != 0U ||
    767c:	01f7f713          	andi	a4,a5,31
    7680:	4184d493          	srai	s1,s1,0x18
    7684:	0a071e63          	bnez	a4,7740 <z_set_prio+0xf0>
		if (need_sched) {
    7688:	02052703          	lw	a4,32(a0)
    768c:	0a071a63          	bnez	a4,7740 <z_set_prio+0xf0>
	thread->base.thread_state &= ~_THREAD_QUEUED;
    7690:	07f7f793          	andi	a5,a5,127
    7694:	00f506a3          	sb	a5,13(a0)
	sys_dlist_remove(&thread->base.qnode_dlist);
    7698:	989ff0ef          	jal	ra,7020 <sys_dlist_remove>
	thread->base.thread_state |= _THREAD_QUEUED;
    769c:	00d44783          	lbu	a5,13(s0)
	return list->head == list;
    76a0:	0000e737          	lui	a4,0xe
    76a4:	0000e6b7          	lui	a3,0xe
    76a8:	f807e793          	ori	a5,a5,-128
    76ac:	00f406a3          	sb	a5,13(s0)
    76b0:	c6870793          	addi	a5,a4,-920 # dc68 <_kernel>
    76b4:	01c7a783          	lw	a5,28(a5)
				thread->base.prio = prio;
    76b8:	00940723          	sb	s1,14(s0)
    76bc:	c8468693          	addi	a3,a3,-892 # dc84 <_kernel+0x1c>
    76c0:	c6870713          	addi	a4,a4,-920
	return sys_dlist_is_empty(list) ? NULL : list->head;
    76c4:	06d78263          	beq	a5,a3,7728 <z_set_prio+0xd8>
	SYS_DLIST_FOR_EACH_CONTAINER(pq, t, base.qnode_dlist) {
    76c8:	06078063          	beqz	a5,7728 <z_set_prio+0xd8>
	return (node == list->tail) ? NULL : node->next;
    76cc:	02072583          	lw	a1,32(a4)
	int32_t b2 = thread_2->base.prio;
    76d0:	00e78603          	lb	a2,14(a5)
	if (b1 != b2) {
    76d4:	04c48463          	beq	s1,a2,771c <z_set_prio+0xcc>
		return b2 - b1;
    76d8:	40960633          	sub	a2,a2,s1
		if (z_sched_prio_cmp(thread, t) > 0) {
    76dc:	04c05063          	blez	a2,771c <z_set_prio+0xcc>
	sys_dnode_t *const prev = successor->prev;
    76e0:	0047a703          	lw	a4,4(a5)
	node->next = successor;
    76e4:	00f42023          	sw	a5,0(s0)
	node->prev = prev;
    76e8:	00e42223          	sw	a4,4(s0)
	prev->next = node;
    76ec:	00872023          	sw	s0,0(a4)
	successor->prev = node;
    76f0:	0087a223          	sw	s0,4(a5)
			update_cache(1);
    76f4:	00100513          	li	a0,1
    76f8:	9d1ff0ef          	jal	ra,70c8 <update_cache>
    76fc:	00100513          	li	a0,1
	__asm__ volatile ("csrrs %0, mstatus, %1"
    7700:	30092973          	csrrs	s2,mstatus,s2
}
    7704:	00c12083          	lw	ra,12(sp)
    7708:	00812403          	lw	s0,8(sp)
    770c:	00412483          	lw	s1,4(sp)
    7710:	00012903          	lw	s2,0(sp)
    7714:	01010113          	addi	sp,sp,16
    7718:	00008067          	ret
	return (node == list->tail) ? NULL : node->next;
    771c:	00b78663          	beq	a5,a1,7728 <z_set_prio+0xd8>
    7720:	0007a783          	lw	a5,0(a5)
	SYS_DLIST_FOR_EACH_CONTAINER(pq, t, base.qnode_dlist) {
    7724:	fa0796e3          	bnez	a5,76d0 <z_set_prio+0x80>
	sys_dnode_t *const tail = list->tail;
    7728:	02072783          	lw	a5,32(a4)
	node->next = list;
    772c:	00d42023          	sw	a3,0(s0)
	node->prev = tail;
    7730:	00f42223          	sw	a5,4(s0)
	tail->next = node;
    7734:	0087a023          	sw	s0,0(a5)
	list->tail = node;
    7738:	02872023          	sw	s0,32(a4)
}
    773c:	fb9ff06f          	j	76f4 <z_set_prio+0xa4>
			thread->base.prio = prio;
    7740:	00940723          	sb	s1,14(s0)
    7744:	00000513          	li	a0,0
    7748:	fb9ff06f          	j	7700 <z_set_prio+0xb0>

0000774c <z_reschedule>:
	return (key & MSTATUS_IEN) == MSTATUS_IEN;
    774c:	0085f713          	andi	a4,a1,8
{
    7750:	00058513          	mv	a0,a1
	return arch_irq_unlocked(key) && !arch_is_in_isr();
    7754:	02070263          	beqz	a4,7778 <z_reschedule+0x2c>
FUNC_NORETURN void z_riscv_fatal_error(unsigned int reason,
				       const z_arch_esf_t *esf);

static inline bool arch_is_in_isr(void)
{
	return _kernel.cpus[0].nested != 0U;
    7758:	0000e7b7          	lui	a5,0xe
    775c:	c6878793          	addi	a5,a5,-920 # dc68 <_kernel>
	if (resched(key.key) && need_swap()) {
    7760:	0007a683          	lw	a3,0(a5)
    7764:	00069a63          	bnez	a3,7778 <z_reschedule+0x2c>
    7768:	0187a683          	lw	a3,24(a5)
    776c:	0087a783          	lw	a5,8(a5)
    7770:	00f68463          	beq	a3,a5,7778 <z_reschedule+0x2c>
    7774:	b59f806f          	j	2cc <arch_swap>
	__asm__ volatile ("csrrs %0, mstatus, %1"
    7778:	30072773          	csrrs	a4,mstatus,a4
}
    777c:	00008067          	ret

00007780 <z_sched_start>:
	__asm__ volatile ("csrrc %0, mstatus, %1"
    7780:	00800593          	li	a1,8
    7784:	3005b5f3          	csrrc	a1,mstatus,a1
	return (thread->base.thread_state & _THREAD_PRESTART) == 0U;
    7788:	00d54703          	lbu	a4,13(a0)
	key = (mstatus & MSTATUS_IEN);
    778c:	0085f593          	andi	a1,a1,8
	if (z_has_thread_started(thread)) {
    7790:	00477693          	andi	a3,a4,4
    7794:	00069663          	bnez	a3,77a0 <z_sched_start+0x20>
	__asm__ volatile ("csrrs %0, mstatus, %1"
    7798:	3005a5f3          	csrrs	a1,mstatus,a1
		return;
    779c:	00008067          	ret
{
    77a0:	fe010113          	addi	sp,sp,-32
    77a4:	00112e23          	sw	ra,28(sp)
	thread->base.thread_state &= ~_THREAD_PRESTART;
    77a8:	ffb77713          	andi	a4,a4,-5
    77ac:	00e506a3          	sb	a4,13(a0)
    77b0:	00b12623          	sw	a1,12(sp)
	ready_thread(thread);
    77b4:	a79ff0ef          	jal	ra,722c <ready_thread>
	z_reschedule(&sched_spinlock, key);
    77b8:	00c12583          	lw	a1,12(sp)
}
    77bc:	01c12083          	lw	ra,28(sp)
	z_reschedule(&sched_spinlock, key);
    77c0:	0000e537          	lui	a0,0xe
    77c4:	c8c50513          	addi	a0,a0,-884 # dc8c <sched_spinlock>
}
    77c8:	02010113          	addi	sp,sp,32
	z_reschedule(&sched_spinlock, key);
    77cc:	f81ff06f          	j	774c <z_reschedule>

000077d0 <z_reschedule_irqlock>:
	return (key & MSTATUS_IEN) == MSTATUS_IEN;
    77d0:	00857793          	andi	a5,a0,8
	return arch_irq_unlocked(key) && !arch_is_in_isr();
    77d4:	00078a63          	beqz	a5,77e8 <z_reschedule_irqlock+0x18>
	if (resched(key)) {
    77d8:	0000e737          	lui	a4,0xe
    77dc:	c6872703          	lw	a4,-920(a4) # dc68 <_kernel>
    77e0:	00071463          	bnez	a4,77e8 <z_reschedule_irqlock+0x18>
    77e4:	ae9f806f          	j	2cc <arch_swap>
	__asm__ volatile ("csrrs %0, mstatus, %1"
    77e8:	3007a7f3          	csrrs	a5,mstatus,a5
}
    77ec:	00008067          	ret

000077f0 <z_reschedule_unlocked>:
	__asm__ volatile ("csrrc %0, mstatus, %1"
    77f0:	00800513          	li	a0,8
    77f4:	30053573          	csrrc	a0,mstatus,a0
	(void) z_reschedule_irqlock(arch_irq_lock());
    77f8:	00857513          	andi	a0,a0,8
    77fc:	fd5ff06f          	j	77d0 <z_reschedule_irqlock>

00007800 <z_impl_k_thread_suspend>:
{
    7800:	ff010113          	addi	sp,sp,-16
    7804:	00812423          	sw	s0,8(sp)
    7808:	00050413          	mv	s0,a0
    780c:	02050513          	addi	a0,a0,32
    7810:	00912223          	sw	s1,4(sp)
    7814:	00112623          	sw	ra,12(sp)
    7818:	01212023          	sw	s2,0(sp)
    781c:	00800493          	li	s1,8
    7820:	794000ef          	jal	ra,7fb4 <z_abort_timeout>
    7824:	3004b4f3          	csrrc	s1,mstatus,s1
	return (thread->base.thread_state & state) != 0U;
    7828:	00d44783          	lbu	a5,13(s0)
	key = (mstatus & MSTATUS_IEN);
    782c:	0084f493          	andi	s1,s1,8
		if (z_is_thread_queued(thread)) {
    7830:	01879713          	slli	a4,a5,0x18
    7834:	41875713          	srai	a4,a4,0x18
    7838:	00075a63          	bgez	a4,784c <z_impl_k_thread_suspend+0x4c>
	thread->base.thread_state &= ~_THREAD_QUEUED;
    783c:	07f7f793          	andi	a5,a5,127
    7840:	00f406a3          	sb	a5,13(s0)
	sys_dlist_remove(&thread->base.qnode_dlist);
    7844:	00040513          	mv	a0,s0
    7848:	fd8ff0ef          	jal	ra,7020 <sys_dlist_remove>
		update_cache(thread == _current);
    784c:	0000e937          	lui	s2,0xe
    7850:	c6890913          	addi	s2,s2,-920 # dc68 <_kernel>
	thread->base.thread_state |= _THREAD_SUSPENDED;
    7854:	00d44783          	lbu	a5,13(s0)
    7858:	00892503          	lw	a0,8(s2)
    785c:	0107e793          	ori	a5,a5,16
    7860:	40850533          	sub	a0,a0,s0
    7864:	00f406a3          	sb	a5,13(s0)
    7868:	00153513          	seqz	a0,a0
    786c:	85dff0ef          	jal	ra,70c8 <update_cache>
	__asm__ volatile ("csrrs %0, mstatus, %1"
    7870:	3004a4f3          	csrrs	s1,mstatus,s1
	if (thread == _current) {
    7874:	00892783          	lw	a5,8(s2)
    7878:	00879e63          	bne	a5,s0,7894 <z_impl_k_thread_suspend+0x94>
}
    787c:	00812403          	lw	s0,8(sp)
    7880:	00c12083          	lw	ra,12(sp)
    7884:	00412483          	lw	s1,4(sp)
    7888:	00012903          	lw	s2,0(sp)
    788c:	01010113          	addi	sp,sp,16
		z_reschedule_unlocked();
    7890:	f61ff06f          	j	77f0 <z_reschedule_unlocked>
}
    7894:	00c12083          	lw	ra,12(sp)
    7898:	00812403          	lw	s0,8(sp)
    789c:	00412483          	lw	s1,4(sp)
    78a0:	00012903          	lw	s2,0(sp)
    78a4:	01010113          	addi	sp,sp,16
    78a8:	00008067          	ret

000078ac <k_sched_lock>:
	__asm__ volatile ("csrrc %0, mstatus, %1"
    78ac:	00800793          	li	a5,8
    78b0:	3007b7f3          	csrrc	a5,mstatus,a5
	--_current->base.sched_locked;
    78b4:	0000e737          	lui	a4,0xe
    78b8:	c7072683          	lw	a3,-912(a4) # dc70 <_kernel+0x8>
    78bc:	00f6c703          	lbu	a4,15(a3)
    78c0:	fff70713          	addi	a4,a4,-1
    78c4:	00e687a3          	sb	a4,15(a3)
	key = (mstatus & MSTATUS_IEN);
    78c8:	0087f793          	andi	a5,a5,8
	__asm__ volatile ("csrrs %0, mstatus, %1"
    78cc:	3007a7f3          	csrrs	a5,mstatus,a5
}
    78d0:	00008067          	ret

000078d4 <k_sched_unlock>:
{
    78d4:	ff010113          	addi	sp,sp,-16
    78d8:	00812423          	sw	s0,8(sp)
    78dc:	00112623          	sw	ra,12(sp)
	__asm__ volatile ("csrrc %0, mstatus, %1"
    78e0:	00800413          	li	s0,8
    78e4:	30043473          	csrrc	s0,mstatus,s0
		++_current->base.sched_locked;
    78e8:	0000e7b7          	lui	a5,0xe
    78ec:	c707a703          	lw	a4,-912(a5) # dc70 <_kernel+0x8>
		update_cache(0);
    78f0:	00000513          	li	a0,0
	key = (mstatus & MSTATUS_IEN);
    78f4:	00847413          	andi	s0,s0,8
		++_current->base.sched_locked;
    78f8:	00f74783          	lbu	a5,15(a4)
    78fc:	00178793          	addi	a5,a5,1
    7900:	00f707a3          	sb	a5,15(a4)
		update_cache(0);
    7904:	fc4ff0ef          	jal	ra,70c8 <update_cache>
	__asm__ volatile ("csrrs %0, mstatus, %1"
    7908:	30042473          	csrrs	s0,mstatus,s0
}
    790c:	00812403          	lw	s0,8(sp)
    7910:	00c12083          	lw	ra,12(sp)
    7914:	01010113          	addi	sp,sp,16
	z_reschedule_unlocked();
    7918:	ed9ff06f          	j	77f0 <z_reschedule_unlocked>

0000791c <z_priq_dumb_best>:
}

struct k_thread *z_priq_dumb_best(sys_dlist_t *pq)
{
    791c:	00050793          	mv	a5,a0
	return list->head == list;
    7920:	00052503          	lw	a0,0(a0)
	return sys_dlist_is_empty(list) ? NULL : list->head;
    7924:	00a79463          	bne	a5,a0,792c <z_priq_dumb_best+0x10>
	struct k_thread *thread = NULL;
    7928:	00000513          	li	a0,0

	if (n != NULL) {
		thread = CONTAINER_OF(n, struct k_thread, base.qnode_dlist);
	}
	return thread;
}
    792c:	00008067          	ret

00007930 <z_unpend_first_thread>:
{
    7930:	ff010113          	addi	sp,sp,-16
    7934:	00812423          	sw	s0,8(sp)
    7938:	00112623          	sw	ra,12(sp)
    793c:	00912223          	sw	s1,4(sp)
	__asm__ volatile ("csrrc %0, mstatus, %1"
    7940:	00800413          	li	s0,8
    7944:	30043473          	csrrc	s0,mstatus,s0
		thread = _priq_wait_best(&wait_q->waitq);
    7948:	fd5ff0ef          	jal	ra,791c <z_priq_dumb_best>
	key = (mstatus & MSTATUS_IEN);
    794c:	00847413          	andi	s0,s0,8
    7950:	00050493          	mv	s1,a0
		if (thread != NULL) {
    7954:	00050863          	beqz	a0,7964 <z_unpend_first_thread+0x34>
			unpend_thread_no_timeout(thread);
    7958:	ee4ff0ef          	jal	ra,703c <unpend_thread_no_timeout>
    795c:	02048513          	addi	a0,s1,32
    7960:	654000ef          	jal	ra,7fb4 <z_abort_timeout>
	__asm__ volatile ("csrrs %0, mstatus, %1"
    7964:	30042473          	csrrs	s0,mstatus,s0
}
    7968:	00c12083          	lw	ra,12(sp)
    796c:	00812403          	lw	s0,8(sp)
    7970:	00048513          	mv	a0,s1
    7974:	00412483          	lw	s1,4(sp)
    7978:	01010113          	addi	sp,sp,16
    797c:	00008067          	ret

00007980 <z_unpend_all>:
	}
	return thread;
}

int z_unpend_all(_wait_q_t *wait_q)
{
    7980:	ff010113          	addi	sp,sp,-16
    7984:	00912223          	sw	s1,4(sp)
    7988:	00112623          	sw	ra,12(sp)
    798c:	00050493          	mv	s1,a0
    7990:	00812423          	sw	s0,8(sp)
	int need_sched = 0;
    7994:	00000513          	li	a0,0
	return list->head == list;
    7998:	0004a403          	lw	s0,0(s1)
	return sys_dlist_is_empty(list) ? NULL : list->head;
    799c:	00848463          	beq	s1,s0,79a4 <z_unpend_all+0x24>
	struct k_thread *thread;

	while ((thread = z_waitq_head(wait_q)) != NULL) {
    79a0:	00041c63          	bnez	s0,79b8 <z_unpend_all+0x38>
		z_ready_thread(thread);
		need_sched = 1;
	}

	return need_sched;
}
    79a4:	00c12083          	lw	ra,12(sp)
    79a8:	00812403          	lw	s0,8(sp)
    79ac:	00412483          	lw	s1,4(sp)
    79b0:	01010113          	addi	sp,sp,16
    79b4:	00008067          	ret
		z_unpend_thread(thread);
    79b8:	00040513          	mv	a0,s0
    79bc:	c55ff0ef          	jal	ra,7610 <z_unpend_thread>
		z_ready_thread(thread);
    79c0:	00040513          	mv	a0,s0
    79c4:	bd9ff0ef          	jal	ra,759c <z_ready_thread>
		need_sched = 1;
    79c8:	00100513          	li	a0,1
    79cc:	fcdff06f          	j	7998 <z_unpend_all+0x18>

000079d0 <z_sched_init>:
	list->head = (sys_dnode_t *)list;
    79d0:	0000e7b7          	lui	a5,0xe
    79d4:	0000e737          	lui	a4,0xe
    79d8:	c6878793          	addi	a5,a5,-920 # dc68 <_kernel>
    79dc:	c8470713          	addi	a4,a4,-892 # dc84 <_kernel+0x1c>
    79e0:	00e7ae23          	sw	a4,28(a5)
	list->tail = (sys_dnode_t *)list;
    79e4:	02e7a023          	sw	a4,32(a5)
		sys_dlist_init(&_kernel.ready_q.runq.queues[i]);
	}
#endif

#ifdef CONFIG_TIMESLICING
	k_sched_time_slice_set(CONFIG_TIMESLICE_SIZE,
    79e8:	00000593          	li	a1,0
    79ec:	00000513          	li	a0,0
    79f0:	a91ff06f          	j	7480 <k_sched_time_slice_set>

000079f4 <z_impl_k_yield>:
#include <syscalls/k_thread_deadline_set_mrsh.c>
#endif
#endif

void z_impl_k_yield(void)
{
    79f4:	ff010113          	addi	sp,sp,-16
    79f8:	00912223          	sw	s1,4(sp)
    79fc:	00112623          	sw	ra,12(sp)
    7a00:	00812423          	sw	s0,8(sp)
    7a04:	01212023          	sw	s2,0(sp)
	__asm__ volatile ("csrrc %0, mstatus, %1"
    7a08:	00800493          	li	s1,8
    7a0c:	3004b4f3          	csrrc	s1,mstatus,s1

	k_spinlock_key_t key = k_spin_lock(&sched_spinlock);

	if (!IS_ENABLED(CONFIG_SMP) ||
	    z_is_thread_queued(_current)) {
		dequeue_thread(&_kernel.ready_q.runq,
    7a10:	0000e437          	lui	s0,0xe
    7a14:	c6840913          	addi	s2,s0,-920 # dc68 <_kernel>
    7a18:	00892503          	lw	a0,8(s2)
	key = (mstatus & MSTATUS_IEN);
    7a1c:	0084f493          	andi	s1,s1,8
	thread->base.thread_state &= ~_THREAD_QUEUED;
    7a20:	00d54783          	lbu	a5,13(a0)
    7a24:	07f7f793          	andi	a5,a5,127
    7a28:	00f506a3          	sb	a5,13(a0)
	sys_dlist_remove(&thread->base.qnode_dlist);
    7a2c:	df4ff0ef          	jal	ra,7020 <sys_dlist_remove>
			       _current);
	}
	queue_thread(&_kernel.ready_q.runq, _current);
    7a30:	00892783          	lw	a5,8(s2)
	thread->base.thread_state |= _THREAD_QUEUED;
    7a34:	0000e637          	lui	a2,0xe
    7a38:	c8460613          	addi	a2,a2,-892 # dc84 <_kernel+0x1c>
    7a3c:	00d7c703          	lbu	a4,13(a5)
    7a40:	c6840693          	addi	a3,s0,-920
    7a44:	f8076713          	ori	a4,a4,-128
    7a48:	00e786a3          	sb	a4,13(a5)
	return list->head == list;
    7a4c:	01c92703          	lw	a4,28(s2)
	return sys_dlist_is_empty(list) ? NULL : list->head;
    7a50:	06c70263          	beq	a4,a2,7ab4 <z_impl_k_yield+0xc0>
	SYS_DLIST_FOR_EACH_CONTAINER(pq, t, base.qnode_dlist) {
    7a54:	06070063          	beqz	a4,7ab4 <z_impl_k_yield+0xc0>
	return (node == list->tail) ? NULL : node->next;
    7a58:	0206a803          	lw	a6,32(a3)
	int32_t b1 = thread_1->base.prio;
    7a5c:	00e78503          	lb	a0,14(a5)
	int32_t b2 = thread_2->base.prio;
    7a60:	00e70583          	lb	a1,14(a4)
	if (b1 != b2) {
    7a64:	04b50263          	beq	a0,a1,7aa8 <z_impl_k_yield+0xb4>
		return b2 - b1;
    7a68:	40a585b3          	sub	a1,a1,a0
		if (z_sched_prio_cmp(thread, t) > 0) {
    7a6c:	02b05e63          	blez	a1,7aa8 <z_impl_k_yield+0xb4>
	sys_dnode_t *const prev = successor->prev;
    7a70:	00472683          	lw	a3,4(a4)
	node->next = successor;
    7a74:	00e7a023          	sw	a4,0(a5)
	node->prev = prev;
    7a78:	00d7a223          	sw	a3,4(a5)
	prev->next = node;
    7a7c:	00f6a023          	sw	a5,0(a3)
	successor->prev = node;
    7a80:	00f72223          	sw	a5,4(a4)
	update_cache(1);
    7a84:	00100513          	li	a0,1
    7a88:	e40ff0ef          	jal	ra,70c8 <update_cache>
	z_swap(&sched_spinlock, key);
}
    7a8c:	00812403          	lw	s0,8(sp)
    7a90:	00c12083          	lw	ra,12(sp)
    7a94:	00012903          	lw	s2,0(sp)
    7a98:	00048513          	mv	a0,s1
    7a9c:	00412483          	lw	s1,4(sp)
    7aa0:	01010113          	addi	sp,sp,16
    7aa4:	829f806f          	j	2cc <arch_swap>
	return (node == list->tail) ? NULL : node->next;
    7aa8:	01070663          	beq	a4,a6,7ab4 <z_impl_k_yield+0xc0>
    7aac:	00072703          	lw	a4,0(a4)
	SYS_DLIST_FOR_EACH_CONTAINER(pq, t, base.qnode_dlist) {
    7ab0:	fa0718e3          	bnez	a4,7a60 <z_impl_k_yield+0x6c>
	sys_dnode_t *const tail = list->tail;
    7ab4:	0206a703          	lw	a4,32(a3)
	node->next = list;
    7ab8:	00c7a023          	sw	a2,0(a5)
	node->prev = tail;
    7abc:	00e7a223          	sw	a4,4(a5)
	tail->next = node;
    7ac0:	00f72023          	sw	a5,0(a4)
	list->tail = node;
    7ac4:	02f6a023          	sw	a5,32(a3)
}
    7ac8:	fbdff06f          	j	7a84 <z_impl_k_yield+0x90>

00007acc <z_tick_sleep>:
}
#include <syscalls/k_yield_mrsh.c>
#endif

static int32_t z_tick_sleep(k_ticks_t ticks)
{
    7acc:	fe010113          	addi	sp,sp,-32
    7ad0:	00112e23          	sw	ra,28(sp)
    7ad4:	00812c23          	sw	s0,24(sp)
    7ad8:	00912a23          	sw	s1,20(sp)
    7adc:	01212823          	sw	s2,16(sp)
    7ae0:	01312623          	sw	s3,12(sp)
    7ae4:	01412423          	sw	s4,8(sp)
	 */
	LOG_DBG("thread %p for %u ticks", _current, ticks);
#endif

	/* wait of 0 ms is treated as a 'yield' */
	if (ticks == 0) {
    7ae8:	00b567b3          	or	a5,a0,a1
    7aec:	00079863          	bnez	a5,7afc <z_tick_sleep+0x30>
	z_impl_k_yield();
    7af0:	f05ff0ef          	jal	ra,79f4 <z_impl_k_yield>
	if (ticks > 0) {
		return ticks;
	}
#endif

	return 0;
    7af4:	00000513          	li	a0,0
    7af8:	09c0006f          	j	7b94 <z_tick_sleep+0xc8>
	if (Z_TICK_ABS(ticks) <= 0) {
    7afc:	ffe00793          	li	a5,-2
    7b00:	40a786b3          	sub	a3,a5,a0
    7b04:	00d7b733          	sltu	a4,a5,a3
    7b08:	fff5c793          	not	a5,a1
    7b0c:	40e787b3          	sub	a5,a5,a4
    7b10:	00050493          	mv	s1,a0
    7b14:	00058993          	mv	s3,a1
    7b18:	08f04e63          	bgtz	a5,7bb4 <z_tick_sleep+0xe8>
    7b1c:	00079463          	bnez	a5,7b24 <z_tick_sleep+0x58>
    7b20:	08069a63          	bnez	a3,7bb4 <z_tick_sleep+0xe8>
		expected_wakeup_ticks = ticks + sys_clock_tick_get_32();
    7b24:	6b8000ef          	jal	ra,81dc <sys_clock_tick_get_32>
    7b28:	00950433          	add	s0,a0,s1
	__asm__ volatile ("csrrc %0, mstatus, %1"
    7b2c:	00800a13          	li	s4,8
    7b30:	300a3a73          	csrrc	s4,mstatus,s4
	unready_thread(_current);
    7b34:	0000e937          	lui	s2,0xe
    7b38:	c6890913          	addi	s2,s2,-920 # dc68 <_kernel>
    7b3c:	00892503          	lw	a0,8(s2)
    7b40:	ff8ff0ef          	jal	ra,7338 <unready_thread>
	z_add_thread_timeout(_current, timeout);
    7b44:	00892503          	lw	a0,8(s2)
	z_add_timeout(&thread->base.timeout, z_thread_timeout, ticks);
    7b48:	000075b7          	lui	a1,0x7
    7b4c:	00048613          	mv	a2,s1
    7b50:	00098693          	mv	a3,s3
    7b54:	2cc58593          	addi	a1,a1,716 # 72cc <z_thread_timeout>
    7b58:	02050513          	addi	a0,a0,32
    7b5c:	2a8000ef          	jal	ra,7e04 <z_add_timeout>
	z_mark_thread_as_suspended(_current);
    7b60:	00892703          	lw	a4,8(s2)
    7b64:	008a7513          	andi	a0,s4,8
	thread->base.thread_state |= _THREAD_SUSPENDED;
    7b68:	00d74783          	lbu	a5,13(a4)
    7b6c:	0107e793          	ori	a5,a5,16
    7b70:	00f706a3          	sb	a5,13(a4)
    7b74:	f58f80ef          	jal	ra,2cc <arch_swap>
	ticks = (k_ticks_t)expected_wakeup_ticks - sys_clock_tick_get_32();
    7b78:	664000ef          	jal	ra,81dc <sys_clock_tick_get_32>
    7b7c:	40a407b3          	sub	a5,s0,a0
    7b80:	00f43433          	sltu	s0,s0,a5
    7b84:	40800433          	neg	s0,s0
	if (ticks > 0) {
    7b88:	f60416e3          	bnez	s0,7af4 <z_tick_sleep+0x28>
		return ticks;
    7b8c:	00078513          	mv	a0,a5
	if (ticks > 0) {
    7b90:	f60782e3          	beqz	a5,7af4 <z_tick_sleep+0x28>
}
    7b94:	01c12083          	lw	ra,28(sp)
    7b98:	01812403          	lw	s0,24(sp)
    7b9c:	01412483          	lw	s1,20(sp)
    7ba0:	01012903          	lw	s2,16(sp)
    7ba4:	00c12983          	lw	s3,12(sp)
    7ba8:	00812a03          	lw	s4,8(sp)
    7bac:	02010113          	addi	sp,sp,32
    7bb0:	00008067          	ret
		expected_wakeup_ticks = Z_TICK_ABS(ticks);
    7bb4:	ffe00413          	li	s0,-2
    7bb8:	40940433          	sub	s0,s0,s1
    7bbc:	f71ff06f          	j	7b2c <z_tick_sleep+0x60>

00007bc0 <z_impl_k_sleep>:

int32_t z_impl_k_sleep(k_timeout_t timeout)
{
    7bc0:	ff010113          	addi	sp,sp,-16
    7bc4:	00112623          	sw	ra,12(sp)
	__ASSERT(!arch_is_in_isr(), "");

	SYS_PORT_TRACING_FUNC_ENTER(k_thread, sleep, timeout);

	/* in case of K_FOREVER, we suspend */
	if (K_TIMEOUT_EQ(timeout, K_FOREVER)) {
    7bc8:	fff00693          	li	a3,-1
    7bcc:	02d51263          	bne	a0,a3,7bf0 <z_impl_k_sleep+0x30>
    7bd0:	02a59063          	bne	a1,a0,7bf0 <z_impl_k_sleep+0x30>
		k_thread_suspend(_current);
    7bd4:	0000e7b7          	lui	a5,0xe
    7bd8:	c707a503          	lw	a0,-912(a5) # dc70 <_kernel+0x8>
	z_impl_k_thread_suspend(thread);
    7bdc:	c25ff0ef          	jal	ra,7800 <z_impl_k_thread_suspend>

		SYS_PORT_TRACING_FUNC_EXIT(k_thread, sleep, timeout, (int32_t) K_TICKS_FOREVER);

		return (int32_t) K_TICKS_FOREVER;
    7be0:	fff00513          	li	a0,-1
	int32_t ret = k_ticks_to_ms_floor64(ticks);

	SYS_PORT_TRACING_FUNC_EXIT(k_thread, sleep, timeout, ret);

	return ret;
}
    7be4:	00c12083          	lw	ra,12(sp)
    7be8:	01010113          	addi	sp,sp,16
    7bec:	00008067          	ret
	ticks = z_tick_sleep(ticks);
    7bf0:	eddff0ef          	jal	ra,7acc <z_tick_sleep>
			return t * ((uint64_t)to_hz / from_hz);
    7bf4:	00a00793          	li	a5,10
    7bf8:	02f50533          	mul	a0,a0,a5
	return ret;
    7bfc:	fe9ff06f          	j	7be4 <z_impl_k_sleep+0x24>

00007c00 <z_impl_z_current_get>:

#ifdef CONFIG_SMP
	arch_irq_unlock(k);
#endif
	return ret;
}
    7c00:	0000e7b7          	lui	a5,0xe
    7c04:	c707a503          	lw	a0,-912(a5) # dc70 <_kernel+0x8>
    7c08:	00008067          	ret

00007c0c <z_thread_abort>:
#endif
	}
}

void z_thread_abort(struct k_thread *thread)
{
    7c0c:	fe010113          	addi	sp,sp,-32
    7c10:	00912a23          	sw	s1,20(sp)
    7c14:	00112e23          	sw	ra,28(sp)
    7c18:	00812c23          	sw	s0,24(sp)
    7c1c:	01212823          	sw	s2,16(sp)
    7c20:	01312623          	sw	s3,12(sp)
    7c24:	00800493          	li	s1,8
    7c28:	3004b4f3          	csrrc	s1,mstatus,s1
	k_spinlock_key_t key = k_spin_lock(&sched_spinlock);

	if ((thread->base.thread_state & _THREAD_DEAD) != 0U) {
    7c2c:	00d54783          	lbu	a5,13(a0)
	key = (mstatus & MSTATUS_IEN);
    7c30:	0084f493          	andi	s1,s1,8
    7c34:	0087f713          	andi	a4,a5,8
    7c38:	02070263          	beqz	a4,7c5c <z_thread_abort+0x50>
	__asm__ volatile ("csrrs %0, mstatus, %1"
    7c3c:	3004a4f3          	csrrs	s1,mstatus,s1
	if (thread == _current && !arch_is_in_isr()) {
		z_swap(&sched_spinlock, key);
		__ASSERT(false, "aborted _current back from dead");
	}
	k_spin_unlock(&sched_spinlock, key);
}
    7c40:	01c12083          	lw	ra,28(sp)
    7c44:	01812403          	lw	s0,24(sp)
    7c48:	01412483          	lw	s1,20(sp)
    7c4c:	01012903          	lw	s2,16(sp)
    7c50:	00c12983          	lw	s3,12(sp)
    7c54:	02010113          	addi	sp,sp,32
    7c58:	00008067          	ret
		thread->base.thread_state &= ~_THREAD_ABORTING;
    7c5c:	fdf7f713          	andi	a4,a5,-33
    7c60:	00876713          	ori	a4,a4,8
		if (z_is_thread_queued(thread)) {
    7c64:	01871693          	slli	a3,a4,0x18
    7c68:	4186d693          	srai	a3,a3,0x18
    7c6c:	00050413          	mv	s0,a0
    7c70:	0406ce63          	bltz	a3,7ccc <z_thread_abort+0xc0>
		thread->base.thread_state &= ~_THREAD_ABORTING;
    7c74:	00e506a3          	sb	a4,13(a0)
		if (thread->base.pended_on != NULL) {
    7c78:	00842783          	lw	a5,8(s0)
    7c7c:	00078663          	beqz	a5,7c88 <z_thread_abort+0x7c>
			unpend_thread_no_timeout(thread);
    7c80:	00040513          	mv	a0,s0
    7c84:	bb8ff0ef          	jal	ra,703c <unpend_thread_no_timeout>
	return z_abort_timeout(&thread->base.timeout);
    7c88:	02040513          	addi	a0,s0,32
    7c8c:	328000ef          	jal	ra,7fb4 <z_abort_timeout>
}

static inline struct k_thread *z_waitq_head(_wait_q_t *w)
{
	return (struct k_thread *)sys_dlist_peek_head(&w->waitq);
    7c90:	07040993          	addi	s3,s0,112
	return list->head == list;
    7c94:	07042903          	lw	s2,112(s0)
	return sys_dlist_is_empty(list) ? NULL : list->head;
    7c98:	01390463          	beq	s2,s3,7ca0 <z_thread_abort+0x94>
	while ((thread = z_waitq_head(wait_q)) != NULL) {
    7c9c:	04091263          	bnez	s2,7ce0 <z_thread_abort+0xd4>
		update_cache(1);
    7ca0:	00100513          	li	a0,1
    7ca4:	c24ff0ef          	jal	ra,70c8 <update_cache>
	if (thread == _current && !arch_is_in_isr()) {
    7ca8:	0000e7b7          	lui	a5,0xe
    7cac:	c6878793          	addi	a5,a5,-920 # dc68 <_kernel>
    7cb0:	0087a703          	lw	a4,8(a5)
    7cb4:	f88714e3          	bne	a4,s0,7c3c <z_thread_abort+0x30>
    7cb8:	0007a783          	lw	a5,0(a5)
    7cbc:	f80790e3          	bnez	a5,7c3c <z_thread_abort+0x30>
    7cc0:	00048513          	mv	a0,s1
    7cc4:	e08f80ef          	jal	ra,2cc <arch_swap>
	return ret;
    7cc8:	f75ff06f          	j	7c3c <z_thread_abort+0x30>
	thread->base.thread_state &= ~_THREAD_QUEUED;
    7ccc:	05f7f793          	andi	a5,a5,95
    7cd0:	0087e793          	ori	a5,a5,8
    7cd4:	00f506a3          	sb	a5,13(a0)
	sys_dlist_remove(&thread->base.qnode_dlist);
    7cd8:	b48ff0ef          	jal	ra,7020 <sys_dlist_remove>
}
    7cdc:	f9dff06f          	j	7c78 <z_thread_abort+0x6c>
		unpend_thread_no_timeout(thread);
    7ce0:	00090513          	mv	a0,s2
    7ce4:	b58ff0ef          	jal	ra,703c <unpend_thread_no_timeout>
    7ce8:	02090513          	addi	a0,s2,32
    7cec:	2c8000ef          	jal	ra,7fb4 <z_abort_timeout>
		ready_thread(thread);
    7cf0:	00090513          	mv	a0,s2
	thread->arch.swap_return_value = value;
    7cf4:	0a092023          	sw	zero,160(s2)
    7cf8:	d34ff0ef          	jal	ra,722c <ready_thread>
    7cfc:	f99ff06f          	j	7c94 <z_thread_abort+0x88>

00007d00 <z_impl_k_thread_abort>:
#if !defined(CONFIG_ARCH_HAS_THREAD_ABORT)
void z_impl_k_thread_abort(struct k_thread *thread)
{
	SYS_PORT_TRACING_OBJ_FUNC_ENTER(k_thread, abort, thread);

	z_thread_abort(thread);
    7d00:	f0dff06f          	j	7c0c <z_thread_abort>

00007d04 <elapsed>:
	sys_dlist_remove(&t->node);
}

static int32_t elapsed(void)
{
	return announce_remaining == 0 ? sys_clock_elapsed() : 0U;
    7d04:	0000e7b7          	lui	a5,0xe
    7d08:	9b47a783          	lw	a5,-1612(a5) # d9b4 <announce_remaining>
    7d0c:	00079463          	bnez	a5,7d14 <elapsed+0x10>
    7d10:	a35fe06f          	j	6744 <sys_clock_elapsed>
}
    7d14:	00000513          	li	a0,0
    7d18:	00008067          	ret

00007d1c <next_timeout>:
	return list->head == list;
    7d1c:	0002f7b7          	lui	a5,0x2f

static int32_t next_timeout(void)
{
    7d20:	ff010113          	addi	sp,sp,-16
    7d24:	47478793          	addi	a5,a5,1140 # 2f474 <timeout_list>
    7d28:	00812423          	sw	s0,8(sp)
    7d2c:	0007a403          	lw	s0,0(a5)
    7d30:	00112623          	sw	ra,12(sp)
	return sys_dlist_is_empty(list) ? NULL : list->head;
    7d34:	00f41463          	bne	s0,a5,7d3c <next_timeout+0x20>
    7d38:	00000413          	li	s0,0
	struct _timeout *to = first();
	int32_t ticks_elapsed = elapsed();
    7d3c:	fc9ff0ef          	jal	ra,7d04 <elapsed>
	int32_t ret = to == NULL ? MAX_WAIT
    7d40:	02040c63          	beqz	s0,7d78 <next_timeout+0x5c>
		: CLAMP(to->dticks - ticks_elapsed, 0, MAX_WAIT);
    7d44:	01042703          	lw	a4,16(s0)
    7d48:	01442783          	lw	a5,20(s0)
    7d4c:	41f55693          	srai	a3,a0,0x1f
    7d50:	40a70533          	sub	a0,a4,a0
    7d54:	00a73733          	sltu	a4,a4,a0
    7d58:	40d787b3          	sub	a5,a5,a3
    7d5c:	40e787b3          	sub	a5,a5,a4
	int32_t ret = to == NULL ? MAX_WAIT
    7d60:	00f04663          	bgtz	a5,7d6c <next_timeout+0x50>
    7d64:	04079063          	bnez	a5,7da4 <next_timeout+0x88>
    7d68:	02050e63          	beqz	a0,7da4 <next_timeout+0x88>
		: CLAMP(to->dticks - ticks_elapsed, 0, MAX_WAIT);
    7d6c:	00f04663          	bgtz	a5,7d78 <next_timeout+0x5c>
    7d70:	00079863          	bnez	a5,7d80 <next_timeout+0x64>
    7d74:	00055663          	bgez	a0,7d80 <next_timeout+0x64>
	int32_t ret = to == NULL ? MAX_WAIT
    7d78:	80000537          	lui	a0,0x80000
    7d7c:	fff54513          	not	a0,a0

#ifdef CONFIG_TIMESLICING
	if (_current_cpu->slice_ticks && _current_cpu->slice_ticks < ret) {
    7d80:	0000e7b7          	lui	a5,0xe
    7d84:	c787a783          	lw	a5,-904(a5) # dc78 <_kernel+0x10>
    7d88:	00078663          	beqz	a5,7d94 <next_timeout+0x78>
    7d8c:	00a7d463          	bge	a5,a0,7d94 <next_timeout+0x78>
    7d90:	00078513          	mv	a0,a5
		ret = _current_cpu->slice_ticks;
	}
#endif
	return ret;
}
    7d94:	00c12083          	lw	ra,12(sp)
    7d98:	00812403          	lw	s0,8(sp)
    7d9c:	01010113          	addi	sp,sp,16
    7da0:	00008067          	ret
	int32_t ret = to == NULL ? MAX_WAIT
    7da4:	00000513          	li	a0,0
    7da8:	fd9ff06f          	j	7d80 <next_timeout+0x64>

00007dac <remove_timeout>:
	return (node == list->tail) ? NULL : node->next;
    7dac:	00052783          	lw	a5,0(a0) # 80000000 <CONFIG_SYSTEM_WORKQUEUE_PRIORITY+0x80000001>
	return (node != NULL) ? sys_dlist_peek_next_no_check(list, node) : NULL;
    7db0:	02050e63          	beqz	a0,7dec <remove_timeout+0x40>
	return (node == list->tail) ? NULL : node->next;
    7db4:	0002f737          	lui	a4,0x2f
    7db8:	47872703          	lw	a4,1144(a4) # 2f478 <timeout_list+0x4>
    7dbc:	02e50863          	beq	a0,a4,7dec <remove_timeout+0x40>
	if (next(t) != NULL) {
    7dc0:	02078663          	beqz	a5,7dec <remove_timeout+0x40>
		next(t)->dticks += t->dticks;
    7dc4:	0107a703          	lw	a4,16(a5)
    7dc8:	01052683          	lw	a3,16(a0)
    7dcc:	01452583          	lw	a1,20(a0)
    7dd0:	0147a603          	lw	a2,20(a5)
    7dd4:	00d706b3          	add	a3,a4,a3
    7dd8:	00e6b733          	sltu	a4,a3,a4
    7ddc:	00b60633          	add	a2,a2,a1
    7de0:	00c70733          	add	a4,a4,a2
    7de4:	00d7a823          	sw	a3,16(a5)
    7de8:	00e7aa23          	sw	a4,20(a5)
	sys_dnode_t *const prev = node->prev;
    7dec:	00452703          	lw	a4,4(a0)
	prev->next = next;
    7df0:	00f72023          	sw	a5,0(a4)
	next->prev = prev;
    7df4:	00e7a223          	sw	a4,4(a5)
	node->next = NULL;
    7df8:	00052023          	sw	zero,0(a0)
	node->prev = NULL;
    7dfc:	00052223          	sw	zero,4(a0)
}
    7e00:	00008067          	ret

00007e04 <z_add_timeout>:

void z_add_timeout(struct _timeout *to, _timeout_func_t fn,
		   k_timeout_t timeout)
{
    7e04:	fe010113          	addi	sp,sp,-32
    7e08:	00812c23          	sw	s0,24(sp)
    7e0c:	00912a23          	sw	s1,20(sp)
    7e10:	01312623          	sw	s3,12(sp)
    7e14:	00112e23          	sw	ra,28(sp)
    7e18:	00068993          	mv	s3,a3
    7e1c:	01212823          	sw	s2,16(sp)
	if (K_TIMEOUT_EQ(timeout, K_FOREVER)) {
    7e20:	fff00693          	li	a3,-1
{
    7e24:	00050413          	mv	s0,a0
    7e28:	00060493          	mv	s1,a2
	if (K_TIMEOUT_EQ(timeout, K_FOREVER)) {
    7e2c:	00d61463          	bne	a2,a3,7e34 <z_add_timeout+0x30>
    7e30:	16c98463          	beq	s3,a2,7f98 <z_add_timeout+0x194>
#ifdef CONFIG_KERNEL_COHERENCE
	__ASSERT_NO_MSG(arch_mem_coherent(to));
#endif

	__ASSERT(!sys_dnode_is_linked(&to->node), "");
	to->fn = fn;
    7e34:	00b42423          	sw	a1,8(s0)
	__asm__ volatile ("csrrc %0, mstatus, %1"
    7e38:	00800913          	li	s2,8
    7e3c:	30093973          	csrrc	s2,mstatus,s2

	LOCKED(&timeout_lock) {
		struct _timeout *t;

		if (IS_ENABLED(CONFIG_TIMEOUT_64BIT) &&
		    Z_TICK_ABS(timeout.ticks) >= 0) {
    7e40:	ffe00693          	li	a3,-2
    7e44:	409687b3          	sub	a5,a3,s1
    7e48:	00f6b733          	sltu	a4,a3,a5
    7e4c:	fff9c793          	not	a5,s3
    7e50:	40e787b3          	sub	a5,a5,a4
	key = (mstatus & MSTATUS_IEN);
    7e54:	00897913          	andi	s2,s2,8
		if (IS_ENABLED(CONFIG_TIMEOUT_64BIT) &&
    7e58:	0607ce63          	bltz	a5,7ed4 <z_add_timeout+0xd0>
			k_ticks_t ticks = Z_TICK_ABS(timeout.ticks) - curr_tick;
    7e5c:	0000e7b7          	lui	a5,0xe
    7e60:	97878793          	addi	a5,a5,-1672 # d978 <curr_tick>
    7e64:	0007a703          	lw	a4,0(a5)
    7e68:	0047a783          	lw	a5,4(a5)
    7e6c:	40e68733          	sub	a4,a3,a4
    7e70:	00e6b6b3          	sltu	a3,a3,a4
    7e74:	fff7c793          	not	a5,a5
    7e78:	40d787b3          	sub	a5,a5,a3
    7e7c:	409704b3          	sub	s1,a4,s1
    7e80:	00973733          	sltu	a4,a4,s1
    7e84:	413786b3          	sub	a3,a5,s3

			to->dticks = MAX(1, ticks);
    7e88:	40e686b3          	sub	a3,a3,a4
    7e8c:	00d04a63          	bgtz	a3,7ea0 <z_add_timeout+0x9c>
    7e90:	00069463          	bnez	a3,7e98 <z_add_timeout+0x94>
    7e94:	00049663          	bnez	s1,7ea0 <z_add_timeout+0x9c>
    7e98:	00100493          	li	s1,1
    7e9c:	00000693          	li	a3,0
    7ea0:	00942823          	sw	s1,16(s0)
	return list->head == list;
    7ea4:	0002f637          	lui	a2,0x2f
    7ea8:	47460713          	addi	a4,a2,1140 # 2f474 <timeout_list>
    7eac:	00072783          	lw	a5,0(a4)
		} else {
			to->dticks = timeout.ticks + 1 + elapsed();
    7eb0:	00d42a23          	sw	a3,20(s0)
    7eb4:	47460613          	addi	a2,a2,1140
	sys_dnode_t *const tail = list->tail;
    7eb8:	00472803          	lw	a6,4(a4)
	return sys_dlist_is_empty(list) ? NULL : list->head;
    7ebc:	06c79263          	bne	a5,a2,7f20 <z_add_timeout+0x11c>
	node->next = list;
    7ec0:	00c42023          	sw	a2,0(s0)
	node->prev = tail;
    7ec4:	01042223          	sw	a6,4(s0)
	tail->next = node;
    7ec8:	00882023          	sw	s0,0(a6)
	list->tail = node;
    7ecc:	00862223          	sw	s0,4(a2)
}
    7ed0:	09c0006f          	j	7f6c <z_add_timeout+0x168>
    7ed4:	e31ff0ef          	jal	ra,7d04 <elapsed>
    7ed8:	00148793          	addi	a5,s1,1
    7edc:	0097b4b3          	sltu	s1,a5,s1
    7ee0:	013486b3          	add	a3,s1,s3
    7ee4:	41f55493          	srai	s1,a0,0x1f
    7ee8:	00a78533          	add	a0,a5,a0
    7eec:	00f537b3          	sltu	a5,a0,a5
    7ef0:	009686b3          	add	a3,a3,s1
    7ef4:	00d786b3          	add	a3,a5,a3
    7ef8:	00a42823          	sw	a0,16(s0)
    7efc:	fa9ff06f          	j	7ea4 <z_add_timeout+0xa0>
			if (t->dticks > to->dticks) {
				t->dticks -= to->dticks;
				sys_dlist_insert(&t->node, &to->node);
				break;
			}
			to->dticks -= t->dticks;
    7f00:	40e68733          	sub	a4,a3,a4
    7f04:	00e6b6b3          	sltu	a3,a3,a4
    7f08:	40a585b3          	sub	a1,a1,a0
    7f0c:	40d586b3          	sub	a3,a1,a3
    7f10:	00e42823          	sw	a4,16(s0)
    7f14:	00d42a23          	sw	a3,20(s0)
	return (node == list->tail) ? NULL : node->next;
    7f18:	faf804e3          	beq	a6,a5,7ec0 <z_add_timeout+0xbc>
    7f1c:	0007a783          	lw	a5,0(a5)
		for (t = first(); t != NULL; t = next(t)) {
    7f20:	fa0780e3          	beqz	a5,7ec0 <z_add_timeout+0xbc>
			if (t->dticks > to->dticks) {
    7f24:	0147a503          	lw	a0,20(a5)
    7f28:	01442583          	lw	a1,20(s0)
    7f2c:	0107a703          	lw	a4,16(a5)
    7f30:	01042683          	lw	a3,16(s0)
    7f34:	00a5c663          	blt	a1,a0,7f40 <z_add_timeout+0x13c>
    7f38:	fcb514e3          	bne	a0,a1,7f00 <z_add_timeout+0xfc>
    7f3c:	fce6f2e3          	bgeu	a3,a4,7f00 <z_add_timeout+0xfc>
				t->dticks -= to->dticks;
    7f40:	40d706b3          	sub	a3,a4,a3
    7f44:	00d73733          	sltu	a4,a4,a3
    7f48:	40b505b3          	sub	a1,a0,a1
    7f4c:	40e58733          	sub	a4,a1,a4
    7f50:	00e7aa23          	sw	a4,20(a5)
	sys_dnode_t *const prev = successor->prev;
    7f54:	0047a703          	lw	a4,4(a5)
    7f58:	00d7a823          	sw	a3,16(a5)
	node->next = successor;
    7f5c:	00f42023          	sw	a5,0(s0)
	node->prev = prev;
    7f60:	00e42223          	sw	a4,4(s0)
	prev->next = node;
    7f64:	00872023          	sw	s0,0(a4)
	successor->prev = node;
    7f68:	0087a223          	sw	s0,4(a5)
	return list->head == list;
    7f6c:	00062783          	lw	a5,0(a2)
	return sys_dlist_is_empty(list) ? NULL : list->head;
    7f70:	02c78263          	beq	a5,a2,7f94 <z_add_timeout+0x190>

		if (t == NULL) {
			sys_dlist_append(&timeout_list, &to->node);
		}

		if (to == first()) {
    7f74:	02f41063          	bne	s0,a5,7f94 <z_add_timeout+0x190>
			 * last announcement, and slice_ticks is based
			 * on that. It means that the time remaining for
			 * the next announcement can be less than
			 * slice_ticks.
			 */
			int32_t next_time = next_timeout();
    7f78:	da5ff0ef          	jal	ra,7d1c <next_timeout>

			if (next_time == 0 ||
    7f7c:	00050863          	beqz	a0,7f8c <z_add_timeout+0x188>
			    _current_cpu->slice_ticks != next_time) {
    7f80:	0000e7b7          	lui	a5,0xe
			if (next_time == 0 ||
    7f84:	c787a783          	lw	a5,-904(a5) # dc78 <_kernel+0x10>
    7f88:	00a78663          	beq	a5,a0,7f94 <z_add_timeout+0x190>
				sys_clock_set_timeout(next_time, false);
    7f8c:	00000593          	li	a1,0
    7f90:	fb0fe0ef          	jal	ra,6740 <sys_clock_set_timeout>
	__asm__ volatile ("csrrs %0, mstatus, %1"
    7f94:	30092973          	csrrs	s2,mstatus,s2
#else
			sys_clock_set_timeout(next_timeout(), false);
#endif	/* CONFIG_TIMESLICING */
		}
	}
}
    7f98:	01c12083          	lw	ra,28(sp)
    7f9c:	01812403          	lw	s0,24(sp)
    7fa0:	01412483          	lw	s1,20(sp)
    7fa4:	01012903          	lw	s2,16(sp)
    7fa8:	00c12983          	lw	s3,12(sp)
    7fac:	02010113          	addi	sp,sp,32
    7fb0:	00008067          	ret

00007fb4 <z_abort_timeout>:

int z_abort_timeout(struct _timeout *to)
{
    7fb4:	ff010113          	addi	sp,sp,-16
    7fb8:	00812423          	sw	s0,8(sp)
    7fbc:	00112623          	sw	ra,12(sp)
	__asm__ volatile ("csrrc %0, mstatus, %1"
    7fc0:	00800413          	li	s0,8
    7fc4:	30043473          	csrrc	s0,mstatus,s0
	int ret = -EINVAL;

	LOCKED(&timeout_lock) {
		if (sys_dnode_is_linked(&to->node)) {
    7fc8:	00052783          	lw	a5,0(a0)
	key = (mstatus & MSTATUS_IEN);
    7fcc:	00847413          	andi	s0,s0,8
    7fd0:	02078063          	beqz	a5,7ff0 <z_abort_timeout+0x3c>
			remove_timeout(to);
    7fd4:	dd9ff0ef          	jal	ra,7dac <remove_timeout>
			ret = 0;
    7fd8:	00000513          	li	a0,0
	__asm__ volatile ("csrrs %0, mstatus, %1"
    7fdc:	30042473          	csrrs	s0,mstatus,s0
		}
	}

	return ret;
}
    7fe0:	00c12083          	lw	ra,12(sp)
    7fe4:	00812403          	lw	s0,8(sp)
    7fe8:	01010113          	addi	sp,sp,16
    7fec:	00008067          	ret
	int ret = -EINVAL;
    7ff0:	fea00513          	li	a0,-22
    7ff4:	fe9ff06f          	j	7fdc <z_abort_timeout+0x28>

00007ff8 <z_set_timeout_expiry>:
	}
	return ret;
}

void z_set_timeout_expiry(int32_t ticks, bool is_idle)
{
    7ff8:	fe010113          	addi	sp,sp,-32
    7ffc:	00812c23          	sw	s0,24(sp)
    8000:	00912a23          	sw	s1,20(sp)
    8004:	00112e23          	sw	ra,28(sp)
    8008:	00050493          	mv	s1,a0
    800c:	00b12623          	sw	a1,12(sp)
	__asm__ volatile ("csrrc %0, mstatus, %1"
    8010:	00800413          	li	s0,8
    8014:	30043473          	csrrc	s0,mstatus,s0
	LOCKED(&timeout_lock) {
		int next_to = next_timeout();
    8018:	d05ff0ef          	jal	ra,7d1c <next_timeout>
		 * SMP can't use this optimization though: we don't
		 * know when context switches happen until interrupt
		 * exit and so can't get the timeslicing clamp folded
		 * in.
		 */
		if (!imminent && (sooner || IS_ENABLED(CONFIG_SMP))) {
    801c:	00100793          	li	a5,1
	key = (mstatus & MSTATUS_IEN);
    8020:	00847413          	andi	s0,s0,8
    8024:	00a7da63          	bge	a5,a0,8038 <z_set_timeout_expiry+0x40>
    8028:	00c12583          	lw	a1,12(sp)
    802c:	00954663          	blt	a0,s1,8038 <z_set_timeout_expiry+0x40>
			sys_clock_set_timeout(MIN(ticks, next_to), is_idle);
    8030:	00048513          	mv	a0,s1
    8034:	f0cfe0ef          	jal	ra,6740 <sys_clock_set_timeout>
	__asm__ volatile ("csrrs %0, mstatus, %1"
    8038:	30042473          	csrrs	s0,mstatus,s0
		}
	}
}
    803c:	01c12083          	lw	ra,28(sp)
    8040:	01812403          	lw	s0,24(sp)
    8044:	01412483          	lw	s1,20(sp)
    8048:	02010113          	addi	sp,sp,32
    804c:	00008067          	ret

00008050 <sys_clock_announce>:

void sys_clock_announce(int32_t ticks)
{
    8050:	fd010113          	addi	sp,sp,-48
    8054:	02812423          	sw	s0,40(sp)
    8058:	02912223          	sw	s1,36(sp)
    805c:	02112623          	sw	ra,44(sp)
    8060:	03212023          	sw	s2,32(sp)
    8064:	01312e23          	sw	s3,28(sp)
    8068:	01412c23          	sw	s4,24(sp)
    806c:	00050493          	mv	s1,a0
	__asm__ volatile ("csrrc %0, mstatus, %1"
    8070:	00800413          	li	s0,8
#ifdef CONFIG_TIMESLICING
	z_time_slice(ticks);
    8074:	c88ff0ef          	jal	ra,74fc <z_time_slice>
    8078:	30043473          	csrrc	s0,mstatus,s0
#endif

	k_spinlock_key_t key = k_spin_lock(&timeout_lock);

	announce_remaining = ticks;
    807c:	0000e937          	lui	s2,0xe
    8080:	9a992a23          	sw	s1,-1612(s2) # d9b4 <announce_remaining>
	return list->head == list;
    8084:	0002f9b7          	lui	s3,0x2f

	while (first() != NULL && first()->dticks <= announce_remaining) {
		struct _timeout *t = first();
		int dt = t->dticks;

		curr_tick += dt;
    8088:	0000e4b7          	lui	s1,0xe
	key = (mstatus & MSTATUS_IEN);
    808c:	00847413          	andi	s0,s0,8
	while (first() != NULL && first()->dticks <= announce_remaining) {
    8090:	9b490913          	addi	s2,s2,-1612
    8094:	47498993          	addi	s3,s3,1140 # 2f474 <timeout_list>
		curr_tick += dt;
    8098:	97848493          	addi	s1,s1,-1672 # d978 <curr_tick>
	__asm__ volatile ("csrrc %0, mstatus, %1"
    809c:	00800a13          	li	s4,8
	while (first() != NULL && first()->dticks <= announce_remaining) {
    80a0:	00092783          	lw	a5,0(s2)
    80a4:	0009a503          	lw	a0,0(s3)
		curr_tick += dt;
    80a8:	0004a683          	lw	a3,0(s1)
    80ac:	0044a883          	lw	a7,4(s1)
    80b0:	41f7d593          	srai	a1,a5,0x1f
	return sys_dlist_is_empty(list) ? NULL : list->head;
    80b4:	03350a63          	beq	a0,s3,80e8 <sys_clock_announce+0x98>
	while (first() != NULL && first()->dticks <= announce_remaining) {
    80b8:	02050863          	beqz	a0,80e8 <sys_clock_announce+0x98>
    80bc:	01452603          	lw	a2,20(a0)
    80c0:	01052703          	lw	a4,16(a0)
    80c4:	00c5c663          	blt	a1,a2,80d0 <sys_clock_announce+0x80>
    80c8:	06b61663          	bne	a2,a1,8134 <sys_clock_announce+0xe4>
    80cc:	06e7f463          	bgeu	a5,a4,8134 <sys_clock_announce+0xe4>
		t->fn(t);
		key = k_spin_lock(&timeout_lock);
	}

	if (first() != NULL) {
		first()->dticks -= announce_remaining;
    80d0:	40f70833          	sub	a6,a4,a5
    80d4:	01073733          	sltu	a4,a4,a6
    80d8:	40b60633          	sub	a2,a2,a1
    80dc:	40e60733          	sub	a4,a2,a4
    80e0:	01052823          	sw	a6,16(a0)
    80e4:	00e52a23          	sw	a4,20(a0)
	}

	curr_tick += announce_remaining;
    80e8:	00d786b3          	add	a3,a5,a3
    80ec:	011585b3          	add	a1,a1,a7
    80f0:	00f6b7b3          	sltu	a5,a3,a5
    80f4:	00b787b3          	add	a5,a5,a1
    80f8:	00d4a023          	sw	a3,0(s1)
    80fc:	00f4a223          	sw	a5,4(s1)
	announce_remaining = 0;
    8100:	00092023          	sw	zero,0(s2)

	sys_clock_set_timeout(next_timeout(), false);
    8104:	c19ff0ef          	jal	ra,7d1c <next_timeout>
    8108:	00000593          	li	a1,0
    810c:	e34fe0ef          	jal	ra,6740 <sys_clock_set_timeout>
	__asm__ volatile ("csrrs %0, mstatus, %1"
    8110:	30042473          	csrrs	s0,mstatus,s0

	k_spin_unlock(&timeout_lock, key);
}
    8114:	02c12083          	lw	ra,44(sp)
    8118:	02812403          	lw	s0,40(sp)
    811c:	02412483          	lw	s1,36(sp)
    8120:	02012903          	lw	s2,32(sp)
    8124:	01c12983          	lw	s3,28(sp)
    8128:	01812a03          	lw	s4,24(sp)
    812c:	03010113          	addi	sp,sp,48
    8130:	00008067          	ret
		curr_tick += dt;
    8134:	00d706b3          	add	a3,a4,a3
		announce_remaining -= dt;
    8138:	40e787b3          	sub	a5,a5,a4
		curr_tick += dt;
    813c:	41f75593          	srai	a1,a4,0x1f
    8140:	00e6b633          	sltu	a2,a3,a4
    8144:	011585b3          	add	a1,a1,a7
		announce_remaining -= dt;
    8148:	00f92023          	sw	a5,0(s2)
		t->dticks = 0;
    814c:	00000813          	li	a6,0
    8150:	00000793          	li	a5,0
		curr_tick += dt;
    8154:	00b605b3          	add	a1,a2,a1
		t->dticks = 0;
    8158:	00f52823          	sw	a5,16(a0)
    815c:	01052a23          	sw	a6,20(a0)
		curr_tick += dt;
    8160:	00d4a023          	sw	a3,0(s1)
    8164:	00b4a223          	sw	a1,4(s1)
		remove_timeout(t);
    8168:	00a12623          	sw	a0,12(sp)
    816c:	c41ff0ef          	jal	ra,7dac <remove_timeout>
    8170:	30042473          	csrrs	s0,mstatus,s0
		t->fn(t);
    8174:	00c12503          	lw	a0,12(sp)
    8178:	00852783          	lw	a5,8(a0)
    817c:	000780e7          	jalr	a5
	__asm__ volatile ("csrrc %0, mstatus, %1"
    8180:	300a3473          	csrrc	s0,mstatus,s4
	key = (mstatus & MSTATUS_IEN);
    8184:	00847413          	andi	s0,s0,8
#endif

#ifdef CONFIG_SPIN_VALIDATE
	z_spin_lock_set_owner(l);
#endif
	return k;
    8188:	f19ff06f          	j	80a0 <sys_clock_announce+0x50>

0000818c <sys_clock_tick_get>:

int64_t sys_clock_tick_get(void)
{
    818c:	ff010113          	addi	sp,sp,-16
    8190:	00812423          	sw	s0,8(sp)
    8194:	00112623          	sw	ra,12(sp)
	__asm__ volatile ("csrrc %0, mstatus, %1"
    8198:	00800413          	li	s0,8
    819c:	30043473          	csrrc	s0,mstatus,s0
	uint64_t t = 0U;

	LOCKED(&timeout_lock) {
		t = curr_tick + sys_clock_elapsed();
    81a0:	da4fe0ef          	jal	ra,6744 <sys_clock_elapsed>
    81a4:	0000e737          	lui	a4,0xe
    81a8:	97870713          	addi	a4,a4,-1672 # d978 <curr_tick>
    81ac:	00050793          	mv	a5,a0
    81b0:	00072503          	lw	a0,0(a4)
    81b4:	00472583          	lw	a1,4(a4)
	key = (mstatus & MSTATUS_IEN);
    81b8:	00847413          	andi	s0,s0,8
    81bc:	00a78533          	add	a0,a5,a0
    81c0:	00f537b3          	sltu	a5,a0,a5
    81c4:	00b785b3          	add	a1,a5,a1
	__asm__ volatile ("csrrs %0, mstatus, %1"
    81c8:	30042473          	csrrs	s0,mstatus,s0
	}
	return t;
}
    81cc:	00c12083          	lw	ra,12(sp)
    81d0:	00812403          	lw	s0,8(sp)
    81d4:	01010113          	addi	sp,sp,16
    81d8:	00008067          	ret

000081dc <sys_clock_tick_get_32>:
#ifdef CONFIG_TICKLESS_KERNEL
	return (uint32_t)sys_clock_tick_get();
#else
	return (uint32_t)curr_tick;
#endif
}
    81dc:	0000e7b7          	lui	a5,0xe
    81e0:	9787a503          	lw	a0,-1672(a5) # d978 <curr_tick>
    81e4:	00008067          	ret

000081e8 <z_impl_k_uptime_ticks>:

int64_t z_impl_k_uptime_ticks(void)
{
	return sys_clock_tick_get();
    81e8:	fa5ff06f          	j	818c <sys_clock_tick_get>

000081ec <sys_clock_timeout_end_calc>:
 * timeout object.  When used correctly, this should be called once,
 * synchronously with the user passing a new timeout value.  It should
 * not be used iteratively to adjust a timeout.
 */
uint64_t sys_clock_timeout_end_calc(k_timeout_t timeout)
{
    81ec:	ff010113          	addi	sp,sp,-16
    81f0:	00812423          	sw	s0,8(sp)
    81f4:	00912223          	sw	s1,4(sp)
    81f8:	00112623          	sw	ra,12(sp)
	k_ticks_t dt;

	if (K_TIMEOUT_EQ(timeout, K_FOREVER)) {
    81fc:	fff00693          	li	a3,-1
{
    8200:	00050493          	mv	s1,a0
    8204:	00058413          	mv	s0,a1
	if (K_TIMEOUT_EQ(timeout, K_FOREVER)) {
    8208:	00d51463          	bne	a0,a3,8210 <sys_clock_timeout_end_calc+0x24>
    820c:	06a58a63          	beq	a1,a0,8280 <sys_clock_timeout_end_calc+0x94>
		return UINT64_MAX;
	} else if (K_TIMEOUT_EQ(timeout, K_NO_WAIT)) {
    8210:	009467b3          	or	a5,s0,s1
    8214:	00079c63          	bnez	a5,822c <sys_clock_timeout_end_calc+0x40>
		if (IS_ENABLED(CONFIG_TIMEOUT_64BIT) && Z_TICK_ABS(dt) >= 0) {
			return Z_TICK_ABS(dt);
		}
		return sys_clock_tick_get() + MAX(1, dt);
	}
}
    8218:	00812403          	lw	s0,8(sp)
    821c:	00c12083          	lw	ra,12(sp)
    8220:	00412483          	lw	s1,4(sp)
    8224:	01010113          	addi	sp,sp,16
		return sys_clock_tick_get();
    8228:	f65ff06f          	j	818c <sys_clock_tick_get>
		if (IS_ENABLED(CONFIG_TIMEOUT_64BIT) && Z_TICK_ABS(dt) >= 0) {
    822c:	ffe00593          	li	a1,-2
    8230:	40958533          	sub	a0,a1,s1
    8234:	00a5b7b3          	sltu	a5,a1,a0
    8238:	fff44593          	not	a1,s0
    823c:	40f585b3          	sub	a1,a1,a5
    8240:	0205d663          	bgez	a1,826c <sys_clock_timeout_end_calc+0x80>
		return sys_clock_tick_get() + MAX(1, dt);
    8244:	f49ff0ef          	jal	ra,818c <sys_clock_tick_get>
    8248:	00804a63          	bgtz	s0,825c <sys_clock_timeout_end_calc+0x70>
    824c:	00041463          	bnez	s0,8254 <sys_clock_timeout_end_calc+0x68>
    8250:	00049663          	bnez	s1,825c <sys_clock_timeout_end_calc+0x70>
    8254:	00100493          	li	s1,1
    8258:	00000413          	li	s0,0
    825c:	00a48533          	add	a0,s1,a0
    8260:	009534b3          	sltu	s1,a0,s1
    8264:	00b40433          	add	s0,s0,a1
    8268:	008485b3          	add	a1,s1,s0
}
    826c:	00c12083          	lw	ra,12(sp)
    8270:	00812403          	lw	s0,8(sp)
    8274:	00412483          	lw	s1,4(sp)
    8278:	01010113          	addi	sp,sp,16
    827c:	00008067          	ret
		return UINT64_MAX;
    8280:	fff00513          	li	a0,-1
    8284:	fff00593          	li	a1,-1
    8288:	fe5ff06f          	j	826c <sys_clock_timeout_end_calc+0x80>

0000828c <z_impl_atomic_add>:
 * @param value the value to add
 *
 * @return The previous value from <target>
 */
atomic_val_t z_impl_atomic_add(atomic_t *target, atomic_val_t value)
{
    828c:	00050713          	mv	a4,a0
	__asm__ volatile ("csrrc %0, mstatus, %1"
    8290:	00800793          	li	a5,8
    8294:	3007b7f3          	csrrc	a5,mstatus,a5
	k_spinlock_key_t key;
	atomic_val_t ret;

	key = k_spin_lock(&lock);

	ret = *target;
    8298:	00052503          	lw	a0,0(a0)
	key = (mstatus & MSTATUS_IEN);
    829c:	0087f793          	andi	a5,a5,8
	*target += value;
    82a0:	00b505b3          	add	a1,a0,a1
    82a4:	00b72023          	sw	a1,0(a4)
	__asm__ volatile ("csrrs %0, mstatus, %1"
    82a8:	3007a7f3          	csrrs	a5,mstatus,a5

	k_spin_unlock(&lock, key);

	return ret;
}
    82ac:	00008067          	ret

000082b0 <z_heap_aligned_alloc>:
#include <string.h>
#include <sys/math_extras.h>
#include <sys/util.h>

static void *z_heap_aligned_alloc(struct k_heap *heap, size_t align, size_t size)
{
    82b0:	00060793          	mv	a5,a2
	return __builtin_add_overflow(a, b, result);
}

static inline bool size_add_overflow(size_t a, size_t b, size_t *result)
{
	return __builtin_add_overflow(a, b, result);
    82b4:	00460613          	addi	a2,a2,4
    82b8:	02f67063          	bgeu	a2,a5,82d8 <z_heap_aligned_alloc+0x28>
	 * Merge a rewind bit with align value (see sys_heap_aligned_alloc()).
	 * This allows for storing the heap pointer right below the aligned
	 * boundary without wasting any memory.
	 */
	if (size_add_overflow(size, sizeof(heap_ref), &size)) {
		return NULL;
    82bc:	00000513          	li	a0,0
	mem = ++heap_ref;
	__ASSERT(align == 0 || ((uintptr_t)mem & (align - 1)) == 0,
		 "misaligned memory at %p (align = %zu)", mem, align);

	return mem;
}
    82c0:	00008067          	ret
		return NULL;
    82c4:	00000513          	li	a0,0
}
    82c8:	00c12083          	lw	ra,12(sp)
    82cc:	00812403          	lw	s0,8(sp)
    82d0:	01010113          	addi	sp,sp,16
    82d4:	00008067          	ret
{
    82d8:	ff010113          	addi	sp,sp,-16
	mem = k_heap_aligned_alloc(heap, __align, size, K_NO_WAIT);
    82dc:	00000693          	li	a3,0
    82e0:	00000713          	li	a4,0
    82e4:	0045e593          	ori	a1,a1,4
{
    82e8:	00812423          	sw	s0,8(sp)
    82ec:	00112623          	sw	ra,12(sp)
    82f0:	00050413          	mv	s0,a0
	mem = k_heap_aligned_alloc(heap, __align, size, K_NO_WAIT);
    82f4:	0c8000ef          	jal	ra,83bc <k_heap_aligned_alloc>
	if (mem == NULL) {
    82f8:	fc0506e3          	beqz	a0,82c4 <z_heap_aligned_alloc+0x14>
	*heap_ref = heap;
    82fc:	00852023          	sw	s0,0(a0)
	mem = ++heap_ref;
    8300:	00450513          	addi	a0,a0,4
	return mem;
    8304:	fc5ff06f          	j	82c8 <z_heap_aligned_alloc+0x18>

00008308 <k_free>:

void k_free(void *ptr)
{
	struct k_heap **heap_ref;

	if (ptr != NULL) {
    8308:	00050863          	beqz	a0,8318 <k_free+0x10>
		heap_ref = ptr;
		ptr = --heap_ref;

		SYS_PORT_TRACING_OBJ_FUNC_ENTER(k_heap_sys, k_free, *heap_ref);

		k_heap_free(*heap_ref, ptr);
    830c:	ffc50593          	addi	a1,a0,-4
    8310:	ffc52503          	lw	a0,-4(a0)
    8314:	1a00006f          	j	84b4 <k_heap_free>

		SYS_PORT_TRACING_OBJ_FUNC_EXIT(k_heap_sys, k_free, *heap_ref);
	}
}
    8318:	00008067          	ret

0000831c <k_aligned_alloc>:

K_HEAP_DEFINE(_system_heap, CONFIG_HEAP_MEM_POOL_SIZE);
#define _SYSTEM_HEAP (&_system_heap)

void *k_aligned_alloc(size_t align, size_t size)
{
    831c:	00058613          	mv	a2,a1
	__ASSERT((align & (align - 1)) == 0,
		"align must be a power of 2");

	SYS_PORT_TRACING_OBJ_FUNC_ENTER(k_heap_sys, k_aligned_alloc, _SYSTEM_HEAP);

	void *ret = z_heap_aligned_alloc(_SYSTEM_HEAP, align, size);
    8320:	00050593          	mv	a1,a0
    8324:	0002f537          	lui	a0,0x2f
    8328:	69450513          	addi	a0,a0,1684 # 2f694 <_system_heap>
    832c:	f85ff06f          	j	82b0 <z_heap_aligned_alloc>

00008330 <k_malloc>:

	return ret;
}

void *k_malloc(size_t size)
{
    8330:	00050593          	mv	a1,a0
	SYS_PORT_TRACING_OBJ_FUNC_ENTER(k_heap_sys, k_malloc, _SYSTEM_HEAP);

	void *ret = k_aligned_alloc(sizeof(void *), size);
    8334:	00400513          	li	a0,4
    8338:	fe5ff06f          	j	831c <k_aligned_alloc>

0000833c <boot_banner>:
		k_busy_wait(CONFIG_BOOT_DELAY * USEC_PER_MSEC);
	}

#if defined(CONFIG_BOOT_BANNER)
#ifdef BUILD_VERSION
	printk("*** Booting Zephyr OS build %s %s ***\n",
    833c:	0000d637          	lui	a2,0xd
    8340:	0000d5b7          	lui	a1,0xd
    8344:	0000d537          	lui	a0,0xd
    8348:	2c460613          	addi	a2,a2,708 # d2c4 <__mprec_tens+0x1cc>
    834c:	5d458593          	addi	a1,a1,1492 # d5d4 <levels.0+0x28>
    8350:	5dc50513          	addi	a0,a0,1500 # d5dc <levels.0+0x30>
    8354:	fb1fb06f          	j	4304 <printk>

00008358 <k_heap_init>:
	sys_dlist_init(&w->waitq);
    8358:	00c50713          	addi	a4,a0,12
	list->head = (sys_dnode_t *)list;
    835c:	00e52623          	sw	a4,12(a0)
	list->tail = (sys_dnode_t *)list;
    8360:	00e52823          	sw	a4,16(a0)
#include <linker/linker-defs.h>

void k_heap_init(struct k_heap *h, void *mem, size_t bytes)
{
	z_waitq_init(&h->wait_q);
	sys_heap_init(&h->heap, mem, bytes);
    8364:	a2dfc06f          	j	4d90 <sys_heap_init>

00008368 <statics_init>:

	SYS_PORT_TRACING_OBJ_INIT(k_heap, h);
}

static int statics_init(const struct device *unused)
{
    8368:	ff010113          	addi	sp,sp,-16
    836c:	00812423          	sw	s0,8(sp)
    8370:	00912223          	sw	s1,4(sp)
	ARG_UNUSED(unused);
	STRUCT_SECTION_FOREACH(k_heap, h) {
    8374:	0002f437          	lui	s0,0x2f
    8378:	0002f4b7          	lui	s1,0x2f
{
    837c:	00112623          	sw	ra,12(sp)
	STRUCT_SECTION_FOREACH(k_heap, h) {
    8380:	69440413          	addi	s0,s0,1684 # 2f694 <_system_heap>
    8384:	6a848493          	addi	s1,s1,1704 # 2f6a8 <__lock___malloc_recursive_mutex>
    8388:	00946e63          	bltu	s0,s1,83a4 <statics_init+0x3c>
		{
			k_heap_init(h, h->heap.init_mem, h->heap.init_bytes);
		}
	}
	return 0;
}
    838c:	00c12083          	lw	ra,12(sp)
    8390:	00812403          	lw	s0,8(sp)
    8394:	00412483          	lw	s1,4(sp)
    8398:	00000513          	li	a0,0
    839c:	01010113          	addi	sp,sp,16
    83a0:	00008067          	ret
			k_heap_init(h, h->heap.init_mem, h->heap.init_bytes);
    83a4:	00842603          	lw	a2,8(s0)
    83a8:	00442583          	lw	a1,4(s0)
    83ac:	00040513          	mv	a0,s0
	STRUCT_SECTION_FOREACH(k_heap, h) {
    83b0:	01440413          	addi	s0,s0,20
			k_heap_init(h, h->heap.init_mem, h->heap.init_bytes);
    83b4:	fa5ff0ef          	jal	ra,8358 <k_heap_init>
	STRUCT_SECTION_FOREACH(k_heap, h) {
    83b8:	fd1ff06f          	j	8388 <statics_init+0x20>

000083bc <k_heap_aligned_alloc>:
SYS_INIT(statics_init, POST_KERNEL, 0);
#endif /* CONFIG_DEMAND_PAGING && !CONFIG_LINKER_GENERIC_SECTIONS_PRESENT_AT_BOOT */

void *k_heap_aligned_alloc(struct k_heap *h, size_t align, size_t bytes,
			k_timeout_t timeout)
{
    83bc:	fd010113          	addi	sp,sp,-48
    83c0:	03212023          	sw	s2,32(sp)
    83c4:	01412c23          	sw	s4,24(sp)
    83c8:	00050913          	mv	s2,a0
    83cc:	00058a13          	mv	s4,a1
    83d0:	00068513          	mv	a0,a3
    83d4:	00070593          	mv	a1,a4
    83d8:	02812423          	sw	s0,40(sp)
    83dc:	02912223          	sw	s1,36(sp)
    83e0:	01312e23          	sw	s3,28(sp)
    83e4:	01512a23          	sw	s5,20(sp)
    83e8:	01612823          	sw	s6,16(sp)
    83ec:	02112623          	sw	ra,44(sp)
    83f0:	01712623          	sw	s7,12(sp)
    83f4:	01812423          	sw	s8,8(sp)
    83f8:	01912223          	sw	s9,4(sp)
    83fc:	00060a93          	mv	s5,a2
	int64_t now, end = sys_clock_timeout_end_calc(timeout);
    8400:	dedff0ef          	jal	ra,81ec <sys_clock_timeout_end_calc>
    8404:	00050493          	mv	s1,a0
    8408:	00058993          	mv	s3,a1
	void *ret = NULL;
	k_spinlock_key_t key = k_spin_lock(&h->lock);
    840c:	01490b13          	addi	s6,s2,20
	__asm__ volatile ("csrrc %0, mstatus, %1"
    8410:	00800413          	li	s0,8
    8414:	30043473          	csrrc	s0,mstatus,s0
    8418:	00800c13          	li	s8,8
	key = (mstatus & MSTATUS_IEN);
    841c:	00847413          	andi	s0,s0,8
			/**
			 * @todo	Trace attempt to avoid empty trace segments
			 */
		}

		(void) z_pend_curr(&h->lock, key, &h->wait_q,
    8420:	00c90b93          	addi	s7,s2,12
		ret = sys_heap_aligned_alloc(&h->heap, align, bytes);
    8424:	000a8613          	mv	a2,s5
    8428:	000a0593          	mv	a1,s4
    842c:	00090513          	mv	a0,s2
    8430:	f98fc0ef          	jal	ra,4bc8 <sys_heap_aligned_alloc>
    8434:	00050c93          	mv	s9,a0
		now = sys_clock_tick_get();
    8438:	d55ff0ef          	jal	ra,818c <sys_clock_tick_get>
		if (!IS_ENABLED(CONFIG_MULTITHREADING) ||
    843c:	040c8063          	beqz	s9,847c <k_heap_aligned_alloc+0xc0>
	__asm__ volatile ("csrrs %0, mstatus, %1"
    8440:	30042473          	csrrs	s0,mstatus,s0

	SYS_PORT_TRACING_OBJ_FUNC_EXIT(k_heap, aligned_alloc, h, timeout, ret);

	k_spin_unlock(&h->lock, key);
	return ret;
}
    8444:	02c12083          	lw	ra,44(sp)
    8448:	02812403          	lw	s0,40(sp)
    844c:	02412483          	lw	s1,36(sp)
    8450:	02012903          	lw	s2,32(sp)
    8454:	01c12983          	lw	s3,28(sp)
    8458:	01812a03          	lw	s4,24(sp)
    845c:	01412a83          	lw	s5,20(sp)
    8460:	01012b03          	lw	s6,16(sp)
    8464:	00c12b83          	lw	s7,12(sp)
    8468:	00812c03          	lw	s8,8(sp)
    846c:	000c8513          	mv	a0,s9
    8470:	00412c83          	lw	s9,4(sp)
    8474:	03010113          	addi	sp,sp,48
    8478:	00008067          	ret
		    (ret != NULL) || ((end - now) <= 0)) {
    847c:	40a486b3          	sub	a3,s1,a0
    8480:	00d4b733          	sltu	a4,s1,a3
    8484:	40b985b3          	sub	a1,s3,a1
    8488:	40e58733          	sub	a4,a1,a4
    848c:	00e04663          	bgtz	a4,8498 <k_heap_aligned_alloc+0xdc>
    8490:	fa0718e3          	bnez	a4,8440 <k_heap_aligned_alloc+0x84>
    8494:	fa0686e3          	beqz	a3,8440 <k_heap_aligned_alloc+0x84>
		(void) z_pend_curr(&h->lock, key, &h->wait_q,
    8498:	000b8613          	mv	a2,s7
    849c:	00040593          	mv	a1,s0
    84a0:	000b0513          	mv	a0,s6
    84a4:	928ff0ef          	jal	ra,75cc <z_pend_curr>
	__asm__ volatile ("csrrc %0, mstatus, %1"
    84a8:	300c3473          	csrrc	s0,mstatus,s8
	key = (mstatus & MSTATUS_IEN);
    84ac:	00847413          	andi	s0,s0,8
    84b0:	f75ff06f          	j	8424 <k_heap_aligned_alloc+0x68>

000084b4 <k_heap_free>:

	return ret;
}

void k_heap_free(struct k_heap *h, void *mem)
{
    84b4:	ff010113          	addi	sp,sp,-16
    84b8:	00812423          	sw	s0,8(sp)
    84bc:	00912223          	sw	s1,4(sp)
    84c0:	00112623          	sw	ra,12(sp)
    84c4:	00050493          	mv	s1,a0
	__asm__ volatile ("csrrc %0, mstatus, %1"
    84c8:	00800413          	li	s0,8
    84cc:	30043473          	csrrc	s0,mstatus,s0
	k_spinlock_key_t key = k_spin_lock(&h->lock);

	sys_heap_free(&h->heap, mem);
    84d0:	dc8fc0ef          	jal	ra,4a98 <sys_heap_free>

	SYS_PORT_TRACING_OBJ_FUNC(k_heap, free, h);
	if (IS_ENABLED(CONFIG_MULTITHREADING) && z_unpend_all(&h->wait_q) != 0) {
    84d4:	00c48513          	addi	a0,s1,12
	key = (mstatus & MSTATUS_IEN);
    84d8:	00847413          	andi	s0,s0,8
    84dc:	ca4ff0ef          	jal	ra,7980 <z_unpend_all>
    84e0:	02050063          	beqz	a0,8500 <k_heap_free+0x4c>
		z_reschedule(&h->lock, key);
    84e4:	00040593          	mv	a1,s0
	} else {
		k_spin_unlock(&h->lock, key);
	}
}
    84e8:	00812403          	lw	s0,8(sp)
    84ec:	00c12083          	lw	ra,12(sp)
		z_reschedule(&h->lock, key);
    84f0:	01448513          	addi	a0,s1,20
}
    84f4:	00412483          	lw	s1,4(sp)
    84f8:	01010113          	addi	sp,sp,16
		z_reschedule(&h->lock, key);
    84fc:	a50ff06f          	j	774c <z_reschedule>
	__asm__ volatile ("csrrs %0, mstatus, %1"
    8500:	30042473          	csrrs	s0,mstatus,s0
}
    8504:	00c12083          	lw	ra,12(sp)
    8508:	00812403          	lw	s0,8(sp)
    850c:	00412483          	lw	s1,4(sp)
    8510:	01010113          	addi	sp,sp,16
    8514:	00008067          	ret

00008518 <exit>:
    8518:	ff010113          	addi	sp,sp,-16
    851c:	00812423          	sw	s0,8(sp)
    8520:	00112623          	sw	ra,12(sp)
    8524:	00000793          	li	a5,0
    8528:	00050413          	mv	s0,a0
    852c:	00078863          	beqz	a5,853c <exit+0x24>
    8530:	00000593          	li	a1,0
    8534:	00000097          	auipc	ra,0x0
    8538:	000000e7          	jalr	zero # 0 <__start>
    853c:	0000d7b7          	lui	a5,0xd
    8540:	ed87a503          	lw	a0,-296(a5) # ced8 <_global_impure_ptr>
    8544:	02852783          	lw	a5,40(a0)
    8548:	00078463          	beqz	a5,8550 <exit+0x38>
    854c:	000780e7          	jalr	a5
    8550:	00040513          	mv	a0,s0
    8554:	8e5fd0ef          	jal	ra,5e38 <_exit>

00008558 <malloc>:
    8558:	0002f7b7          	lui	a5,0x2f
    855c:	00050593          	mv	a1,a0
    8560:	4807a503          	lw	a0,1152(a5) # 2f480 <_impure_ptr>
    8564:	1080006f          	j	866c <_malloc_r>

00008568 <_free_r>:
    8568:	10058063          	beqz	a1,8668 <_free_r+0x100>
    856c:	ffc5a783          	lw	a5,-4(a1)
    8570:	fe010113          	addi	sp,sp,-32
    8574:	00812c23          	sw	s0,24(sp)
    8578:	00112e23          	sw	ra,28(sp)
    857c:	ffc58413          	addi	s0,a1,-4
    8580:	0007d463          	bgez	a5,8588 <_free_r+0x20>
    8584:	00f40433          	add	s0,s0,a5
    8588:	00a12623          	sw	a0,12(sp)
    858c:	1d5020ef          	jal	ra,af60 <__malloc_lock>
    8590:	0000e737          	lui	a4,0xe
    8594:	9b872783          	lw	a5,-1608(a4) # d9b8 <__malloc_free_list>
    8598:	00c12503          	lw	a0,12(sp)
    859c:	00070613          	mv	a2,a4
    85a0:	00079e63          	bnez	a5,85bc <_free_r+0x54>
    85a4:	00042223          	sw	zero,4(s0)
    85a8:	9a872c23          	sw	s0,-1608(a4)
    85ac:	01812403          	lw	s0,24(sp)
    85b0:	01c12083          	lw	ra,28(sp)
    85b4:	02010113          	addi	sp,sp,32
    85b8:	1b50206f          	j	af6c <__malloc_unlock>
    85bc:	02f47663          	bgeu	s0,a5,85e8 <_free_r+0x80>
    85c0:	00042683          	lw	a3,0(s0)
    85c4:	00d40733          	add	a4,s0,a3
    85c8:	00e79a63          	bne	a5,a4,85dc <_free_r+0x74>
    85cc:	0007a703          	lw	a4,0(a5)
    85d0:	0047a783          	lw	a5,4(a5)
    85d4:	00d70733          	add	a4,a4,a3
    85d8:	00e42023          	sw	a4,0(s0)
    85dc:	00f42223          	sw	a5,4(s0)
    85e0:	9a862c23          	sw	s0,-1608(a2)
    85e4:	fc9ff06f          	j	85ac <_free_r+0x44>
    85e8:	00078713          	mv	a4,a5
    85ec:	0047a783          	lw	a5,4(a5)
    85f0:	00078463          	beqz	a5,85f8 <_free_r+0x90>
    85f4:	fef47ae3          	bgeu	s0,a5,85e8 <_free_r+0x80>
    85f8:	00072683          	lw	a3,0(a4)
    85fc:	00d70633          	add	a2,a4,a3
    8600:	02861863          	bne	a2,s0,8630 <_free_r+0xc8>
    8604:	00042603          	lw	a2,0(s0)
    8608:	00c686b3          	add	a3,a3,a2
    860c:	00d72023          	sw	a3,0(a4)
    8610:	00d70633          	add	a2,a4,a3
    8614:	f8c79ce3          	bne	a5,a2,85ac <_free_r+0x44>
    8618:	0007a603          	lw	a2,0(a5)
    861c:	0047a783          	lw	a5,4(a5)
    8620:	00d606b3          	add	a3,a2,a3
    8624:	00d72023          	sw	a3,0(a4)
    8628:	00f72223          	sw	a5,4(a4)
    862c:	f81ff06f          	j	85ac <_free_r+0x44>
    8630:	00c47863          	bgeu	s0,a2,8640 <_free_r+0xd8>
    8634:	00c00793          	li	a5,12
    8638:	00f52023          	sw	a5,0(a0)
    863c:	f71ff06f          	j	85ac <_free_r+0x44>
    8640:	00042603          	lw	a2,0(s0)
    8644:	00c406b3          	add	a3,s0,a2
    8648:	00d79a63          	bne	a5,a3,865c <_free_r+0xf4>
    864c:	0007a683          	lw	a3,0(a5)
    8650:	0047a783          	lw	a5,4(a5)
    8654:	00c686b3          	add	a3,a3,a2
    8658:	00d42023          	sw	a3,0(s0)
    865c:	00f42223          	sw	a5,4(s0)
    8660:	00872223          	sw	s0,4(a4)
    8664:	f49ff06f          	j	85ac <_free_r+0x44>
    8668:	00008067          	ret

0000866c <_malloc_r>:
    866c:	fe010113          	addi	sp,sp,-32
    8670:	00912a23          	sw	s1,20(sp)
    8674:	00358493          	addi	s1,a1,3
    8678:	ffc4f493          	andi	s1,s1,-4
    867c:	01212823          	sw	s2,16(sp)
    8680:	00112e23          	sw	ra,28(sp)
    8684:	00812c23          	sw	s0,24(sp)
    8688:	01312623          	sw	s3,12(sp)
    868c:	00848493          	addi	s1,s1,8
    8690:	00c00793          	li	a5,12
    8694:	00050913          	mv	s2,a0
    8698:	06f4f863          	bgeu	s1,a5,8708 <_malloc_r+0x9c>
    869c:	00c00493          	li	s1,12
    86a0:	06b4e663          	bltu	s1,a1,870c <_malloc_r+0xa0>
    86a4:	00090513          	mv	a0,s2
    86a8:	0b9020ef          	jal	ra,af60 <__malloc_lock>
    86ac:	0000e7b7          	lui	a5,0xe
    86b0:	9b87a703          	lw	a4,-1608(a5) # d9b8 <__malloc_free_list>
    86b4:	9b878693          	addi	a3,a5,-1608
    86b8:	00070413          	mv	s0,a4
    86bc:	06041c63          	bnez	s0,8734 <_malloc_r+0xc8>
    86c0:	0000e437          	lui	s0,0xe
    86c4:	9bc40413          	addi	s0,s0,-1604 # d9bc <__malloc_sbrk_start>
    86c8:	00042783          	lw	a5,0(s0)
    86cc:	00079a63          	bnez	a5,86e0 <_malloc_r+0x74>
    86d0:	00000593          	li	a1,0
    86d4:	00090513          	mv	a0,s2
    86d8:	058010ef          	jal	ra,9730 <_sbrk_r>
    86dc:	00a42023          	sw	a0,0(s0)
    86e0:	00048593          	mv	a1,s1
    86e4:	00090513          	mv	a0,s2
    86e8:	048010ef          	jal	ra,9730 <_sbrk_r>
    86ec:	fff00993          	li	s3,-1
    86f0:	0b351a63          	bne	a0,s3,87a4 <_malloc_r+0x138>
    86f4:	00c00793          	li	a5,12
    86f8:	00f92023          	sw	a5,0(s2)
    86fc:	00090513          	mv	a0,s2
    8700:	06d020ef          	jal	ra,af6c <__malloc_unlock>
    8704:	0100006f          	j	8714 <_malloc_r+0xa8>
    8708:	f804dce3          	bgez	s1,86a0 <_malloc_r+0x34>
    870c:	00c00793          	li	a5,12
    8710:	00f92023          	sw	a5,0(s2)
    8714:	00000513          	li	a0,0
    8718:	01c12083          	lw	ra,28(sp)
    871c:	01812403          	lw	s0,24(sp)
    8720:	01412483          	lw	s1,20(sp)
    8724:	01012903          	lw	s2,16(sp)
    8728:	00c12983          	lw	s3,12(sp)
    872c:	02010113          	addi	sp,sp,32
    8730:	00008067          	ret
    8734:	00042783          	lw	a5,0(s0)
    8738:	409787b3          	sub	a5,a5,s1
    873c:	0407ce63          	bltz	a5,8798 <_malloc_r+0x12c>
    8740:	00b00613          	li	a2,11
    8744:	00f67a63          	bgeu	a2,a5,8758 <_malloc_r+0xec>
    8748:	00f42023          	sw	a5,0(s0)
    874c:	00f40433          	add	s0,s0,a5
    8750:	00942023          	sw	s1,0(s0)
    8754:	0100006f          	j	8764 <_malloc_r+0xf8>
    8758:	00442783          	lw	a5,4(s0)
    875c:	02871a63          	bne	a4,s0,8790 <_malloc_r+0x124>
    8760:	00f6a023          	sw	a5,0(a3)
    8764:	00090513          	mv	a0,s2
    8768:	005020ef          	jal	ra,af6c <__malloc_unlock>
    876c:	00b40513          	addi	a0,s0,11
    8770:	00440793          	addi	a5,s0,4
    8774:	ff857513          	andi	a0,a0,-8
    8778:	40f50733          	sub	a4,a0,a5
    877c:	f8f50ee3          	beq	a0,a5,8718 <_malloc_r+0xac>
    8780:	00e40433          	add	s0,s0,a4
    8784:	40a787b3          	sub	a5,a5,a0
    8788:	00f42023          	sw	a5,0(s0)
    878c:	f8dff06f          	j	8718 <_malloc_r+0xac>
    8790:	00f72223          	sw	a5,4(a4)
    8794:	fd1ff06f          	j	8764 <_malloc_r+0xf8>
    8798:	00040713          	mv	a4,s0
    879c:	00442403          	lw	s0,4(s0)
    87a0:	f1dff06f          	j	86bc <_malloc_r+0x50>
    87a4:	00350413          	addi	s0,a0,3
    87a8:	ffc47413          	andi	s0,s0,-4
    87ac:	fa8502e3          	beq	a0,s0,8750 <_malloc_r+0xe4>
    87b0:	40a405b3          	sub	a1,s0,a0
    87b4:	00090513          	mv	a0,s2
    87b8:	779000ef          	jal	ra,9730 <_sbrk_r>
    87bc:	f9351ae3          	bne	a0,s3,8750 <_malloc_r+0xe4>
    87c0:	f35ff06f          	j	86f4 <_malloc_r+0x88>

000087c4 <__cvt>:
    87c4:	fd010113          	addi	sp,sp,-48
    87c8:	02812423          	sw	s0,40(sp)
    87cc:	03212023          	sw	s2,32(sp)
    87d0:	01412c23          	sw	s4,24(sp)
    87d4:	01512a23          	sw	s5,20(sp)
    87d8:	01612823          	sw	s6,16(sp)
    87dc:	02112623          	sw	ra,44(sp)
    87e0:	02912223          	sw	s1,36(sp)
    87e4:	01312e23          	sw	s3,28(sp)
    87e8:	00070b13          	mv	s6,a4
    87ec:	00058a13          	mv	s4,a1
    87f0:	00060413          	mv	s0,a2
    87f4:	00068913          	mv	s2,a3
    87f8:	00080a93          	mv	s5,a6
    87fc:	00000713          	li	a4,0
    8800:	00065863          	bgez	a2,8810 <__cvt+0x4c>
    8804:	80000737          	lui	a4,0x80000
    8808:	00c74433          	xor	s0,a4,a2
    880c:	02d00713          	li	a4,45
    8810:	00e78023          	sb	a4,0(a5)
    8814:	fdf8f493          	andi	s1,a7,-33
    8818:	04600793          	li	a5,70
    881c:	00300693          	li	a3,3
    8820:	00f48a63          	beq	s1,a5,8834 <__cvt+0x70>
    8824:	04500793          	li	a5,69
    8828:	00200693          	li	a3,2
    882c:	00f49463          	bne	s1,a5,8834 <__cvt+0x70>
    8830:	00190913          	addi	s2,s2,1
    8834:	000a8793          	mv	a5,s5
    8838:	00c10893          	addi	a7,sp,12
    883c:	00810813          	addi	a6,sp,8
    8840:	00090713          	mv	a4,s2
    8844:	000a0593          	mv	a1,s4
    8848:	00040613          	mv	a2,s0
    884c:	174010ef          	jal	ra,99c0 <_dtoa_r>
    8850:	04700793          	li	a5,71
    8854:	00050993          	mv	s3,a0
    8858:	00f49663          	bne	s1,a5,8864 <__cvt+0xa0>
    885c:	001b7613          	andi	a2,s6,1
    8860:	06060863          	beqz	a2,88d0 <__cvt+0x10c>
    8864:	04600793          	li	a5,70
    8868:	01298b33          	add	s6,s3,s2
    886c:	02f49e63          	bne	s1,a5,88a8 <__cvt+0xe4>
    8870:	0009c703          	lbu	a4,0(s3)
    8874:	03000793          	li	a5,48
    8878:	02f71463          	bne	a4,a5,88a0 <__cvt+0xdc>
    887c:	00000613          	li	a2,0
    8880:	00000693          	li	a3,0
    8884:	000a0513          	mv	a0,s4
    8888:	00040593          	mv	a1,s0
    888c:	ce5fa0ef          	jal	ra,3570 <__eqdf2>
    8890:	00050863          	beqz	a0,88a0 <__cvt+0xdc>
    8894:	00100613          	li	a2,1
    8898:	412606b3          	sub	a3,a2,s2
    889c:	00daa023          	sw	a3,0(s5)
    88a0:	000aa783          	lw	a5,0(s5)
    88a4:	00fb0b33          	add	s6,s6,a5
    88a8:	00000613          	li	a2,0
    88ac:	00000693          	li	a3,0
    88b0:	000a0513          	mv	a0,s4
    88b4:	00040593          	mv	a1,s0
    88b8:	cb9fa0ef          	jal	ra,3570 <__eqdf2>
    88bc:	00051463          	bnez	a0,88c4 <__cvt+0x100>
    88c0:	01612623          	sw	s6,12(sp)
    88c4:	03000713          	li	a4,48
    88c8:	00c12783          	lw	a5,12(sp)
    88cc:	0567e063          	bltu	a5,s6,890c <__cvt+0x148>
    88d0:	00c12783          	lw	a5,12(sp)
    88d4:	03012703          	lw	a4,48(sp)
    88d8:	02c12083          	lw	ra,44(sp)
    88dc:	02812403          	lw	s0,40(sp)
    88e0:	413787b3          	sub	a5,a5,s3
    88e4:	00f72023          	sw	a5,0(a4) # 80000000 <CONFIG_SYSTEM_WORKQUEUE_PRIORITY+0x80000001>
    88e8:	02412483          	lw	s1,36(sp)
    88ec:	02012903          	lw	s2,32(sp)
    88f0:	01812a03          	lw	s4,24(sp)
    88f4:	01412a83          	lw	s5,20(sp)
    88f8:	01012b03          	lw	s6,16(sp)
    88fc:	00098513          	mv	a0,s3
    8900:	01c12983          	lw	s3,28(sp)
    8904:	03010113          	addi	sp,sp,48
    8908:	00008067          	ret
    890c:	00178693          	addi	a3,a5,1
    8910:	00d12623          	sw	a3,12(sp)
    8914:	00e78023          	sb	a4,0(a5)
    8918:	fb1ff06f          	j	88c8 <__cvt+0x104>

0000891c <__exponent>:
    891c:	00c50023          	sb	a2,0(a0)
    8920:	00250793          	addi	a5,a0,2
    8924:	02b00713          	li	a4,43
    8928:	0005d663          	bgez	a1,8934 <__exponent+0x18>
    892c:	40b005b3          	neg	a1,a1
    8930:	02d00713          	li	a4,45
    8934:	00e500a3          	sb	a4,1(a0)
    8938:	00900713          	li	a4,9
    893c:	08b75263          	bge	a4,a1,89c0 <__exponent+0xa4>
    8940:	ff010113          	addi	sp,sp,-16
    8944:	00f10713          	addi	a4,sp,15
    8948:	00070813          	mv	a6,a4
    894c:	00a00893          	li	a7,10
    8950:	06300313          	li	t1,99
    8954:	0315e633          	rem	a2,a1,a7
    8958:	00070693          	mv	a3,a4
    895c:	fff70713          	addi	a4,a4,-1
    8960:	03060613          	addi	a2,a2,48
    8964:	fec68fa3          	sb	a2,-1(a3)
    8968:	00058613          	mv	a2,a1
    896c:	0315c5b3          	div	a1,a1,a7
    8970:	fec342e3          	blt	t1,a2,8954 <__exponent+0x38>
    8974:	ffe68893          	addi	a7,a3,-2
    8978:	03058593          	addi	a1,a1,48
    897c:	feb70fa3          	sb	a1,-1(a4)
    8980:	00078613          	mv	a2,a5
    8984:	00088713          	mv	a4,a7
    8988:	03076263          	bltu	a4,a6,89ac <__exponent+0x90>
    898c:	00000713          	li	a4,0
    8990:	01186663          	bltu	a6,a7,899c <__exponent+0x80>
    8994:	01110713          	addi	a4,sp,17
    8998:	40d70733          	sub	a4,a4,a3
    899c:	00e787b3          	add	a5,a5,a4
    89a0:	40a78533          	sub	a0,a5,a0
    89a4:	01010113          	addi	sp,sp,16
    89a8:	00008067          	ret
    89ac:	00074583          	lbu	a1,0(a4)
    89b0:	00170713          	addi	a4,a4,1
    89b4:	00160613          	addi	a2,a2,1
    89b8:	feb60fa3          	sb	a1,-1(a2)
    89bc:	fcdff06f          	j	8988 <__exponent+0x6c>
    89c0:	03000793          	li	a5,48
    89c4:	00f50123          	sb	a5,2(a0)
    89c8:	03058593          	addi	a1,a1,48
    89cc:	00450793          	addi	a5,a0,4
    89d0:	00b501a3          	sb	a1,3(a0)
    89d4:	40a78533          	sub	a0,a5,a0
    89d8:	00008067          	ret

000089dc <_printf_float>:
    89dc:	f8010113          	addi	sp,sp,-128
    89e0:	06112e23          	sw	ra,124(sp)
    89e4:	06812c23          	sw	s0,120(sp)
    89e8:	06912a23          	sw	s1,116(sp)
    89ec:	00058413          	mv	s0,a1
    89f0:	07212823          	sw	s2,112(sp)
    89f4:	07312623          	sw	s3,108(sp)
    89f8:	07412423          	sw	s4,104(sp)
    89fc:	07512223          	sw	s5,100(sp)
    8a00:	00070a13          	mv	s4,a4
    8a04:	07612023          	sw	s6,96(sp)
    8a08:	05712e23          	sw	s7,92(sp)
    8a0c:	05812c23          	sw	s8,88(sp)
    8a10:	00060913          	mv	s2,a2
    8a14:	00068993          	mv	s3,a3
    8a18:	05912a23          	sw	s9,84(sp)
    8a1c:	05a12823          	sw	s10,80(sp)
    8a20:	05b12623          	sw	s11,76(sp)
    8a24:	00050493          	mv	s1,a0
    8a28:	508020ef          	jal	ra,af30 <_localeconv_r>
    8a2c:	00052c03          	lw	s8,0(a0)
    8a30:	000c0513          	mv	a0,s8
    8a34:	549000ef          	jal	ra,977c <strlen>
    8a38:	00042b03          	lw	s6,0(s0)
    8a3c:	02012c23          	sw	zero,56(sp)
    8a40:	01844a83          	lbu	s5,24(s0)
    8a44:	100b7713          	andi	a4,s6,256
    8a48:	000a2783          	lw	a5,0(s4)
    8a4c:	00050b93          	mv	s7,a0
    8a50:	12070c63          	beqz	a4,8b88 <_printf_float+0x1ac>
    8a54:	00478713          	addi	a4,a5,4
    8a58:	00ea2023          	sw	a4,0(s4)
    8a5c:	0007a783          	lw	a5,0(a5)
    8a60:	02010513          	addi	a0,sp,32
    8a64:	0007a703          	lw	a4,0(a5)
    8a68:	02e12023          	sw	a4,32(sp)
    8a6c:	0047a703          	lw	a4,4(a5)
    8a70:	02e12223          	sw	a4,36(sp)
    8a74:	0087a703          	lw	a4,8(a5)
    8a78:	02e12423          	sw	a4,40(sp)
    8a7c:	00c7a783          	lw	a5,12(a5)
    8a80:	02f12623          	sw	a5,44(sp)
    8a84:	dd1fa0ef          	jal	ra,3854 <__trunctfdf2>
    8a88:	04a42423          	sw	a0,72(s0)
    8a8c:	04b42623          	sw	a1,76(s0)
    8a90:	04c42a03          	lw	s4,76(s0)
    8a94:	0000d737          	lui	a4,0xd
    8a98:	04842c83          	lw	s9,72(s0)
    8a9c:	e7872d03          	lw	s10,-392(a4) # ce78 <__device_handles_end+0x4>
    8aa0:	e7c72d83          	lw	s11,-388(a4)
    8aa4:	001a1793          	slli	a5,s4,0x1
    8aa8:	0017d793          	srli	a5,a5,0x1
    8aac:	000d0613          	mv	a2,s10
    8ab0:	000d8693          	mv	a3,s11
    8ab4:	000c8513          	mv	a0,s9
    8ab8:	00078593          	mv	a1,a5
    8abc:	00f12e23          	sw	a5,28(sp)
    8ac0:	c21fa0ef          	jal	ra,36e0 <__unorddf2>
    8ac4:	0e051463          	bnez	a0,8bac <_printf_float+0x1d0>
    8ac8:	01c12783          	lw	a5,28(sp)
    8acc:	000d0613          	mv	a2,s10
    8ad0:	000d8693          	mv	a3,s11
    8ad4:	000c8513          	mv	a0,s9
    8ad8:	00078593          	mv	a1,a5
    8adc:	b21fa0ef          	jal	ra,35fc <__ledf2>
    8ae0:	0ca05663          	blez	a0,8bac <_printf_float+0x1d0>
    8ae4:	00000613          	li	a2,0
    8ae8:	00000693          	li	a3,0
    8aec:	000c8513          	mv	a0,s9
    8af0:	000a0593          	mv	a1,s4
    8af4:	b09fa0ef          	jal	ra,35fc <__ledf2>
    8af8:	00055663          	bgez	a0,8b04 <_printf_float+0x128>
    8afc:	02d00793          	li	a5,45
    8b00:	04f401a3          	sb	a5,67(s0)
    8b04:	04700793          	li	a5,71
    8b08:	0d57fe63          	bgeu	a5,s5,8be4 <_printf_float+0x208>
    8b0c:	0000da37          	lui	s4,0xd
    8b10:	70ca0a13          	addi	s4,s4,1804 # d70c <_ctype_+0x108>
    8b14:	ffbb7b13          	andi	s6,s6,-5
    8b18:	00300793          	li	a5,3
    8b1c:	01642023          	sw	s6,0(s0)
    8b20:	00f42823          	sw	a5,16(s0)
    8b24:	00000b13          	li	s6,0
    8b28:	00098713          	mv	a4,s3
    8b2c:	00090693          	mv	a3,s2
    8b30:	03c10613          	addi	a2,sp,60
    8b34:	00040593          	mv	a1,s0
    8b38:	00048513          	mv	a0,s1
    8b3c:	634000ef          	jal	ra,9170 <_printf_common>
    8b40:	fff00c93          	li	s9,-1
    8b44:	23951a63          	bne	a0,s9,8d78 <_printf_float+0x39c>
    8b48:	fff00513          	li	a0,-1
    8b4c:	07c12083          	lw	ra,124(sp)
    8b50:	07812403          	lw	s0,120(sp)
    8b54:	07412483          	lw	s1,116(sp)
    8b58:	07012903          	lw	s2,112(sp)
    8b5c:	06c12983          	lw	s3,108(sp)
    8b60:	06812a03          	lw	s4,104(sp)
    8b64:	06412a83          	lw	s5,100(sp)
    8b68:	06012b03          	lw	s6,96(sp)
    8b6c:	05c12b83          	lw	s7,92(sp)
    8b70:	05812c03          	lw	s8,88(sp)
    8b74:	05412c83          	lw	s9,84(sp)
    8b78:	05012d03          	lw	s10,80(sp)
    8b7c:	04c12d83          	lw	s11,76(sp)
    8b80:	08010113          	addi	sp,sp,128
    8b84:	00008067          	ret
    8b88:	00778793          	addi	a5,a5,7
    8b8c:	ff87f793          	andi	a5,a5,-8
    8b90:	00878713          	addi	a4,a5,8
    8b94:	00ea2023          	sw	a4,0(s4)
    8b98:	0007a703          	lw	a4,0(a5)
    8b9c:	0047a783          	lw	a5,4(a5)
    8ba0:	04e42423          	sw	a4,72(s0)
    8ba4:	04f42623          	sw	a5,76(s0)
    8ba8:	ee9ff06f          	j	8a90 <_printf_float+0xb4>
    8bac:	000c8613          	mv	a2,s9
    8bb0:	000a0693          	mv	a3,s4
    8bb4:	000c8513          	mv	a0,s9
    8bb8:	000a0593          	mv	a1,s4
    8bbc:	b25fa0ef          	jal	ra,36e0 <__unorddf2>
    8bc0:	02050e63          	beqz	a0,8bfc <_printf_float+0x220>
    8bc4:	000a5663          	bgez	s4,8bd0 <_printf_float+0x1f4>
    8bc8:	02d00793          	li	a5,45
    8bcc:	04f401a3          	sb	a5,67(s0)
    8bd0:	04700793          	li	a5,71
    8bd4:	0157fe63          	bgeu	a5,s5,8bf0 <_printf_float+0x214>
    8bd8:	0000da37          	lui	s4,0xd
    8bdc:	714a0a13          	addi	s4,s4,1812 # d714 <_ctype_+0x110>
    8be0:	f35ff06f          	j	8b14 <_printf_float+0x138>
    8be4:	0000da37          	lui	s4,0xd
    8be8:	708a0a13          	addi	s4,s4,1800 # d708 <_ctype_+0x104>
    8bec:	f29ff06f          	j	8b14 <_printf_float+0x138>
    8bf0:	0000da37          	lui	s4,0xd
    8bf4:	710a0a13          	addi	s4,s4,1808 # d710 <_ctype_+0x10c>
    8bf8:	f1dff06f          	j	8b14 <_printf_float+0x138>
    8bfc:	00442783          	lw	a5,4(s0)
    8c00:	fff00713          	li	a4,-1
    8c04:	0dfafd13          	andi	s10,s5,223
    8c08:	0ce79263          	bne	a5,a4,8ccc <_printf_float+0x2f0>
    8c0c:	00600793          	li	a5,6
    8c10:	00f42223          	sw	a5,4(s0)
    8c14:	00442683          	lw	a3,4(s0)
    8c18:	400b6713          	ori	a4,s6,1024
    8c1c:	03810793          	addi	a5,sp,56
    8c20:	00f12023          	sw	a5,0(sp)
    8c24:	000a0613          	mv	a2,s4
    8c28:	03310793          	addi	a5,sp,51
    8c2c:	000c8593          	mv	a1,s9
    8c30:	00e42023          	sw	a4,0(s0)
    8c34:	00012223          	sw	zero,4(sp)
    8c38:	000a8893          	mv	a7,s5
    8c3c:	03410813          	addi	a6,sp,52
    8c40:	00048513          	mv	a0,s1
    8c44:	b81ff0ef          	jal	ra,87c4 <__cvt>
    8c48:	04700793          	li	a5,71
    8c4c:	03412583          	lw	a1,52(sp)
    8c50:	00050a13          	mv	s4,a0
    8c54:	00fd1e63          	bne	s10,a5,8c70 <_printf_float+0x294>
    8c58:	ffd00793          	li	a5,-3
    8c5c:	00f5c663          	blt	a1,a5,8c68 <_printf_float+0x28c>
    8c60:	00442783          	lw	a5,4(s0)
    8c64:	0cb7dc63          	bge	a5,a1,8d3c <_printf_float+0x360>
    8c68:	ffea8a93          	addi	s5,s5,-2
    8c6c:	0ffafa93          	andi	s5,s5,255
    8c70:	06500793          	li	a5,101
    8c74:	0757e663          	bltu	a5,s5,8ce0 <_printf_float+0x304>
    8c78:	fff58593          	addi	a1,a1,-1
    8c7c:	000a8613          	mv	a2,s5
    8c80:	05040513          	addi	a0,s0,80
    8c84:	02b12a23          	sw	a1,52(sp)
    8c88:	c95ff0ef          	jal	ra,891c <__exponent>
    8c8c:	03812703          	lw	a4,56(sp)
    8c90:	00100693          	li	a3,1
    8c94:	00050b13          	mv	s6,a0
    8c98:	00a707b3          	add	a5,a4,a0
    8c9c:	00f42823          	sw	a5,16(s0)
    8ca0:	00e6c863          	blt	a3,a4,8cb0 <_printf_float+0x2d4>
    8ca4:	00042703          	lw	a4,0(s0)
    8ca8:	00177713          	andi	a4,a4,1
    8cac:	00070663          	beqz	a4,8cb8 <_printf_float+0x2dc>
    8cb0:	00178793          	addi	a5,a5,1
    8cb4:	00f42823          	sw	a5,16(s0)
    8cb8:	03314783          	lbu	a5,51(sp)
    8cbc:	e60786e3          	beqz	a5,8b28 <_printf_float+0x14c>
    8cc0:	02d00793          	li	a5,45
    8cc4:	04f401a3          	sb	a5,67(s0)
    8cc8:	e61ff06f          	j	8b28 <_printf_float+0x14c>
    8ccc:	04700713          	li	a4,71
    8cd0:	f4ed12e3          	bne	s10,a4,8c14 <_printf_float+0x238>
    8cd4:	f40790e3          	bnez	a5,8c14 <_printf_float+0x238>
    8cd8:	00100793          	li	a5,1
    8cdc:	f35ff06f          	j	8c10 <_printf_float+0x234>
    8ce0:	06600793          	li	a5,102
    8ce4:	04fa9e63          	bne	s5,a5,8d40 <_printf_float+0x364>
    8ce8:	00442783          	lw	a5,4(s0)
    8cec:	02b05463          	blez	a1,8d14 <_printf_float+0x338>
    8cf0:	00b42823          	sw	a1,16(s0)
    8cf4:	00079863          	bnez	a5,8d04 <_printf_float+0x328>
    8cf8:	00042703          	lw	a4,0(s0)
    8cfc:	00177713          	andi	a4,a4,1
    8d00:	02070863          	beqz	a4,8d30 <_printf_float+0x354>
    8d04:	00178793          	addi	a5,a5,1
    8d08:	00b787b3          	add	a5,a5,a1
    8d0c:	00f42823          	sw	a5,16(s0)
    8d10:	0200006f          	j	8d30 <_printf_float+0x354>
    8d14:	00079a63          	bnez	a5,8d28 <_printf_float+0x34c>
    8d18:	00042703          	lw	a4,0(s0)
    8d1c:	00100693          	li	a3,1
    8d20:	00177713          	andi	a4,a4,1
    8d24:	00070463          	beqz	a4,8d2c <_printf_float+0x350>
    8d28:	00278693          	addi	a3,a5,2
    8d2c:	00d42823          	sw	a3,16(s0)
    8d30:	04b42c23          	sw	a1,88(s0)
    8d34:	00000b13          	li	s6,0
    8d38:	f81ff06f          	j	8cb8 <_printf_float+0x2dc>
    8d3c:	06700a93          	li	s5,103
    8d40:	03812783          	lw	a5,56(sp)
    8d44:	00f5ce63          	blt	a1,a5,8d60 <_printf_float+0x384>
    8d48:	00042783          	lw	a5,0(s0)
    8d4c:	00b42823          	sw	a1,16(s0)
    8d50:	0017f793          	andi	a5,a5,1
    8d54:	fc078ee3          	beqz	a5,8d30 <_printf_float+0x354>
    8d58:	00158793          	addi	a5,a1,1
    8d5c:	fb1ff06f          	j	8d0c <_printf_float+0x330>
    8d60:	00100713          	li	a4,1
    8d64:	00b04663          	bgtz	a1,8d70 <_printf_float+0x394>
    8d68:	00200713          	li	a4,2
    8d6c:	40b70733          	sub	a4,a4,a1
    8d70:	00e787b3          	add	a5,a5,a4
    8d74:	f99ff06f          	j	8d0c <_printf_float+0x330>
    8d78:	00042783          	lw	a5,0(s0)
    8d7c:	4007f713          	andi	a4,a5,1024
    8d80:	02071e63          	bnez	a4,8dbc <_printf_float+0x3e0>
    8d84:	01042683          	lw	a3,16(s0)
    8d88:	000a0613          	mv	a2,s4
    8d8c:	00090593          	mv	a1,s2
    8d90:	00048513          	mv	a0,s1
    8d94:	000980e7          	jalr	s3
    8d98:	db9508e3          	beq	a0,s9,8b48 <_printf_float+0x16c>
    8d9c:	00042783          	lw	a5,0(s0)
    8da0:	0027f793          	andi	a5,a5,2
    8da4:	3a079e63          	bnez	a5,9160 <_printf_float+0x784>
    8da8:	03c12783          	lw	a5,60(sp)
    8dac:	00c42503          	lw	a0,12(s0)
    8db0:	d8f55ee3          	bge	a0,a5,8b4c <_printf_float+0x170>
    8db4:	00078513          	mv	a0,a5
    8db8:	d95ff06f          	j	8b4c <_printf_float+0x170>
    8dbc:	06500713          	li	a4,101
    8dc0:	29577863          	bgeu	a4,s5,9050 <_printf_float+0x674>
    8dc4:	04842503          	lw	a0,72(s0)
    8dc8:	04c42583          	lw	a1,76(s0)
    8dcc:	00000613          	li	a2,0
    8dd0:	00000693          	li	a3,0
    8dd4:	f9cfa0ef          	jal	ra,3570 <__eqdf2>
    8dd8:	08051663          	bnez	a0,8e64 <_printf_float+0x488>
    8ddc:	0000d637          	lui	a2,0xd
    8de0:	00100693          	li	a3,1
    8de4:	58860613          	addi	a2,a2,1416 # d588 <gpio_veerwolf_driver_api+0x28>
    8de8:	00090593          	mv	a1,s2
    8dec:	00048513          	mv	a0,s1
    8df0:	000980e7          	jalr	s3
    8df4:	d5950ae3          	beq	a0,s9,8b48 <_printf_float+0x16c>
    8df8:	03412703          	lw	a4,52(sp)
    8dfc:	03812783          	lw	a5,56(sp)
    8e00:	00f74863          	blt	a4,a5,8e10 <_printf_float+0x434>
    8e04:	00042783          	lw	a5,0(s0)
    8e08:	0017f793          	andi	a5,a5,1
    8e0c:	f80788e3          	beqz	a5,8d9c <_printf_float+0x3c0>
    8e10:	000b8693          	mv	a3,s7
    8e14:	000c0613          	mv	a2,s8
    8e18:	00090593          	mv	a1,s2
    8e1c:	00048513          	mv	a0,s1
    8e20:	000980e7          	jalr	s3
    8e24:	fff00793          	li	a5,-1
    8e28:	d2f500e3          	beq	a0,a5,8b48 <_printf_float+0x16c>
    8e2c:	00000a13          	li	s4,0
    8e30:	01a40a93          	addi	s5,s0,26
    8e34:	fff00b13          	li	s6,-1
    8e38:	03812783          	lw	a5,56(sp)
    8e3c:	fff78793          	addi	a5,a5,-1
    8e40:	f4fa5ee3          	bge	s4,a5,8d9c <_printf_float+0x3c0>
    8e44:	00100693          	li	a3,1
    8e48:	000a8613          	mv	a2,s5
    8e4c:	00090593          	mv	a1,s2
    8e50:	00048513          	mv	a0,s1
    8e54:	000980e7          	jalr	s3
    8e58:	cf6508e3          	beq	a0,s6,8b48 <_printf_float+0x16c>
    8e5c:	001a0a13          	addi	s4,s4,1
    8e60:	fd9ff06f          	j	8e38 <_printf_float+0x45c>
    8e64:	03412783          	lw	a5,52(sp)
    8e68:	0af04863          	bgtz	a5,8f18 <_printf_float+0x53c>
    8e6c:	0000d637          	lui	a2,0xd
    8e70:	00100693          	li	a3,1
    8e74:	58860613          	addi	a2,a2,1416 # d588 <gpio_veerwolf_driver_api+0x28>
    8e78:	00090593          	mv	a1,s2
    8e7c:	00048513          	mv	a0,s1
    8e80:	000980e7          	jalr	s3
    8e84:	cd9502e3          	beq	a0,s9,8b48 <_printf_float+0x16c>
    8e88:	03412783          	lw	a5,52(sp)
    8e8c:	03812703          	lw	a4,56(sp)
    8e90:	00e7e7b3          	or	a5,a5,a4
    8e94:	00079863          	bnez	a5,8ea4 <_printf_float+0x4c8>
    8e98:	00042783          	lw	a5,0(s0)
    8e9c:	0017f793          	andi	a5,a5,1
    8ea0:	ee078ee3          	beqz	a5,8d9c <_printf_float+0x3c0>
    8ea4:	000b8693          	mv	a3,s7
    8ea8:	000c0613          	mv	a2,s8
    8eac:	00090593          	mv	a1,s2
    8eb0:	00048513          	mv	a0,s1
    8eb4:	000980e7          	jalr	s3
    8eb8:	fff00793          	li	a5,-1
    8ebc:	c8f506e3          	beq	a0,a5,8b48 <_printf_float+0x16c>
    8ec0:	00000a93          	li	s5,0
    8ec4:	01a40b13          	addi	s6,s0,26
    8ec8:	fff00b93          	li	s7,-1
    8ecc:	03412783          	lw	a5,52(sp)
    8ed0:	40f007b3          	neg	a5,a5
    8ed4:	02fac263          	blt	s5,a5,8ef8 <_printf_float+0x51c>
    8ed8:	03812683          	lw	a3,56(sp)
    8edc:	000a0613          	mv	a2,s4
    8ee0:	00090593          	mv	a1,s2
    8ee4:	00048513          	mv	a0,s1
    8ee8:	000980e7          	jalr	s3
    8eec:	fff00793          	li	a5,-1
    8ef0:	eaf516e3          	bne	a0,a5,8d9c <_printf_float+0x3c0>
    8ef4:	c55ff06f          	j	8b48 <_printf_float+0x16c>
    8ef8:	00100693          	li	a3,1
    8efc:	000b0613          	mv	a2,s6
    8f00:	00090593          	mv	a1,s2
    8f04:	00048513          	mv	a0,s1
    8f08:	000980e7          	jalr	s3
    8f0c:	c3750ee3          	beq	a0,s7,8b48 <_printf_float+0x16c>
    8f10:	001a8a93          	addi	s5,s5,1
    8f14:	fb9ff06f          	j	8ecc <_printf_float+0x4f0>
    8f18:	05842783          	lw	a5,88(s0)
    8f1c:	03812a83          	lw	s5,56(sp)
    8f20:	0157d463          	bge	a5,s5,8f28 <_printf_float+0x54c>
    8f24:	00078a93          	mv	s5,a5
    8f28:	0b504463          	bgtz	s5,8fd0 <_printf_float+0x5f4>
    8f2c:	00000b13          	li	s6,0
    8f30:	01a40d13          	addi	s10,s0,26
    8f34:	fff00d93          	li	s11,-1
    8f38:	05842c83          	lw	s9,88(s0)
    8f3c:	000a8793          	mv	a5,s5
    8f40:	000ad463          	bgez	s5,8f48 <_printf_float+0x56c>
    8f44:	00000793          	li	a5,0
    8f48:	40fc87b3          	sub	a5,s9,a5
    8f4c:	0afb4263          	blt	s6,a5,8ff0 <_printf_float+0x614>
    8f50:	03412703          	lw	a4,52(sp)
    8f54:	03812783          	lw	a5,56(sp)
    8f58:	0af74c63          	blt	a4,a5,9010 <_printf_float+0x634>
    8f5c:	00042783          	lw	a5,0(s0)
    8f60:	0017f793          	andi	a5,a5,1
    8f64:	0a079663          	bnez	a5,9010 <_printf_float+0x634>
    8f68:	03812a83          	lw	s5,56(sp)
    8f6c:	03412703          	lw	a4,52(sp)
    8f70:	419a87b3          	sub	a5,s5,s9
    8f74:	40ea8ab3          	sub	s5,s5,a4
    8f78:	0157d463          	bge	a5,s5,8f80 <_printf_float+0x5a4>
    8f7c:	00078a93          	mv	s5,a5
    8f80:	0b504863          	bgtz	s5,9030 <_printf_float+0x654>
    8f84:	00000a13          	li	s4,0
    8f88:	01a40b13          	addi	s6,s0,26
    8f8c:	fff00b93          	li	s7,-1
    8f90:	03412703          	lw	a4,52(sp)
    8f94:	03812783          	lw	a5,56(sp)
    8f98:	40e787b3          	sub	a5,a5,a4
    8f9c:	000a8713          	mv	a4,s5
    8fa0:	000ad463          	bgez	s5,8fa8 <_printf_float+0x5cc>
    8fa4:	00000713          	li	a4,0
    8fa8:	40e787b3          	sub	a5,a5,a4
    8fac:	defa58e3          	bge	s4,a5,8d9c <_printf_float+0x3c0>
    8fb0:	00100693          	li	a3,1
    8fb4:	000b0613          	mv	a2,s6
    8fb8:	00090593          	mv	a1,s2
    8fbc:	00048513          	mv	a0,s1
    8fc0:	000980e7          	jalr	s3
    8fc4:	b97502e3          	beq	a0,s7,8b48 <_printf_float+0x16c>
    8fc8:	001a0a13          	addi	s4,s4,1
    8fcc:	fc5ff06f          	j	8f90 <_printf_float+0x5b4>
    8fd0:	000a8693          	mv	a3,s5
    8fd4:	000a0613          	mv	a2,s4
    8fd8:	00090593          	mv	a1,s2
    8fdc:	00048513          	mv	a0,s1
    8fe0:	000980e7          	jalr	s3
    8fe4:	fff00793          	li	a5,-1
    8fe8:	f4f512e3          	bne	a0,a5,8f2c <_printf_float+0x550>
    8fec:	b5dff06f          	j	8b48 <_printf_float+0x16c>
    8ff0:	00100693          	li	a3,1
    8ff4:	000d0613          	mv	a2,s10
    8ff8:	00090593          	mv	a1,s2
    8ffc:	00048513          	mv	a0,s1
    9000:	000980e7          	jalr	s3
    9004:	b5b502e3          	beq	a0,s11,8b48 <_printf_float+0x16c>
    9008:	001b0b13          	addi	s6,s6,1
    900c:	f2dff06f          	j	8f38 <_printf_float+0x55c>
    9010:	000b8693          	mv	a3,s7
    9014:	000c0613          	mv	a2,s8
    9018:	00090593          	mv	a1,s2
    901c:	00048513          	mv	a0,s1
    9020:	000980e7          	jalr	s3
    9024:	fff00793          	li	a5,-1
    9028:	f4f510e3          	bne	a0,a5,8f68 <_printf_float+0x58c>
    902c:	b1dff06f          	j	8b48 <_printf_float+0x16c>
    9030:	000a8693          	mv	a3,s5
    9034:	019a0633          	add	a2,s4,s9
    9038:	00090593          	mv	a1,s2
    903c:	00048513          	mv	a0,s1
    9040:	000980e7          	jalr	s3
    9044:	fff00793          	li	a5,-1
    9048:	f2f51ee3          	bne	a0,a5,8f84 <_printf_float+0x5a8>
    904c:	afdff06f          	j	8b48 <_printf_float+0x16c>
    9050:	03812683          	lw	a3,56(sp)
    9054:	00100713          	li	a4,1
    9058:	00d74663          	blt	a4,a3,9064 <_printf_float+0x688>
    905c:	0017f793          	andi	a5,a5,1
    9060:	0a078a63          	beqz	a5,9114 <_printf_float+0x738>
    9064:	00100693          	li	a3,1
    9068:	000a0613          	mv	a2,s4
    906c:	00090593          	mv	a1,s2
    9070:	00048513          	mv	a0,s1
    9074:	000980e7          	jalr	s3
    9078:	fff00a93          	li	s5,-1
    907c:	ad5506e3          	beq	a0,s5,8b48 <_printf_float+0x16c>
    9080:	000b8693          	mv	a3,s7
    9084:	000c0613          	mv	a2,s8
    9088:	00090593          	mv	a1,s2
    908c:	00048513          	mv	a0,s1
    9090:	000980e7          	jalr	s3
    9094:	ab550ae3          	beq	a0,s5,8b48 <_printf_float+0x16c>
    9098:	04842503          	lw	a0,72(s0)
    909c:	04c42583          	lw	a1,76(s0)
    90a0:	00000613          	li	a2,0
    90a4:	00000693          	li	a3,0
    90a8:	cc8fa0ef          	jal	ra,3570 <__eqdf2>
    90ac:	04050c63          	beqz	a0,9104 <_printf_float+0x728>
    90b0:	03812683          	lw	a3,56(sp)
    90b4:	001a0613          	addi	a2,s4,1
    90b8:	00090593          	mv	a1,s2
    90bc:	fff68693          	addi	a3,a3,-1
    90c0:	00048513          	mv	a0,s1
    90c4:	000980e7          	jalr	s3
    90c8:	a95500e3          	beq	a0,s5,8b48 <_printf_float+0x16c>
    90cc:	000b0693          	mv	a3,s6
    90d0:	05040613          	addi	a2,s0,80
    90d4:	e0dff06f          	j	8ee0 <_printf_float+0x504>
    90d8:	00100693          	li	a3,1
    90dc:	000a8613          	mv	a2,s5
    90e0:	00090593          	mv	a1,s2
    90e4:	00048513          	mv	a0,s1
    90e8:	000980e7          	jalr	s3
    90ec:	a5750ee3          	beq	a0,s7,8b48 <_printf_float+0x16c>
    90f0:	001a0a13          	addi	s4,s4,1
    90f4:	03812783          	lw	a5,56(sp)
    90f8:	fff78793          	addi	a5,a5,-1
    90fc:	fcfa4ee3          	blt	s4,a5,90d8 <_printf_float+0x6fc>
    9100:	fcdff06f          	j	90cc <_printf_float+0x6f0>
    9104:	00000a13          	li	s4,0
    9108:	01a40a93          	addi	s5,s0,26
    910c:	fff00b93          	li	s7,-1
    9110:	fe5ff06f          	j	90f4 <_printf_float+0x718>
    9114:	00100693          	li	a3,1
    9118:	000a0613          	mv	a2,s4
    911c:	00090593          	mv	a1,s2
    9120:	00048513          	mv	a0,s1
    9124:	000980e7          	jalr	s3
    9128:	fb9512e3          	bne	a0,s9,90cc <_printf_float+0x6f0>
    912c:	a1dff06f          	j	8b48 <_printf_float+0x16c>
    9130:	00100693          	li	a3,1
    9134:	000a8613          	mv	a2,s5
    9138:	00090593          	mv	a1,s2
    913c:	00048513          	mv	a0,s1
    9140:	000980e7          	jalr	s3
    9144:	a16502e3          	beq	a0,s6,8b48 <_printf_float+0x16c>
    9148:	001a0a13          	addi	s4,s4,1
    914c:	00c42783          	lw	a5,12(s0)
    9150:	03c12703          	lw	a4,60(sp)
    9154:	40e787b3          	sub	a5,a5,a4
    9158:	fcfa4ce3          	blt	s4,a5,9130 <_printf_float+0x754>
    915c:	c4dff06f          	j	8da8 <_printf_float+0x3cc>
    9160:	00000a13          	li	s4,0
    9164:	01940a93          	addi	s5,s0,25
    9168:	fff00b13          	li	s6,-1
    916c:	fe1ff06f          	j	914c <_printf_float+0x770>

00009170 <_printf_common>:
    9170:	fd010113          	addi	sp,sp,-48
    9174:	01412c23          	sw	s4,24(sp)
    9178:	0105a783          	lw	a5,16(a1)
    917c:	00070a13          	mv	s4,a4
    9180:	0085a703          	lw	a4,8(a1)
    9184:	02812423          	sw	s0,40(sp)
    9188:	02912223          	sw	s1,36(sp)
    918c:	01312e23          	sw	s3,28(sp)
    9190:	01512a23          	sw	s5,20(sp)
    9194:	02112623          	sw	ra,44(sp)
    9198:	03212023          	sw	s2,32(sp)
    919c:	01612823          	sw	s6,16(sp)
    91a0:	01712623          	sw	s7,12(sp)
    91a4:	00050993          	mv	s3,a0
    91a8:	00058413          	mv	s0,a1
    91ac:	00060493          	mv	s1,a2
    91b0:	00068a93          	mv	s5,a3
    91b4:	00e7d463          	bge	a5,a4,91bc <_printf_common+0x4c>
    91b8:	00070793          	mv	a5,a4
    91bc:	00f4a023          	sw	a5,0(s1)
    91c0:	04344703          	lbu	a4,67(s0)
    91c4:	00070663          	beqz	a4,91d0 <_printf_common+0x60>
    91c8:	00178793          	addi	a5,a5,1
    91cc:	00f4a023          	sw	a5,0(s1)
    91d0:	00042783          	lw	a5,0(s0)
    91d4:	0207f793          	andi	a5,a5,32
    91d8:	00078863          	beqz	a5,91e8 <_printf_common+0x78>
    91dc:	0004a783          	lw	a5,0(s1)
    91e0:	00278793          	addi	a5,a5,2
    91e4:	00f4a023          	sw	a5,0(s1)
    91e8:	00042903          	lw	s2,0(s0)
    91ec:	00697913          	andi	s2,s2,6
    91f0:	00091e63          	bnez	s2,920c <_printf_common+0x9c>
    91f4:	01940b13          	addi	s6,s0,25
    91f8:	fff00b93          	li	s7,-1
    91fc:	00c42783          	lw	a5,12(s0)
    9200:	0004a703          	lw	a4,0(s1)
    9204:	40e787b3          	sub	a5,a5,a4
    9208:	08f94263          	blt	s2,a5,928c <_printf_common+0x11c>
    920c:	04344783          	lbu	a5,67(s0)
    9210:	00f036b3          	snez	a3,a5
    9214:	00042783          	lw	a5,0(s0)
    9218:	0207f793          	andi	a5,a5,32
    921c:	0c079063          	bnez	a5,92dc <_printf_common+0x16c>
    9220:	04340613          	addi	a2,s0,67
    9224:	000a8593          	mv	a1,s5
    9228:	00098513          	mv	a0,s3
    922c:	000a00e7          	jalr	s4
    9230:	fff00793          	li	a5,-1
    9234:	06f50863          	beq	a0,a5,92a4 <_printf_common+0x134>
    9238:	00042783          	lw	a5,0(s0)
    923c:	00400613          	li	a2,4
    9240:	0004a703          	lw	a4,0(s1)
    9244:	0067f793          	andi	a5,a5,6
    9248:	00c42683          	lw	a3,12(s0)
    924c:	00000493          	li	s1,0
    9250:	00c79863          	bne	a5,a2,9260 <_printf_common+0xf0>
    9254:	40e684b3          	sub	s1,a3,a4
    9258:	0004d463          	bgez	s1,9260 <_printf_common+0xf0>
    925c:	00000493          	li	s1,0
    9260:	00842783          	lw	a5,8(s0)
    9264:	01042703          	lw	a4,16(s0)
    9268:	00f75663          	bge	a4,a5,9274 <_printf_common+0x104>
    926c:	40e787b3          	sub	a5,a5,a4
    9270:	00f484b3          	add	s1,s1,a5
    9274:	00000913          	li	s2,0
    9278:	01a40413          	addi	s0,s0,26
    927c:	fff00b13          	li	s6,-1
    9280:	09249063          	bne	s1,s2,9300 <_printf_common+0x190>
    9284:	00000513          	li	a0,0
    9288:	0200006f          	j	92a8 <_printf_common+0x138>
    928c:	00100693          	li	a3,1
    9290:	000b0613          	mv	a2,s6
    9294:	000a8593          	mv	a1,s5
    9298:	00098513          	mv	a0,s3
    929c:	000a00e7          	jalr	s4
    92a0:	03751a63          	bne	a0,s7,92d4 <_printf_common+0x164>
    92a4:	fff00513          	li	a0,-1
    92a8:	02c12083          	lw	ra,44(sp)
    92ac:	02812403          	lw	s0,40(sp)
    92b0:	02412483          	lw	s1,36(sp)
    92b4:	02012903          	lw	s2,32(sp)
    92b8:	01c12983          	lw	s3,28(sp)
    92bc:	01812a03          	lw	s4,24(sp)
    92c0:	01412a83          	lw	s5,20(sp)
    92c4:	01012b03          	lw	s6,16(sp)
    92c8:	00c12b83          	lw	s7,12(sp)
    92cc:	03010113          	addi	sp,sp,48
    92d0:	00008067          	ret
    92d4:	00190913          	addi	s2,s2,1
    92d8:	f25ff06f          	j	91fc <_printf_common+0x8c>
    92dc:	00d40733          	add	a4,s0,a3
    92e0:	03000613          	li	a2,48
    92e4:	04c701a3          	sb	a2,67(a4)
    92e8:	04544703          	lbu	a4,69(s0)
    92ec:	00168793          	addi	a5,a3,1
    92f0:	00f407b3          	add	a5,s0,a5
    92f4:	00268693          	addi	a3,a3,2
    92f8:	04e781a3          	sb	a4,67(a5)
    92fc:	f25ff06f          	j	9220 <_printf_common+0xb0>
    9300:	00100693          	li	a3,1
    9304:	00040613          	mv	a2,s0
    9308:	000a8593          	mv	a1,s5
    930c:	00098513          	mv	a0,s3
    9310:	000a00e7          	jalr	s4
    9314:	f96508e3          	beq	a0,s6,92a4 <_printf_common+0x134>
    9318:	00190913          	addi	s2,s2,1
    931c:	f65ff06f          	j	9280 <_printf_common+0x110>

00009320 <_printf_i>:
    9320:	fd010113          	addi	sp,sp,-48
    9324:	02812423          	sw	s0,40(sp)
    9328:	02912223          	sw	s1,36(sp)
    932c:	03212023          	sw	s2,32(sp)
    9330:	01312e23          	sw	s3,28(sp)
    9334:	02112623          	sw	ra,44(sp)
    9338:	01412c23          	sw	s4,24(sp)
    933c:	01512a23          	sw	s5,20(sp)
    9340:	01612823          	sw	s6,16(sp)
    9344:	0185c883          	lbu	a7,24(a1)
    9348:	07800793          	li	a5,120
    934c:	00050493          	mv	s1,a0
    9350:	00058413          	mv	s0,a1
    9354:	00060913          	mv	s2,a2
    9358:	00068993          	mv	s3,a3
    935c:	0117ee63          	bltu	a5,a7,9378 <_printf_i+0x58>
    9360:	06200793          	li	a5,98
    9364:	04358693          	addi	a3,a1,67
    9368:	0117ee63          	bltu	a5,a7,9384 <_printf_i+0x64>
    936c:	28088a63          	beqz	a7,9600 <_printf_i+0x2e0>
    9370:	05800793          	li	a5,88
    9374:	1cf88063          	beq	a7,a5,9534 <_printf_i+0x214>
    9378:	04240a93          	addi	s5,s0,66
    937c:	05140123          	sb	a7,66(s0)
    9380:	0440006f          	j	93c4 <_printf_i+0xa4>
    9384:	f9d88793          	addi	a5,a7,-99
    9388:	0ff7f793          	andi	a5,a5,255
    938c:	01500613          	li	a2,21
    9390:	fef664e3          	bltu	a2,a5,9378 <_printf_i+0x58>
    9394:	0000d637          	lui	a2,0xd
    9398:	00279793          	slli	a5,a5,0x2
    939c:	74060613          	addi	a2,a2,1856 # d740 <_ctype_+0x13c>
    93a0:	00c787b3          	add	a5,a5,a2
    93a4:	0007a783          	lw	a5,0(a5)
    93a8:	00078067          	jr	a5
    93ac:	00072783          	lw	a5,0(a4)
    93b0:	04258a93          	addi	s5,a1,66
    93b4:	00478693          	addi	a3,a5,4
    93b8:	0007a783          	lw	a5,0(a5)
    93bc:	00d72023          	sw	a3,0(a4)
    93c0:	04f58123          	sb	a5,66(a1)
    93c4:	00100793          	li	a5,1
    93c8:	2740006f          	j	963c <_printf_i+0x31c>
    93cc:	0005a783          	lw	a5,0(a1)
    93d0:	00072503          	lw	a0,0(a4)
    93d4:	0807f613          	andi	a2,a5,128
    93d8:	00450593          	addi	a1,a0,4
    93dc:	02060663          	beqz	a2,9408 <_printf_i+0xe8>
    93e0:	00052783          	lw	a5,0(a0)
    93e4:	00b72023          	sw	a1,0(a4)
    93e8:	0000d837          	lui	a6,0xd
    93ec:	0007d863          	bgez	a5,93fc <_printf_i+0xdc>
    93f0:	02d00713          	li	a4,45
    93f4:	40f007b3          	neg	a5,a5
    93f8:	04e401a3          	sb	a4,67(s0)
    93fc:	71880813          	addi	a6,a6,1816 # d718 <_ctype_+0x114>
    9400:	00a00713          	li	a4,10
    9404:	0680006f          	j	946c <_printf_i+0x14c>
    9408:	0407f613          	andi	a2,a5,64
    940c:	00052783          	lw	a5,0(a0)
    9410:	00b72023          	sw	a1,0(a4)
    9414:	fc060ae3          	beqz	a2,93e8 <_printf_i+0xc8>
    9418:	01079793          	slli	a5,a5,0x10
    941c:	4107d793          	srai	a5,a5,0x10
    9420:	fc9ff06f          	j	93e8 <_printf_i+0xc8>
    9424:	0005a603          	lw	a2,0(a1)
    9428:	00072783          	lw	a5,0(a4)
    942c:	08067513          	andi	a0,a2,128
    9430:	00478593          	addi	a1,a5,4
    9434:	00050863          	beqz	a0,9444 <_printf_i+0x124>
    9438:	00b72023          	sw	a1,0(a4)
    943c:	0007a783          	lw	a5,0(a5)
    9440:	0140006f          	j	9454 <_printf_i+0x134>
    9444:	04067613          	andi	a2,a2,64
    9448:	00b72023          	sw	a1,0(a4)
    944c:	fe0608e3          	beqz	a2,943c <_printf_i+0x11c>
    9450:	0007d783          	lhu	a5,0(a5)
    9454:	0000d837          	lui	a6,0xd
    9458:	06f00713          	li	a4,111
    945c:	71880813          	addi	a6,a6,1816 # d718 <_ctype_+0x114>
    9460:	14e88e63          	beq	a7,a4,95bc <_printf_i+0x29c>
    9464:	00a00713          	li	a4,10
    9468:	040401a3          	sb	zero,67(s0)
    946c:	00442603          	lw	a2,4(s0)
    9470:	00c42423          	sw	a2,8(s0)
    9474:	00064863          	bltz	a2,9484 <_printf_i+0x164>
    9478:	00042583          	lw	a1,0(s0)
    947c:	ffb5f593          	andi	a1,a1,-5
    9480:	00b42023          	sw	a1,0(s0)
    9484:	00079663          	bnez	a5,9490 <_printf_i+0x170>
    9488:	00068a93          	mv	s5,a3
    948c:	02060463          	beqz	a2,94b4 <_printf_i+0x194>
    9490:	00068a93          	mv	s5,a3
    9494:	02e7f633          	remu	a2,a5,a4
    9498:	fffa8a93          	addi	s5,s5,-1
    949c:	00c80633          	add	a2,a6,a2
    94a0:	00064603          	lbu	a2,0(a2)
    94a4:	00ca8023          	sb	a2,0(s5)
    94a8:	00078613          	mv	a2,a5
    94ac:	02e7d7b3          	divu	a5,a5,a4
    94b0:	fee672e3          	bgeu	a2,a4,9494 <_printf_i+0x174>
    94b4:	00800793          	li	a5,8
    94b8:	02f71463          	bne	a4,a5,94e0 <_printf_i+0x1c0>
    94bc:	00042783          	lw	a5,0(s0)
    94c0:	0017f793          	andi	a5,a5,1
    94c4:	00078e63          	beqz	a5,94e0 <_printf_i+0x1c0>
    94c8:	00442703          	lw	a4,4(s0)
    94cc:	01042783          	lw	a5,16(s0)
    94d0:	00e7c863          	blt	a5,a4,94e0 <_printf_i+0x1c0>
    94d4:	03000793          	li	a5,48
    94d8:	fefa8fa3          	sb	a5,-1(s5)
    94dc:	fffa8a93          	addi	s5,s5,-1
    94e0:	415686b3          	sub	a3,a3,s5
    94e4:	00d42823          	sw	a3,16(s0)
    94e8:	00098713          	mv	a4,s3
    94ec:	00090693          	mv	a3,s2
    94f0:	00c10613          	addi	a2,sp,12
    94f4:	00040593          	mv	a1,s0
    94f8:	00048513          	mv	a0,s1
    94fc:	c75ff0ef          	jal	ra,9170 <_printf_common>
    9500:	fff00a13          	li	s4,-1
    9504:	15451263          	bne	a0,s4,9648 <_printf_i+0x328>
    9508:	fff00513          	li	a0,-1
    950c:	02c12083          	lw	ra,44(sp)
    9510:	02812403          	lw	s0,40(sp)
    9514:	02412483          	lw	s1,36(sp)
    9518:	02012903          	lw	s2,32(sp)
    951c:	01c12983          	lw	s3,28(sp)
    9520:	01812a03          	lw	s4,24(sp)
    9524:	01412a83          	lw	s5,20(sp)
    9528:	01012b03          	lw	s6,16(sp)
    952c:	03010113          	addi	sp,sp,48
    9530:	00008067          	ret
    9534:	0000d837          	lui	a6,0xd
    9538:	051582a3          	sb	a7,69(a1)
    953c:	71880813          	addi	a6,a6,1816 # d718 <_ctype_+0x114>
    9540:	00042603          	lw	a2,0(s0)
    9544:	00072583          	lw	a1,0(a4)
    9548:	08067513          	andi	a0,a2,128
    954c:	0005a783          	lw	a5,0(a1)
    9550:	00458593          	addi	a1,a1,4
    9554:	04050863          	beqz	a0,95a4 <_printf_i+0x284>
    9558:	00b72023          	sw	a1,0(a4)
    955c:	00167713          	andi	a4,a2,1
    9560:	00070663          	beqz	a4,956c <_printf_i+0x24c>
    9564:	02066613          	ori	a2,a2,32
    9568:	00c42023          	sw	a2,0(s0)
    956c:	01000713          	li	a4,16
    9570:	ee079ce3          	bnez	a5,9468 <_printf_i+0x148>
    9574:	00042603          	lw	a2,0(s0)
    9578:	fdf67613          	andi	a2,a2,-33
    957c:	00c42023          	sw	a2,0(s0)
    9580:	ee9ff06f          	j	9468 <_printf_i+0x148>
    9584:	0005a783          	lw	a5,0(a1)
    9588:	0207e793          	ori	a5,a5,32
    958c:	00f5a023          	sw	a5,0(a1)
    9590:	07800793          	li	a5,120
    9594:	0000d837          	lui	a6,0xd
    9598:	04f402a3          	sb	a5,69(s0)
    959c:	72c80813          	addi	a6,a6,1836 # d72c <_ctype_+0x128>
    95a0:	fa1ff06f          	j	9540 <_printf_i+0x220>
    95a4:	04067513          	andi	a0,a2,64
    95a8:	00b72023          	sw	a1,0(a4)
    95ac:	fa0508e3          	beqz	a0,955c <_printf_i+0x23c>
    95b0:	01079793          	slli	a5,a5,0x10
    95b4:	0107d793          	srli	a5,a5,0x10
    95b8:	fa5ff06f          	j	955c <_printf_i+0x23c>
    95bc:	00800713          	li	a4,8
    95c0:	ea9ff06f          	j	9468 <_printf_i+0x148>
    95c4:	0005a603          	lw	a2,0(a1)
    95c8:	00072783          	lw	a5,0(a4)
    95cc:	0145a583          	lw	a1,20(a1)
    95d0:	08067813          	andi	a6,a2,128
    95d4:	00478513          	addi	a0,a5,4
    95d8:	00080a63          	beqz	a6,95ec <_printf_i+0x2cc>
    95dc:	00a72023          	sw	a0,0(a4)
    95e0:	0007a783          	lw	a5,0(a5)
    95e4:	00b7a023          	sw	a1,0(a5)
    95e8:	0180006f          	j	9600 <_printf_i+0x2e0>
    95ec:	00a72023          	sw	a0,0(a4)
    95f0:	04067613          	andi	a2,a2,64
    95f4:	0007a783          	lw	a5,0(a5)
    95f8:	fe0606e3          	beqz	a2,95e4 <_printf_i+0x2c4>
    95fc:	00b79023          	sh	a1,0(a5)
    9600:	00042823          	sw	zero,16(s0)
    9604:	00068a93          	mv	s5,a3
    9608:	ee1ff06f          	j	94e8 <_printf_i+0x1c8>
    960c:	00072783          	lw	a5,0(a4)
    9610:	0045a603          	lw	a2,4(a1)
    9614:	00000593          	li	a1,0
    9618:	00478693          	addi	a3,a5,4
    961c:	00d72023          	sw	a3,0(a4)
    9620:	0007aa83          	lw	s5,0(a5)
    9624:	000a8513          	mv	a0,s5
    9628:	115010ef          	jal	ra,af3c <memchr>
    962c:	00050663          	beqz	a0,9638 <_printf_i+0x318>
    9630:	41550533          	sub	a0,a0,s5
    9634:	00a42223          	sw	a0,4(s0)
    9638:	00442783          	lw	a5,4(s0)
    963c:	00f42823          	sw	a5,16(s0)
    9640:	040401a3          	sb	zero,67(s0)
    9644:	ea5ff06f          	j	94e8 <_printf_i+0x1c8>
    9648:	01042683          	lw	a3,16(s0)
    964c:	000a8613          	mv	a2,s5
    9650:	00090593          	mv	a1,s2
    9654:	00048513          	mv	a0,s1
    9658:	000980e7          	jalr	s3
    965c:	eb4506e3          	beq	a0,s4,9508 <_printf_i+0x1e8>
    9660:	00042783          	lw	a5,0(s0)
    9664:	0027f793          	andi	a5,a5,2
    9668:	04079463          	bnez	a5,96b0 <_printf_i+0x390>
    966c:	00c12783          	lw	a5,12(sp)
    9670:	00c42503          	lw	a0,12(s0)
    9674:	e8f55ce3          	bge	a0,a5,950c <_printf_i+0x1ec>
    9678:	00078513          	mv	a0,a5
    967c:	e91ff06f          	j	950c <_printf_i+0x1ec>
    9680:	00100693          	li	a3,1
    9684:	000a8613          	mv	a2,s5
    9688:	00090593          	mv	a1,s2
    968c:	00048513          	mv	a0,s1
    9690:	000980e7          	jalr	s3
    9694:	e7650ae3          	beq	a0,s6,9508 <_printf_i+0x1e8>
    9698:	001a0a13          	addi	s4,s4,1
    969c:	00c42783          	lw	a5,12(s0)
    96a0:	00c12703          	lw	a4,12(sp)
    96a4:	40e787b3          	sub	a5,a5,a4
    96a8:	fcfa4ce3          	blt	s4,a5,9680 <_printf_i+0x360>
    96ac:	fc1ff06f          	j	966c <_printf_i+0x34c>
    96b0:	00000a13          	li	s4,0
    96b4:	01940a93          	addi	s5,s0,25
    96b8:	fff00b13          	li	s6,-1
    96bc:	fe1ff06f          	j	969c <_printf_i+0x37c>

000096c0 <iprintf>:
    96c0:	fb010113          	addi	sp,sp,-80
    96c4:	04f12223          	sw	a5,68(sp)
    96c8:	0002f7b7          	lui	a5,0x2f
    96cc:	02812423          	sw	s0,40(sp)
    96d0:	00050413          	mv	s0,a0
    96d4:	4807a503          	lw	a0,1152(a5) # 2f480 <_impure_ptr>
    96d8:	02112623          	sw	ra,44(sp)
    96dc:	02b12a23          	sw	a1,52(sp)
    96e0:	02c12c23          	sw	a2,56(sp)
    96e4:	02d12e23          	sw	a3,60(sp)
    96e8:	04e12023          	sw	a4,64(sp)
    96ec:	05012423          	sw	a6,72(sp)
    96f0:	05112623          	sw	a7,76(sp)
    96f4:	00050c63          	beqz	a0,970c <iprintf+0x4c>
    96f8:	01852783          	lw	a5,24(a0)
    96fc:	00079863          	bnez	a5,970c <iprintf+0x4c>
    9700:	00a12623          	sw	a0,12(sp)
    9704:	5c4010ef          	jal	ra,acc8 <__sinit>
    9708:	00c12503          	lw	a0,12(sp)
    970c:	00852583          	lw	a1,8(a0)
    9710:	03410693          	addi	a3,sp,52
    9714:	00040613          	mv	a2,s0
    9718:	00d12e23          	sw	a3,28(sp)
    971c:	5f8020ef          	jal	ra,bd14 <_vfiprintf_r>
    9720:	02c12083          	lw	ra,44(sp)
    9724:	02812403          	lw	s0,40(sp)
    9728:	05010113          	addi	sp,sp,80
    972c:	00008067          	ret

00009730 <_sbrk_r>:
    9730:	ff010113          	addi	sp,sp,-16
    9734:	00812423          	sw	s0,8(sp)
    9738:	00912223          	sw	s1,4(sp)
    973c:	00050413          	mv	s0,a0
    9740:	0000e4b7          	lui	s1,0xe
    9744:	00058513          	mv	a0,a1
    9748:	00112623          	sw	ra,12(sp)
    974c:	9c04a023          	sw	zero,-1600(s1) # d9c0 <errno>
    9750:	f04fc0ef          	jal	ra,5e54 <_sbrk>
    9754:	fff00793          	li	a5,-1
    9758:	00f51863          	bne	a0,a5,9768 <_sbrk_r+0x38>
    975c:	9c04a783          	lw	a5,-1600(s1)
    9760:	00078463          	beqz	a5,9768 <_sbrk_r+0x38>
    9764:	00f42023          	sw	a5,0(s0)
    9768:	00c12083          	lw	ra,12(sp)
    976c:	00812403          	lw	s0,8(sp)
    9770:	00412483          	lw	s1,4(sp)
    9774:	01010113          	addi	sp,sp,16
    9778:	00008067          	ret

0000977c <strlen>:
    977c:	00050793          	mv	a5,a0
    9780:	0007c703          	lbu	a4,0(a5)
    9784:	00178793          	addi	a5,a5,1
    9788:	fe071ce3          	bnez	a4,9780 <strlen+0x4>
    978c:	40a78533          	sub	a0,a5,a0
    9790:	fff50513          	addi	a0,a0,-1
    9794:	00008067          	ret

00009798 <strncpy>:
    9798:	00050793          	mv	a5,a0
    979c:	00060e63          	beqz	a2,97b8 <strncpy+0x20>
    97a0:	0005c703          	lbu	a4,0(a1)
    97a4:	00158593          	addi	a1,a1,1
    97a8:	00178793          	addi	a5,a5,1
    97ac:	fee78fa3          	sb	a4,-1(a5)
    97b0:	fff60613          	addi	a2,a2,-1
    97b4:	fe0714e3          	bnez	a4,979c <strncpy+0x4>
    97b8:	00c78633          	add	a2,a5,a2
    97bc:	00c79463          	bne	a5,a2,97c4 <strncpy+0x2c>
    97c0:	00008067          	ret
    97c4:	00178793          	addi	a5,a5,1
    97c8:	fe078fa3          	sb	zero,-1(a5)
    97cc:	ff1ff06f          	j	97bc <strncpy+0x24>

000097d0 <strnlen>:
    97d0:	00b505b3          	add	a1,a0,a1
    97d4:	00050793          	mv	a5,a0
    97d8:	00b78663          	beq	a5,a1,97e4 <strnlen+0x14>
    97dc:	0007c703          	lbu	a4,0(a5)
    97e0:	00071663          	bnez	a4,97ec <strnlen+0x1c>
    97e4:	40a78533          	sub	a0,a5,a0
    97e8:	00008067          	ret
    97ec:	00178793          	addi	a5,a5,1
    97f0:	fe9ff06f          	j	97d8 <strnlen+0x8>

000097f4 <quorem>:
    97f4:	fe010113          	addi	sp,sp,-32
    97f8:	00812c23          	sw	s0,24(sp)
    97fc:	01052783          	lw	a5,16(a0)
    9800:	0105a403          	lw	s0,16(a1)
    9804:	00112e23          	sw	ra,28(sp)
    9808:	00912a23          	sw	s1,20(sp)
    980c:	01212823          	sw	s2,16(sp)
    9810:	01312623          	sw	s3,12(sp)
    9814:	01412423          	sw	s4,8(sp)
    9818:	01512223          	sw	s5,4(sp)
    981c:	1887ce63          	blt	a5,s0,99b8 <quorem+0x1c4>
    9820:	fff40413          	addi	s0,s0,-1
    9824:	00241613          	slli	a2,s0,0x2
    9828:	01458a13          	addi	s4,a1,20
    982c:	00ca0ab3          	add	s5,s4,a2
    9830:	01450993          	addi	s3,a0,20
    9834:	000aa783          	lw	a5,0(s5)
    9838:	00c98633          	add	a2,s3,a2
    983c:	00062703          	lw	a4,0(a2)
    9840:	00178793          	addi	a5,a5,1
    9844:	00050913          	mv	s2,a0
    9848:	02f754b3          	divu	s1,a4,a5
    984c:	08f76863          	bltu	a4,a5,98dc <quorem+0xe8>
    9850:	00010537          	lui	a0,0x10
    9854:	000a0813          	mv	a6,s4
    9858:	00098893          	mv	a7,s3
    985c:	00000313          	li	t1,0
    9860:	00000e13          	li	t3,0
    9864:	fff50513          	addi	a0,a0,-1 # ffff <kheap__system_heap+0xd6f>
    9868:	00082683          	lw	a3,0(a6)
    986c:	00488893          	addi	a7,a7,4
    9870:	00480813          	addi	a6,a6,4
    9874:	00a6f7b3          	and	a5,a3,a0
    9878:	0106d693          	srli	a3,a3,0x10
    987c:	029787b3          	mul	a5,a5,s1
    9880:	029686b3          	mul	a3,a3,s1
    9884:	006787b3          	add	a5,a5,t1
    9888:	0107d713          	srli	a4,a5,0x10
    988c:	00a7f7b3          	and	a5,a5,a0
    9890:	40fe07b3          	sub	a5,t3,a5
    9894:	00e686b3          	add	a3,a3,a4
    9898:	ffc8a703          	lw	a4,-4(a7)
    989c:	0106d313          	srli	t1,a3,0x10
    98a0:	00a6f6b3          	and	a3,a3,a0
    98a4:	00a77e33          	and	t3,a4,a0
    98a8:	01c787b3          	add	a5,a5,t3
    98ac:	01075713          	srli	a4,a4,0x10
    98b0:	40d70733          	sub	a4,a4,a3
    98b4:	4107d693          	srai	a3,a5,0x10
    98b8:	00d70733          	add	a4,a4,a3
    98bc:	41075e13          	srai	t3,a4,0x10
    98c0:	00a7f7b3          	and	a5,a5,a0
    98c4:	01071713          	slli	a4,a4,0x10
    98c8:	00f767b3          	or	a5,a4,a5
    98cc:	fef8ae23          	sw	a5,-4(a7)
    98d0:	f90afce3          	bgeu	s5,a6,9868 <quorem+0x74>
    98d4:	00062783          	lw	a5,0(a2)
    98d8:	0a078a63          	beqz	a5,998c <quorem+0x198>
    98dc:	00090513          	mv	a0,s2
    98e0:	795010ef          	jal	ra,b874 <__mcmp>
    98e4:	06054a63          	bltz	a0,9958 <quorem+0x164>
    98e8:	000106b7          	lui	a3,0x10
    98ec:	00148493          	addi	s1,s1,1
    98f0:	00098613          	mv	a2,s3
    98f4:	00000593          	li	a1,0
    98f8:	fff68693          	addi	a3,a3,-1 # ffff <kheap__system_heap+0xd6f>
    98fc:	000a2503          	lw	a0,0(s4)
    9900:	00062783          	lw	a5,0(a2)
    9904:	00460613          	addi	a2,a2,4
    9908:	00d57733          	and	a4,a0,a3
    990c:	40e585b3          	sub	a1,a1,a4
    9910:	00d7f733          	and	a4,a5,a3
    9914:	00e58733          	add	a4,a1,a4
    9918:	0107d793          	srli	a5,a5,0x10
    991c:	01055513          	srli	a0,a0,0x10
    9920:	41075593          	srai	a1,a4,0x10
    9924:	40a787b3          	sub	a5,a5,a0
    9928:	00b787b3          	add	a5,a5,a1
    992c:	4107d593          	srai	a1,a5,0x10
    9930:	00d77733          	and	a4,a4,a3
    9934:	01079793          	slli	a5,a5,0x10
    9938:	00e7e7b3          	or	a5,a5,a4
    993c:	004a0a13          	addi	s4,s4,4
    9940:	fef62e23          	sw	a5,-4(a2)
    9944:	fb4afce3          	bgeu	s5,s4,98fc <quorem+0x108>
    9948:	00241793          	slli	a5,s0,0x2
    994c:	00f987b3          	add	a5,s3,a5
    9950:	0007a703          	lw	a4,0(a5)
    9954:	04070a63          	beqz	a4,99a8 <quorem+0x1b4>
    9958:	00048513          	mv	a0,s1
    995c:	01c12083          	lw	ra,28(sp)
    9960:	01812403          	lw	s0,24(sp)
    9964:	01412483          	lw	s1,20(sp)
    9968:	01012903          	lw	s2,16(sp)
    996c:	00c12983          	lw	s3,12(sp)
    9970:	00812a03          	lw	s4,8(sp)
    9974:	00412a83          	lw	s5,4(sp)
    9978:	02010113          	addi	sp,sp,32
    997c:	00008067          	ret
    9980:	00062783          	lw	a5,0(a2)
    9984:	00079863          	bnez	a5,9994 <quorem+0x1a0>
    9988:	fff40413          	addi	s0,s0,-1
    998c:	ffc60613          	addi	a2,a2,-4
    9990:	fec9e8e3          	bltu	s3,a2,9980 <quorem+0x18c>
    9994:	00892823          	sw	s0,16(s2)
    9998:	f45ff06f          	j	98dc <quorem+0xe8>
    999c:	0007a703          	lw	a4,0(a5)
    99a0:	00071863          	bnez	a4,99b0 <quorem+0x1bc>
    99a4:	fff40413          	addi	s0,s0,-1
    99a8:	ffc78793          	addi	a5,a5,-4
    99ac:	fef9e8e3          	bltu	s3,a5,999c <quorem+0x1a8>
    99b0:	00892823          	sw	s0,16(s2)
    99b4:	fa5ff06f          	j	9958 <quorem+0x164>
    99b8:	00000513          	li	a0,0
    99bc:	fa1ff06f          	j	995c <quorem+0x168>

000099c0 <_dtoa_r>:
    99c0:	f5010113          	addi	sp,sp,-176
    99c4:	02f12c23          	sw	a5,56(sp)
    99c8:	02452783          	lw	a5,36(a0)
    99cc:	0a812423          	sw	s0,168(sp)
    99d0:	0a912223          	sw	s1,164(sp)
    99d4:	0b212023          	sw	s2,160(sp)
    99d8:	09312e23          	sw	s3,156(sp)
    99dc:	09512a23          	sw	s5,148(sp)
    99e0:	09612823          	sw	s6,144(sp)
    99e4:	0a112623          	sw	ra,172(sp)
    99e8:	09412c23          	sw	s4,152(sp)
    99ec:	09712623          	sw	s7,140(sp)
    99f0:	09812423          	sw	s8,136(sp)
    99f4:	09912223          	sw	s9,132(sp)
    99f8:	09a12023          	sw	s10,128(sp)
    99fc:	07b12e23          	sw	s11,124(sp)
    9a00:	00d12a23          	sw	a3,20(sp)
    9a04:	02e12023          	sw	a4,32(sp)
    9a08:	03112223          	sw	a7,36(sp)
    9a0c:	00050493          	mv	s1,a0
    9a10:	00058a93          	mv	s5,a1
    9a14:	00060413          	mv	s0,a2
    9a18:	00080913          	mv	s2,a6
    9a1c:	00058993          	mv	s3,a1
    9a20:	00060b13          	mv	s6,a2
    9a24:	04079063          	bnez	a5,9a64 <_dtoa_r+0xa4>
    9a28:	01000513          	li	a0,16
    9a2c:	b2dfe0ef          	jal	ra,8558 <malloc>
    9a30:	02a4a223          	sw	a0,36(s1)
    9a34:	02051063          	bnez	a0,9a54 <_dtoa_r+0x94>
    9a38:	0000d6b7          	lui	a3,0xd
    9a3c:	7a868693          	addi	a3,a3,1960 # d7a8 <_ctype_+0x1a4>
    9a40:	00000613          	li	a2,0
    9a44:	0ea00593          	li	a1,234
    9a48:	0000d537          	lui	a0,0xd
    9a4c:	7c050513          	addi	a0,a0,1984 # d7c0 <_ctype_+0x1bc>
    9a50:	331020ef          	jal	ra,c580 <__assert_func>
    9a54:	00052223          	sw	zero,4(a0)
    9a58:	00052423          	sw	zero,8(a0)
    9a5c:	00052023          	sw	zero,0(a0)
    9a60:	00052623          	sw	zero,12(a0)
    9a64:	0244a783          	lw	a5,36(s1)
    9a68:	0007a583          	lw	a1,0(a5)
    9a6c:	02058463          	beqz	a1,9a94 <_dtoa_r+0xd4>
    9a70:	0047a703          	lw	a4,4(a5)
    9a74:	00100793          	li	a5,1
    9a78:	00048513          	mv	a0,s1
    9a7c:	00e797b3          	sll	a5,a5,a4
    9a80:	00f5a423          	sw	a5,8(a1)
    9a84:	00e5a223          	sw	a4,4(a1)
    9a88:	5f0010ef          	jal	ra,b078 <_Bfree>
    9a8c:	0244a783          	lw	a5,36(s1)
    9a90:	0007a023          	sw	zero,0(a5)
    9a94:	04045c63          	bgez	s0,9aec <_dtoa_r+0x12c>
    9a98:	00100793          	li	a5,1
    9a9c:	00141413          	slli	s0,s0,0x1
    9aa0:	00f92023          	sw	a5,0(s2)
    9aa4:	00145b13          	srli	s6,s0,0x1
    9aa8:	7ff007b7          	lui	a5,0x7ff00
    9aac:	00fb7733          	and	a4,s6,a5
    9ab0:	0af71863          	bne	a4,a5,9b60 <_dtoa_r+0x1a0>
    9ab4:	03812703          	lw	a4,56(sp)
    9ab8:	000027b7          	lui	a5,0x2
    9abc:	00cb1b13          	slli	s6,s6,0xc
    9ac0:	70f78793          	addi	a5,a5,1807 # 270f <__divsf3+0xf7>
    9ac4:	00cb5b13          	srli	s6,s6,0xc
    9ac8:	00f72023          	sw	a5,0(a4)
    9acc:	015b6ab3          	or	s5,s6,s5
    9ad0:	000a9463          	bnez	s5,9ad8 <_dtoa_r+0x118>
    9ad4:	0540106f          	j	ab28 <_dtoa_r+0x1168>
    9ad8:	02412783          	lw	a5,36(sp)
    9adc:	0000d537          	lui	a0,0xd
    9ae0:	06079663          	bnez	a5,9b4c <_dtoa_r+0x18c>
    9ae4:	7a450793          	addi	a5,a0,1956 # d7a4 <_ctype_+0x1a0>
    9ae8:	0540106f          	j	ab3c <_dtoa_r+0x117c>
    9aec:	00092023          	sw	zero,0(s2)
    9af0:	fb9ff06f          	j	9aa8 <_dtoa_r+0xe8>
    9af4:	79850793          	addi	a5,a0,1944
    9af8:	00f12823          	sw	a5,16(sp)
    9afc:	0000d7b7          	lui	a5,0xd
    9b00:	7a078793          	addi	a5,a5,1952 # d7a0 <_ctype_+0x19c>
    9b04:	02412703          	lw	a4,36(sp)
    9b08:	00f72023          	sw	a5,0(a4)
    9b0c:	0ac12083          	lw	ra,172(sp)
    9b10:	0a812403          	lw	s0,168(sp)
    9b14:	01012503          	lw	a0,16(sp)
    9b18:	0a412483          	lw	s1,164(sp)
    9b1c:	0a012903          	lw	s2,160(sp)
    9b20:	09c12983          	lw	s3,156(sp)
    9b24:	09812a03          	lw	s4,152(sp)
    9b28:	09412a83          	lw	s5,148(sp)
    9b2c:	09012b03          	lw	s6,144(sp)
    9b30:	08c12b83          	lw	s7,140(sp)
    9b34:	08812c03          	lw	s8,136(sp)
    9b38:	08412c83          	lw	s9,132(sp)
    9b3c:	08012d03          	lw	s10,128(sp)
    9b40:	07c12d83          	lw	s11,124(sp)
    9b44:	0b010113          	addi	sp,sp,176
    9b48:	00008067          	ret
    9b4c:	7a450793          	addi	a5,a0,1956
    9b50:	00f12823          	sw	a5,16(sp)
    9b54:	0000d7b7          	lui	a5,0xd
    9b58:	7a778793          	addi	a5,a5,1959 # d7a7 <_ctype_+0x1a3>
    9b5c:	fa9ff06f          	j	9b04 <_dtoa_r+0x144>
    9b60:	00000613          	li	a2,0
    9b64:	00000693          	li	a3,0
    9b68:	000a8513          	mv	a0,s5
    9b6c:	000b0593          	mv	a1,s6
    9b70:	03512623          	sw	s5,44(sp)
    9b74:	03612823          	sw	s6,48(sp)
    9b78:	9f9f90ef          	jal	ra,3570 <__eqdf2>
    9b7c:	02051c63          	bnez	a0,9bb4 <_dtoa_r+0x1f4>
    9b80:	03812703          	lw	a4,56(sp)
    9b84:	00100793          	li	a5,1
    9b88:	00f72023          	sw	a5,0(a4)
    9b8c:	0000d737          	lui	a4,0xd
    9b90:	58870793          	addi	a5,a4,1416 # d588 <gpio_veerwolf_driver_api+0x28>
    9b94:	00f12823          	sw	a5,16(sp)
    9b98:	02412783          	lw	a5,36(sp)
    9b9c:	f60788e3          	beqz	a5,9b0c <_dtoa_r+0x14c>
    9ba0:	02412683          	lw	a3,36(sp)
    9ba4:	0000d7b7          	lui	a5,0xd
    9ba8:	58978793          	addi	a5,a5,1417 # d589 <gpio_veerwolf_driver_api+0x29>
    9bac:	00f6a023          	sw	a5,0(a3)
    9bb0:	f5dff06f          	j	9b0c <_dtoa_r+0x14c>
    9bb4:	06810713          	addi	a4,sp,104
    9bb8:	06c10693          	addi	a3,sp,108
    9bbc:	000b0613          	mv	a2,s6
    9bc0:	000a8593          	mv	a1,s5
    9bc4:	00048513          	mv	a0,s1
    9bc8:	6fd010ef          	jal	ra,bac4 <__d2b>
    9bcc:	014b5913          	srli	s2,s6,0x14
    9bd0:	00a12623          	sw	a0,12(sp)
    9bd4:	7ff97913          	andi	s2,s2,2047
    9bd8:	06812a03          	lw	s4,104(sp)
    9bdc:	1a090063          	beqz	s2,9d7c <_dtoa_r+0x3bc>
    9be0:	03012783          	lw	a5,48(sp)
    9be4:	02c12503          	lw	a0,44(sp)
    9be8:	c0190913          	addi	s2,s2,-1023
    9bec:	00c79593          	slli	a1,a5,0xc
    9bf0:	00c5d593          	srli	a1,a1,0xc
    9bf4:	3ff007b7          	lui	a5,0x3ff00
    9bf8:	00f5e5b3          	or	a1,a1,a5
    9bfc:	04012c23          	sw	zero,88(sp)
    9c00:	0000d7b7          	lui	a5,0xd
    9c04:	e807a603          	lw	a2,-384(a5) # ce80 <__device_handles_end+0xc>
    9c08:	e847a683          	lw	a3,-380(a5)
    9c0c:	d45f70ef          	jal	ra,1950 <__subdf3>
    9c10:	0000d7b7          	lui	a5,0xd
    9c14:	e887a603          	lw	a2,-376(a5) # ce88 <__device_handles_end+0x14>
    9c18:	e8c7a683          	lw	a3,-372(a5)
    9c1c:	f6cf70ef          	jal	ra,1388 <__muldf3>
    9c20:	0000d7b7          	lui	a5,0xd
    9c24:	e907a603          	lw	a2,-368(a5) # ce90 <__device_handles_end+0x1c>
    9c28:	e947a683          	lw	a3,-364(a5)
    9c2c:	96cf90ef          	jal	ra,2d98 <__adddf3>
    9c30:	00050b93          	mv	s7,a0
    9c34:	00090513          	mv	a0,s2
    9c38:	00058a93          	mv	s5,a1
    9c3c:	b71f90ef          	jal	ra,37ac <__floatsidf>
    9c40:	0000d7b7          	lui	a5,0xd
    9c44:	e987a603          	lw	a2,-360(a5) # ce98 <__device_handles_end+0x24>
    9c48:	e9c7a683          	lw	a3,-356(a5)
    9c4c:	f3cf70ef          	jal	ra,1388 <__muldf3>
    9c50:	00050613          	mv	a2,a0
    9c54:	00058693          	mv	a3,a1
    9c58:	000b8513          	mv	a0,s7
    9c5c:	000a8593          	mv	a1,s5
    9c60:	938f90ef          	jal	ra,2d98 <__adddf3>
    9c64:	00050b93          	mv	s7,a0
    9c68:	00058a93          	mv	s5,a1
    9c6c:	ac1f90ef          	jal	ra,372c <__fixdfsi>
    9c70:	00050413          	mv	s0,a0
    9c74:	00000613          	li	a2,0
    9c78:	00000693          	li	a3,0
    9c7c:	000b8513          	mv	a0,s7
    9c80:	000a8593          	mv	a1,s5
    9c84:	979f90ef          	jal	ra,35fc <__ledf2>
    9c88:	02055063          	bgez	a0,9ca8 <_dtoa_r+0x2e8>
    9c8c:	00040513          	mv	a0,s0
    9c90:	b1df90ef          	jal	ra,37ac <__floatsidf>
    9c94:	000b8613          	mv	a2,s7
    9c98:	000a8693          	mv	a3,s5
    9c9c:	8d5f90ef          	jal	ra,3570 <__eqdf2>
    9ca0:	00050463          	beqz	a0,9ca8 <_dtoa_r+0x2e8>
    9ca4:	fff40413          	addi	s0,s0,-1
    9ca8:	00100713          	li	a4,1
    9cac:	01600793          	li	a5,22
    9cb0:	02e12a23          	sw	a4,52(sp)
    9cb4:	0287ea63          	bltu	a5,s0,9ce8 <_dtoa_r+0x328>
    9cb8:	0000d737          	lui	a4,0xd
    9cbc:	00341793          	slli	a5,s0,0x3
    9cc0:	0f870713          	addi	a4,a4,248 # d0f8 <__mprec_tens>
    9cc4:	00e787b3          	add	a5,a5,a4
    9cc8:	0007a603          	lw	a2,0(a5)
    9ccc:	0047a683          	lw	a3,4(a5)
    9cd0:	02c12503          	lw	a0,44(sp)
    9cd4:	03012583          	lw	a1,48(sp)
    9cd8:	925f90ef          	jal	ra,35fc <__ledf2>
    9cdc:	00055463          	bgez	a0,9ce4 <_dtoa_r+0x324>
    9ce0:	fff40413          	addi	s0,s0,-1
    9ce4:	02012a23          	sw	zero,52(sp)
    9ce8:	412a0933          	sub	s2,s4,s2
    9cec:	fff90c13          	addi	s8,s2,-1
    9cf0:	00000b93          	li	s7,0
    9cf4:	000c5863          	bgez	s8,9d04 <_dtoa_r+0x344>
    9cf8:	00100b93          	li	s7,1
    9cfc:	412b8bb3          	sub	s7,s7,s2
    9d00:	00000c13          	li	s8,0
    9d04:	0c044663          	bltz	s0,9dd0 <_dtoa_r+0x410>
    9d08:	008c0c33          	add	s8,s8,s0
    9d0c:	02812423          	sw	s0,40(sp)
    9d10:	00000c93          	li	s9,0
    9d14:	01412703          	lw	a4,20(sp)
    9d18:	00900793          	li	a5,9
    9d1c:	14e7e863          	bltu	a5,a4,9e6c <_dtoa_r+0x4ac>
    9d20:	00500793          	li	a5,5
    9d24:	00100913          	li	s2,1
    9d28:	00e7d863          	bge	a5,a4,9d38 <_dtoa_r+0x378>
    9d2c:	ffc70793          	addi	a5,a4,-4
    9d30:	00f12a23          	sw	a5,20(sp)
    9d34:	00000913          	li	s2,0
    9d38:	01412703          	lw	a4,20(sp)
    9d3c:	00400793          	li	a5,4
    9d40:	0af70063          	beq	a4,a5,9de0 <_dtoa_r+0x420>
    9d44:	00500793          	li	a5,5
    9d48:	10f70063          	beq	a4,a5,9e48 <_dtoa_r+0x488>
    9d4c:	00200793          	li	a5,2
    9d50:	0ef70863          	beq	a4,a5,9e40 <_dtoa_r+0x480>
    9d54:	00300793          	li	a5,3
    9d58:	00012e23          	sw	zero,28(sp)
    9d5c:	0ef70a63          	beq	a4,a5,9e50 <_dtoa_r+0x490>
    9d60:	00100793          	li	a5,1
    9d64:	00f12e23          	sw	a5,28(sp)
    9d68:	fff00d93          	li	s11,-1
    9d6c:	fff00d13          	li	s10,-1
    9d70:	01200793          	li	a5,18
    9d74:	02012023          	sw	zero,32(sp)
    9d78:	08c0006f          	j	9e04 <_dtoa_r+0x444>
    9d7c:	06c12903          	lw	s2,108(sp)
    9d80:	02000793          	li	a5,32
    9d84:	012a0933          	add	s2,s4,s2
    9d88:	43290593          	addi	a1,s2,1074
    9d8c:	02b7dc63          	bge	a5,a1,9dc4 <_dtoa_r+0x404>
    9d90:	04000513          	li	a0,64
    9d94:	40b50533          	sub	a0,a0,a1
    9d98:	41290593          	addi	a1,s2,1042
    9d9c:	00ab1533          	sll	a0,s6,a0
    9da0:	00badab3          	srl	s5,s5,a1
    9da4:	01556533          	or	a0,a0,s5
    9da8:	b94f80ef          	jal	ra,213c <__floatunsidf>
    9dac:	fe1007b7          	lui	a5,0xfe100
    9db0:	00b785b3          	add	a1,a5,a1
    9db4:	00100793          	li	a5,1
    9db8:	fff90913          	addi	s2,s2,-1
    9dbc:	04f12c23          	sw	a5,88(sp)
    9dc0:	e41ff06f          	j	9c00 <_dtoa_r+0x240>
    9dc4:	40b78533          	sub	a0,a5,a1
    9dc8:	00aa9533          	sll	a0,s5,a0
    9dcc:	fddff06f          	j	9da8 <_dtoa_r+0x3e8>
    9dd0:	408b8bb3          	sub	s7,s7,s0
    9dd4:	40800cb3          	neg	s9,s0
    9dd8:	02012423          	sw	zero,40(sp)
    9ddc:	f39ff06f          	j	9d14 <_dtoa_r+0x354>
    9de0:	00100793          	li	a5,1
    9de4:	00f12e23          	sw	a5,28(sp)
    9de8:	02012783          	lw	a5,32(sp)
    9dec:	08f04663          	bgtz	a5,9e78 <_dtoa_r+0x4b8>
    9df0:	00100713          	li	a4,1
    9df4:	00100d93          	li	s11,1
    9df8:	00100d13          	li	s10,1
    9dfc:	00100793          	li	a5,1
    9e00:	02e12023          	sw	a4,32(sp)
    9e04:	0244a683          	lw	a3,36(s1)
    9e08:	00400713          	li	a4,4
    9e0c:	0006a223          	sw	zero,4(a3)
    9e10:	01470613          	addi	a2,a4,20
    9e14:	0046a583          	lw	a1,4(a3)
    9e18:	06c7f863          	bgeu	a5,a2,9e88 <_dtoa_r+0x4c8>
    9e1c:	00048513          	mv	a0,s1
    9e20:	158010ef          	jal	ra,af78 <_Balloc>
    9e24:	00a12823          	sw	a0,16(sp)
    9e28:	06051863          	bnez	a0,9e98 <_dtoa_r+0x4d8>
    9e2c:	0000e6b7          	lui	a3,0xe
    9e30:	82468693          	addi	a3,a3,-2012 # d824 <_ctype_+0x220>
    9e34:	00000613          	li	a2,0
    9e38:	1aa00593          	li	a1,426
    9e3c:	c0dff06f          	j	9a48 <_dtoa_r+0x88>
    9e40:	00012e23          	sw	zero,28(sp)
    9e44:	fa5ff06f          	j	9de8 <_dtoa_r+0x428>
    9e48:	00100793          	li	a5,1
    9e4c:	00f12e23          	sw	a5,28(sp)
    9e50:	02012783          	lw	a5,32(sp)
    9e54:	00f40db3          	add	s11,s0,a5
    9e58:	001d8d13          	addi	s10,s11,1
    9e5c:	000d0793          	mv	a5,s10
    9e60:	fba042e3          	bgtz	s10,9e04 <_dtoa_r+0x444>
    9e64:	00100793          	li	a5,1
    9e68:	f9dff06f          	j	9e04 <_dtoa_r+0x444>
    9e6c:	00100913          	li	s2,1
    9e70:	00012a23          	sw	zero,20(sp)
    9e74:	eedff06f          	j	9d60 <_dtoa_r+0x3a0>
    9e78:	02012d83          	lw	s11,32(sp)
    9e7c:	000d8d13          	mv	s10,s11
    9e80:	000d8793          	mv	a5,s11
    9e84:	f81ff06f          	j	9e04 <_dtoa_r+0x444>
    9e88:	00158593          	addi	a1,a1,1
    9e8c:	00b6a223          	sw	a1,4(a3)
    9e90:	00171713          	slli	a4,a4,0x1
    9e94:	f7dff06f          	j	9e10 <_dtoa_r+0x450>
    9e98:	0244a783          	lw	a5,36(s1)
    9e9c:	01012703          	lw	a4,16(sp)
    9ea0:	00e7a023          	sw	a4,0(a5) # fe100000 <CONFIG_SYSTEM_WORKQUEUE_PRIORITY+0xfe100001>
    9ea4:	00e00793          	li	a5,14
    9ea8:	19a7ea63          	bltu	a5,s10,a03c <_dtoa_r+0x67c>
    9eac:	18090863          	beqz	s2,a03c <_dtoa_r+0x67c>
    9eb0:	24805263          	blez	s0,a0f4 <_dtoa_r+0x734>
    9eb4:	00f47793          	andi	a5,s0,15
    9eb8:	0000d737          	lui	a4,0xd
    9ebc:	0f870713          	addi	a4,a4,248 # d0f8 <__mprec_tens>
    9ec0:	00379793          	slli	a5,a5,0x3
    9ec4:	40445a93          	srai	s5,s0,0x4
    9ec8:	00e787b3          	add	a5,a5,a4
    9ecc:	0000d937          	lui	s2,0xd
    9ed0:	010af693          	andi	a3,s5,16
    9ed4:	0007a703          	lw	a4,0(a5)
    9ed8:	0d090913          	addi	s2,s2,208 # d0d0 <__mprec_bigtens>
    9edc:	0047a783          	lw	a5,4(a5)
    9ee0:	00200a13          	li	s4,2
    9ee4:	02068c63          	beqz	a3,9f1c <_dtoa_r+0x55c>
    9ee8:	02092603          	lw	a2,32(s2)
    9eec:	02492683          	lw	a3,36(s2)
    9ef0:	02c12503          	lw	a0,44(sp)
    9ef4:	03012583          	lw	a1,48(sp)
    9ef8:	02f12e23          	sw	a5,60(sp)
    9efc:	00e12c23          	sw	a4,24(sp)
    9f00:	cc5f60ef          	jal	ra,bc4 <__divdf3>
    9f04:	03c12783          	lw	a5,60(sp)
    9f08:	01812703          	lw	a4,24(sp)
    9f0c:	00fafa93          	andi	s5,s5,15
    9f10:	00050993          	mv	s3,a0
    9f14:	00058b13          	mv	s6,a1
    9f18:	00300a13          	li	s4,3
    9f1c:	1a0a9263          	bnez	s5,a0c0 <_dtoa_r+0x700>
    9f20:	00098513          	mv	a0,s3
    9f24:	00070613          	mv	a2,a4
    9f28:	00078693          	mv	a3,a5
    9f2c:	000b0593          	mv	a1,s6
    9f30:	c95f60ef          	jal	ra,bc4 <__divdf3>
    9f34:	00050993          	mv	s3,a0
    9f38:	00058b13          	mv	s6,a1
    9f3c:	03412783          	lw	a5,52(sp)
    9f40:	24078263          	beqz	a5,a184 <_dtoa_r+0x7c4>
    9f44:	0000d7b7          	lui	a5,0xd
    9f48:	ea07a603          	lw	a2,-352(a5) # cea0 <__device_handles_end+0x2c>
    9f4c:	ea47a683          	lw	a3,-348(a5)
    9f50:	00098513          	mv	a0,s3
    9f54:	000b0593          	mv	a1,s6
    9f58:	ea4f90ef          	jal	ra,35fc <__ledf2>
    9f5c:	22055463          	bgez	a0,a184 <_dtoa_r+0x7c4>
    9f60:	220d0863          	beqz	s10,a190 <_dtoa_r+0x7d0>
    9f64:	0db05863          	blez	s11,a034 <_dtoa_r+0x674>
    9f68:	fff40793          	addi	a5,s0,-1
    9f6c:	00f12c23          	sw	a5,24(sp)
    9f70:	0000d7b7          	lui	a5,0xd
    9f74:	ea87a603          	lw	a2,-344(a5) # cea8 <__device_handles_end+0x34>
    9f78:	eac7a683          	lw	a3,-340(a5)
    9f7c:	00098513          	mv	a0,s3
    9f80:	000b0593          	mv	a1,s6
    9f84:	c04f70ef          	jal	ra,1388 <__muldf3>
    9f88:	00050993          	mv	s3,a0
    9f8c:	00058b13          	mv	s6,a1
    9f90:	001a0a13          	addi	s4,s4,1
    9f94:	000d8713          	mv	a4,s11
    9f98:	000a0513          	mv	a0,s4
    9f9c:	04e12423          	sw	a4,72(sp)
    9fa0:	03612e23          	sw	s6,60(sp)
    9fa4:	05312023          	sw	s3,64(sp)
    9fa8:	805f90ef          	jal	ra,37ac <__floatsidf>
    9fac:	000b0693          	mv	a3,s6
    9fb0:	00098613          	mv	a2,s3
    9fb4:	bd4f70ef          	jal	ra,1388 <__muldf3>
    9fb8:	0000d6b7          	lui	a3,0xd
    9fbc:	eb06a603          	lw	a2,-336(a3) # ceb0 <__device_handles_end+0x3c>
    9fc0:	eb46a683          	lw	a3,-332(a3)
    9fc4:	000b0913          	mv	s2,s6
    9fc8:	00098a93          	mv	s5,s3
    9fcc:	dcdf80ef          	jal	ra,2d98 <__adddf3>
    9fd0:	04812703          	lw	a4,72(sp)
    9fd4:	fcc008b7          	lui	a7,0xfcc00
    9fd8:	00050b13          	mv	s6,a0
    9fdc:	00b88a33          	add	s4,a7,a1
    9fe0:	1a071e63          	bnez	a4,a19c <_dtoa_r+0x7dc>
    9fe4:	0000d737          	lui	a4,0xd
    9fe8:	eb872603          	lw	a2,-328(a4) # ceb8 <__device_handles_end+0x44>
    9fec:	ebc72683          	lw	a3,-324(a4)
    9ff0:	00098513          	mv	a0,s3
    9ff4:	00090593          	mv	a1,s2
    9ff8:	959f70ef          	jal	ra,1950 <__subdf3>
    9ffc:	000b0613          	mv	a2,s6
    a000:	000a0693          	mv	a3,s4
    a004:	00050993          	mv	s3,a0
    a008:	00058913          	mv	s2,a1
    a00c:	a98f70ef          	jal	ra,12a4 <__gedf2>
    a010:	06a040e3          	bgtz	a0,a870 <_dtoa_r+0xeb0>
    a014:	800007b7          	lui	a5,0x80000
    a018:	0147c7b3          	xor	a5,a5,s4
    a01c:	000b0613          	mv	a2,s6
    a020:	00078693          	mv	a3,a5
    a024:	00098513          	mv	a0,s3
    a028:	00090593          	mv	a1,s2
    a02c:	dd0f90ef          	jal	ra,35fc <__ledf2>
    a030:	02054ae3          	bltz	a0,a864 <_dtoa_r+0xea4>
    a034:	02c12983          	lw	s3,44(sp)
    a038:	03012b03          	lw	s6,48(sp)
    a03c:	06c12783          	lw	a5,108(sp)
    a040:	4e07cc63          	bltz	a5,a538 <_dtoa_r+0xb78>
    a044:	00e00713          	li	a4,14
    a048:	4e874863          	blt	a4,s0,a538 <_dtoa_r+0xb78>
    a04c:	0000d737          	lui	a4,0xd
    a050:	00341793          	slli	a5,s0,0x3
    a054:	0f870713          	addi	a4,a4,248 # d0f8 <__mprec_tens>
    a058:	00e787b3          	add	a5,a5,a4
    a05c:	0007aa03          	lw	s4,0(a5) # 80000000 <CONFIG_SYSTEM_WORKQUEUE_PRIORITY+0x80000001>
    a060:	0047aa83          	lw	s5,4(a5)
    a064:	02012783          	lw	a5,32(sp)
    a068:	3607de63          	bgez	a5,a3e4 <_dtoa_r+0xa24>
    a06c:	37a04c63          	bgtz	s10,a3e4 <_dtoa_r+0xa24>
    a070:	7e0d1a63          	bnez	s10,a864 <_dtoa_r+0xea4>
    a074:	0000d7b7          	lui	a5,0xd
    a078:	eb87a603          	lw	a2,-328(a5) # ceb8 <__device_handles_end+0x44>
    a07c:	ebc7a683          	lw	a3,-324(a5)
    a080:	000a0513          	mv	a0,s4
    a084:	000a8593          	mv	a1,s5
    a088:	b00f70ef          	jal	ra,1388 <__muldf3>
    a08c:	00098613          	mv	a2,s3
    a090:	000b0693          	mv	a3,s6
    a094:	a10f70ef          	jal	ra,12a4 <__gedf2>
    a098:	00000a13          	li	s4,0
    a09c:	00000913          	li	s2,0
    a0a0:	78055063          	bgez	a0,a820 <_dtoa_r+0xe60>
    a0a4:	01012783          	lw	a5,16(sp)
    a0a8:	01012703          	lw	a4,16(sp)
    a0ac:	00140413          	addi	s0,s0,1
    a0b0:	00178993          	addi	s3,a5,1
    a0b4:	03100793          	li	a5,49
    a0b8:	00f70023          	sb	a5,0(a4)
    a0bc:	7700006f          	j	a82c <_dtoa_r+0xe6c>
    a0c0:	001af693          	andi	a3,s5,1
    a0c4:	02068263          	beqz	a3,a0e8 <_dtoa_r+0x728>
    a0c8:	00092603          	lw	a2,0(s2)
    a0cc:	00492683          	lw	a3,4(s2)
    a0d0:	00070513          	mv	a0,a4
    a0d4:	00078593          	mv	a1,a5
    a0d8:	ab0f70ef          	jal	ra,1388 <__muldf3>
    a0dc:	001a0a13          	addi	s4,s4,1
    a0e0:	00050713          	mv	a4,a0
    a0e4:	00058793          	mv	a5,a1
    a0e8:	401ada93          	srai	s5,s5,0x1
    a0ec:	00890913          	addi	s2,s2,8
    a0f0:	e2dff06f          	j	9f1c <_dtoa_r+0x55c>
    a0f4:	00200a13          	li	s4,2
    a0f8:	e40402e3          	beqz	s0,9f3c <_dtoa_r+0x57c>
    a0fc:	40800933          	neg	s2,s0
    a100:	00f97793          	andi	a5,s2,15
    a104:	0000d737          	lui	a4,0xd
    a108:	0f870713          	addi	a4,a4,248 # d0f8 <__mprec_tens>
    a10c:	00379793          	slli	a5,a5,0x3
    a110:	00e787b3          	add	a5,a5,a4
    a114:	0007a603          	lw	a2,0(a5)
    a118:	0047a683          	lw	a3,4(a5)
    a11c:	02c12503          	lw	a0,44(sp)
    a120:	03012583          	lw	a1,48(sp)
    a124:	0000dab7          	lui	s5,0xd
    a128:	40495913          	srai	s2,s2,0x4
    a12c:	a5cf70ef          	jal	ra,1388 <__muldf3>
    a130:	00050793          	mv	a5,a0
    a134:	00050993          	mv	s3,a0
    a138:	00058b13          	mv	s6,a1
    a13c:	0d0a8a93          	addi	s5,s5,208 # d0d0 <__mprec_bigtens>
    a140:	00000713          	li	a4,0
    a144:	00091863          	bnez	s2,a154 <_dtoa_r+0x794>
    a148:	de070ae3          	beqz	a4,9f3c <_dtoa_r+0x57c>
    a14c:	00078993          	mv	s3,a5
    a150:	de9ff06f          	j	9f38 <_dtoa_r+0x578>
    a154:	00197693          	andi	a3,s2,1
    a158:	02068063          	beqz	a3,a178 <_dtoa_r+0x7b8>
    a15c:	000aa603          	lw	a2,0(s5)
    a160:	004aa683          	lw	a3,4(s5)
    a164:	00078513          	mv	a0,a5
    a168:	001a0a13          	addi	s4,s4,1
    a16c:	a1cf70ef          	jal	ra,1388 <__muldf3>
    a170:	00050793          	mv	a5,a0
    a174:	00100713          	li	a4,1
    a178:	40195913          	srai	s2,s2,0x1
    a17c:	008a8a93          	addi	s5,s5,8
    a180:	fc5ff06f          	j	a144 <_dtoa_r+0x784>
    a184:	00812c23          	sw	s0,24(sp)
    a188:	000d0713          	mv	a4,s10
    a18c:	e0dff06f          	j	9f98 <_dtoa_r+0x5d8>
    a190:	00812c23          	sw	s0,24(sp)
    a194:	00000713          	li	a4,0
    a198:	e01ff06f          	j	9f98 <_dtoa_r+0x5d8>
    a19c:	fff70793          	addi	a5,a4,-1
    a1a0:	0000d6b7          	lui	a3,0xd
    a1a4:	0f868693          	addi	a3,a3,248 # d0f8 <__mprec_tens>
    a1a8:	00379793          	slli	a5,a5,0x3
    a1ac:	00d787b3          	add	a5,a5,a3
    a1b0:	0007a603          	lw	a2,0(a5)
    a1b4:	0047a683          	lw	a3,4(a5)
    a1b8:	01012783          	lw	a5,16(sp)
    a1bc:	00e787b3          	add	a5,a5,a4
    a1c0:	02f12e23          	sw	a5,60(sp)
    a1c4:	01c12783          	lw	a5,28(sp)
    a1c8:	10078863          	beqz	a5,a2d8 <_dtoa_r+0x918>
    a1cc:	0000d7b7          	lui	a5,0xd
    a1d0:	ec47a583          	lw	a1,-316(a5) # cec4 <__device_handles_end+0x50>
    a1d4:	04a12023          	sw	a0,64(sp)
    a1d8:	ec07a503          	lw	a0,-320(a5)
    a1dc:	9e9f60ef          	jal	ra,bc4 <__divdf3>
    a1e0:	000b0613          	mv	a2,s6
    a1e4:	000a0693          	mv	a3,s4
    a1e8:	f68f70ef          	jal	ra,1950 <__subdf3>
    a1ec:	0000d7b7          	lui	a5,0xd
    a1f0:	ea47a803          	lw	a6,-348(a5) # cea4 <__device_handles_end+0x30>
    a1f4:	ea07a783          	lw	a5,-352(a5)
    a1f8:	01012983          	lw	s3,16(sp)
    a1fc:	05012623          	sw	a6,76(sp)
    a200:	04f12423          	sw	a5,72(sp)
    a204:	0000d7b7          	lui	a5,0xd
    a208:	eac7a803          	lw	a6,-340(a5) # ceac <__device_handles_end+0x38>
    a20c:	ea87a783          	lw	a5,-344(a5)
    a210:	00050a13          	mv	s4,a0
    a214:	00058b13          	mv	s6,a1
    a218:	04f12023          	sw	a5,64(sp)
    a21c:	05012223          	sw	a6,68(sp)
    a220:	00090593          	mv	a1,s2
    a224:	000a8513          	mv	a0,s5
    a228:	d04f90ef          	jal	ra,372c <__fixdfsi>
    a22c:	04a12823          	sw	a0,80(sp)
    a230:	d7cf90ef          	jal	ra,37ac <__floatsidf>
    a234:	00050613          	mv	a2,a0
    a238:	00058693          	mv	a3,a1
    a23c:	000a8513          	mv	a0,s5
    a240:	00090593          	mv	a1,s2
    a244:	f0cf70ef          	jal	ra,1950 <__subdf3>
    a248:	05012783          	lw	a5,80(sp)
    a24c:	00198993          	addi	s3,s3,1
    a250:	000a0613          	mv	a2,s4
    a254:	03078793          	addi	a5,a5,48
    a258:	fef98fa3          	sb	a5,-1(s3)
    a25c:	000b0693          	mv	a3,s6
    a260:	00050913          	mv	s2,a0
    a264:	00058a93          	mv	s5,a1
    a268:	b94f90ef          	jal	ra,35fc <__ledf2>
    a26c:	14054c63          	bltz	a0,a3c4 <_dtoa_r+0xa04>
    a270:	04812503          	lw	a0,72(sp)
    a274:	04c12583          	lw	a1,76(sp)
    a278:	00090613          	mv	a2,s2
    a27c:	000a8693          	mv	a3,s5
    a280:	ed0f70ef          	jal	ra,1950 <__subdf3>
    a284:	000a0613          	mv	a2,s4
    a288:	000b0693          	mv	a3,s6
    a28c:	b70f90ef          	jal	ra,35fc <__ledf2>
    a290:	22054c63          	bltz	a0,a4c8 <_dtoa_r+0xb08>
    a294:	03c12783          	lw	a5,60(sp)
    a298:	d8f98ee3          	beq	s3,a5,a034 <_dtoa_r+0x674>
    a29c:	04012603          	lw	a2,64(sp)
    a2a0:	04412683          	lw	a3,68(sp)
    a2a4:	000a0513          	mv	a0,s4
    a2a8:	000b0593          	mv	a1,s6
    a2ac:	8dcf70ef          	jal	ra,1388 <__muldf3>
    a2b0:	04012603          	lw	a2,64(sp)
    a2b4:	04412683          	lw	a3,68(sp)
    a2b8:	00050a13          	mv	s4,a0
    a2bc:	00058b13          	mv	s6,a1
    a2c0:	00090513          	mv	a0,s2
    a2c4:	000a8593          	mv	a1,s5
    a2c8:	8c0f70ef          	jal	ra,1388 <__muldf3>
    a2cc:	00050a93          	mv	s5,a0
    a2d0:	00058913          	mv	s2,a1
    a2d4:	f4dff06f          	j	a220 <_dtoa_r+0x860>
    a2d8:	000a0593          	mv	a1,s4
    a2dc:	8acf70ef          	jal	ra,1388 <__muldf3>
    a2e0:	03c12783          	lw	a5,60(sp)
    a2e4:	01012983          	lw	s3,16(sp)
    a2e8:	04a12423          	sw	a0,72(sp)
    a2ec:	04f12023          	sw	a5,64(sp)
    a2f0:	0000d7b7          	lui	a5,0xd
    a2f4:	eac7a803          	lw	a6,-340(a5) # ceac <__device_handles_end+0x38>
    a2f8:	ea87a783          	lw	a5,-344(a5)
    a2fc:	00058b13          	mv	s6,a1
    a300:	05012a23          	sw	a6,84(sp)
    a304:	04f12823          	sw	a5,80(sp)
    a308:	00090593          	mv	a1,s2
    a30c:	000a8513          	mv	a0,s5
    a310:	c1cf90ef          	jal	ra,372c <__fixdfsi>
    a314:	04a12e23          	sw	a0,92(sp)
    a318:	c94f90ef          	jal	ra,37ac <__floatsidf>
    a31c:	00050613          	mv	a2,a0
    a320:	00058693          	mv	a3,a1
    a324:	000a8513          	mv	a0,s5
    a328:	00090593          	mv	a1,s2
    a32c:	e24f70ef          	jal	ra,1950 <__subdf3>
    a330:	05c12783          	lw	a5,92(sp)
    a334:	00198993          	addi	s3,s3,1
    a338:	00050a13          	mv	s4,a0
    a33c:	03078793          	addi	a5,a5,48
    a340:	fef98fa3          	sb	a5,-1(s3)
    a344:	03c12783          	lw	a5,60(sp)
    a348:	00058913          	mv	s2,a1
    a34c:	08f99063          	bne	s3,a5,a3cc <_dtoa_r+0xa0c>
    a350:	0000dab7          	lui	s5,0xd
    a354:	ec0aa603          	lw	a2,-320(s5) # cec0 <__device_handles_end+0x4c>
    a358:	ec4aa683          	lw	a3,-316(s5)
    a35c:	04812503          	lw	a0,72(sp)
    a360:	000b0593          	mv	a1,s6
    a364:	a35f80ef          	jal	ra,2d98 <__adddf3>
    a368:	00050613          	mv	a2,a0
    a36c:	00058693          	mv	a3,a1
    a370:	000a0513          	mv	a0,s4
    a374:	00090593          	mv	a1,s2
    a378:	f2df60ef          	jal	ra,12a4 <__gedf2>
    a37c:	14a04663          	bgtz	a0,a4c8 <_dtoa_r+0xb08>
    a380:	04812603          	lw	a2,72(sp)
    a384:	ec0aa503          	lw	a0,-320(s5)
    a388:	ec4aa583          	lw	a1,-316(s5)
    a38c:	000b0693          	mv	a3,s6
    a390:	dc0f70ef          	jal	ra,1950 <__subdf3>
    a394:	00050613          	mv	a2,a0
    a398:	00058693          	mv	a3,a1
    a39c:	000a0513          	mv	a0,s4
    a3a0:	00090593          	mv	a1,s2
    a3a4:	a58f90ef          	jal	ra,35fc <__ledf2>
    a3a8:	c80556e3          	bgez	a0,a034 <_dtoa_r+0x674>
    a3ac:	03000793          	li	a5,48
    a3b0:	04012983          	lw	s3,64(sp)
    a3b4:	fff98713          	addi	a4,s3,-1
    a3b8:	04e12023          	sw	a4,64(sp)
    a3bc:	fff9c703          	lbu	a4,-1(s3)
    a3c0:	fef708e3          	beq	a4,a5,a3b0 <_dtoa_r+0x9f0>
    a3c4:	01812403          	lw	s0,24(sp)
    a3c8:	0d00006f          	j	a498 <_dtoa_r+0xad8>
    a3cc:	05012603          	lw	a2,80(sp)
    a3d0:	05412683          	lw	a3,84(sp)
    a3d4:	fb5f60ef          	jal	ra,1388 <__muldf3>
    a3d8:	00050a93          	mv	s5,a0
    a3dc:	00058913          	mv	s2,a1
    a3e0:	f29ff06f          	j	a308 <_dtoa_r+0x948>
    a3e4:	01012783          	lw	a5,16(sp)
    a3e8:	000b0c93          	mv	s9,s6
    a3ec:	00098d93          	mv	s11,s3
    a3f0:	00178c13          	addi	s8,a5,1
    a3f4:	01a78d33          	add	s10,a5,s10
    a3f8:	0000d7b7          	lui	a5,0xd
    a3fc:	ea87ab03          	lw	s6,-344(a5) # cea8 <__device_handles_end+0x34>
    a400:	eac7ab83          	lw	s7,-340(a5)
    a404:	000a0613          	mv	a2,s4
    a408:	000a8693          	mv	a3,s5
    a40c:	000d8513          	mv	a0,s11
    a410:	000c8593          	mv	a1,s9
    a414:	fb0f60ef          	jal	ra,bc4 <__divdf3>
    a418:	b14f90ef          	jal	ra,372c <__fixdfsi>
    a41c:	00050913          	mv	s2,a0
    a420:	b8cf90ef          	jal	ra,37ac <__floatsidf>
    a424:	000a0613          	mv	a2,s4
    a428:	000a8693          	mv	a3,s5
    a42c:	f5df60ef          	jal	ra,1388 <__muldf3>
    a430:	00058693          	mv	a3,a1
    a434:	00050613          	mv	a2,a0
    a438:	000c8593          	mv	a1,s9
    a43c:	000d8513          	mv	a0,s11
    a440:	d10f70ef          	jal	ra,1950 <__subdf3>
    a444:	03090693          	addi	a3,s2,48
    a448:	fedc0fa3          	sb	a3,-1(s8)
    a44c:	000c0993          	mv	s3,s8
    a450:	0b8d1e63          	bne	s10,s8,a50c <_dtoa_r+0xb4c>
    a454:	00050613          	mv	a2,a0
    a458:	00058693          	mv	a3,a1
    a45c:	93df80ef          	jal	ra,2d98 <__adddf3>
    a460:	000a0613          	mv	a2,s4
    a464:	000a8693          	mv	a3,s5
    a468:	00050b93          	mv	s7,a0
    a46c:	00058b13          	mv	s6,a1
    a470:	e35f60ef          	jal	ra,12a4 <__gedf2>
    a474:	04a04863          	bgtz	a0,a4c4 <_dtoa_r+0xb04>
    a478:	000a0613          	mv	a2,s4
    a47c:	000a8693          	mv	a3,s5
    a480:	000b8513          	mv	a0,s7
    a484:	000b0593          	mv	a1,s6
    a488:	8e8f90ef          	jal	ra,3570 <__eqdf2>
    a48c:	00051663          	bnez	a0,a498 <_dtoa_r+0xad8>
    a490:	00197913          	andi	s2,s2,1
    a494:	02091863          	bnez	s2,a4c4 <_dtoa_r+0xb04>
    a498:	00c12583          	lw	a1,12(sp)
    a49c:	00048513          	mv	a0,s1
    a4a0:	3d9000ef          	jal	ra,b078 <_Bfree>
    a4a4:	03812783          	lw	a5,56(sp)
    a4a8:	00098023          	sb	zero,0(s3)
    a4ac:	00140513          	addi	a0,s0,1
    a4b0:	00a7a023          	sw	a0,0(a5)
    a4b4:	02412783          	lw	a5,36(sp)
    a4b8:	e4078a63          	beqz	a5,9b0c <_dtoa_r+0x14c>
    a4bc:	0137a023          	sw	s3,0(a5)
    a4c0:	e4cff06f          	j	9b0c <_dtoa_r+0x14c>
    a4c4:	00812c23          	sw	s0,24(sp)
    a4c8:	00098793          	mv	a5,s3
    a4cc:	03900713          	li	a4,57
    a4d0:	00078993          	mv	s3,a5
    a4d4:	fff7c683          	lbu	a3,-1(a5)
    a4d8:	fff78793          	addi	a5,a5,-1
    a4dc:	02e69063          	bne	a3,a4,a4fc <_dtoa_r+0xb3c>
    a4e0:	01012683          	lw	a3,16(sp)
    a4e4:	fef696e3          	bne	a3,a5,a4d0 <_dtoa_r+0xb10>
    a4e8:	01812703          	lw	a4,24(sp)
    a4ec:	00170713          	addi	a4,a4,1
    a4f0:	00e12c23          	sw	a4,24(sp)
    a4f4:	03000713          	li	a4,48
    a4f8:	00e68023          	sb	a4,0(a3)
    a4fc:	0007c703          	lbu	a4,0(a5)
    a500:	00170713          	addi	a4,a4,1
    a504:	00e78023          	sb	a4,0(a5)
    a508:	ebdff06f          	j	a3c4 <_dtoa_r+0xa04>
    a50c:	000b0613          	mv	a2,s6
    a510:	000b8693          	mv	a3,s7
    a514:	e75f60ef          	jal	ra,1388 <__muldf3>
    a518:	00000613          	li	a2,0
    a51c:	00000693          	li	a3,0
    a520:	00050d93          	mv	s11,a0
    a524:	00058c93          	mv	s9,a1
    a528:	001c0c13          	addi	s8,s8,1
    a52c:	844f90ef          	jal	ra,3570 <__eqdf2>
    a530:	ec051ae3          	bnez	a0,a404 <_dtoa_r+0xa44>
    a534:	f65ff06f          	j	a498 <_dtoa_r+0xad8>
    a538:	01c12703          	lw	a4,28(sp)
    a53c:	16070c63          	beqz	a4,a6b4 <_dtoa_r+0xcf4>
    a540:	01412683          	lw	a3,20(sp)
    a544:	00100713          	li	a4,1
    a548:	12d74463          	blt	a4,a3,a670 <_dtoa_r+0xcb0>
    a54c:	05812703          	lw	a4,88(sp)
    a550:	43378793          	addi	a5,a5,1075
    a554:	00071863          	bnez	a4,a564 <_dtoa_r+0xba4>
    a558:	06812703          	lw	a4,104(sp)
    a55c:	03600793          	li	a5,54
    a560:	40e787b3          	sub	a5,a5,a4
    a564:	000c8a13          	mv	s4,s9
    a568:	000b8a93          	mv	s5,s7
    a56c:	00100593          	li	a1,1
    a570:	00048513          	mv	a0,s1
    a574:	00fb8bb3          	add	s7,s7,a5
    a578:	00fc0c33          	add	s8,s8,a5
    a57c:	5d5000ef          	jal	ra,b350 <__i2b>
    a580:	00050913          	mv	s2,a0
    a584:	03505063          	blez	s5,a5a4 <_dtoa_r+0xbe4>
    a588:	01805e63          	blez	s8,a5a4 <_dtoa_r+0xbe4>
    a58c:	000a8793          	mv	a5,s5
    a590:	015c5463          	bge	s8,s5,a598 <_dtoa_r+0xbd8>
    a594:	000c0793          	mv	a5,s8
    a598:	40fb8bb3          	sub	s7,s7,a5
    a59c:	40fa8ab3          	sub	s5,s5,a5
    a5a0:	40fc0c33          	sub	s8,s8,a5
    a5a4:	060c8263          	beqz	s9,a608 <_dtoa_r+0xc48>
    a5a8:	01c12783          	lw	a5,28(sp)
    a5ac:	10078c63          	beqz	a5,a6c4 <_dtoa_r+0xd04>
    a5b0:	05405063          	blez	s4,a5f0 <_dtoa_r+0xc30>
    a5b4:	00090593          	mv	a1,s2
    a5b8:	000a0613          	mv	a2,s4
    a5bc:	00048513          	mv	a0,s1
    a5c0:	7ed000ef          	jal	ra,b5ac <__pow5mult>
    a5c4:	00c12603          	lw	a2,12(sp)
    a5c8:	00050593          	mv	a1,a0
    a5cc:	00050913          	mv	s2,a0
    a5d0:	00048513          	mv	a0,s1
    a5d4:	5d1000ef          	jal	ra,b3a4 <__multiply>
    a5d8:	00c12583          	lw	a1,12(sp)
    a5dc:	00a12c23          	sw	a0,24(sp)
    a5e0:	00048513          	mv	a0,s1
    a5e4:	295000ef          	jal	ra,b078 <_Bfree>
    a5e8:	01812783          	lw	a5,24(sp)
    a5ec:	00f12623          	sw	a5,12(sp)
    a5f0:	414c8633          	sub	a2,s9,s4
    a5f4:	014c8a63          	beq	s9,s4,a608 <_dtoa_r+0xc48>
    a5f8:	00c12583          	lw	a1,12(sp)
    a5fc:	00048513          	mv	a0,s1
    a600:	7ad000ef          	jal	ra,b5ac <__pow5mult>
    a604:	00a12623          	sw	a0,12(sp)
    a608:	00100593          	li	a1,1
    a60c:	00048513          	mv	a0,s1
    a610:	541000ef          	jal	ra,b350 <__i2b>
    a614:	02812783          	lw	a5,40(sp)
    a618:	00050a13          	mv	s4,a0
    a61c:	0af05863          	blez	a5,a6cc <_dtoa_r+0xd0c>
    a620:	00078613          	mv	a2,a5
    a624:	00050593          	mv	a1,a0
    a628:	00048513          	mv	a0,s1
    a62c:	781000ef          	jal	ra,b5ac <__pow5mult>
    a630:	01412703          	lw	a4,20(sp)
    a634:	00100793          	li	a5,1
    a638:	00050a13          	mv	s4,a0
    a63c:	00000c93          	li	s9,0
    a640:	0ae7c463          	blt	a5,a4,a6e8 <_dtoa_r+0xd28>
    a644:	00000c93          	li	s9,0
    a648:	08099a63          	bnez	s3,a6dc <_dtoa_r+0xd1c>
    a64c:	00cb1793          	slli	a5,s6,0xc
    a650:	08079663          	bnez	a5,a6dc <_dtoa_r+0xd1c>
    a654:	7ff005b7          	lui	a1,0x7ff00
    a658:	00bb7b33          	and	s6,s6,a1
    a65c:	080b0063          	beqz	s6,a6dc <_dtoa_r+0xd1c>
    a660:	001b8b93          	addi	s7,s7,1
    a664:	001c0c13          	addi	s8,s8,1
    a668:	00100c93          	li	s9,1
    a66c:	0700006f          	j	a6dc <_dtoa_r+0xd1c>
    a670:	fffd0a13          	addi	s4,s10,-1
    a674:	014ccc63          	blt	s9,s4,a68c <_dtoa_r+0xccc>
    a678:	414c8a33          	sub	s4,s9,s4
    a67c:	020d5663          	bgez	s10,a6a8 <_dtoa_r+0xce8>
    a680:	41ab8ab3          	sub	s5,s7,s10
    a684:	00000793          	li	a5,0
    a688:	ee5ff06f          	j	a56c <_dtoa_r+0xbac>
    a68c:	02812783          	lw	a5,40(sp)
    a690:	419a0cb3          	sub	s9,s4,s9
    a694:	019787b3          	add	a5,a5,s9
    a698:	02f12423          	sw	a5,40(sp)
    a69c:	000a0c93          	mv	s9,s4
    a6a0:	00000a13          	li	s4,0
    a6a4:	fd9ff06f          	j	a67c <_dtoa_r+0xcbc>
    a6a8:	000b8a93          	mv	s5,s7
    a6ac:	000d0793          	mv	a5,s10
    a6b0:	ebdff06f          	j	a56c <_dtoa_r+0xbac>
    a6b4:	000c8a13          	mv	s4,s9
    a6b8:	000b8a93          	mv	s5,s7
    a6bc:	00000913          	li	s2,0
    a6c0:	ec5ff06f          	j	a584 <_dtoa_r+0xbc4>
    a6c4:	000c8613          	mv	a2,s9
    a6c8:	f31ff06f          	j	a5f8 <_dtoa_r+0xc38>
    a6cc:	01412703          	lw	a4,20(sp)
    a6d0:	00100793          	li	a5,1
    a6d4:	00000c93          	li	s9,0
    a6d8:	f6e7d6e3          	bge	a5,a4,a644 <_dtoa_r+0xc84>
    a6dc:	02812783          	lw	a5,40(sp)
    a6e0:	00100513          	li	a0,1
    a6e4:	02078263          	beqz	a5,a708 <_dtoa_r+0xd48>
    a6e8:	010a2783          	lw	a5,16(s4)
    a6ec:	00378793          	addi	a5,a5,3
    a6f0:	00279793          	slli	a5,a5,0x2
    a6f4:	00fa07b3          	add	a5,s4,a5
    a6f8:	0047a503          	lw	a0,4(a5)
    a6fc:	331000ef          	jal	ra,b22c <__hi0bits>
    a700:	02000793          	li	a5,32
    a704:	40a78533          	sub	a0,a5,a0
    a708:	00ac0533          	add	a0,s8,a0
    a70c:	01f57513          	andi	a0,a0,31
    a710:	0c050463          	beqz	a0,a7d8 <_dtoa_r+0xe18>
    a714:	02000793          	li	a5,32
    a718:	40a787b3          	sub	a5,a5,a0
    a71c:	00400713          	li	a4,4
    a720:	0af75863          	bge	a4,a5,a7d0 <_dtoa_r+0xe10>
    a724:	01c00793          	li	a5,28
    a728:	40a78533          	sub	a0,a5,a0
    a72c:	00ab8bb3          	add	s7,s7,a0
    a730:	00aa8ab3          	add	s5,s5,a0
    a734:	00ac0c33          	add	s8,s8,a0
    a738:	01705c63          	blez	s7,a750 <_dtoa_r+0xd90>
    a73c:	00c12583          	lw	a1,12(sp)
    a740:	000b8613          	mv	a2,s7
    a744:	00048513          	mv	a0,s1
    a748:	7a9000ef          	jal	ra,b6f0 <__lshift>
    a74c:	00a12623          	sw	a0,12(sp)
    a750:	01805c63          	blez	s8,a768 <_dtoa_r+0xda8>
    a754:	000a0593          	mv	a1,s4
    a758:	000c0613          	mv	a2,s8
    a75c:	00048513          	mv	a0,s1
    a760:	791000ef          	jal	ra,b6f0 <__lshift>
    a764:	00050a13          	mv	s4,a0
    a768:	03412783          	lw	a5,52(sp)
    a76c:	06078a63          	beqz	a5,a7e0 <_dtoa_r+0xe20>
    a770:	00c12503          	lw	a0,12(sp)
    a774:	000a0593          	mv	a1,s4
    a778:	0fc010ef          	jal	ra,b874 <__mcmp>
    a77c:	06055263          	bgez	a0,a7e0 <_dtoa_r+0xe20>
    a780:	00c12583          	lw	a1,12(sp)
    a784:	00000693          	li	a3,0
    a788:	00a00613          	li	a2,10
    a78c:	00048513          	mv	a0,s1
    a790:	17d000ef          	jal	ra,b10c <__multadd>
    a794:	01c12783          	lw	a5,28(sp)
    a798:	00a12623          	sw	a0,12(sp)
    a79c:	fff40413          	addi	s0,s0,-1
    a7a0:	3a078263          	beqz	a5,ab44 <_dtoa_r+0x1184>
    a7a4:	00090593          	mv	a1,s2
    a7a8:	00000693          	li	a3,0
    a7ac:	00a00613          	li	a2,10
    a7b0:	00048513          	mv	a0,s1
    a7b4:	159000ef          	jal	ra,b10c <__multadd>
    a7b8:	00050913          	mv	s2,a0
    a7bc:	0db04863          	bgtz	s11,a88c <_dtoa_r+0xecc>
    a7c0:	01412703          	lw	a4,20(sp)
    a7c4:	00200793          	li	a5,2
    a7c8:	02e7c663          	blt	a5,a4,a7f4 <_dtoa_r+0xe34>
    a7cc:	0c00006f          	j	a88c <_dtoa_r+0xecc>
    a7d0:	f6e784e3          	beq	a5,a4,a738 <_dtoa_r+0xd78>
    a7d4:	00078513          	mv	a0,a5
    a7d8:	01c50513          	addi	a0,a0,28
    a7dc:	f51ff06f          	j	a72c <_dtoa_r+0xd6c>
    a7e0:	0ba04063          	bgtz	s10,a880 <_dtoa_r+0xec0>
    a7e4:	01412703          	lw	a4,20(sp)
    a7e8:	00200793          	li	a5,2
    a7ec:	08e7da63          	bge	a5,a4,a880 <_dtoa_r+0xec0>
    a7f0:	000d0d93          	mv	s11,s10
    a7f4:	020d9663          	bnez	s11,a820 <_dtoa_r+0xe60>
    a7f8:	000a0593          	mv	a1,s4
    a7fc:	00000693          	li	a3,0
    a800:	00500613          	li	a2,5
    a804:	00048513          	mv	a0,s1
    a808:	105000ef          	jal	ra,b10c <__multadd>
    a80c:	00050a13          	mv	s4,a0
    a810:	00050593          	mv	a1,a0
    a814:	00c12503          	lw	a0,12(sp)
    a818:	05c010ef          	jal	ra,b874 <__mcmp>
    a81c:	88a044e3          	bgtz	a0,a0a4 <_dtoa_r+0x6e4>
    a820:	02012783          	lw	a5,32(sp)
    a824:	01012983          	lw	s3,16(sp)
    a828:	fff7c413          	not	s0,a5
    a82c:	00000b13          	li	s6,0
    a830:	000a0593          	mv	a1,s4
    a834:	00048513          	mv	a0,s1
    a838:	041000ef          	jal	ra,b078 <_Bfree>
    a83c:	c4090ee3          	beqz	s2,a498 <_dtoa_r+0xad8>
    a840:	000b0a63          	beqz	s6,a854 <_dtoa_r+0xe94>
    a844:	012b0863          	beq	s6,s2,a854 <_dtoa_r+0xe94>
    a848:	000b0593          	mv	a1,s6
    a84c:	00048513          	mv	a0,s1
    a850:	029000ef          	jal	ra,b078 <_Bfree>
    a854:	00090593          	mv	a1,s2
    a858:	00048513          	mv	a0,s1
    a85c:	01d000ef          	jal	ra,b078 <_Bfree>
    a860:	c39ff06f          	j	a498 <_dtoa_r+0xad8>
    a864:	00000a13          	li	s4,0
    a868:	00000913          	li	s2,0
    a86c:	fb5ff06f          	j	a820 <_dtoa_r+0xe60>
    a870:	01812403          	lw	s0,24(sp)
    a874:	00000a13          	li	s4,0
    a878:	00000913          	li	s2,0
    a87c:	829ff06f          	j	a0a4 <_dtoa_r+0x6e4>
    a880:	01c12783          	lw	a5,28(sp)
    a884:	000d0d93          	mv	s11,s10
    a888:	2c078663          	beqz	a5,ab54 <_dtoa_r+0x1194>
    a88c:	01505c63          	blez	s5,a8a4 <_dtoa_r+0xee4>
    a890:	00090593          	mv	a1,s2
    a894:	000a8613          	mv	a2,s5
    a898:	00048513          	mv	a0,s1
    a89c:	655000ef          	jal	ra,b6f0 <__lshift>
    a8a0:	00050913          	mv	s2,a0
    a8a4:	00090513          	mv	a0,s2
    a8a8:	040c8a63          	beqz	s9,a8fc <_dtoa_r+0xf3c>
    a8ac:	00492583          	lw	a1,4(s2)
    a8b0:	00048513          	mv	a0,s1
    a8b4:	6c4000ef          	jal	ra,af78 <_Balloc>
    a8b8:	00050a93          	mv	s5,a0
    a8bc:	00051c63          	bnez	a0,a8d4 <_dtoa_r+0xf14>
    a8c0:	0000e6b7          	lui	a3,0xe
    a8c4:	82468693          	addi	a3,a3,-2012 # d824 <_ctype_+0x220>
    a8c8:	00000613          	li	a2,0
    a8cc:	2ea00593          	li	a1,746
    a8d0:	978ff06f          	j	9a48 <_dtoa_r+0x88>
    a8d4:	01092603          	lw	a2,16(s2)
    a8d8:	00c90593          	addi	a1,s2,12
    a8dc:	00c50513          	addi	a0,a0,12
    a8e0:	00260613          	addi	a2,a2,2
    a8e4:	00261613          	slli	a2,a2,0x2
    a8e8:	c70f80ef          	jal	ra,2d58 <memcpy>
    a8ec:	00100613          	li	a2,1
    a8f0:	000a8593          	mv	a1,s5
    a8f4:	00048513          	mv	a0,s1
    a8f8:	5f9000ef          	jal	ra,b6f0 <__lshift>
    a8fc:	01012783          	lw	a5,16(sp)
    a900:	00090b13          	mv	s6,s2
    a904:	00050913          	mv	s2,a0
    a908:	00178c13          	addi	s8,a5,1
    a90c:	01b787b3          	add	a5,a5,s11
    a910:	00f12c23          	sw	a5,24(sp)
    a914:	0019fd93          	andi	s11,s3,1
    a918:	00c12503          	lw	a0,12(sp)
    a91c:	000a0593          	mv	a1,s4
    a920:	fffc0d13          	addi	s10,s8,-1
    a924:	ed1fe0ef          	jal	ra,97f4 <quorem>
    a928:	00050c93          	mv	s9,a0
    a92c:	03050a93          	addi	s5,a0,48
    a930:	00c12503          	lw	a0,12(sp)
    a934:	000b0593          	mv	a1,s6
    a938:	73d000ef          	jal	ra,b874 <__mcmp>
    a93c:	000a0593          	mv	a1,s4
    a940:	00050b93          	mv	s7,a0
    a944:	00090613          	mv	a2,s2
    a948:	00048513          	mv	a0,s1
    a94c:	77d000ef          	jal	ra,b8c8 <__mdiff>
    a950:	00c52683          	lw	a3,12(a0)
    a954:	00050593          	mv	a1,a0
    a958:	00100713          	li	a4,1
    a95c:	00069c63          	bnez	a3,a974 <_dtoa_r+0xfb4>
    a960:	00a12e23          	sw	a0,28(sp)
    a964:	00c12503          	lw	a0,12(sp)
    a968:	70d000ef          	jal	ra,b874 <__mcmp>
    a96c:	01c12583          	lw	a1,28(sp)
    a970:	00050713          	mv	a4,a0
    a974:	00048513          	mv	a0,s1
    a978:	00e12e23          	sw	a4,28(sp)
    a97c:	6fc000ef          	jal	ra,b078 <_Bfree>
    a980:	01412783          	lw	a5,20(sp)
    a984:	01c12703          	lw	a4,28(sp)
    a988:	000c0993          	mv	s3,s8
    a98c:	00e7e6b3          	or	a3,a5,a4
    a990:	01b6e6b3          	or	a3,a3,s11
    a994:	00069e63          	bnez	a3,a9b0 <_dtoa_r+0xff0>
    a998:	03900713          	li	a4,57
    a99c:	06ea8063          	beq	s5,a4,a9fc <_dtoa_r+0x103c>
    a9a0:	01705463          	blez	s7,a9a8 <_dtoa_r+0xfe8>
    a9a4:	031c8a93          	addi	s5,s9,49
    a9a8:	015d0023          	sb	s5,0(s10)
    a9ac:	e85ff06f          	j	a830 <_dtoa_r+0xe70>
    a9b0:	000bca63          	bltz	s7,a9c4 <_dtoa_r+0x1004>
    a9b4:	01412783          	lw	a5,20(sp)
    a9b8:	0177ebb3          	or	s7,a5,s7
    a9bc:	01bbebb3          	or	s7,s7,s11
    a9c0:	060b9463          	bnez	s7,aa28 <_dtoa_r+0x1068>
    a9c4:	fee052e3          	blez	a4,a9a8 <_dtoa_r+0xfe8>
    a9c8:	00c12583          	lw	a1,12(sp)
    a9cc:	00100613          	li	a2,1
    a9d0:	00048513          	mv	a0,s1
    a9d4:	51d000ef          	jal	ra,b6f0 <__lshift>
    a9d8:	000a0593          	mv	a1,s4
    a9dc:	00a12623          	sw	a0,12(sp)
    a9e0:	695000ef          	jal	ra,b874 <__mcmp>
    a9e4:	00a04863          	bgtz	a0,a9f4 <_dtoa_r+0x1034>
    a9e8:	fc0510e3          	bnez	a0,a9a8 <_dtoa_r+0xfe8>
    a9ec:	001af713          	andi	a4,s5,1
    a9f0:	fa070ce3          	beqz	a4,a9a8 <_dtoa_r+0xfe8>
    a9f4:	03900713          	li	a4,57
    a9f8:	faea96e3          	bne	s5,a4,a9a4 <_dtoa_r+0xfe4>
    a9fc:	03900793          	li	a5,57
    aa00:	00fd0023          	sb	a5,0(s10)
    aa04:	00098793          	mv	a5,s3
    aa08:	03900693          	li	a3,57
    aa0c:	00078993          	mv	s3,a5
    aa10:	fff9c703          	lbu	a4,-1(s3)
    aa14:	fff78793          	addi	a5,a5,-1
    aa18:	0ed70c63          	beq	a4,a3,ab10 <_dtoa_r+0x1150>
    aa1c:	00170713          	addi	a4,a4,1
    aa20:	00e78023          	sb	a4,0(a5)
    aa24:	e0dff06f          	j	a830 <_dtoa_r+0xe70>
    aa28:	00e05c63          	blez	a4,aa40 <_dtoa_r+0x1080>
    aa2c:	03900713          	li	a4,57
    aa30:	fcea86e3          	beq	s5,a4,a9fc <_dtoa_r+0x103c>
    aa34:	001a8793          	addi	a5,s5,1
    aa38:	00fd0023          	sb	a5,0(s10)
    aa3c:	df5ff06f          	j	a830 <_dtoa_r+0xe70>
    aa40:	01812783          	lw	a5,24(sp)
    aa44:	ff5c0fa3          	sb	s5,-1(s8)
    aa48:	09878063          	beq	a5,s8,aac8 <_dtoa_r+0x1108>
    aa4c:	00c12583          	lw	a1,12(sp)
    aa50:	00000693          	li	a3,0
    aa54:	00a00613          	li	a2,10
    aa58:	00048513          	mv	a0,s1
    aa5c:	6b0000ef          	jal	ra,b10c <__multadd>
    aa60:	00a12623          	sw	a0,12(sp)
    aa64:	00000693          	li	a3,0
    aa68:	00a00613          	li	a2,10
    aa6c:	000b0593          	mv	a1,s6
    aa70:	00048513          	mv	a0,s1
    aa74:	012b1c63          	bne	s6,s2,aa8c <_dtoa_r+0x10cc>
    aa78:	694000ef          	jal	ra,b10c <__multadd>
    aa7c:	00050b13          	mv	s6,a0
    aa80:	00050913          	mv	s2,a0
    aa84:	001c0c13          	addi	s8,s8,1
    aa88:	e91ff06f          	j	a918 <_dtoa_r+0xf58>
    aa8c:	680000ef          	jal	ra,b10c <__multadd>
    aa90:	00090593          	mv	a1,s2
    aa94:	00050b13          	mv	s6,a0
    aa98:	00000693          	li	a3,0
    aa9c:	00a00613          	li	a2,10
    aaa0:	00048513          	mv	a0,s1
    aaa4:	668000ef          	jal	ra,b10c <__multadd>
    aaa8:	00050913          	mv	s2,a0
    aaac:	fd9ff06f          	j	aa84 <_dtoa_r+0x10c4>
    aab0:	00100993          	li	s3,1
    aab4:	01b05463          	blez	s11,aabc <_dtoa_r+0x10fc>
    aab8:	000d8993          	mv	s3,s11
    aabc:	01012783          	lw	a5,16(sp)
    aac0:	00000b13          	li	s6,0
    aac4:	013789b3          	add	s3,a5,s3
    aac8:	00c12583          	lw	a1,12(sp)
    aacc:	00100613          	li	a2,1
    aad0:	00048513          	mv	a0,s1
    aad4:	41d000ef          	jal	ra,b6f0 <__lshift>
    aad8:	000a0593          	mv	a1,s4
    aadc:	00a12623          	sw	a0,12(sp)
    aae0:	595000ef          	jal	ra,b874 <__mcmp>
    aae4:	f2a040e3          	bgtz	a0,aa04 <_dtoa_r+0x1044>
    aae8:	00051663          	bnez	a0,aaf4 <_dtoa_r+0x1134>
    aaec:	001af793          	andi	a5,s5,1
    aaf0:	f0079ae3          	bnez	a5,aa04 <_dtoa_r+0x1044>
    aaf4:	00098793          	mv	a5,s3
    aaf8:	03000713          	li	a4,48
    aafc:	00078993          	mv	s3,a5
    ab00:	fff7c683          	lbu	a3,-1(a5)
    ab04:	fff78793          	addi	a5,a5,-1
    ab08:	fee68ae3          	beq	a3,a4,aafc <_dtoa_r+0x113c>
    ab0c:	d25ff06f          	j	a830 <_dtoa_r+0xe70>
    ab10:	01012703          	lw	a4,16(sp)
    ab14:	eef71ce3          	bne	a4,a5,aa0c <_dtoa_r+0x104c>
    ab18:	03100793          	li	a5,49
    ab1c:	00140413          	addi	s0,s0,1
    ab20:	00f70023          	sb	a5,0(a4)
    ab24:	d0dff06f          	j	a830 <_dtoa_r+0xe70>
    ab28:	02412783          	lw	a5,36(sp)
    ab2c:	0000d537          	lui	a0,0xd
    ab30:	00078463          	beqz	a5,ab38 <_dtoa_r+0x1178>
    ab34:	fc1fe06f          	j	9af4 <_dtoa_r+0x134>
    ab38:	79850793          	addi	a5,a0,1944 # d798 <_ctype_+0x194>
    ab3c:	00f12823          	sw	a5,16(sp)
    ab40:	fcdfe06f          	j	9b0c <_dtoa_r+0x14c>
    ab44:	01b04863          	bgtz	s11,ab54 <_dtoa_r+0x1194>
    ab48:	01412703          	lw	a4,20(sp)
    ab4c:	00200793          	li	a5,2
    ab50:	cae7c2e3          	blt	a5,a4,a7f4 <_dtoa_r+0xe34>
    ab54:	00000993          	li	s3,0
    ab58:	00c12503          	lw	a0,12(sp)
    ab5c:	000a0593          	mv	a1,s4
    ab60:	c95fe0ef          	jal	ra,97f4 <quorem>
    ab64:	01012783          	lw	a5,16(sp)
    ab68:	03050a93          	addi	s5,a0,48
    ab6c:	01378733          	add	a4,a5,s3
    ab70:	01570023          	sb	s5,0(a4)
    ab74:	00198993          	addi	s3,s3,1
    ab78:	f3b9dce3          	bge	s3,s11,aab0 <_dtoa_r+0x10f0>
    ab7c:	00c12583          	lw	a1,12(sp)
    ab80:	00000693          	li	a3,0
    ab84:	00a00613          	li	a2,10
    ab88:	00048513          	mv	a0,s1
    ab8c:	580000ef          	jal	ra,b10c <__multadd>
    ab90:	00a12623          	sw	a0,12(sp)
    ab94:	fc5ff06f          	j	ab58 <_dtoa_r+0x1198>

0000ab98 <std>:
    ab98:	ff010113          	addi	sp,sp,-16
    ab9c:	00812423          	sw	s0,8(sp)
    aba0:	00112623          	sw	ra,12(sp)
    aba4:	00050413          	mv	s0,a0
    aba8:	00b51623          	sh	a1,12(a0)
    abac:	00c51723          	sh	a2,14(a0)
    abb0:	00052023          	sw	zero,0(a0)
    abb4:	00052223          	sw	zero,4(a0)
    abb8:	00052423          	sw	zero,8(a0)
    abbc:	06052223          	sw	zero,100(a0)
    abc0:	00052823          	sw	zero,16(a0)
    abc4:	00052a23          	sw	zero,20(a0)
    abc8:	00052c23          	sw	zero,24(a0)
    abcc:	00800613          	li	a2,8
    abd0:	00000593          	li	a1,0
    abd4:	05c50513          	addi	a0,a0,92
    abd8:	9a4f80ef          	jal	ra,2d7c <memset>
    abdc:	0000c7b7          	lui	a5,0xc
    abe0:	14878793          	addi	a5,a5,328 # c148 <__sread>
    abe4:	02f42223          	sw	a5,36(s0)
    abe8:	0000c7b7          	lui	a5,0xc
    abec:	19878793          	addi	a5,a5,408 # c198 <__swrite>
    abf0:	02f42423          	sw	a5,40(s0)
    abf4:	0000c7b7          	lui	a5,0xc
    abf8:	21c78793          	addi	a5,a5,540 # c21c <__sseek>
    abfc:	02f42623          	sw	a5,44(s0)
    ac00:	0000c7b7          	lui	a5,0xc
    ac04:	27478793          	addi	a5,a5,628 # c274 <__sclose>
    ac08:	00c12083          	lw	ra,12(sp)
    ac0c:	02842023          	sw	s0,32(s0)
    ac10:	02f42823          	sw	a5,48(s0)
    ac14:	00812403          	lw	s0,8(sp)
    ac18:	01010113          	addi	sp,sp,16
    ac1c:	00008067          	ret

0000ac20 <_cleanup_r>:
    ac20:	0000d5b7          	lui	a1,0xd
    ac24:	81458593          	addi	a1,a1,-2028 # c814 <_fflush_r>
    ac28:	2580006f          	j	ae80 <_fwalk_reent>

0000ac2c <__sfmoreglue>:
    ac2c:	ff010113          	addi	sp,sp,-16
    ac30:	00912223          	sw	s1,4(sp)
    ac34:	06800613          	li	a2,104
    ac38:	fff58493          	addi	s1,a1,-1
    ac3c:	02c484b3          	mul	s1,s1,a2
    ac40:	01212023          	sw	s2,0(sp)
    ac44:	00058913          	mv	s2,a1
    ac48:	00812423          	sw	s0,8(sp)
    ac4c:	00112623          	sw	ra,12(sp)
    ac50:	07448593          	addi	a1,s1,116
    ac54:	a19fd0ef          	jal	ra,866c <_malloc_r>
    ac58:	00050413          	mv	s0,a0
    ac5c:	02050063          	beqz	a0,ac7c <__sfmoreglue+0x50>
    ac60:	00052023          	sw	zero,0(a0)
    ac64:	01252223          	sw	s2,4(a0)
    ac68:	00c50513          	addi	a0,a0,12
    ac6c:	00a42423          	sw	a0,8(s0)
    ac70:	06848613          	addi	a2,s1,104
    ac74:	00000593          	li	a1,0
    ac78:	904f80ef          	jal	ra,2d7c <memset>
    ac7c:	00c12083          	lw	ra,12(sp)
    ac80:	00040513          	mv	a0,s0
    ac84:	00812403          	lw	s0,8(sp)
    ac88:	00412483          	lw	s1,4(sp)
    ac8c:	00012903          	lw	s2,0(sp)
    ac90:	01010113          	addi	sp,sp,16
    ac94:	00008067          	ret

0000ac98 <__sfp_lock_acquire>:
    ac98:	0002f537          	lui	a0,0x2f
    ac9c:	6bc50513          	addi	a0,a0,1724 # 2f6bc <__lock___sfp_recursive_mutex>
    aca0:	a18fb06f          	j	5eb8 <__retarget_lock_acquire_recursive>

0000aca4 <__sfp_lock_release>:
    aca4:	0002f537          	lui	a0,0x2f
    aca8:	6bc50513          	addi	a0,a0,1724 # 2f6bc <__lock___sfp_recursive_mutex>
    acac:	a18fb06f          	j	5ec4 <__retarget_lock_release_recursive>

0000acb0 <__sinit_lock_acquire>:
    acb0:	0002f537          	lui	a0,0x2f
    acb4:	6d050513          	addi	a0,a0,1744 # 2f6d0 <__lock___sinit_recursive_mutex>
    acb8:	a00fb06f          	j	5eb8 <__retarget_lock_acquire_recursive>

0000acbc <__sinit_lock_release>:
    acbc:	0002f537          	lui	a0,0x2f
    acc0:	6d050513          	addi	a0,a0,1744 # 2f6d0 <__lock___sinit_recursive_mutex>
    acc4:	a00fb06f          	j	5ec4 <__retarget_lock_release_recursive>

0000acc8 <__sinit>:
    acc8:	ff010113          	addi	sp,sp,-16
    accc:	00812423          	sw	s0,8(sp)
    acd0:	00112623          	sw	ra,12(sp)
    acd4:	00050413          	mv	s0,a0
    acd8:	fd9ff0ef          	jal	ra,acb0 <__sinit_lock_acquire>
    acdc:	01842783          	lw	a5,24(s0)
    ace0:	00078a63          	beqz	a5,acf4 <__sinit+0x2c>
    ace4:	00812403          	lw	s0,8(sp)
    ace8:	00c12083          	lw	ra,12(sp)
    acec:	01010113          	addi	sp,sp,16
    acf0:	fcdff06f          	j	acbc <__sinit_lock_release>
    acf4:	0000b7b7          	lui	a5,0xb
    acf8:	c2078793          	addi	a5,a5,-992 # ac20 <_cleanup_r>
    acfc:	02f42423          	sw	a5,40(s0)
    ad00:	0000d7b7          	lui	a5,0xd
    ad04:	ed87a783          	lw	a5,-296(a5) # ced8 <_global_impure_ptr>
    ad08:	04042423          	sw	zero,72(s0)
    ad0c:	04042623          	sw	zero,76(s0)
    ad10:	04042823          	sw	zero,80(s0)
    ad14:	00879663          	bne	a5,s0,ad20 <__sinit+0x58>
    ad18:	00100793          	li	a5,1
    ad1c:	00f42c23          	sw	a5,24(s0)
    ad20:	00040513          	mv	a0,s0
    ad24:	05c000ef          	jal	ra,ad80 <__sfp>
    ad28:	00a42223          	sw	a0,4(s0)
    ad2c:	00040513          	mv	a0,s0
    ad30:	050000ef          	jal	ra,ad80 <__sfp>
    ad34:	00a42423          	sw	a0,8(s0)
    ad38:	00040513          	mv	a0,s0
    ad3c:	044000ef          	jal	ra,ad80 <__sfp>
    ad40:	00a42623          	sw	a0,12(s0)
    ad44:	00442503          	lw	a0,4(s0)
    ad48:	00000613          	li	a2,0
    ad4c:	00400593          	li	a1,4
    ad50:	e49ff0ef          	jal	ra,ab98 <std>
    ad54:	00842503          	lw	a0,8(s0)
    ad58:	00100613          	li	a2,1
    ad5c:	00900593          	li	a1,9
    ad60:	e39ff0ef          	jal	ra,ab98 <std>
    ad64:	00c42503          	lw	a0,12(s0)
    ad68:	00200613          	li	a2,2
    ad6c:	01200593          	li	a1,18
    ad70:	e29ff0ef          	jal	ra,ab98 <std>
    ad74:	00100793          	li	a5,1
    ad78:	00f42c23          	sw	a5,24(s0)
    ad7c:	f69ff06f          	j	ace4 <__sinit+0x1c>

0000ad80 <__sfp>:
    ad80:	ff010113          	addi	sp,sp,-16
    ad84:	00912223          	sw	s1,4(sp)
    ad88:	01212023          	sw	s2,0(sp)
    ad8c:	00112623          	sw	ra,12(sp)
    ad90:	00812423          	sw	s0,8(sp)
    ad94:	00050913          	mv	s2,a0
    ad98:	f01ff0ef          	jal	ra,ac98 <__sfp_lock_acquire>
    ad9c:	0000d7b7          	lui	a5,0xd
    ada0:	ed87a483          	lw	s1,-296(a5) # ced8 <_global_impure_ptr>
    ada4:	0184a783          	lw	a5,24(s1)
    ada8:	00079663          	bnez	a5,adb4 <__sfp+0x34>
    adac:	00048513          	mv	a0,s1
    adb0:	f19ff0ef          	jal	ra,acc8 <__sinit>
    adb4:	04848493          	addi	s1,s1,72
    adb8:	0084a403          	lw	s0,8(s1)
    adbc:	0044a783          	lw	a5,4(s1)
    adc0:	fff78793          	addi	a5,a5,-1
    adc4:	0007da63          	bgez	a5,add8 <__sfp+0x58>
    adc8:	0004a783          	lw	a5,0(s1)
    adcc:	08078663          	beqz	a5,ae58 <__sfp+0xd8>
    add0:	0004a483          	lw	s1,0(s1)
    add4:	fe5ff06f          	j	adb8 <__sfp+0x38>
    add8:	00c41703          	lh	a4,12(s0)
    addc:	06071a63          	bnez	a4,ae50 <__sfp+0xd0>
    ade0:	ffff07b7          	lui	a5,0xffff0
    ade4:	00178793          	addi	a5,a5,1 # ffff0001 <CONFIG_SYSTEM_WORKQUEUE_PRIORITY+0xffff0002>
    ade8:	00f42623          	sw	a5,12(s0)
    adec:	05840513          	addi	a0,s0,88
    adf0:	06042223          	sw	zero,100(s0)
    adf4:	898fb0ef          	jal	ra,5e8c <__retarget_lock_init_recursive>
    adf8:	eadff0ef          	jal	ra,aca4 <__sfp_lock_release>
    adfc:	00800613          	li	a2,8
    ae00:	00042023          	sw	zero,0(s0)
    ae04:	00042423          	sw	zero,8(s0)
    ae08:	00042223          	sw	zero,4(s0)
    ae0c:	00042823          	sw	zero,16(s0)
    ae10:	00042a23          	sw	zero,20(s0)
    ae14:	00042c23          	sw	zero,24(s0)
    ae18:	00000593          	li	a1,0
    ae1c:	05c40513          	addi	a0,s0,92
    ae20:	f5df70ef          	jal	ra,2d7c <memset>
    ae24:	02042a23          	sw	zero,52(s0)
    ae28:	02042c23          	sw	zero,56(s0)
    ae2c:	04042423          	sw	zero,72(s0)
    ae30:	04042623          	sw	zero,76(s0)
    ae34:	00c12083          	lw	ra,12(sp)
    ae38:	00040513          	mv	a0,s0
    ae3c:	00812403          	lw	s0,8(sp)
    ae40:	00412483          	lw	s1,4(sp)
    ae44:	00012903          	lw	s2,0(sp)
    ae48:	01010113          	addi	sp,sp,16
    ae4c:	00008067          	ret
    ae50:	06840413          	addi	s0,s0,104
    ae54:	f6dff06f          	j	adc0 <__sfp+0x40>
    ae58:	00400593          	li	a1,4
    ae5c:	00090513          	mv	a0,s2
    ae60:	dcdff0ef          	jal	ra,ac2c <__sfmoreglue>
    ae64:	00a4a023          	sw	a0,0(s1)
    ae68:	00050413          	mv	s0,a0
    ae6c:	f60512e3          	bnez	a0,add0 <__sfp+0x50>
    ae70:	e35ff0ef          	jal	ra,aca4 <__sfp_lock_release>
    ae74:	00c00793          	li	a5,12
    ae78:	00f92023          	sw	a5,0(s2)
    ae7c:	fb9ff06f          	j	ae34 <__sfp+0xb4>

0000ae80 <_fwalk_reent>:
    ae80:	fd010113          	addi	sp,sp,-48
    ae84:	02812423          	sw	s0,40(sp)
    ae88:	03212023          	sw	s2,32(sp)
    ae8c:	01312e23          	sw	s3,28(sp)
    ae90:	01412c23          	sw	s4,24(sp)
    ae94:	01612823          	sw	s6,16(sp)
    ae98:	01712623          	sw	s7,12(sp)
    ae9c:	02112623          	sw	ra,44(sp)
    aea0:	02912223          	sw	s1,36(sp)
    aea4:	01512a23          	sw	s5,20(sp)
    aea8:	00050913          	mv	s2,a0
    aeac:	00058a13          	mv	s4,a1
    aeb0:	04850413          	addi	s0,a0,72
    aeb4:	00000993          	li	s3,0
    aeb8:	00100b13          	li	s6,1
    aebc:	fff00b93          	li	s7,-1
    aec0:	00842483          	lw	s1,8(s0)
    aec4:	00442a83          	lw	s5,4(s0)
    aec8:	fffa8a93          	addi	s5,s5,-1
    aecc:	020ade63          	bgez	s5,af08 <_fwalk_reent+0x88>
    aed0:	00042403          	lw	s0,0(s0)
    aed4:	fe0416e3          	bnez	s0,aec0 <_fwalk_reent+0x40>
    aed8:	02c12083          	lw	ra,44(sp)
    aedc:	02812403          	lw	s0,40(sp)
    aee0:	02412483          	lw	s1,36(sp)
    aee4:	02012903          	lw	s2,32(sp)
    aee8:	01812a03          	lw	s4,24(sp)
    aeec:	01412a83          	lw	s5,20(sp)
    aef0:	01012b03          	lw	s6,16(sp)
    aef4:	00c12b83          	lw	s7,12(sp)
    aef8:	00098513          	mv	a0,s3
    aefc:	01c12983          	lw	s3,28(sp)
    af00:	03010113          	addi	sp,sp,48
    af04:	00008067          	ret
    af08:	00c4d783          	lhu	a5,12(s1)
    af0c:	00fb7e63          	bgeu	s6,a5,af28 <_fwalk_reent+0xa8>
    af10:	00e49783          	lh	a5,14(s1)
    af14:	01778a63          	beq	a5,s7,af28 <_fwalk_reent+0xa8>
    af18:	00048593          	mv	a1,s1
    af1c:	00090513          	mv	a0,s2
    af20:	000a00e7          	jalr	s4
    af24:	00a9e9b3          	or	s3,s3,a0
    af28:	06848493          	addi	s1,s1,104
    af2c:	f9dff06f          	j	aec8 <_fwalk_reent+0x48>

0000af30 <_localeconv_r>:
    af30:	0002f537          	lui	a0,0x2f
    af34:	3e050513          	addi	a0,a0,992 # 2f3e0 <__global_locale+0xf0>
    af38:	00008067          	ret

0000af3c <memchr>:
    af3c:	0ff5f593          	andi	a1,a1,255
    af40:	00c50633          	add	a2,a0,a2
    af44:	00c51663          	bne	a0,a2,af50 <memchr+0x14>
    af48:	00000513          	li	a0,0
    af4c:	00008067          	ret
    af50:	00054783          	lbu	a5,0(a0)
    af54:	feb78ce3          	beq	a5,a1,af4c <memchr+0x10>
    af58:	00150513          	addi	a0,a0,1
    af5c:	fe9ff06f          	j	af44 <memchr+0x8>

0000af60 <__malloc_lock>:
    af60:	0002f537          	lui	a0,0x2f
    af64:	6a850513          	addi	a0,a0,1704 # 2f6a8 <__lock___malloc_recursive_mutex>
    af68:	f51fa06f          	j	5eb8 <__retarget_lock_acquire_recursive>

0000af6c <__malloc_unlock>:
    af6c:	0002f537          	lui	a0,0x2f
    af70:	6a850513          	addi	a0,a0,1704 # 2f6a8 <__lock___malloc_recursive_mutex>
    af74:	f51fa06f          	j	5ec4 <__retarget_lock_release_recursive>

0000af78 <_Balloc>:
    af78:	02452783          	lw	a5,36(a0)
    af7c:	ff010113          	addi	sp,sp,-16
    af80:	00812423          	sw	s0,8(sp)
    af84:	00912223          	sw	s1,4(sp)
    af88:	00112623          	sw	ra,12(sp)
    af8c:	01212023          	sw	s2,0(sp)
    af90:	00050413          	mv	s0,a0
    af94:	00058493          	mv	s1,a1
    af98:	04079063          	bnez	a5,afd8 <_Balloc+0x60>
    af9c:	01000513          	li	a0,16
    afa0:	db8fd0ef          	jal	ra,8558 <malloc>
    afa4:	02a42223          	sw	a0,36(s0)
    afa8:	02051063          	bnez	a0,afc8 <_Balloc+0x50>
    afac:	0000d6b7          	lui	a3,0xd
    afb0:	0000e537          	lui	a0,0xe
    afb4:	7a868693          	addi	a3,a3,1960 # d7a8 <_ctype_+0x1a4>
    afb8:	00000613          	li	a2,0
    afbc:	06600593          	li	a1,102
    afc0:	89850513          	addi	a0,a0,-1896 # d898 <__sf_fake_stdout+0x20>
    afc4:	5bc010ef          	jal	ra,c580 <__assert_func>
    afc8:	00052223          	sw	zero,4(a0)
    afcc:	00052423          	sw	zero,8(a0)
    afd0:	00052023          	sw	zero,0(a0)
    afd4:	00052623          	sw	zero,12(a0)
    afd8:	02442903          	lw	s2,36(s0)
    afdc:	00c92783          	lw	a5,12(s2)
    afe0:	04078463          	beqz	a5,b028 <_Balloc+0xb0>
    afe4:	02442703          	lw	a4,36(s0)
    afe8:	00249793          	slli	a5,s1,0x2
    afec:	00c72703          	lw	a4,12(a4)
    aff0:	00f707b3          	add	a5,a4,a5
    aff4:	0007a503          	lw	a0,0(a5)
    aff8:	06051663          	bnez	a0,b064 <_Balloc+0xec>
    affc:	00100913          	li	s2,1
    b000:	00991933          	sll	s2,s2,s1
    b004:	00590613          	addi	a2,s2,5
    b008:	00261613          	slli	a2,a2,0x2
    b00c:	00100593          	li	a1,1
    b010:	00040513          	mv	a0,s0
    b014:	40d000ef          	jal	ra,bc20 <_calloc_r>
    b018:	02050863          	beqz	a0,b048 <_Balloc+0xd0>
    b01c:	00952223          	sw	s1,4(a0)
    b020:	01252423          	sw	s2,8(a0)
    b024:	0480006f          	j	b06c <_Balloc+0xf4>
    b028:	02100613          	li	a2,33
    b02c:	00400593          	li	a1,4
    b030:	00040513          	mv	a0,s0
    b034:	3ed000ef          	jal	ra,bc20 <_calloc_r>
    b038:	02442783          	lw	a5,36(s0)
    b03c:	00a92623          	sw	a0,12(s2)
    b040:	00c7a783          	lw	a5,12(a5)
    b044:	fa0790e3          	bnez	a5,afe4 <_Balloc+0x6c>
    b048:	00000513          	li	a0,0
    b04c:	00c12083          	lw	ra,12(sp)
    b050:	00812403          	lw	s0,8(sp)
    b054:	00412483          	lw	s1,4(sp)
    b058:	00012903          	lw	s2,0(sp)
    b05c:	01010113          	addi	sp,sp,16
    b060:	00008067          	ret
    b064:	00052703          	lw	a4,0(a0)
    b068:	00e7a023          	sw	a4,0(a5)
    b06c:	00052823          	sw	zero,16(a0)
    b070:	00052623          	sw	zero,12(a0)
    b074:	fd9ff06f          	j	b04c <_Balloc+0xd4>

0000b078 <_Bfree>:
    b078:	02452783          	lw	a5,36(a0)
    b07c:	ff010113          	addi	sp,sp,-16
    b080:	00812423          	sw	s0,8(sp)
    b084:	00912223          	sw	s1,4(sp)
    b088:	00112623          	sw	ra,12(sp)
    b08c:	00050493          	mv	s1,a0
    b090:	00058413          	mv	s0,a1
    b094:	04079063          	bnez	a5,b0d4 <_Bfree+0x5c>
    b098:	01000513          	li	a0,16
    b09c:	cbcfd0ef          	jal	ra,8558 <malloc>
    b0a0:	02a4a223          	sw	a0,36(s1)
    b0a4:	02051063          	bnez	a0,b0c4 <_Bfree+0x4c>
    b0a8:	0000d6b7          	lui	a3,0xd
    b0ac:	0000e537          	lui	a0,0xe
    b0b0:	7a868693          	addi	a3,a3,1960 # d7a8 <_ctype_+0x1a4>
    b0b4:	00000613          	li	a2,0
    b0b8:	08a00593          	li	a1,138
    b0bc:	89850513          	addi	a0,a0,-1896 # d898 <__sf_fake_stdout+0x20>
    b0c0:	4c0010ef          	jal	ra,c580 <__assert_func>
    b0c4:	00052223          	sw	zero,4(a0)
    b0c8:	00052423          	sw	zero,8(a0)
    b0cc:	00052023          	sw	zero,0(a0)
    b0d0:	00052623          	sw	zero,12(a0)
    b0d4:	02040263          	beqz	s0,b0f8 <_Bfree+0x80>
    b0d8:	0244a683          	lw	a3,36(s1)
    b0dc:	00442783          	lw	a5,4(s0)
    b0e0:	00279713          	slli	a4,a5,0x2
    b0e4:	00c6a783          	lw	a5,12(a3)
    b0e8:	00e787b3          	add	a5,a5,a4
    b0ec:	0007a703          	lw	a4,0(a5)
    b0f0:	00e42023          	sw	a4,0(s0)
    b0f4:	0087a023          	sw	s0,0(a5)
    b0f8:	00c12083          	lw	ra,12(sp)
    b0fc:	00812403          	lw	s0,8(sp)
    b100:	00412483          	lw	s1,4(sp)
    b104:	01010113          	addi	sp,sp,16
    b108:	00008067          	ret

0000b10c <__multadd>:
    b10c:	fe010113          	addi	sp,sp,-32
    b110:	00812c23          	sw	s0,24(sp)
    b114:	01212823          	sw	s2,16(sp)
    b118:	01312623          	sw	s3,12(sp)
    b11c:	0105a903          	lw	s2,16(a1)
    b120:	00058413          	mv	s0,a1
    b124:	00068993          	mv	s3,a3
    b128:	01458693          	addi	a3,a1,20
    b12c:	000105b7          	lui	a1,0x10
    b130:	00912a23          	sw	s1,20(sp)
    b134:	00112e23          	sw	ra,28(sp)
    b138:	00050493          	mv	s1,a0
    b13c:	01412423          	sw	s4,8(sp)
    b140:	00000513          	li	a0,0
    b144:	fff58593          	addi	a1,a1,-1 # ffff <kheap__system_heap+0xd6f>
    b148:	0006a783          	lw	a5,0(a3)
    b14c:	00468693          	addi	a3,a3,4
    b150:	00150513          	addi	a0,a0,1
    b154:	00b7f733          	and	a4,a5,a1
    b158:	02c70733          	mul	a4,a4,a2
    b15c:	0107d793          	srli	a5,a5,0x10
    b160:	02c787b3          	mul	a5,a5,a2
    b164:	01370733          	add	a4,a4,s3
    b168:	01075813          	srli	a6,a4,0x10
    b16c:	00b77733          	and	a4,a4,a1
    b170:	010787b3          	add	a5,a5,a6
    b174:	0107d993          	srli	s3,a5,0x10
    b178:	01079793          	slli	a5,a5,0x10
    b17c:	00e787b3          	add	a5,a5,a4
    b180:	fef6ae23          	sw	a5,-4(a3)
    b184:	fd2542e3          	blt	a0,s2,b148 <__multadd+0x3c>
    b188:	08098063          	beqz	s3,b208 <__multadd+0xfc>
    b18c:	00842783          	lw	a5,8(s0)
    b190:	06f94063          	blt	s2,a5,b1f0 <__multadd+0xe4>
    b194:	00442583          	lw	a1,4(s0)
    b198:	00048513          	mv	a0,s1
    b19c:	00158593          	addi	a1,a1,1
    b1a0:	dd9ff0ef          	jal	ra,af78 <_Balloc>
    b1a4:	00050a13          	mv	s4,a0
    b1a8:	02051063          	bnez	a0,b1c8 <__multadd+0xbc>
    b1ac:	0000e6b7          	lui	a3,0xe
    b1b0:	0000e537          	lui	a0,0xe
    b1b4:	82468693          	addi	a3,a3,-2012 # d824 <_ctype_+0x220>
    b1b8:	00000613          	li	a2,0
    b1bc:	0b500593          	li	a1,181
    b1c0:	89850513          	addi	a0,a0,-1896 # d898 <__sf_fake_stdout+0x20>
    b1c4:	3bc010ef          	jal	ra,c580 <__assert_func>
    b1c8:	01042603          	lw	a2,16(s0)
    b1cc:	00c40593          	addi	a1,s0,12
    b1d0:	00c50513          	addi	a0,a0,12
    b1d4:	00260613          	addi	a2,a2,2
    b1d8:	00261613          	slli	a2,a2,0x2
    b1dc:	b7df70ef          	jal	ra,2d58 <memcpy>
    b1e0:	00040593          	mv	a1,s0
    b1e4:	00048513          	mv	a0,s1
    b1e8:	e91ff0ef          	jal	ra,b078 <_Bfree>
    b1ec:	000a0413          	mv	s0,s4
    b1f0:	00490793          	addi	a5,s2,4
    b1f4:	00279793          	slli	a5,a5,0x2
    b1f8:	00f407b3          	add	a5,s0,a5
    b1fc:	0137a223          	sw	s3,4(a5)
    b200:	00190913          	addi	s2,s2,1
    b204:	01242823          	sw	s2,16(s0)
    b208:	01c12083          	lw	ra,28(sp)
    b20c:	00040513          	mv	a0,s0
    b210:	01812403          	lw	s0,24(sp)
    b214:	01412483          	lw	s1,20(sp)
    b218:	01012903          	lw	s2,16(sp)
    b21c:	00c12983          	lw	s3,12(sp)
    b220:	00812a03          	lw	s4,8(sp)
    b224:	02010113          	addi	sp,sp,32
    b228:	00008067          	ret

0000b22c <__hi0bits>:
    b22c:	ffff0737          	lui	a4,0xffff0
    b230:	00e57733          	and	a4,a0,a4
    b234:	00050793          	mv	a5,a0
    b238:	00000513          	li	a0,0
    b23c:	00071663          	bnez	a4,b248 <__hi0bits+0x1c>
    b240:	01079793          	slli	a5,a5,0x10
    b244:	01000513          	li	a0,16
    b248:	ff000737          	lui	a4,0xff000
    b24c:	00e7f733          	and	a4,a5,a4
    b250:	00071663          	bnez	a4,b25c <__hi0bits+0x30>
    b254:	00850513          	addi	a0,a0,8
    b258:	00879793          	slli	a5,a5,0x8
    b25c:	f0000737          	lui	a4,0xf0000
    b260:	00e7f733          	and	a4,a5,a4
    b264:	00071663          	bnez	a4,b270 <__hi0bits+0x44>
    b268:	00450513          	addi	a0,a0,4
    b26c:	00479793          	slli	a5,a5,0x4
    b270:	c0000737          	lui	a4,0xc0000
    b274:	00e7f733          	and	a4,a5,a4
    b278:	00071663          	bnez	a4,b284 <__hi0bits+0x58>
    b27c:	00250513          	addi	a0,a0,2
    b280:	00279793          	slli	a5,a5,0x2
    b284:	0007cc63          	bltz	a5,b29c <__hi0bits+0x70>
    b288:	40000737          	lui	a4,0x40000
    b28c:	00e7f7b3          	and	a5,a5,a4
    b290:	00150513          	addi	a0,a0,1
    b294:	00079463          	bnez	a5,b29c <__hi0bits+0x70>
    b298:	02000513          	li	a0,32
    b29c:	00008067          	ret

0000b2a0 <__lo0bits>:
    b2a0:	00052783          	lw	a5,0(a0)
    b2a4:	00050713          	mv	a4,a0
    b2a8:	0077f693          	andi	a3,a5,7
    b2ac:	02068c63          	beqz	a3,b2e4 <__lo0bits+0x44>
    b2b0:	0017f693          	andi	a3,a5,1
    b2b4:	00000513          	li	a0,0
    b2b8:	08069a63          	bnez	a3,b34c <__lo0bits+0xac>
    b2bc:	0027f693          	andi	a3,a5,2
    b2c0:	00068a63          	beqz	a3,b2d4 <__lo0bits+0x34>
    b2c4:	0017d793          	srli	a5,a5,0x1
    b2c8:	00f72023          	sw	a5,0(a4) # 40000000 <CONFIG_SYS_CLOCK_HW_CYCLES_PER_SEC+0x3d050f80>
    b2cc:	00100513          	li	a0,1
    b2d0:	00008067          	ret
    b2d4:	0027d793          	srli	a5,a5,0x2
    b2d8:	00f72023          	sw	a5,0(a4)
    b2dc:	00200513          	li	a0,2
    b2e0:	00008067          	ret
    b2e4:	01079693          	slli	a3,a5,0x10
    b2e8:	0106d693          	srli	a3,a3,0x10
    b2ec:	00000513          	li	a0,0
    b2f0:	00069663          	bnez	a3,b2fc <__lo0bits+0x5c>
    b2f4:	0107d793          	srli	a5,a5,0x10
    b2f8:	01000513          	li	a0,16
    b2fc:	0ff7f693          	andi	a3,a5,255
    b300:	00069663          	bnez	a3,b30c <__lo0bits+0x6c>
    b304:	00850513          	addi	a0,a0,8
    b308:	0087d793          	srli	a5,a5,0x8
    b30c:	00f7f693          	andi	a3,a5,15
    b310:	00069663          	bnez	a3,b31c <__lo0bits+0x7c>
    b314:	00450513          	addi	a0,a0,4
    b318:	0047d793          	srli	a5,a5,0x4
    b31c:	0037f693          	andi	a3,a5,3
    b320:	00069663          	bnez	a3,b32c <__lo0bits+0x8c>
    b324:	00250513          	addi	a0,a0,2
    b328:	0027d793          	srli	a5,a5,0x2
    b32c:	0017f693          	andi	a3,a5,1
    b330:	00069863          	bnez	a3,b340 <__lo0bits+0xa0>
    b334:	0017d793          	srli	a5,a5,0x1
    b338:	00150513          	addi	a0,a0,1
    b33c:	00078663          	beqz	a5,b348 <__lo0bits+0xa8>
    b340:	00f72023          	sw	a5,0(a4)
    b344:	00008067          	ret
    b348:	02000513          	li	a0,32
    b34c:	00008067          	ret

0000b350 <__i2b>:
    b350:	ff010113          	addi	sp,sp,-16
    b354:	00812423          	sw	s0,8(sp)
    b358:	00058413          	mv	s0,a1
    b35c:	00100593          	li	a1,1
    b360:	00112623          	sw	ra,12(sp)
    b364:	c15ff0ef          	jal	ra,af78 <_Balloc>
    b368:	02051063          	bnez	a0,b388 <__i2b+0x38>
    b36c:	0000e6b7          	lui	a3,0xe
    b370:	0000e537          	lui	a0,0xe
    b374:	82468693          	addi	a3,a3,-2012 # d824 <_ctype_+0x220>
    b378:	00000613          	li	a2,0
    b37c:	14000593          	li	a1,320
    b380:	89850513          	addi	a0,a0,-1896 # d898 <__sf_fake_stdout+0x20>
    b384:	1fc010ef          	jal	ra,c580 <__assert_func>
    b388:	00c12083          	lw	ra,12(sp)
    b38c:	00852a23          	sw	s0,20(a0)
    b390:	00812403          	lw	s0,8(sp)
    b394:	00100713          	li	a4,1
    b398:	00e52823          	sw	a4,16(a0)
    b39c:	01010113          	addi	sp,sp,16
    b3a0:	00008067          	ret

0000b3a4 <__multiply>:
    b3a4:	0105a703          	lw	a4,16(a1)
    b3a8:	01062783          	lw	a5,16(a2)
    b3ac:	fe010113          	addi	sp,sp,-32
    b3b0:	00812c23          	sw	s0,24(sp)
    b3b4:	01212823          	sw	s2,16(sp)
    b3b8:	00112e23          	sw	ra,28(sp)
    b3bc:	00912a23          	sw	s1,20(sp)
    b3c0:	01312623          	sw	s3,12(sp)
    b3c4:	01412423          	sw	s4,8(sp)
    b3c8:	00058413          	mv	s0,a1
    b3cc:	00060913          	mv	s2,a2
    b3d0:	00f75663          	bge	a4,a5,b3dc <__multiply+0x38>
    b3d4:	00060413          	mv	s0,a2
    b3d8:	00058913          	mv	s2,a1
    b3dc:	01042a03          	lw	s4,16(s0)
    b3e0:	01092983          	lw	s3,16(s2)
    b3e4:	00842783          	lw	a5,8(s0)
    b3e8:	00442583          	lw	a1,4(s0)
    b3ec:	013a04b3          	add	s1,s4,s3
    b3f0:	0097d463          	bge	a5,s1,b3f8 <__multiply+0x54>
    b3f4:	00158593          	addi	a1,a1,1
    b3f8:	b81ff0ef          	jal	ra,af78 <_Balloc>
    b3fc:	02051063          	bnez	a0,b41c <__multiply+0x78>
    b400:	0000e6b7          	lui	a3,0xe
    b404:	0000e537          	lui	a0,0xe
    b408:	82468693          	addi	a3,a3,-2012 # d824 <_ctype_+0x220>
    b40c:	00000613          	li	a2,0
    b410:	15d00593          	li	a1,349
    b414:	89850513          	addi	a0,a0,-1896 # d898 <__sf_fake_stdout+0x20>
    b418:	168010ef          	jal	ra,c580 <__assert_func>
    b41c:	01450693          	addi	a3,a0,20
    b420:	00249813          	slli	a6,s1,0x2
    b424:	01068833          	add	a6,a3,a6
    b428:	00068793          	mv	a5,a3
    b42c:	0707ec63          	bltu	a5,a6,b4a4 <__multiply+0x100>
    b430:	01440313          	addi	t1,s0,20
    b434:	002a1593          	slli	a1,s4,0x2
    b438:	01490613          	addi	a2,s2,20
    b43c:	00299893          	slli	a7,s3,0x2
    b440:	00b305b3          	add	a1,t1,a1
    b444:	01540793          	addi	a5,s0,21
    b448:	011608b3          	add	a7,a2,a7
    b44c:	00400e13          	li	t3,4
    b450:	00f5ea63          	bltu	a1,a5,b464 <__multiply+0xc0>
    b454:	40858433          	sub	s0,a1,s0
    b458:	feb40413          	addi	s0,s0,-21
    b45c:	ffc47413          	andi	s0,s0,-4
    b460:	00440e13          	addi	t3,s0,4
    b464:	00010eb7          	lui	t4,0x10
    b468:	fffe8e93          	addi	t4,t4,-1 # ffff <kheap__system_heap+0xd6f>
    b46c:	05166263          	bltu	a2,a7,b4b0 <__multiply+0x10c>
    b470:	00905863          	blez	s1,b480 <__multiply+0xdc>
    b474:	ffc82783          	lw	a5,-4(a6)
    b478:	ffc80813          	addi	a6,a6,-4
    b47c:	12078463          	beqz	a5,b5a4 <__multiply+0x200>
    b480:	01c12083          	lw	ra,28(sp)
    b484:	01812403          	lw	s0,24(sp)
    b488:	00952823          	sw	s1,16(a0)
    b48c:	01012903          	lw	s2,16(sp)
    b490:	01412483          	lw	s1,20(sp)
    b494:	00c12983          	lw	s3,12(sp)
    b498:	00812a03          	lw	s4,8(sp)
    b49c:	02010113          	addi	sp,sp,32
    b4a0:	00008067          	ret
    b4a4:	0007a023          	sw	zero,0(a5)
    b4a8:	00478793          	addi	a5,a5,4
    b4ac:	f81ff06f          	j	b42c <__multiply+0x88>
    b4b0:	00062f83          	lw	t6,0(a2)
    b4b4:	01dfffb3          	and	t6,t6,t4
    b4b8:	060f8663          	beqz	t6,b524 <__multiply+0x180>
    b4bc:	00068393          	mv	t2,a3
    b4c0:	00030293          	mv	t0,t1
    b4c4:	00000913          	li	s2,0
    b4c8:	0002a703          	lw	a4,0(t0)
    b4cc:	0003a403          	lw	s0,0(t2)
    b4d0:	00438393          	addi	t2,t2,4
    b4d4:	01d77f33          	and	t5,a4,t4
    b4d8:	03ff0f33          	mul	t5,t5,t6
    b4dc:	01d477b3          	and	a5,s0,t4
    b4e0:	01045413          	srli	s0,s0,0x10
    b4e4:	00428293          	addi	t0,t0,4
    b4e8:	00ff0f33          	add	t5,t5,a5
    b4ec:	01075793          	srli	a5,a4,0x10
    b4f0:	03f787b3          	mul	a5,a5,t6
    b4f4:	012f0f33          	add	t5,t5,s2
    b4f8:	010f5713          	srli	a4,t5,0x10
    b4fc:	01df7f33          	and	t5,t5,t4
    b500:	008787b3          	add	a5,a5,s0
    b504:	00e787b3          	add	a5,a5,a4
    b508:	0107d913          	srli	s2,a5,0x10
    b50c:	01079793          	slli	a5,a5,0x10
    b510:	01e7e7b3          	or	a5,a5,t5
    b514:	fef3ae23          	sw	a5,-4(t2)
    b518:	fab2e8e3          	bltu	t0,a1,b4c8 <__multiply+0x124>
    b51c:	01c687b3          	add	a5,a3,t3
    b520:	0127a023          	sw	s2,0(a5)
    b524:	00265383          	lhu	t2,2(a2)
    b528:	06038863          	beqz	t2,b598 <__multiply+0x1f4>
    b52c:	0006a783          	lw	a5,0(a3)
    b530:	00068f93          	mv	t6,a3
    b534:	00030f13          	mv	t5,t1
    b538:	00000293          	li	t0,0
    b53c:	000f2703          	lw	a4,0(t5)
    b540:	002fd403          	lhu	s0,2(t6)
    b544:	01d7f7b3          	and	a5,a5,t4
    b548:	01d77733          	and	a4,a4,t4
    b54c:	02770733          	mul	a4,a4,t2
    b550:	004f8f93          	addi	t6,t6,4
    b554:	004f0f13          	addi	t5,t5,4
    b558:	00870733          	add	a4,a4,s0
    b55c:	00570733          	add	a4,a4,t0
    b560:	01071293          	slli	t0,a4,0x10
    b564:	00f2e7b3          	or	a5,t0,a5
    b568:	feffae23          	sw	a5,-4(t6)
    b56c:	ffef5783          	lhu	a5,-2(t5)
    b570:	000fa283          	lw	t0,0(t6)
    b574:	01075713          	srli	a4,a4,0x10
    b578:	027787b3          	mul	a5,a5,t2
    b57c:	01d2f2b3          	and	t0,t0,t4
    b580:	005787b3          	add	a5,a5,t0
    b584:	00e787b3          	add	a5,a5,a4
    b588:	0107d293          	srli	t0,a5,0x10
    b58c:	fabf68e3          	bltu	t5,a1,b53c <__multiply+0x198>
    b590:	01c68733          	add	a4,a3,t3
    b594:	00f72023          	sw	a5,0(a4)
    b598:	00460613          	addi	a2,a2,4
    b59c:	00468693          	addi	a3,a3,4
    b5a0:	ecdff06f          	j	b46c <__multiply+0xc8>
    b5a4:	fff48493          	addi	s1,s1,-1
    b5a8:	ec9ff06f          	j	b470 <__multiply+0xcc>

0000b5ac <__pow5mult>:
    b5ac:	fe010113          	addi	sp,sp,-32
    b5b0:	00912a23          	sw	s1,20(sp)
    b5b4:	01212823          	sw	s2,16(sp)
    b5b8:	01312623          	sw	s3,12(sp)
    b5bc:	00112e23          	sw	ra,28(sp)
    b5c0:	00812c23          	sw	s0,24(sp)
    b5c4:	01412423          	sw	s4,8(sp)
    b5c8:	00367793          	andi	a5,a2,3
    b5cc:	00050913          	mv	s2,a0
    b5d0:	00060493          	mv	s1,a2
    b5d4:	00058993          	mv	s3,a1
    b5d8:	02078463          	beqz	a5,b600 <__pow5mult+0x54>
    b5dc:	fff78793          	addi	a5,a5,-1
    b5e0:	0000e737          	lui	a4,0xe
    b5e4:	8fc70713          	addi	a4,a4,-1796 # d8fc <p05.0>
    b5e8:	00279793          	slli	a5,a5,0x2
    b5ec:	00f707b3          	add	a5,a4,a5
    b5f0:	0007a603          	lw	a2,0(a5)
    b5f4:	00000693          	li	a3,0
    b5f8:	b15ff0ef          	jal	ra,b10c <__multadd>
    b5fc:	00050993          	mv	s3,a0
    b600:	4024d493          	srai	s1,s1,0x2
    b604:	0c048463          	beqz	s1,b6cc <__pow5mult+0x120>
    b608:	02492783          	lw	a5,36(s2)
    b60c:	04079063          	bnez	a5,b64c <__pow5mult+0xa0>
    b610:	01000513          	li	a0,16
    b614:	f45fc0ef          	jal	ra,8558 <malloc>
    b618:	02a92223          	sw	a0,36(s2)
    b61c:	02051063          	bnez	a0,b63c <__pow5mult+0x90>
    b620:	0000d6b7          	lui	a3,0xd
    b624:	0000e537          	lui	a0,0xe
    b628:	7a868693          	addi	a3,a3,1960 # d7a8 <_ctype_+0x1a4>
    b62c:	00000613          	li	a2,0
    b630:	1ae00593          	li	a1,430
    b634:	89850513          	addi	a0,a0,-1896 # d898 <__sf_fake_stdout+0x20>
    b638:	749000ef          	jal	ra,c580 <__assert_func>
    b63c:	00052223          	sw	zero,4(a0)
    b640:	00052423          	sw	zero,8(a0)
    b644:	00052023          	sw	zero,0(a0)
    b648:	00052623          	sw	zero,12(a0)
    b64c:	02492a03          	lw	s4,36(s2)
    b650:	008a2403          	lw	s0,8(s4)
    b654:	00041e63          	bnez	s0,b670 <__pow5mult+0xc4>
    b658:	27100593          	li	a1,625
    b65c:	00090513          	mv	a0,s2
    b660:	cf1ff0ef          	jal	ra,b350 <__i2b>
    b664:	00aa2423          	sw	a0,8(s4)
    b668:	00050413          	mv	s0,a0
    b66c:	00052023          	sw	zero,0(a0)
    b670:	0014f793          	andi	a5,s1,1
    b674:	02078463          	beqz	a5,b69c <__pow5mult+0xf0>
    b678:	00098593          	mv	a1,s3
    b67c:	00040613          	mv	a2,s0
    b680:	00090513          	mv	a0,s2
    b684:	d21ff0ef          	jal	ra,b3a4 <__multiply>
    b688:	00050a13          	mv	s4,a0
    b68c:	00098593          	mv	a1,s3
    b690:	00090513          	mv	a0,s2
    b694:	9e5ff0ef          	jal	ra,b078 <_Bfree>
    b698:	000a0993          	mv	s3,s4
    b69c:	4014d493          	srai	s1,s1,0x1
    b6a0:	02048663          	beqz	s1,b6cc <__pow5mult+0x120>
    b6a4:	00042503          	lw	a0,0(s0)
    b6a8:	00051e63          	bnez	a0,b6c4 <__pow5mult+0x118>
    b6ac:	00040613          	mv	a2,s0
    b6b0:	00040593          	mv	a1,s0
    b6b4:	00090513          	mv	a0,s2
    b6b8:	cedff0ef          	jal	ra,b3a4 <__multiply>
    b6bc:	00a42023          	sw	a0,0(s0)
    b6c0:	00052023          	sw	zero,0(a0)
    b6c4:	00050413          	mv	s0,a0
    b6c8:	fa9ff06f          	j	b670 <__pow5mult+0xc4>
    b6cc:	01c12083          	lw	ra,28(sp)
    b6d0:	01812403          	lw	s0,24(sp)
    b6d4:	01412483          	lw	s1,20(sp)
    b6d8:	01012903          	lw	s2,16(sp)
    b6dc:	00812a03          	lw	s4,8(sp)
    b6e0:	00098513          	mv	a0,s3
    b6e4:	00c12983          	lw	s3,12(sp)
    b6e8:	02010113          	addi	sp,sp,32
    b6ec:	00008067          	ret

0000b6f0 <__lshift>:
    b6f0:	fe010113          	addi	sp,sp,-32
    b6f4:	00812c23          	sw	s0,24(sp)
    b6f8:	00058413          	mv	s0,a1
    b6fc:	01612023          	sw	s6,0(sp)
    b700:	01042b03          	lw	s6,16(s0)
    b704:	00912a23          	sw	s1,20(sp)
    b708:	0045a583          	lw	a1,4(a1)
    b70c:	40565493          	srai	s1,a2,0x5
    b710:	00842783          	lw	a5,8(s0)
    b714:	01648b33          	add	s6,s1,s6
    b718:	01212823          	sw	s2,16(sp)
    b71c:	01412423          	sw	s4,8(sp)
    b720:	01512223          	sw	s5,4(sp)
    b724:	00112e23          	sw	ra,28(sp)
    b728:	01312623          	sw	s3,12(sp)
    b72c:	00050a93          	mv	s5,a0
    b730:	00060913          	mv	s2,a2
    b734:	001b0a13          	addi	s4,s6,1
    b738:	0347c863          	blt	a5,s4,b768 <__lshift+0x78>
    b73c:	000a8513          	mv	a0,s5
    b740:	839ff0ef          	jal	ra,af78 <_Balloc>
    b744:	00050993          	mv	s3,a0
    b748:	02051663          	bnez	a0,b774 <__lshift+0x84>
    b74c:	0000e6b7          	lui	a3,0xe
    b750:	0000e537          	lui	a0,0xe
    b754:	82468693          	addi	a3,a3,-2012 # d824 <_ctype_+0x220>
    b758:	00000613          	li	a2,0
    b75c:	1d900593          	li	a1,473
    b760:	89850513          	addi	a0,a0,-1896 # d898 <__sf_fake_stdout+0x20>
    b764:	61d000ef          	jal	ra,c580 <__assert_func>
    b768:	00158593          	addi	a1,a1,1
    b76c:	00179793          	slli	a5,a5,0x1
    b770:	fc9ff06f          	j	b738 <__lshift+0x48>
    b774:	01450793          	addi	a5,a0,20
    b778:	00078693          	mv	a3,a5
    b77c:	00000713          	li	a4,0
    b780:	00468693          	addi	a3,a3,4
    b784:	0c974663          	blt	a4,s1,b850 <__lshift+0x160>
    b788:	0004d463          	bgez	s1,b790 <__lshift+0xa0>
    b78c:	00000493          	li	s1,0
    b790:	00249493          	slli	s1,s1,0x2
    b794:	009786b3          	add	a3,a5,s1
    b798:	01042783          	lw	a5,16(s0)
    b79c:	01440713          	addi	a4,s0,20
    b7a0:	01f97613          	andi	a2,s2,31
    b7a4:	00279793          	slli	a5,a5,0x2
    b7a8:	00f707b3          	add	a5,a4,a5
    b7ac:	0a060863          	beqz	a2,b85c <__lshift+0x16c>
    b7b0:	02000813          	li	a6,32
    b7b4:	40c80833          	sub	a6,a6,a2
    b7b8:	00068893          	mv	a7,a3
    b7bc:	00000593          	li	a1,0
    b7c0:	00072503          	lw	a0,0(a4)
    b7c4:	00488893          	addi	a7,a7,4 # fcc00004 <CONFIG_SYSTEM_WORKQUEUE_PRIORITY+0xfcc00005>
    b7c8:	00470713          	addi	a4,a4,4
    b7cc:	00c51533          	sll	a0,a0,a2
    b7d0:	00b565b3          	or	a1,a0,a1
    b7d4:	feb8ae23          	sw	a1,-4(a7)
    b7d8:	ffc72583          	lw	a1,-4(a4)
    b7dc:	0105d5b3          	srl	a1,a1,a6
    b7e0:	fef760e3          	bltu	a4,a5,b7c0 <__lshift+0xd0>
    b7e4:	01540713          	addi	a4,s0,21
    b7e8:	00400613          	li	a2,4
    b7ec:	00e7ea63          	bltu	a5,a4,b800 <__lshift+0x110>
    b7f0:	408787b3          	sub	a5,a5,s0
    b7f4:	feb78793          	addi	a5,a5,-21
    b7f8:	ffc7f793          	andi	a5,a5,-4
    b7fc:	00478613          	addi	a2,a5,4
    b800:	00c686b3          	add	a3,a3,a2
    b804:	00b6a023          	sw	a1,0(a3)
    b808:	00058463          	beqz	a1,b810 <__lshift+0x120>
    b80c:	002b0a13          	addi	s4,s6,2
    b810:	fffa0a13          	addi	s4,s4,-1
    b814:	0149a823          	sw	s4,16(s3)
    b818:	000a8513          	mv	a0,s5
    b81c:	00040593          	mv	a1,s0
    b820:	859ff0ef          	jal	ra,b078 <_Bfree>
    b824:	01c12083          	lw	ra,28(sp)
    b828:	01812403          	lw	s0,24(sp)
    b82c:	01412483          	lw	s1,20(sp)
    b830:	01012903          	lw	s2,16(sp)
    b834:	00812a03          	lw	s4,8(sp)
    b838:	00412a83          	lw	s5,4(sp)
    b83c:	00012b03          	lw	s6,0(sp)
    b840:	00098513          	mv	a0,s3
    b844:	00c12983          	lw	s3,12(sp)
    b848:	02010113          	addi	sp,sp,32
    b84c:	00008067          	ret
    b850:	fe06ae23          	sw	zero,-4(a3)
    b854:	00170713          	addi	a4,a4,1
    b858:	f29ff06f          	j	b780 <__lshift+0x90>
    b85c:	00072603          	lw	a2,0(a4)
    b860:	00470713          	addi	a4,a4,4
    b864:	00468693          	addi	a3,a3,4
    b868:	fec6ae23          	sw	a2,-4(a3)
    b86c:	fef768e3          	bltu	a4,a5,b85c <__lshift+0x16c>
    b870:	fa1ff06f          	j	b810 <__lshift+0x120>

0000b874 <__mcmp>:
    b874:	01052683          	lw	a3,16(a0)
    b878:	0105a703          	lw	a4,16(a1)
    b87c:	00050793          	mv	a5,a0
    b880:	40e68533          	sub	a0,a3,a4
    b884:	04e69063          	bne	a3,a4,b8c4 <__mcmp+0x50>
    b888:	00271713          	slli	a4,a4,0x2
    b88c:	01478793          	addi	a5,a5,20
    b890:	01458593          	addi	a1,a1,20
    b894:	00e786b3          	add	a3,a5,a4
    b898:	00e585b3          	add	a1,a1,a4
    b89c:	ffc6a603          	lw	a2,-4(a3)
    b8a0:	ffc5a703          	lw	a4,-4(a1)
    b8a4:	ffc68693          	addi	a3,a3,-4
    b8a8:	ffc58593          	addi	a1,a1,-4
    b8ac:	00e60a63          	beq	a2,a4,b8c0 <__mcmp+0x4c>
    b8b0:	fff00513          	li	a0,-1
    b8b4:	00e66863          	bltu	a2,a4,b8c4 <__mcmp+0x50>
    b8b8:	00100513          	li	a0,1
    b8bc:	00008067          	ret
    b8c0:	fcd7eee3          	bltu	a5,a3,b89c <__mcmp+0x28>
    b8c4:	00008067          	ret

0000b8c8 <__mdiff>:
    b8c8:	fe010113          	addi	sp,sp,-32
    b8cc:	00812c23          	sw	s0,24(sp)
    b8d0:	00058413          	mv	s0,a1
    b8d4:	01212823          	sw	s2,16(sp)
    b8d8:	00060593          	mv	a1,a2
    b8dc:	00050913          	mv	s2,a0
    b8e0:	00040513          	mv	a0,s0
    b8e4:	00912a23          	sw	s1,20(sp)
    b8e8:	00112e23          	sw	ra,28(sp)
    b8ec:	01312623          	sw	s3,12(sp)
    b8f0:	00060493          	mv	s1,a2
    b8f4:	f81ff0ef          	jal	ra,b874 <__mcmp>
    b8f8:	04051c63          	bnez	a0,b950 <__mdiff+0x88>
    b8fc:	00000593          	li	a1,0
    b900:	00090513          	mv	a0,s2
    b904:	e74ff0ef          	jal	ra,af78 <_Balloc>
    b908:	02051063          	bnez	a0,b928 <__mdiff+0x60>
    b90c:	0000e6b7          	lui	a3,0xe
    b910:	82468693          	addi	a3,a3,-2012 # d824 <_ctype_+0x220>
    b914:	00000613          	li	a2,0
    b918:	23200593          	li	a1,562
    b91c:	0000e537          	lui	a0,0xe
    b920:	89850513          	addi	a0,a0,-1896 # d898 <__sf_fake_stdout+0x20>
    b924:	45d000ef          	jal	ra,c580 <__assert_func>
    b928:	00100793          	li	a5,1
    b92c:	00f52823          	sw	a5,16(a0)
    b930:	00052a23          	sw	zero,20(a0)
    b934:	01c12083          	lw	ra,28(sp)
    b938:	01812403          	lw	s0,24(sp)
    b93c:	01412483          	lw	s1,20(sp)
    b940:	01012903          	lw	s2,16(sp)
    b944:	00c12983          	lw	s3,12(sp)
    b948:	02010113          	addi	sp,sp,32
    b94c:	00008067          	ret
    b950:	00100993          	li	s3,1
    b954:	00054a63          	bltz	a0,b968 <__mdiff+0xa0>
    b958:	00048793          	mv	a5,s1
    b95c:	00000993          	li	s3,0
    b960:	00040493          	mv	s1,s0
    b964:	00078413          	mv	s0,a5
    b968:	0044a583          	lw	a1,4(s1)
    b96c:	00090513          	mv	a0,s2
    b970:	e08ff0ef          	jal	ra,af78 <_Balloc>
    b974:	00051c63          	bnez	a0,b98c <__mdiff+0xc4>
    b978:	0000e6b7          	lui	a3,0xe
    b97c:	82468693          	addi	a3,a3,-2012 # d824 <_ctype_+0x220>
    b980:	00000613          	li	a2,0
    b984:	24000593          	li	a1,576
    b988:	f95ff06f          	j	b91c <__mdiff+0x54>
    b98c:	0104a803          	lw	a6,16(s1)
    b990:	01042703          	lw	a4,16(s0)
    b994:	01448893          	addi	a7,s1,20
    b998:	00281693          	slli	a3,a6,0x2
    b99c:	01440793          	addi	a5,s0,20
    b9a0:	00271713          	slli	a4,a4,0x2
    b9a4:	00010eb7          	lui	t4,0x10
    b9a8:	01352623          	sw	s3,12(a0)
    b9ac:	00d886b3          	add	a3,a7,a3
    b9b0:	00e787b3          	add	a5,a5,a4
    b9b4:	01450613          	addi	a2,a0,20
    b9b8:	01400e13          	li	t3,20
    b9bc:	00000313          	li	t1,0
    b9c0:	fffe8e93          	addi	t4,t4,-1 # ffff <kheap__system_heap+0xd6f>
    b9c4:	01c48733          	add	a4,s1,t3
    b9c8:	00072703          	lw	a4,0(a4)
    b9cc:	01c405b3          	add	a1,s0,t3
    b9d0:	0005af03          	lw	t5,0(a1)
    b9d4:	01d775b3          	and	a1,a4,t4
    b9d8:	006585b3          	add	a1,a1,t1
    b9dc:	01df7333          	and	t1,t5,t4
    b9e0:	406585b3          	sub	a1,a1,t1
    b9e4:	010f5f13          	srli	t5,t5,0x10
    b9e8:	01075713          	srli	a4,a4,0x10
    b9ec:	4105d313          	srai	t1,a1,0x10
    b9f0:	41e70733          	sub	a4,a4,t5
    b9f4:	00670733          	add	a4,a4,t1
    b9f8:	41075313          	srai	t1,a4,0x10
    b9fc:	01d5f5b3          	and	a1,a1,t4
    ba00:	01071713          	slli	a4,a4,0x10
    ba04:	01c50f33          	add	t5,a0,t3
    ba08:	00b76733          	or	a4,a4,a1
    ba0c:	004e0e13          	addi	t3,t3,4
    ba10:	00ef2023          	sw	a4,0(t5)
    ba14:	008e0733          	add	a4,t3,s0
    ba18:	faf766e3          	bltu	a4,a5,b9c4 <__mdiff+0xfc>
    ba1c:	01540593          	addi	a1,s0,21
    ba20:	00400713          	li	a4,4
    ba24:	00b7ea63          	bltu	a5,a1,ba38 <__mdiff+0x170>
    ba28:	408787b3          	sub	a5,a5,s0
    ba2c:	feb78793          	addi	a5,a5,-21
    ba30:	ffc7f793          	andi	a5,a5,-4
    ba34:	00478713          	addi	a4,a5,4
    ba38:	00e888b3          	add	a7,a7,a4
    ba3c:	00010e37          	lui	t3,0x10
    ba40:	00e60733          	add	a4,a2,a4
    ba44:	00070e93          	mv	t4,a4
    ba48:	00088593          	mv	a1,a7
    ba4c:	fffe0e13          	addi	t3,t3,-1 # ffff <kheap__system_heap+0xd6f>
    ba50:	02d5ea63          	bltu	a1,a3,ba84 <__mdiff+0x1bc>
    ba54:	ffd88613          	addi	a2,a7,-3
    ba58:	00000793          	li	a5,0
    ba5c:	00c6e863          	bltu	a3,a2,ba6c <__mdiff+0x1a4>
    ba60:	00368693          	addi	a3,a3,3
    ba64:	411687b3          	sub	a5,a3,a7
    ba68:	ffc7f793          	andi	a5,a5,-4
    ba6c:	00f707b3          	add	a5,a4,a5
    ba70:	ffc7a703          	lw	a4,-4(a5)
    ba74:	ffc78793          	addi	a5,a5,-4
    ba78:	04070263          	beqz	a4,babc <__mdiff+0x1f4>
    ba7c:	01052823          	sw	a6,16(a0)
    ba80:	eb5ff06f          	j	b934 <__mdiff+0x6c>
    ba84:	0005a783          	lw	a5,0(a1)
    ba88:	004e8e93          	addi	t4,t4,4
    ba8c:	00458593          	addi	a1,a1,4
    ba90:	01c7f633          	and	a2,a5,t3
    ba94:	00660633          	add	a2,a2,t1
    ba98:	41065313          	srai	t1,a2,0x10
    ba9c:	0107d793          	srli	a5,a5,0x10
    baa0:	006787b3          	add	a5,a5,t1
    baa4:	4107d313          	srai	t1,a5,0x10
    baa8:	01c67633          	and	a2,a2,t3
    baac:	01079793          	slli	a5,a5,0x10
    bab0:	00c7e7b3          	or	a5,a5,a2
    bab4:	fefeae23          	sw	a5,-4(t4)
    bab8:	f99ff06f          	j	ba50 <__mdiff+0x188>
    babc:	fff80813          	addi	a6,a6,-1
    bac0:	fb1ff06f          	j	ba70 <__mdiff+0x1a8>

0000bac4 <__d2b>:
    bac4:	fd010113          	addi	sp,sp,-48
    bac8:	02912223          	sw	s1,36(sp)
    bacc:	00058493          	mv	s1,a1
    bad0:	00100593          	li	a1,1
    bad4:	02812423          	sw	s0,40(sp)
    bad8:	03212023          	sw	s2,32(sp)
    badc:	01312e23          	sw	s3,28(sp)
    bae0:	02112623          	sw	ra,44(sp)
    bae4:	01412c23          	sw	s4,24(sp)
    bae8:	00060413          	mv	s0,a2
    baec:	00068993          	mv	s3,a3
    baf0:	00070913          	mv	s2,a4
    baf4:	c84ff0ef          	jal	ra,af78 <_Balloc>
    baf8:	02051063          	bnez	a0,bb18 <__d2b+0x54>
    bafc:	0000e6b7          	lui	a3,0xe
    bb00:	0000e537          	lui	a0,0xe
    bb04:	82468693          	addi	a3,a3,-2012 # d824 <_ctype_+0x220>
    bb08:	00000613          	li	a2,0
    bb0c:	30a00593          	li	a1,778
    bb10:	89850513          	addi	a0,a0,-1896 # d898 <__sf_fake_stdout+0x20>
    bb14:	26d000ef          	jal	ra,c580 <__assert_func>
    bb18:	00100737          	lui	a4,0x100
    bb1c:	fff70793          	addi	a5,a4,-1 # fffff <__data_region_end+0xd090b>
    bb20:	0087f7b3          	and	a5,a5,s0
    bb24:	01445413          	srli	s0,s0,0x14
    bb28:	7ff47413          	andi	s0,s0,2047
    bb2c:	00050a13          	mv	s4,a0
    bb30:	08041a63          	bnez	s0,bbc4 <__d2b+0x100>
    bb34:	00f12623          	sw	a5,12(sp)
    bb38:	08048e63          	beqz	s1,bbd4 <__d2b+0x110>
    bb3c:	00810513          	addi	a0,sp,8
    bb40:	00912423          	sw	s1,8(sp)
    bb44:	f5cff0ef          	jal	ra,b2a0 <__lo0bits>
    bb48:	00812683          	lw	a3,8(sp)
    bb4c:	08050063          	beqz	a0,bbcc <__d2b+0x108>
    bb50:	00c12703          	lw	a4,12(sp)
    bb54:	02000793          	li	a5,32
    bb58:	40a787b3          	sub	a5,a5,a0
    bb5c:	00f717b3          	sll	a5,a4,a5
    bb60:	00d7e7b3          	or	a5,a5,a3
    bb64:	00a75733          	srl	a4,a4,a0
    bb68:	00fa2a23          	sw	a5,20(s4)
    bb6c:	00e12623          	sw	a4,12(sp)
    bb70:	00c12483          	lw	s1,12(sp)
    bb74:	009a2c23          	sw	s1,24(s4)
    bb78:	009034b3          	snez	s1,s1
    bb7c:	00148493          	addi	s1,s1,1
    bb80:	009a2823          	sw	s1,16(s4)
    bb84:	06040a63          	beqz	s0,bbf8 <__d2b+0x134>
    bb88:	bcd40413          	addi	s0,s0,-1075
    bb8c:	00a40433          	add	s0,s0,a0
    bb90:	03500793          	li	a5,53
    bb94:	0089a023          	sw	s0,0(s3)
    bb98:	40a78533          	sub	a0,a5,a0
    bb9c:	00a92023          	sw	a0,0(s2)
    bba0:	02c12083          	lw	ra,44(sp)
    bba4:	02812403          	lw	s0,40(sp)
    bba8:	02412483          	lw	s1,36(sp)
    bbac:	02012903          	lw	s2,32(sp)
    bbb0:	01c12983          	lw	s3,28(sp)
    bbb4:	000a0513          	mv	a0,s4
    bbb8:	01812a03          	lw	s4,24(sp)
    bbbc:	03010113          	addi	sp,sp,48
    bbc0:	00008067          	ret
    bbc4:	00e7e7b3          	or	a5,a5,a4
    bbc8:	f6dff06f          	j	bb34 <__d2b+0x70>
    bbcc:	00da2a23          	sw	a3,20(s4)
    bbd0:	fa1ff06f          	j	bb70 <__d2b+0xac>
    bbd4:	00c10513          	addi	a0,sp,12
    bbd8:	ec8ff0ef          	jal	ra,b2a0 <__lo0bits>
    bbdc:	00c12783          	lw	a5,12(sp)
    bbe0:	02050513          	addi	a0,a0,32
    bbe4:	00100493          	li	s1,1
    bbe8:	00fa2a23          	sw	a5,20(s4)
    bbec:	00100793          	li	a5,1
    bbf0:	00fa2823          	sw	a5,16(s4)
    bbf4:	f91ff06f          	j	bb84 <__d2b+0xc0>
    bbf8:	bce50793          	addi	a5,a0,-1074
    bbfc:	00f9a023          	sw	a5,0(s3)
    bc00:	00249793          	slli	a5,s1,0x2
    bc04:	00fa07b3          	add	a5,s4,a5
    bc08:	0107a503          	lw	a0,16(a5)
    bc0c:	00549493          	slli	s1,s1,0x5
    bc10:	e1cff0ef          	jal	ra,b22c <__hi0bits>
    bc14:	40a484b3          	sub	s1,s1,a0
    bc18:	00992023          	sw	s1,0(s2)
    bc1c:	f85ff06f          	j	bba0 <__d2b+0xdc>

0000bc20 <_calloc_r>:
    bc20:	02c58633          	mul	a2,a1,a2
    bc24:	fe010113          	addi	sp,sp,-32
    bc28:	00812c23          	sw	s0,24(sp)
    bc2c:	00112e23          	sw	ra,28(sp)
    bc30:	00060593          	mv	a1,a2
    bc34:	00c12623          	sw	a2,12(sp)
    bc38:	a35fc0ef          	jal	ra,866c <_malloc_r>
    bc3c:	00050413          	mv	s0,a0
    bc40:	00050863          	beqz	a0,bc50 <_calloc_r+0x30>
    bc44:	00c12603          	lw	a2,12(sp)
    bc48:	00000593          	li	a1,0
    bc4c:	930f70ef          	jal	ra,2d7c <memset>
    bc50:	01c12083          	lw	ra,28(sp)
    bc54:	00040513          	mv	a0,s0
    bc58:	01812403          	lw	s0,24(sp)
    bc5c:	02010113          	addi	sp,sp,32
    bc60:	00008067          	ret

0000bc64 <__sfputc_r>:
    bc64:	00862783          	lw	a5,8(a2)
    bc68:	fff78793          	addi	a5,a5,-1
    bc6c:	00f62423          	sw	a5,8(a2)
    bc70:	0007dc63          	bgez	a5,bc88 <__sfputc_r+0x24>
    bc74:	01862703          	lw	a4,24(a2)
    bc78:	00e7c663          	blt	a5,a4,bc84 <__sfputc_r+0x20>
    bc7c:	00a00793          	li	a5,10
    bc80:	00f59463          	bne	a1,a5,bc88 <__sfputc_r+0x24>
    bc84:	5f80006f          	j	c27c <__swbuf_r>
    bc88:	00062783          	lw	a5,0(a2)
    bc8c:	00058513          	mv	a0,a1
    bc90:	00178713          	addi	a4,a5,1
    bc94:	00e62023          	sw	a4,0(a2)
    bc98:	00b78023          	sb	a1,0(a5)
    bc9c:	00008067          	ret

0000bca0 <__sfputs_r>:
    bca0:	fe010113          	addi	sp,sp,-32
    bca4:	00812c23          	sw	s0,24(sp)
    bca8:	00912a23          	sw	s1,20(sp)
    bcac:	01212823          	sw	s2,16(sp)
    bcb0:	01312623          	sw	s3,12(sp)
    bcb4:	01412423          	sw	s4,8(sp)
    bcb8:	00112e23          	sw	ra,28(sp)
    bcbc:	00050913          	mv	s2,a0
    bcc0:	00058993          	mv	s3,a1
    bcc4:	00060413          	mv	s0,a2
    bcc8:	00d604b3          	add	s1,a2,a3
    bccc:	fff00a13          	li	s4,-1
    bcd0:	00941663          	bne	s0,s1,bcdc <__sfputs_r+0x3c>
    bcd4:	00000513          	li	a0,0
    bcd8:	01c0006f          	j	bcf4 <__sfputs_r+0x54>
    bcdc:	00044583          	lbu	a1,0(s0)
    bce0:	00098613          	mv	a2,s3
    bce4:	00090513          	mv	a0,s2
    bce8:	f7dff0ef          	jal	ra,bc64 <__sfputc_r>
    bcec:	00140413          	addi	s0,s0,1
    bcf0:	ff4510e3          	bne	a0,s4,bcd0 <__sfputs_r+0x30>
    bcf4:	01c12083          	lw	ra,28(sp)
    bcf8:	01812403          	lw	s0,24(sp)
    bcfc:	01412483          	lw	s1,20(sp)
    bd00:	01012903          	lw	s2,16(sp)
    bd04:	00c12983          	lw	s3,12(sp)
    bd08:	00812a03          	lw	s4,8(sp)
    bd0c:	02010113          	addi	sp,sp,32
    bd10:	00008067          	ret

0000bd14 <_vfiprintf_r>:
    bd14:	f5010113          	addi	sp,sp,-176
    bd18:	0a812423          	sw	s0,168(sp)
    bd1c:	0a912223          	sw	s1,164(sp)
    bd20:	0b212023          	sw	s2,160(sp)
    bd24:	09312e23          	sw	s3,156(sp)
    bd28:	0a112623          	sw	ra,172(sp)
    bd2c:	09412c23          	sw	s4,152(sp)
    bd30:	09512a23          	sw	s5,148(sp)
    bd34:	09612823          	sw	s6,144(sp)
    bd38:	09712623          	sw	s7,140(sp)
    bd3c:	09812423          	sw	s8,136(sp)
    bd40:	09912223          	sw	s9,132(sp)
    bd44:	09a12023          	sw	s10,128(sp)
    bd48:	07b12e23          	sw	s11,124(sp)
    bd4c:	00050993          	mv	s3,a0
    bd50:	00058413          	mv	s0,a1
    bd54:	00060913          	mv	s2,a2
    bd58:	00068493          	mv	s1,a3
    bd5c:	00050863          	beqz	a0,bd6c <_vfiprintf_r+0x58>
    bd60:	01852783          	lw	a5,24(a0)
    bd64:	00079463          	bnez	a5,bd6c <_vfiprintf_r+0x58>
    bd68:	f61fe0ef          	jal	ra,acc8 <__sinit>
    bd6c:	0000e7b7          	lui	a5,0xe
    bd70:	85878793          	addi	a5,a5,-1960 # d858 <__sf_fake_stdin>
    bd74:	08f41c63          	bne	s0,a5,be0c <_vfiprintf_r+0xf8>
    bd78:	0049a403          	lw	s0,4(s3)
    bd7c:	06442783          	lw	a5,100(s0)
    bd80:	0017f793          	andi	a5,a5,1
    bd84:	00079c63          	bnez	a5,bd9c <_vfiprintf_r+0x88>
    bd88:	00c45783          	lhu	a5,12(s0)
    bd8c:	2007f793          	andi	a5,a5,512
    bd90:	00079663          	bnez	a5,bd9c <_vfiprintf_r+0x88>
    bd94:	05842503          	lw	a0,88(s0)
    bd98:	920fa0ef          	jal	ra,5eb8 <__retarget_lock_acquire_recursive>
    bd9c:	00c45783          	lhu	a5,12(s0)
    bda0:	0087f793          	andi	a5,a5,8
    bda4:	00078663          	beqz	a5,bdb0 <_vfiprintf_r+0x9c>
    bda8:	01042783          	lw	a5,16(s0)
    bdac:	0a079063          	bnez	a5,be4c <_vfiprintf_r+0x138>
    bdb0:	00040593          	mv	a1,s0
    bdb4:	00098513          	mv	a0,s3
    bdb8:	650000ef          	jal	ra,c408 <__swsetup_r>
    bdbc:	08050863          	beqz	a0,be4c <_vfiprintf_r+0x138>
    bdc0:	06442783          	lw	a5,100(s0)
    bdc4:	0017f793          	andi	a5,a5,1
    bdc8:	06078663          	beqz	a5,be34 <_vfiprintf_r+0x120>
    bdcc:	fff00513          	li	a0,-1
    bdd0:	0ac12083          	lw	ra,172(sp)
    bdd4:	0a812403          	lw	s0,168(sp)
    bdd8:	0a412483          	lw	s1,164(sp)
    bddc:	0a012903          	lw	s2,160(sp)
    bde0:	09c12983          	lw	s3,156(sp)
    bde4:	09812a03          	lw	s4,152(sp)
    bde8:	09412a83          	lw	s5,148(sp)
    bdec:	09012b03          	lw	s6,144(sp)
    bdf0:	08c12b83          	lw	s7,140(sp)
    bdf4:	08812c03          	lw	s8,136(sp)
    bdf8:	08412c83          	lw	s9,132(sp)
    bdfc:	08012d03          	lw	s10,128(sp)
    be00:	07c12d83          	lw	s11,124(sp)
    be04:	0b010113          	addi	sp,sp,176
    be08:	00008067          	ret
    be0c:	0000e7b7          	lui	a5,0xe
    be10:	87878793          	addi	a5,a5,-1928 # d878 <__sf_fake_stdout>
    be14:	00f41663          	bne	s0,a5,be20 <_vfiprintf_r+0x10c>
    be18:	0089a403          	lw	s0,8(s3)
    be1c:	f61ff06f          	j	bd7c <_vfiprintf_r+0x68>
    be20:	0000e7b7          	lui	a5,0xe
    be24:	83878793          	addi	a5,a5,-1992 # d838 <__sf_fake_stderr>
    be28:	f4f41ae3          	bne	s0,a5,bd7c <_vfiprintf_r+0x68>
    be2c:	00c9a403          	lw	s0,12(s3)
    be30:	f4dff06f          	j	bd7c <_vfiprintf_r+0x68>
    be34:	00c45783          	lhu	a5,12(s0)
    be38:	2007f793          	andi	a5,a5,512
    be3c:	f80798e3          	bnez	a5,bdcc <_vfiprintf_r+0xb8>
    be40:	05842503          	lw	a0,88(s0)
    be44:	880fa0ef          	jal	ra,5ec4 <__retarget_lock_release_recursive>
    be48:	f85ff06f          	j	bdcc <_vfiprintf_r+0xb8>
    be4c:	02000793          	li	a5,32
    be50:	02f104a3          	sb	a5,41(sp)
    be54:	00009ab7          	lui	s5,0x9
    be58:	03000793          	li	a5,48
    be5c:	02012223          	sw	zero,36(sp)
    be60:	02f10523          	sb	a5,42(sp)
    be64:	00912623          	sw	s1,12(sp)
    be68:	02500c93          	li	s9,37
    be6c:	0000eb37          	lui	s6,0xe
    be70:	0000ebb7          	lui	s7,0xe
    be74:	0000ed37          	lui	s10,0xe
    be78:	0000cc37          	lui	s8,0xc
    be7c:	9dca8a93          	addi	s5,s5,-1572 # 89dc <_printf_float>
    be80:	00090493          	mv	s1,s2
    be84:	0004c783          	lbu	a5,0(s1)
    be88:	00078463          	beqz	a5,be90 <_vfiprintf_r+0x17c>
    be8c:	0d979c63          	bne	a5,s9,bf64 <_vfiprintf_r+0x250>
    be90:	41248db3          	sub	s11,s1,s2
    be94:	03248663          	beq	s1,s2,bec0 <_vfiprintf_r+0x1ac>
    be98:	000d8693          	mv	a3,s11
    be9c:	00090613          	mv	a2,s2
    bea0:	00040593          	mv	a1,s0
    bea4:	00098513          	mv	a0,s3
    bea8:	df9ff0ef          	jal	ra,bca0 <__sfputs_r>
    beac:	fff00793          	li	a5,-1
    beb0:	24f50463          	beq	a0,a5,c0f8 <_vfiprintf_r+0x3e4>
    beb4:	02412783          	lw	a5,36(sp)
    beb8:	01b787b3          	add	a5,a5,s11
    bebc:	02f12223          	sw	a5,36(sp)
    bec0:	0004c783          	lbu	a5,0(s1)
    bec4:	22078a63          	beqz	a5,c0f8 <_vfiprintf_r+0x3e4>
    bec8:	fff00793          	li	a5,-1
    becc:	00148913          	addi	s2,s1,1
    bed0:	00012823          	sw	zero,16(sp)
    bed4:	00012e23          	sw	zero,28(sp)
    bed8:	00f12a23          	sw	a5,20(sp)
    bedc:	00012c23          	sw	zero,24(sp)
    bee0:	040109a3          	sb	zero,83(sp)
    bee4:	06012423          	sw	zero,104(sp)
    bee8:	00100d93          	li	s11,1
    beec:	00094583          	lbu	a1,0(s2)
    bef0:	00500613          	li	a2,5
    bef4:	908b0513          	addi	a0,s6,-1784 # d908 <p05.0+0xc>
    bef8:	844ff0ef          	jal	ra,af3c <memchr>
    befc:	01012783          	lw	a5,16(sp)
    bf00:	00190493          	addi	s1,s2,1
    bf04:	06051463          	bnez	a0,bf6c <_vfiprintf_r+0x258>
    bf08:	0107f713          	andi	a4,a5,16
    bf0c:	00070663          	beqz	a4,bf18 <_vfiprintf_r+0x204>
    bf10:	02000713          	li	a4,32
    bf14:	04e109a3          	sb	a4,83(sp)
    bf18:	0087f713          	andi	a4,a5,8
    bf1c:	00070663          	beqz	a4,bf28 <_vfiprintf_r+0x214>
    bf20:	02b00713          	li	a4,43
    bf24:	04e109a3          	sb	a4,83(sp)
    bf28:	00094683          	lbu	a3,0(s2)
    bf2c:	02a00713          	li	a4,42
    bf30:	04e68c63          	beq	a3,a4,bf88 <_vfiprintf_r+0x274>
    bf34:	01c12783          	lw	a5,28(sp)
    bf38:	00090493          	mv	s1,s2
    bf3c:	00000693          	li	a3,0
    bf40:	00900613          	li	a2,9
    bf44:	00a00513          	li	a0,10
    bf48:	0004c703          	lbu	a4,0(s1)
    bf4c:	00148593          	addi	a1,s1,1
    bf50:	fd070713          	addi	a4,a4,-48
    bf54:	08e67c63          	bgeu	a2,a4,bfec <_vfiprintf_r+0x2d8>
    bf58:	04068463          	beqz	a3,bfa0 <_vfiprintf_r+0x28c>
    bf5c:	00f12e23          	sw	a5,28(sp)
    bf60:	0400006f          	j	bfa0 <_vfiprintf_r+0x28c>
    bf64:	00148493          	addi	s1,s1,1
    bf68:	f1dff06f          	j	be84 <_vfiprintf_r+0x170>
    bf6c:	908b0713          	addi	a4,s6,-1784
    bf70:	40e50533          	sub	a0,a0,a4
    bf74:	00ad9533          	sll	a0,s11,a0
    bf78:	00a7e7b3          	or	a5,a5,a0
    bf7c:	00f12823          	sw	a5,16(sp)
    bf80:	00048913          	mv	s2,s1
    bf84:	f69ff06f          	j	beec <_vfiprintf_r+0x1d8>
    bf88:	00c12703          	lw	a4,12(sp)
    bf8c:	00470693          	addi	a3,a4,4
    bf90:	00072703          	lw	a4,0(a4)
    bf94:	00d12623          	sw	a3,12(sp)
    bf98:	04074063          	bltz	a4,bfd8 <_vfiprintf_r+0x2c4>
    bf9c:	00e12e23          	sw	a4,28(sp)
    bfa0:	0004c703          	lbu	a4,0(s1)
    bfa4:	02e00793          	li	a5,46
    bfa8:	08f71663          	bne	a4,a5,c034 <_vfiprintf_r+0x320>
    bfac:	0014c703          	lbu	a4,1(s1)
    bfb0:	02a00793          	li	a5,42
    bfb4:	04f71a63          	bne	a4,a5,c008 <_vfiprintf_r+0x2f4>
    bfb8:	00c12783          	lw	a5,12(sp)
    bfbc:	00248493          	addi	s1,s1,2
    bfc0:	00478713          	addi	a4,a5,4
    bfc4:	0007a783          	lw	a5,0(a5)
    bfc8:	00e12623          	sw	a4,12(sp)
    bfcc:	0207ca63          	bltz	a5,c000 <_vfiprintf_r+0x2ec>
    bfd0:	00f12a23          	sw	a5,20(sp)
    bfd4:	0600006f          	j	c034 <_vfiprintf_r+0x320>
    bfd8:	40e00733          	neg	a4,a4
    bfdc:	0027e793          	ori	a5,a5,2
    bfe0:	00e12e23          	sw	a4,28(sp)
    bfe4:	00f12823          	sw	a5,16(sp)
    bfe8:	fb9ff06f          	j	bfa0 <_vfiprintf_r+0x28c>
    bfec:	02a787b3          	mul	a5,a5,a0
    bff0:	00058493          	mv	s1,a1
    bff4:	00100693          	li	a3,1
    bff8:	00e787b3          	add	a5,a5,a4
    bffc:	f4dff06f          	j	bf48 <_vfiprintf_r+0x234>
    c000:	fff00793          	li	a5,-1
    c004:	fcdff06f          	j	bfd0 <_vfiprintf_r+0x2bc>
    c008:	00148493          	addi	s1,s1,1
    c00c:	00012a23          	sw	zero,20(sp)
    c010:	00000693          	li	a3,0
    c014:	00000793          	li	a5,0
    c018:	00900613          	li	a2,9
    c01c:	00a00513          	li	a0,10
    c020:	0004c703          	lbu	a4,0(s1)
    c024:	00148593          	addi	a1,s1,1
    c028:	fd070713          	addi	a4,a4,-48
    c02c:	08e67263          	bgeu	a2,a4,c0b0 <_vfiprintf_r+0x39c>
    c030:	fa0690e3          	bnez	a3,bfd0 <_vfiprintf_r+0x2bc>
    c034:	0004c583          	lbu	a1,0(s1)
    c038:	00300613          	li	a2,3
    c03c:	910b8513          	addi	a0,s7,-1776 # d910 <p05.0+0x14>
    c040:	efdfe0ef          	jal	ra,af3c <memchr>
    c044:	02050263          	beqz	a0,c068 <_vfiprintf_r+0x354>
    c048:	910b8793          	addi	a5,s7,-1776
    c04c:	40f50533          	sub	a0,a0,a5
    c050:	04000793          	li	a5,64
    c054:	00a797b3          	sll	a5,a5,a0
    c058:	01012503          	lw	a0,16(sp)
    c05c:	00148493          	addi	s1,s1,1
    c060:	00f56533          	or	a0,a0,a5
    c064:	00a12823          	sw	a0,16(sp)
    c068:	0004c583          	lbu	a1,0(s1)
    c06c:	00600613          	li	a2,6
    c070:	914d0513          	addi	a0,s10,-1772 # d914 <p05.0+0x18>
    c074:	00148913          	addi	s2,s1,1
    c078:	02b10423          	sb	a1,40(sp)
    c07c:	ec1fe0ef          	jal	ra,af3c <memchr>
    c080:	0a050663          	beqz	a0,c12c <_vfiprintf_r+0x418>
    c084:	040a9863          	bnez	s5,c0d4 <_vfiprintf_r+0x3c0>
    c088:	01012703          	lw	a4,16(sp)
    c08c:	00c12783          	lw	a5,12(sp)
    c090:	10077713          	andi	a4,a4,256
    c094:	02070863          	beqz	a4,c0c4 <_vfiprintf_r+0x3b0>
    c098:	00478793          	addi	a5,a5,4
    c09c:	00f12623          	sw	a5,12(sp)
    c0a0:	02412783          	lw	a5,36(sp)
    c0a4:	014787b3          	add	a5,a5,s4
    c0a8:	02f12223          	sw	a5,36(sp)
    c0ac:	dd5ff06f          	j	be80 <_vfiprintf_r+0x16c>
    c0b0:	02a787b3          	mul	a5,a5,a0
    c0b4:	00058493          	mv	s1,a1
    c0b8:	00100693          	li	a3,1
    c0bc:	00e787b3          	add	a5,a5,a4
    c0c0:	f61ff06f          	j	c020 <_vfiprintf_r+0x30c>
    c0c4:	00778793          	addi	a5,a5,7
    c0c8:	ff87f793          	andi	a5,a5,-8
    c0cc:	00878793          	addi	a5,a5,8
    c0d0:	fcdff06f          	j	c09c <_vfiprintf_r+0x388>
    c0d4:	00c10713          	addi	a4,sp,12
    c0d8:	ca0c0693          	addi	a3,s8,-864 # bca0 <__sfputs_r>
    c0dc:	00040613          	mv	a2,s0
    c0e0:	01010593          	addi	a1,sp,16
    c0e4:	00098513          	mv	a0,s3
    c0e8:	8f5fc0ef          	jal	ra,89dc <_printf_float>
    c0ec:	fff00793          	li	a5,-1
    c0f0:	00050a13          	mv	s4,a0
    c0f4:	faf516e3          	bne	a0,a5,c0a0 <_vfiprintf_r+0x38c>
    c0f8:	06442783          	lw	a5,100(s0)
    c0fc:	0017f793          	andi	a5,a5,1
    c100:	00079c63          	bnez	a5,c118 <_vfiprintf_r+0x404>
    c104:	00c45783          	lhu	a5,12(s0)
    c108:	2007f793          	andi	a5,a5,512
    c10c:	00079663          	bnez	a5,c118 <_vfiprintf_r+0x404>
    c110:	05842503          	lw	a0,88(s0)
    c114:	db1f90ef          	jal	ra,5ec4 <__retarget_lock_release_recursive>
    c118:	00c45783          	lhu	a5,12(s0)
    c11c:	0407f793          	andi	a5,a5,64
    c120:	ca0796e3          	bnez	a5,bdcc <_vfiprintf_r+0xb8>
    c124:	02412503          	lw	a0,36(sp)
    c128:	ca9ff06f          	j	bdd0 <_vfiprintf_r+0xbc>
    c12c:	00c10713          	addi	a4,sp,12
    c130:	ca0c0693          	addi	a3,s8,-864
    c134:	00040613          	mv	a2,s0
    c138:	01010593          	addi	a1,sp,16
    c13c:	00098513          	mv	a0,s3
    c140:	9e0fd0ef          	jal	ra,9320 <_printf_i>
    c144:	fa9ff06f          	j	c0ec <_vfiprintf_r+0x3d8>

0000c148 <__sread>:
    c148:	ff010113          	addi	sp,sp,-16
    c14c:	00812423          	sw	s0,8(sp)
    c150:	00058413          	mv	s0,a1
    c154:	00e59583          	lh	a1,14(a1)
    c158:	00112623          	sw	ra,12(sp)
    c15c:	20d000ef          	jal	ra,cb68 <_read_r>
    c160:	02054063          	bltz	a0,c180 <__sread+0x38>
    c164:	05442783          	lw	a5,84(s0)
    c168:	00a787b3          	add	a5,a5,a0
    c16c:	04f42a23          	sw	a5,84(s0)
    c170:	00c12083          	lw	ra,12(sp)
    c174:	00812403          	lw	s0,8(sp)
    c178:	01010113          	addi	sp,sp,16
    c17c:	00008067          	ret
    c180:	00c45783          	lhu	a5,12(s0)
    c184:	fffff737          	lui	a4,0xfffff
    c188:	fff70713          	addi	a4,a4,-1 # ffffefff <CONFIG_SYSTEM_WORKQUEUE_PRIORITY+0xfffff000>
    c18c:	00e7f7b3          	and	a5,a5,a4
    c190:	00f41623          	sh	a5,12(s0)
    c194:	fddff06f          	j	c170 <__sread+0x28>

0000c198 <__swrite>:
    c198:	00c5d783          	lhu	a5,12(a1)
    c19c:	fe010113          	addi	sp,sp,-32
    c1a0:	00812c23          	sw	s0,24(sp)
    c1a4:	00912a23          	sw	s1,20(sp)
    c1a8:	01212823          	sw	s2,16(sp)
    c1ac:	01312623          	sw	s3,12(sp)
    c1b0:	00112e23          	sw	ra,28(sp)
    c1b4:	1007f793          	andi	a5,a5,256
    c1b8:	00050493          	mv	s1,a0
    c1bc:	00058413          	mv	s0,a1
    c1c0:	00060913          	mv	s2,a2
    c1c4:	00068993          	mv	s3,a3
    c1c8:	00078a63          	beqz	a5,c1dc <__swrite+0x44>
    c1cc:	00e59583          	lh	a1,14(a1)
    c1d0:	00200693          	li	a3,2
    c1d4:	00000613          	li	a2,0
    c1d8:	760000ef          	jal	ra,c938 <_lseek_r>
    c1dc:	00c45783          	lhu	a5,12(s0)
    c1e0:	fffff737          	lui	a4,0xfffff
    c1e4:	fff70713          	addi	a4,a4,-1 # ffffefff <CONFIG_SYSTEM_WORKQUEUE_PRIORITY+0xfffff000>
    c1e8:	00e7f7b3          	and	a5,a5,a4
    c1ec:	00e41583          	lh	a1,14(s0)
    c1f0:	00f41623          	sh	a5,12(s0)
    c1f4:	01812403          	lw	s0,24(sp)
    c1f8:	01c12083          	lw	ra,28(sp)
    c1fc:	00098693          	mv	a3,s3
    c200:	00090613          	mv	a2,s2
    c204:	00c12983          	lw	s3,12(sp)
    c208:	01012903          	lw	s2,16(sp)
    c20c:	00048513          	mv	a0,s1
    c210:	01412483          	lw	s1,20(sp)
    c214:	02010113          	addi	sp,sp,32
    c218:	19c0006f          	j	c3b4 <_write_r>

0000c21c <__sseek>:
    c21c:	ff010113          	addi	sp,sp,-16
    c220:	00812423          	sw	s0,8(sp)
    c224:	00058413          	mv	s0,a1
    c228:	00e59583          	lh	a1,14(a1)
    c22c:	00112623          	sw	ra,12(sp)
    c230:	708000ef          	jal	ra,c938 <_lseek_r>
    c234:	fff00793          	li	a5,-1
    c238:	00c45703          	lhu	a4,12(s0)
    c23c:	02f51263          	bne	a0,a5,c260 <__sseek+0x44>
    c240:	fffff7b7          	lui	a5,0xfffff
    c244:	fff78793          	addi	a5,a5,-1 # ffffefff <CONFIG_SYSTEM_WORKQUEUE_PRIORITY+0xfffff000>
    c248:	00e7f7b3          	and	a5,a5,a4
    c24c:	00f41623          	sh	a5,12(s0)
    c250:	00c12083          	lw	ra,12(sp)
    c254:	00812403          	lw	s0,8(sp)
    c258:	01010113          	addi	sp,sp,16
    c25c:	00008067          	ret
    c260:	000017b7          	lui	a5,0x1
    c264:	00f767b3          	or	a5,a4,a5
    c268:	00f41623          	sh	a5,12(s0)
    c26c:	04a42a23          	sw	a0,84(s0)
    c270:	fe1ff06f          	j	c250 <__sseek+0x34>

0000c274 <__sclose>:
    c274:	00e59583          	lh	a1,14(a1)
    c278:	35c0006f          	j	c5d4 <_close_r>

0000c27c <__swbuf_r>:
    c27c:	fe010113          	addi	sp,sp,-32
    c280:	00812c23          	sw	s0,24(sp)
    c284:	00912a23          	sw	s1,20(sp)
    c288:	01212823          	sw	s2,16(sp)
    c28c:	00112e23          	sw	ra,28(sp)
    c290:	01312623          	sw	s3,12(sp)
    c294:	00050493          	mv	s1,a0
    c298:	00058913          	mv	s2,a1
    c29c:	00060413          	mv	s0,a2
    c2a0:	00050863          	beqz	a0,c2b0 <__swbuf_r+0x34>
    c2a4:	01852783          	lw	a5,24(a0)
    c2a8:	00079463          	bnez	a5,c2b0 <__swbuf_r+0x34>
    c2ac:	a1dfe0ef          	jal	ra,acc8 <__sinit>
    c2b0:	0000e7b7          	lui	a5,0xe
    c2b4:	85878793          	addi	a5,a5,-1960 # d858 <__sf_fake_stdin>
    c2b8:	0af41e63          	bne	s0,a5,c374 <__swbuf_r+0xf8>
    c2bc:	0044a403          	lw	s0,4(s1)
    c2c0:	01842783          	lw	a5,24(s0)
    c2c4:	00f42423          	sw	a5,8(s0)
    c2c8:	00c45783          	lhu	a5,12(s0)
    c2cc:	0087f793          	andi	a5,a5,8
    c2d0:	0c078663          	beqz	a5,c39c <__swbuf_r+0x120>
    c2d4:	01042783          	lw	a5,16(s0)
    c2d8:	0c078263          	beqz	a5,c39c <__swbuf_r+0x120>
    c2dc:	01042783          	lw	a5,16(s0)
    c2e0:	00042503          	lw	a0,0(s0)
    c2e4:	0ff97993          	andi	s3,s2,255
    c2e8:	0ff97913          	andi	s2,s2,255
    c2ec:	40f50533          	sub	a0,a0,a5
    c2f0:	01442783          	lw	a5,20(s0)
    c2f4:	00f54a63          	blt	a0,a5,c308 <__swbuf_r+0x8c>
    c2f8:	00040593          	mv	a1,s0
    c2fc:	00048513          	mv	a0,s1
    c300:	514000ef          	jal	ra,c814 <_fflush_r>
    c304:	0a051463          	bnez	a0,c3ac <__swbuf_r+0x130>
    c308:	00842783          	lw	a5,8(s0)
    c30c:	00150513          	addi	a0,a0,1
    c310:	fff78793          	addi	a5,a5,-1
    c314:	00f42423          	sw	a5,8(s0)
    c318:	00042783          	lw	a5,0(s0)
    c31c:	00178713          	addi	a4,a5,1
    c320:	00e42023          	sw	a4,0(s0)
    c324:	01378023          	sb	s3,0(a5)
    c328:	01442783          	lw	a5,20(s0)
    c32c:	00a78c63          	beq	a5,a0,c344 <__swbuf_r+0xc8>
    c330:	00c45783          	lhu	a5,12(s0)
    c334:	0017f793          	andi	a5,a5,1
    c338:	00078e63          	beqz	a5,c354 <__swbuf_r+0xd8>
    c33c:	00a00793          	li	a5,10
    c340:	00f91a63          	bne	s2,a5,c354 <__swbuf_r+0xd8>
    c344:	00040593          	mv	a1,s0
    c348:	00048513          	mv	a0,s1
    c34c:	4c8000ef          	jal	ra,c814 <_fflush_r>
    c350:	04051e63          	bnez	a0,c3ac <__swbuf_r+0x130>
    c354:	01c12083          	lw	ra,28(sp)
    c358:	01812403          	lw	s0,24(sp)
    c35c:	01412483          	lw	s1,20(sp)
    c360:	00c12983          	lw	s3,12(sp)
    c364:	00090513          	mv	a0,s2
    c368:	01012903          	lw	s2,16(sp)
    c36c:	02010113          	addi	sp,sp,32
    c370:	00008067          	ret
    c374:	0000e7b7          	lui	a5,0xe
    c378:	87878793          	addi	a5,a5,-1928 # d878 <__sf_fake_stdout>
    c37c:	00f41663          	bne	s0,a5,c388 <__swbuf_r+0x10c>
    c380:	0084a403          	lw	s0,8(s1)
    c384:	f3dff06f          	j	c2c0 <__swbuf_r+0x44>
    c388:	0000e7b7          	lui	a5,0xe
    c38c:	83878793          	addi	a5,a5,-1992 # d838 <__sf_fake_stderr>
    c390:	f2f418e3          	bne	s0,a5,c2c0 <__swbuf_r+0x44>
    c394:	00c4a403          	lw	s0,12(s1)
    c398:	f29ff06f          	j	c2c0 <__swbuf_r+0x44>
    c39c:	00040593          	mv	a1,s0
    c3a0:	00048513          	mv	a0,s1
    c3a4:	064000ef          	jal	ra,c408 <__swsetup_r>
    c3a8:	f2050ae3          	beqz	a0,c2dc <__swbuf_r+0x60>
    c3ac:	fff00913          	li	s2,-1
    c3b0:	fa5ff06f          	j	c354 <__swbuf_r+0xd8>

0000c3b4 <_write_r>:
    c3b4:	ff010113          	addi	sp,sp,-16
    c3b8:	00812423          	sw	s0,8(sp)
    c3bc:	00912223          	sw	s1,4(sp)
    c3c0:	00050413          	mv	s0,a0
    c3c4:	0000e4b7          	lui	s1,0xe
    c3c8:	00058513          	mv	a0,a1
    c3cc:	00060593          	mv	a1,a2
    c3d0:	00068613          	mv	a2,a3
    c3d4:	00112623          	sw	ra,12(sp)
    c3d8:	9c04a023          	sw	zero,-1600(s1) # d9c0 <errno>
    c3dc:	a19f90ef          	jal	ra,5df4 <_write>
    c3e0:	fff00793          	li	a5,-1
    c3e4:	00f51863          	bne	a0,a5,c3f4 <_write_r+0x40>
    c3e8:	9c04a783          	lw	a5,-1600(s1)
    c3ec:	00078463          	beqz	a5,c3f4 <_write_r+0x40>
    c3f0:	00f42023          	sw	a5,0(s0)
    c3f4:	00c12083          	lw	ra,12(sp)
    c3f8:	00812403          	lw	s0,8(sp)
    c3fc:	00412483          	lw	s1,4(sp)
    c400:	01010113          	addi	sp,sp,16
    c404:	00008067          	ret

0000c408 <__swsetup_r>:
    c408:	ff010113          	addi	sp,sp,-16
    c40c:	0002f7b7          	lui	a5,0x2f
    c410:	00912223          	sw	s1,4(sp)
    c414:	4807a483          	lw	s1,1152(a5) # 2f480 <_impure_ptr>
    c418:	00812423          	sw	s0,8(sp)
    c41c:	01212023          	sw	s2,0(sp)
    c420:	00112623          	sw	ra,12(sp)
    c424:	00050913          	mv	s2,a0
    c428:	00058413          	mv	s0,a1
    c42c:	00048a63          	beqz	s1,c440 <__swsetup_r+0x38>
    c430:	0184a783          	lw	a5,24(s1)
    c434:	00079663          	bnez	a5,c440 <__swsetup_r+0x38>
    c438:	00048513          	mv	a0,s1
    c43c:	88dfe0ef          	jal	ra,acc8 <__sinit>
    c440:	0000e7b7          	lui	a5,0xe
    c444:	85878793          	addi	a5,a5,-1960 # d858 <__sf_fake_stdin>
    c448:	02f41e63          	bne	s0,a5,c484 <__swsetup_r+0x7c>
    c44c:	0044a403          	lw	s0,4(s1)
    c450:	00c41783          	lh	a5,12(s0)
    c454:	01079713          	slli	a4,a5,0x10
    c458:	0087f693          	andi	a3,a5,8
    c45c:	01075713          	srli	a4,a4,0x10
    c460:	08069a63          	bnez	a3,c4f4 <__swsetup_r+0xec>
    c464:	01077693          	andi	a3,a4,16
    c468:	04069263          	bnez	a3,c4ac <__swsetup_r+0xa4>
    c46c:	00900713          	li	a4,9
    c470:	00e92023          	sw	a4,0(s2)
    c474:	0407e793          	ori	a5,a5,64
    c478:	00f41623          	sh	a5,12(s0)
    c47c:	fff00513          	li	a0,-1
    c480:	0d00006f          	j	c550 <__swsetup_r+0x148>
    c484:	0000e7b7          	lui	a5,0xe
    c488:	87878793          	addi	a5,a5,-1928 # d878 <__sf_fake_stdout>
    c48c:	00f41663          	bne	s0,a5,c498 <__swsetup_r+0x90>
    c490:	0084a403          	lw	s0,8(s1)
    c494:	fbdff06f          	j	c450 <__swsetup_r+0x48>
    c498:	0000e7b7          	lui	a5,0xe
    c49c:	83878793          	addi	a5,a5,-1992 # d838 <__sf_fake_stderr>
    c4a0:	faf418e3          	bne	s0,a5,c450 <__swsetup_r+0x48>
    c4a4:	00c4a403          	lw	s0,12(s1)
    c4a8:	fa9ff06f          	j	c450 <__swsetup_r+0x48>
    c4ac:	00477713          	andi	a4,a4,4
    c4b0:	02070c63          	beqz	a4,c4e8 <__swsetup_r+0xe0>
    c4b4:	03442583          	lw	a1,52(s0)
    c4b8:	00058c63          	beqz	a1,c4d0 <__swsetup_r+0xc8>
    c4bc:	04440793          	addi	a5,s0,68
    c4c0:	00f58663          	beq	a1,a5,c4cc <__swsetup_r+0xc4>
    c4c4:	00090513          	mv	a0,s2
    c4c8:	8a0fc0ef          	jal	ra,8568 <_free_r>
    c4cc:	02042a23          	sw	zero,52(s0)
    c4d0:	00c45783          	lhu	a5,12(s0)
    c4d4:	00042223          	sw	zero,4(s0)
    c4d8:	fdb7f793          	andi	a5,a5,-37
    c4dc:	00f41623          	sh	a5,12(s0)
    c4e0:	01042783          	lw	a5,16(s0)
    c4e4:	00f42023          	sw	a5,0(s0)
    c4e8:	00c45783          	lhu	a5,12(s0)
    c4ec:	0087e793          	ori	a5,a5,8
    c4f0:	00f41623          	sh	a5,12(s0)
    c4f4:	01042783          	lw	a5,16(s0)
    c4f8:	02079063          	bnez	a5,c518 <__swsetup_r+0x110>
    c4fc:	00c45783          	lhu	a5,12(s0)
    c500:	20000713          	li	a4,512
    c504:	2807f793          	andi	a5,a5,640
    c508:	00e78863          	beq	a5,a4,c518 <__swsetup_r+0x110>
    c50c:	00040593          	mv	a1,s0
    c510:	00090513          	mv	a0,s2
    c514:	508000ef          	jal	ra,ca1c <__smakebuf_r>
    c518:	00c41783          	lh	a5,12(s0)
    c51c:	01079713          	slli	a4,a5,0x10
    c520:	0017f693          	andi	a3,a5,1
    c524:	01075713          	srli	a4,a4,0x10
    c528:	04068063          	beqz	a3,c568 <__swsetup_r+0x160>
    c52c:	01442683          	lw	a3,20(s0)
    c530:	00042423          	sw	zero,8(s0)
    c534:	40d006b3          	neg	a3,a3
    c538:	00d42c23          	sw	a3,24(s0)
    c53c:	01042683          	lw	a3,16(s0)
    c540:	00000513          	li	a0,0
    c544:	00069663          	bnez	a3,c550 <__swsetup_r+0x148>
    c548:	08077713          	andi	a4,a4,128
    c54c:	f20714e3          	bnez	a4,c474 <__swsetup_r+0x6c>
    c550:	00c12083          	lw	ra,12(sp)
    c554:	00812403          	lw	s0,8(sp)
    c558:	00412483          	lw	s1,4(sp)
    c55c:	00012903          	lw	s2,0(sp)
    c560:	01010113          	addi	sp,sp,16
    c564:	00008067          	ret
    c568:	00277693          	andi	a3,a4,2
    c56c:	00000613          	li	a2,0
    c570:	00069463          	bnez	a3,c578 <__swsetup_r+0x170>
    c574:	01442603          	lw	a2,20(s0)
    c578:	00c42423          	sw	a2,8(s0)
    c57c:	fc1ff06f          	j	c53c <__swsetup_r+0x134>

0000c580 <__assert_func>:
    c580:	0002f7b7          	lui	a5,0x2f
    c584:	4807a783          	lw	a5,1152(a5) # 2f480 <_impure_ptr>
    c588:	ff010113          	addi	sp,sp,-16
    c58c:	00060813          	mv	a6,a2
    c590:	00112623          	sw	ra,12(sp)
    c594:	00050893          	mv	a7,a0
    c598:	00058713          	mv	a4,a1
    c59c:	00c7a503          	lw	a0,12(a5)
    c5a0:	00068613          	mv	a2,a3
    c5a4:	02080063          	beqz	a6,c5c4 <__assert_func+0x44>
    c5a8:	0000e7b7          	lui	a5,0xe
    c5ac:	91c78793          	addi	a5,a5,-1764 # d91c <p05.0+0x20>
    c5b0:	0000e5b7          	lui	a1,0xe
    c5b4:	00088693          	mv	a3,a7
    c5b8:	92c58593          	addi	a1,a1,-1748 # d92c <p05.0+0x30>
    c5bc:	334000ef          	jal	ra,c8f0 <fiprintf>
    c5c0:	62c000ef          	jal	ra,cbec <abort>
    c5c4:	0000d837          	lui	a6,0xd
    c5c8:	2c480793          	addi	a5,a6,708 # d2c4 <__mprec_tens+0x1cc>
    c5cc:	2c480813          	addi	a6,a6,708
    c5d0:	fe1ff06f          	j	c5b0 <__assert_func+0x30>

0000c5d4 <_close_r>:
    c5d4:	ff010113          	addi	sp,sp,-16
    c5d8:	00812423          	sw	s0,8(sp)
    c5dc:	00912223          	sw	s1,4(sp)
    c5e0:	00050413          	mv	s0,a0
    c5e4:	0000e4b7          	lui	s1,0xe
    c5e8:	00058513          	mv	a0,a1
    c5ec:	00112623          	sw	ra,12(sp)
    c5f0:	9c04a023          	sw	zero,-1600(s1) # d9c0 <errno>
    c5f4:	80df90ef          	jal	ra,5e00 <_close>
    c5f8:	fff00793          	li	a5,-1
    c5fc:	00f51863          	bne	a0,a5,c60c <_close_r+0x38>
    c600:	9c04a783          	lw	a5,-1600(s1)
    c604:	00078463          	beqz	a5,c60c <_close_r+0x38>
    c608:	00f42023          	sw	a5,0(s0)
    c60c:	00c12083          	lw	ra,12(sp)
    c610:	00812403          	lw	s0,8(sp)
    c614:	00412483          	lw	s1,4(sp)
    c618:	01010113          	addi	sp,sp,16
    c61c:	00008067          	ret

0000c620 <__sflush_r>:
    c620:	00c5d783          	lhu	a5,12(a1)
    c624:	fe010113          	addi	sp,sp,-32
    c628:	00812c23          	sw	s0,24(sp)
    c62c:	00912a23          	sw	s1,20(sp)
    c630:	00112e23          	sw	ra,28(sp)
    c634:	01212823          	sw	s2,16(sp)
    c638:	01312623          	sw	s3,12(sp)
    c63c:	0087f713          	andi	a4,a5,8
    c640:	00050493          	mv	s1,a0
    c644:	00058413          	mv	s0,a1
    c648:	16071263          	bnez	a4,c7ac <__sflush_r+0x18c>
    c64c:	0045a703          	lw	a4,4(a1)
    c650:	00e04a63          	bgtz	a4,c664 <__sflush_r+0x44>
    c654:	0405a703          	lw	a4,64(a1)
    c658:	00e04663          	bgtz	a4,c664 <__sflush_r+0x44>
    c65c:	00000513          	li	a0,0
    c660:	1240006f          	j	c784 <__sflush_r+0x164>
    c664:	02c42703          	lw	a4,44(s0)
    c668:	fe070ae3          	beqz	a4,c65c <__sflush_r+0x3c>
    c66c:	000016b7          	lui	a3,0x1
    c670:	0004a903          	lw	s2,0(s1)
    c674:	00d7f7b3          	and	a5,a5,a3
    c678:	0004a023          	sw	zero,0(s1)
    c67c:	0c078063          	beqz	a5,c73c <__sflush_r+0x11c>
    c680:	05442503          	lw	a0,84(s0)
    c684:	00c45783          	lhu	a5,12(s0)
    c688:	0047f793          	andi	a5,a5,4
    c68c:	00078e63          	beqz	a5,c6a8 <__sflush_r+0x88>
    c690:	00442783          	lw	a5,4(s0)
    c694:	40f50533          	sub	a0,a0,a5
    c698:	03442783          	lw	a5,52(s0)
    c69c:	00078663          	beqz	a5,c6a8 <__sflush_r+0x88>
    c6a0:	04042783          	lw	a5,64(s0)
    c6a4:	40f50533          	sub	a0,a0,a5
    c6a8:	02c42783          	lw	a5,44(s0)
    c6ac:	02042583          	lw	a1,32(s0)
    c6b0:	00050613          	mv	a2,a0
    c6b4:	00000693          	li	a3,0
    c6b8:	00048513          	mv	a0,s1
    c6bc:	000780e7          	jalr	a5
    c6c0:	fff00793          	li	a5,-1
    c6c4:	00c45703          	lhu	a4,12(s0)
    c6c8:	02f51263          	bne	a0,a5,c6ec <__sflush_r+0xcc>
    c6cc:	0004a683          	lw	a3,0(s1)
    c6d0:	01d00793          	li	a5,29
    c6d4:	0cd7e663          	bltu	a5,a3,c7a0 <__sflush_r+0x180>
    c6d8:	204007b7          	lui	a5,0x20400
    c6dc:	00178793          	addi	a5,a5,1 # 20400001 <CONFIG_SYS_CLOCK_HW_CYCLES_PER_SEC+0x1d450f81>
    c6e0:	00d7d7b3          	srl	a5,a5,a3
    c6e4:	0017f793          	andi	a5,a5,1
    c6e8:	0a078c63          	beqz	a5,c7a0 <__sflush_r+0x180>
    c6ec:	01042783          	lw	a5,16(s0)
    c6f0:	00042223          	sw	zero,4(s0)
    c6f4:	00f42023          	sw	a5,0(s0)
    c6f8:	000017b7          	lui	a5,0x1
    c6fc:	00f77733          	and	a4,a4,a5
    c700:	00070c63          	beqz	a4,c718 <__sflush_r+0xf8>
    c704:	fff00793          	li	a5,-1
    c708:	00f51663          	bne	a0,a5,c714 <__sflush_r+0xf4>
    c70c:	0004a783          	lw	a5,0(s1)
    c710:	00079463          	bnez	a5,c718 <__sflush_r+0xf8>
    c714:	04a42a23          	sw	a0,84(s0)
    c718:	03442583          	lw	a1,52(s0)
    c71c:	0124a023          	sw	s2,0(s1)
    c720:	f2058ee3          	beqz	a1,c65c <__sflush_r+0x3c>
    c724:	04440793          	addi	a5,s0,68
    c728:	00f58663          	beq	a1,a5,c734 <__sflush_r+0x114>
    c72c:	00048513          	mv	a0,s1
    c730:	e39fb0ef          	jal	ra,8568 <_free_r>
    c734:	02042a23          	sw	zero,52(s0)
    c738:	f25ff06f          	j	c65c <__sflush_r+0x3c>
    c73c:	02042583          	lw	a1,32(s0)
    c740:	00100693          	li	a3,1
    c744:	00000613          	li	a2,0
    c748:	00048513          	mv	a0,s1
    c74c:	000700e7          	jalr	a4
    c750:	fff00793          	li	a5,-1
    c754:	f2f518e3          	bne	a0,a5,c684 <__sflush_r+0x64>
    c758:	0004a783          	lw	a5,0(s1)
    c75c:	f20784e3          	beqz	a5,c684 <__sflush_r+0x64>
    c760:	01d00713          	li	a4,29
    c764:	00e78663          	beq	a5,a4,c770 <__sflush_r+0x150>
    c768:	01600713          	li	a4,22
    c76c:	00e79663          	bne	a5,a4,c778 <__sflush_r+0x158>
    c770:	0124a023          	sw	s2,0(s1)
    c774:	ee9ff06f          	j	c65c <__sflush_r+0x3c>
    c778:	00c45783          	lhu	a5,12(s0)
    c77c:	0407e793          	ori	a5,a5,64
    c780:	00f41623          	sh	a5,12(s0)
    c784:	01c12083          	lw	ra,28(sp)
    c788:	01812403          	lw	s0,24(sp)
    c78c:	01412483          	lw	s1,20(sp)
    c790:	01012903          	lw	s2,16(sp)
    c794:	00c12983          	lw	s3,12(sp)
    c798:	02010113          	addi	sp,sp,32
    c79c:	00008067          	ret
    c7a0:	04076713          	ori	a4,a4,64
    c7a4:	00e41623          	sh	a4,12(s0)
    c7a8:	fddff06f          	j	c784 <__sflush_r+0x164>
    c7ac:	0105a983          	lw	s3,16(a1)
    c7b0:	ea0986e3          	beqz	s3,c65c <__sflush_r+0x3c>
    c7b4:	0005a903          	lw	s2,0(a1)
    c7b8:	0037f793          	andi	a5,a5,3
    c7bc:	0135a023          	sw	s3,0(a1)
    c7c0:	41390933          	sub	s2,s2,s3
    c7c4:	00000713          	li	a4,0
    c7c8:	00079463          	bnez	a5,c7d0 <__sflush_r+0x1b0>
    c7cc:	0145a703          	lw	a4,20(a1)
    c7d0:	00e42423          	sw	a4,8(s0)
    c7d4:	e92054e3          	blez	s2,c65c <__sflush_r+0x3c>
    c7d8:	02842783          	lw	a5,40(s0)
    c7dc:	02042583          	lw	a1,32(s0)
    c7e0:	00090693          	mv	a3,s2
    c7e4:	00098613          	mv	a2,s3
    c7e8:	00048513          	mv	a0,s1
    c7ec:	000780e7          	jalr	a5 # 1000 <__divdf3+0x43c>
    c7f0:	00a04c63          	bgtz	a0,c808 <__sflush_r+0x1e8>
    c7f4:	00c45783          	lhu	a5,12(s0)
    c7f8:	fff00513          	li	a0,-1
    c7fc:	0407e793          	ori	a5,a5,64
    c800:	00f41623          	sh	a5,12(s0)
    c804:	f81ff06f          	j	c784 <__sflush_r+0x164>
    c808:	00a989b3          	add	s3,s3,a0
    c80c:	40a90933          	sub	s2,s2,a0
    c810:	fc5ff06f          	j	c7d4 <__sflush_r+0x1b4>

0000c814 <_fflush_r>:
    c814:	0105a783          	lw	a5,16(a1)
    c818:	ff010113          	addi	sp,sp,-16
    c81c:	00112623          	sw	ra,12(sp)
    c820:	00812423          	sw	s0,8(sp)
    c824:	00912223          	sw	s1,4(sp)
    c828:	02079063          	bnez	a5,c848 <_fflush_r+0x34>
    c82c:	00000493          	li	s1,0
    c830:	00c12083          	lw	ra,12(sp)
    c834:	00812403          	lw	s0,8(sp)
    c838:	00048513          	mv	a0,s1
    c83c:	00412483          	lw	s1,4(sp)
    c840:	01010113          	addi	sp,sp,16
    c844:	00008067          	ret
    c848:	00050493          	mv	s1,a0
    c84c:	00058413          	mv	s0,a1
    c850:	00050863          	beqz	a0,c860 <_fflush_r+0x4c>
    c854:	01852783          	lw	a5,24(a0)
    c858:	00079463          	bnez	a5,c860 <_fflush_r+0x4c>
    c85c:	c6cfe0ef          	jal	ra,acc8 <__sinit>
    c860:	0000e7b7          	lui	a5,0xe
    c864:	85878793          	addi	a5,a5,-1960 # d858 <__sf_fake_stdin>
    c868:	06f41063          	bne	s0,a5,c8c8 <_fflush_r+0xb4>
    c86c:	0044a403          	lw	s0,4(s1)
    c870:	00c41783          	lh	a5,12(s0)
    c874:	fa078ce3          	beqz	a5,c82c <_fflush_r+0x18>
    c878:	06442703          	lw	a4,100(s0)
    c87c:	00177713          	andi	a4,a4,1
    c880:	00071a63          	bnez	a4,c894 <_fflush_r+0x80>
    c884:	2007f793          	andi	a5,a5,512
    c888:	00079663          	bnez	a5,c894 <_fflush_r+0x80>
    c88c:	05842503          	lw	a0,88(s0)
    c890:	e28f90ef          	jal	ra,5eb8 <__retarget_lock_acquire_recursive>
    c894:	00048513          	mv	a0,s1
    c898:	00040593          	mv	a1,s0
    c89c:	d85ff0ef          	jal	ra,c620 <__sflush_r>
    c8a0:	06442783          	lw	a5,100(s0)
    c8a4:	00050493          	mv	s1,a0
    c8a8:	0017f793          	andi	a5,a5,1
    c8ac:	f80792e3          	bnez	a5,c830 <_fflush_r+0x1c>
    c8b0:	00c45783          	lhu	a5,12(s0)
    c8b4:	2007f793          	andi	a5,a5,512
    c8b8:	f6079ce3          	bnez	a5,c830 <_fflush_r+0x1c>
    c8bc:	05842503          	lw	a0,88(s0)
    c8c0:	e04f90ef          	jal	ra,5ec4 <__retarget_lock_release_recursive>
    c8c4:	f6dff06f          	j	c830 <_fflush_r+0x1c>
    c8c8:	0000e7b7          	lui	a5,0xe
    c8cc:	87878793          	addi	a5,a5,-1928 # d878 <__sf_fake_stdout>
    c8d0:	00f41663          	bne	s0,a5,c8dc <_fflush_r+0xc8>
    c8d4:	0084a403          	lw	s0,8(s1)
    c8d8:	f99ff06f          	j	c870 <_fflush_r+0x5c>
    c8dc:	0000e7b7          	lui	a5,0xe
    c8e0:	83878793          	addi	a5,a5,-1992 # d838 <__sf_fake_stderr>
    c8e4:	f8f416e3          	bne	s0,a5,c870 <_fflush_r+0x5c>
    c8e8:	00c4a403          	lw	s0,12(s1)
    c8ec:	f85ff06f          	j	c870 <_fflush_r+0x5c>

0000c8f0 <fiprintf>:
    c8f0:	fc010113          	addi	sp,sp,-64
    c8f4:	02f12a23          	sw	a5,52(sp)
    c8f8:	0002f7b7          	lui	a5,0x2f
    c8fc:	02c12423          	sw	a2,40(sp)
    c900:	00058613          	mv	a2,a1
    c904:	00050593          	mv	a1,a0
    c908:	4807a503          	lw	a0,1152(a5) # 2f480 <_impure_ptr>
    c90c:	02d12623          	sw	a3,44(sp)
    c910:	02810693          	addi	a3,sp,40
    c914:	00112e23          	sw	ra,28(sp)
    c918:	02e12823          	sw	a4,48(sp)
    c91c:	03012c23          	sw	a6,56(sp)
    c920:	03112e23          	sw	a7,60(sp)
    c924:	00d12623          	sw	a3,12(sp)
    c928:	becff0ef          	jal	ra,bd14 <_vfiprintf_r>
    c92c:	01c12083          	lw	ra,28(sp)
    c930:	04010113          	addi	sp,sp,64
    c934:	00008067          	ret

0000c938 <_lseek_r>:
    c938:	ff010113          	addi	sp,sp,-16
    c93c:	00812423          	sw	s0,8(sp)
    c940:	00912223          	sw	s1,4(sp)
    c944:	00050413          	mv	s0,a0
    c948:	0000e4b7          	lui	s1,0xe
    c94c:	00058513          	mv	a0,a1
    c950:	00060593          	mv	a1,a2
    c954:	00068613          	mv	a2,a3
    c958:	00112623          	sw	ra,12(sp)
    c95c:	9c04a023          	sw	zero,-1600(s1) # d9c0 <errno>
    c960:	ca8f90ef          	jal	ra,5e08 <_lseek>
    c964:	fff00793          	li	a5,-1
    c968:	00f51863          	bne	a0,a5,c978 <_lseek_r+0x40>
    c96c:	9c04a783          	lw	a5,-1600(s1)
    c970:	00078463          	beqz	a5,c978 <_lseek_r+0x40>
    c974:	00f42023          	sw	a5,0(s0)
    c978:	00c12083          	lw	ra,12(sp)
    c97c:	00812403          	lw	s0,8(sp)
    c980:	00412483          	lw	s1,4(sp)
    c984:	01010113          	addi	sp,sp,16
    c988:	00008067          	ret

0000c98c <__swhatbuf_r>:
    c98c:	f9010113          	addi	sp,sp,-112
    c990:	07212023          	sw	s2,96(sp)
    c994:	00058913          	mv	s2,a1
    c998:	00e59583          	lh	a1,14(a1)
    c99c:	06812423          	sw	s0,104(sp)
    c9a0:	06912223          	sw	s1,100(sp)
    c9a4:	06112623          	sw	ra,108(sp)
    c9a8:	00060413          	mv	s0,a2
    c9ac:	00068493          	mv	s1,a3
    c9b0:	0005de63          	bgez	a1,c9cc <__swhatbuf_r+0x40>
    c9b4:	00c91783          	lh	a5,12(s2)
    c9b8:	0004a023          	sw	zero,0(s1)
    c9bc:	0807f793          	andi	a5,a5,128
    c9c0:	02079c63          	bnez	a5,c9f8 <__swhatbuf_r+0x6c>
    c9c4:	40000793          	li	a5,1024
    c9c8:	0340006f          	j	c9fc <__swhatbuf_r+0x70>
    c9cc:	00810613          	addi	a2,sp,8
    c9d0:	234000ef          	jal	ra,cc04 <_fstat_r>
    c9d4:	fe0540e3          	bltz	a0,c9b4 <__swhatbuf_r+0x28>
    c9d8:	00c12703          	lw	a4,12(sp)
    c9dc:	0000f7b7          	lui	a5,0xf
    c9e0:	00e7f7b3          	and	a5,a5,a4
    c9e4:	ffffe737          	lui	a4,0xffffe
    c9e8:	00e787b3          	add	a5,a5,a4
    c9ec:	0017b793          	seqz	a5,a5
    c9f0:	00f4a023          	sw	a5,0(s1)
    c9f4:	fd1ff06f          	j	c9c4 <__swhatbuf_r+0x38>
    c9f8:	04000793          	li	a5,64
    c9fc:	06c12083          	lw	ra,108(sp)
    ca00:	00f42023          	sw	a5,0(s0)
    ca04:	06812403          	lw	s0,104(sp)
    ca08:	06412483          	lw	s1,100(sp)
    ca0c:	06012903          	lw	s2,96(sp)
    ca10:	00000513          	li	a0,0
    ca14:	07010113          	addi	sp,sp,112
    ca18:	00008067          	ret

0000ca1c <__smakebuf_r>:
    ca1c:	00c5d783          	lhu	a5,12(a1)
    ca20:	fe010113          	addi	sp,sp,-32
    ca24:	00812c23          	sw	s0,24(sp)
    ca28:	00112e23          	sw	ra,28(sp)
    ca2c:	00912a23          	sw	s1,20(sp)
    ca30:	01212823          	sw	s2,16(sp)
    ca34:	0027f793          	andi	a5,a5,2
    ca38:	00058413          	mv	s0,a1
    ca3c:	02078863          	beqz	a5,ca6c <__smakebuf_r+0x50>
    ca40:	04740793          	addi	a5,s0,71
    ca44:	00f42023          	sw	a5,0(s0)
    ca48:	00f42823          	sw	a5,16(s0)
    ca4c:	00100793          	li	a5,1
    ca50:	00f42a23          	sw	a5,20(s0)
    ca54:	01c12083          	lw	ra,28(sp)
    ca58:	01812403          	lw	s0,24(sp)
    ca5c:	01412483          	lw	s1,20(sp)
    ca60:	01012903          	lw	s2,16(sp)
    ca64:	02010113          	addi	sp,sp,32
    ca68:	00008067          	ret
    ca6c:	00c10693          	addi	a3,sp,12
    ca70:	00810613          	addi	a2,sp,8
    ca74:	00050913          	mv	s2,a0
    ca78:	f15ff0ef          	jal	ra,c98c <__swhatbuf_r>
    ca7c:	00812583          	lw	a1,8(sp)
    ca80:	00050493          	mv	s1,a0
    ca84:	00090513          	mv	a0,s2
    ca88:	be5fb0ef          	jal	ra,866c <_malloc_r>
    ca8c:	02051063          	bnez	a0,caac <__smakebuf_r+0x90>
    ca90:	00c41783          	lh	a5,12(s0)
    ca94:	2007f713          	andi	a4,a5,512
    ca98:	fa071ee3          	bnez	a4,ca54 <__smakebuf_r+0x38>
    ca9c:	ffc7f793          	andi	a5,a5,-4
    caa0:	0027e793          	ori	a5,a5,2
    caa4:	00f41623          	sh	a5,12(s0)
    caa8:	f99ff06f          	j	ca40 <__smakebuf_r+0x24>
    caac:	0000b7b7          	lui	a5,0xb
    cab0:	c2078793          	addi	a5,a5,-992 # ac20 <_cleanup_r>
    cab4:	02f92423          	sw	a5,40(s2)
    cab8:	00c45783          	lhu	a5,12(s0)
    cabc:	00a42023          	sw	a0,0(s0)
    cac0:	00a42823          	sw	a0,16(s0)
    cac4:	0807e793          	ori	a5,a5,128
    cac8:	00f41623          	sh	a5,12(s0)
    cacc:	00812783          	lw	a5,8(sp)
    cad0:	00f42a23          	sw	a5,20(s0)
    cad4:	00c12783          	lw	a5,12(sp)
    cad8:	02078263          	beqz	a5,cafc <__smakebuf_r+0xe0>
    cadc:	00e41583          	lh	a1,14(s0)
    cae0:	00090513          	mv	a0,s2
    cae4:	170000ef          	jal	ra,cc54 <_isatty_r>
    cae8:	00050a63          	beqz	a0,cafc <__smakebuf_r+0xe0>
    caec:	00c45783          	lhu	a5,12(s0)
    caf0:	ffc7f793          	andi	a5,a5,-4
    caf4:	0017e793          	ori	a5,a5,1
    caf8:	00f41623          	sh	a5,12(s0)
    cafc:	00c45503          	lhu	a0,12(s0)
    cb00:	00a4e4b3          	or	s1,s1,a0
    cb04:	00941623          	sh	s1,12(s0)
    cb08:	f4dff06f          	j	ca54 <__smakebuf_r+0x38>

0000cb0c <__ascii_mbtowc>:
    cb0c:	02059a63          	bnez	a1,cb40 <__ascii_mbtowc+0x34>
    cb10:	ff010113          	addi	sp,sp,-16
    cb14:	00c10593          	addi	a1,sp,12
    cb18:	00000513          	li	a0,0
    cb1c:	00060e63          	beqz	a2,cb38 <__ascii_mbtowc+0x2c>
    cb20:	ffe00513          	li	a0,-2
    cb24:	00068a63          	beqz	a3,cb38 <__ascii_mbtowc+0x2c>
    cb28:	00064783          	lbu	a5,0(a2)
    cb2c:	00f5a023          	sw	a5,0(a1)
    cb30:	00064503          	lbu	a0,0(a2)
    cb34:	00a03533          	snez	a0,a0
    cb38:	01010113          	addi	sp,sp,16
    cb3c:	00008067          	ret
    cb40:	00000513          	li	a0,0
    cb44:	02060063          	beqz	a2,cb64 <__ascii_mbtowc+0x58>
    cb48:	ffe00513          	li	a0,-2
    cb4c:	00068c63          	beqz	a3,cb64 <__ascii_mbtowc+0x58>
    cb50:	00064783          	lbu	a5,0(a2)
    cb54:	00f5a023          	sw	a5,0(a1)
    cb58:	00064503          	lbu	a0,0(a2)
    cb5c:	00a03533          	snez	a0,a0
    cb60:	00008067          	ret
    cb64:	00008067          	ret

0000cb68 <_read_r>:
    cb68:	ff010113          	addi	sp,sp,-16
    cb6c:	00812423          	sw	s0,8(sp)
    cb70:	00912223          	sw	s1,4(sp)
    cb74:	00050413          	mv	s0,a0
    cb78:	0000e4b7          	lui	s1,0xe
    cb7c:	00058513          	mv	a0,a1
    cb80:	00060593          	mv	a1,a2
    cb84:	00068613          	mv	a2,a3
    cb88:	00112623          	sw	ra,12(sp)
    cb8c:	9c04a023          	sw	zero,-1600(s1) # d9c0 <errno>
    cb90:	a58f90ef          	jal	ra,5de8 <_read>
    cb94:	fff00793          	li	a5,-1
    cb98:	00f51863          	bne	a0,a5,cba8 <_read_r+0x40>
    cb9c:	9c04a783          	lw	a5,-1600(s1)
    cba0:	00078463          	beqz	a5,cba8 <_read_r+0x40>
    cba4:	00f42023          	sw	a5,0(s0)
    cba8:	00c12083          	lw	ra,12(sp)
    cbac:	00812403          	lw	s0,8(sp)
    cbb0:	00412483          	lw	s1,4(sp)
    cbb4:	01010113          	addi	sp,sp,16
    cbb8:	00008067          	ret

0000cbbc <__ascii_wctomb>:
    cbbc:	02058463          	beqz	a1,cbe4 <__ascii_wctomb+0x28>
    cbc0:	0ff00793          	li	a5,255
    cbc4:	00c7fa63          	bgeu	a5,a2,cbd8 <__ascii_wctomb+0x1c>
    cbc8:	08a00793          	li	a5,138
    cbcc:	00f52023          	sw	a5,0(a0)
    cbd0:	fff00513          	li	a0,-1
    cbd4:	00008067          	ret
    cbd8:	00c58023          	sb	a2,0(a1)
    cbdc:	00100513          	li	a0,1
    cbe0:	00008067          	ret
    cbe4:	00000513          	li	a0,0
    cbe8:	00008067          	ret

0000cbec <abort>:
    cbec:	ff010113          	addi	sp,sp,-16
    cbf0:	00600513          	li	a0,6
    cbf4:	00112623          	sw	ra,12(sp)
    cbf8:	158000ef          	jal	ra,cd50 <raise>
    cbfc:	00100513          	li	a0,1
    cc00:	a38f90ef          	jal	ra,5e38 <_exit>

0000cc04 <_fstat_r>:
    cc04:	ff010113          	addi	sp,sp,-16
    cc08:	00812423          	sw	s0,8(sp)
    cc0c:	00912223          	sw	s1,4(sp)
    cc10:	00050413          	mv	s0,a0
    cc14:	0000e4b7          	lui	s1,0xe
    cc18:	00058513          	mv	a0,a1
    cc1c:	00060593          	mv	a1,a2
    cc20:	00112623          	sw	ra,12(sp)
    cc24:	9c04a023          	sw	zero,-1600(s1) # d9c0 <errno>
    cc28:	a00f90ef          	jal	ra,5e28 <_fstat>
    cc2c:	fff00793          	li	a5,-1
    cc30:	00f51863          	bne	a0,a5,cc40 <_fstat_r+0x3c>
    cc34:	9c04a783          	lw	a5,-1600(s1)
    cc38:	00078463          	beqz	a5,cc40 <_fstat_r+0x3c>
    cc3c:	00f42023          	sw	a5,0(s0)
    cc40:	00c12083          	lw	ra,12(sp)
    cc44:	00812403          	lw	s0,8(sp)
    cc48:	00412483          	lw	s1,4(sp)
    cc4c:	01010113          	addi	sp,sp,16
    cc50:	00008067          	ret

0000cc54 <_isatty_r>:
    cc54:	ff010113          	addi	sp,sp,-16
    cc58:	00812423          	sw	s0,8(sp)
    cc5c:	00912223          	sw	s1,4(sp)
    cc60:	00050413          	mv	s0,a0
    cc64:	0000e4b7          	lui	s1,0xe
    cc68:	00058513          	mv	a0,a1
    cc6c:	00112623          	sw	ra,12(sp)
    cc70:	9c04a023          	sw	zero,-1600(s1) # d9c0 <errno>
    cc74:	99cf90ef          	jal	ra,5e10 <_isatty>
    cc78:	fff00793          	li	a5,-1
    cc7c:	00f51863          	bne	a0,a5,cc8c <_isatty_r+0x38>
    cc80:	9c04a783          	lw	a5,-1600(s1)
    cc84:	00078463          	beqz	a5,cc8c <_isatty_r+0x38>
    cc88:	00f42023          	sw	a5,0(s0)
    cc8c:	00c12083          	lw	ra,12(sp)
    cc90:	00812403          	lw	s0,8(sp)
    cc94:	00412483          	lw	s1,4(sp)
    cc98:	01010113          	addi	sp,sp,16
    cc9c:	00008067          	ret

0000cca0 <_raise_r>:
    cca0:	fe010113          	addi	sp,sp,-32
    cca4:	00812c23          	sw	s0,24(sp)
    cca8:	00112e23          	sw	ra,28(sp)
    ccac:	01f00793          	li	a5,31
    ccb0:	00050413          	mv	s0,a0
    ccb4:	02b7f063          	bgeu	a5,a1,ccd4 <_raise_r+0x34>
    ccb8:	01600793          	li	a5,22
    ccbc:	00f52023          	sw	a5,0(a0)
    ccc0:	fff00513          	li	a0,-1
    ccc4:	01c12083          	lw	ra,28(sp)
    ccc8:	01812403          	lw	s0,24(sp)
    cccc:	02010113          	addi	sp,sp,32
    ccd0:	00008067          	ret
    ccd4:	04452783          	lw	a5,68(a0)
    ccd8:	00058613          	mv	a2,a1
    ccdc:	00078a63          	beqz	a5,ccf0 <_raise_r+0x50>
    cce0:	00259713          	slli	a4,a1,0x2
    cce4:	00e787b3          	add	a5,a5,a4
    cce8:	0007a703          	lw	a4,0(a5)
    ccec:	02071663          	bnez	a4,cd18 <_raise_r+0x78>
    ccf0:	00040513          	mv	a0,s0
    ccf4:	00c12623          	sw	a2,12(sp)
    ccf8:	0b8000ef          	jal	ra,cdb0 <_getpid_r>
    ccfc:	00050593          	mv	a1,a0
    cd00:	00040513          	mv	a0,s0
    cd04:	01812403          	lw	s0,24(sp)
    cd08:	00c12603          	lw	a2,12(sp)
    cd0c:	01c12083          	lw	ra,28(sp)
    cd10:	02010113          	addi	sp,sp,32
    cd14:	04c0006f          	j	cd60 <_kill_r>
    cd18:	00100693          	li	a3,1
    cd1c:	00000513          	li	a0,0
    cd20:	fad702e3          	beq	a4,a3,ccc4 <_raise_r+0x24>
    cd24:	fff00693          	li	a3,-1
    cd28:	00d71a63          	bne	a4,a3,cd3c <_raise_r+0x9c>
    cd2c:	01600793          	li	a5,22
    cd30:	00f42023          	sw	a5,0(s0)
    cd34:	00100513          	li	a0,1
    cd38:	f8dff06f          	j	ccc4 <_raise_r+0x24>
    cd3c:	00058513          	mv	a0,a1
    cd40:	0007a023          	sw	zero,0(a5)
    cd44:	000700e7          	jalr	a4 # ffffe000 <CONFIG_SYSTEM_WORKQUEUE_PRIORITY+0xffffe001>
    cd48:	00000513          	li	a0,0
    cd4c:	f79ff06f          	j	ccc4 <_raise_r+0x24>

0000cd50 <raise>:
    cd50:	0002f7b7          	lui	a5,0x2f
    cd54:	00050593          	mv	a1,a0
    cd58:	4807a503          	lw	a0,1152(a5) # 2f480 <_impure_ptr>
    cd5c:	f45ff06f          	j	cca0 <_raise_r>

0000cd60 <_kill_r>:
    cd60:	ff010113          	addi	sp,sp,-16
    cd64:	00812423          	sw	s0,8(sp)
    cd68:	00912223          	sw	s1,4(sp)
    cd6c:	00050413          	mv	s0,a0
    cd70:	0000e4b7          	lui	s1,0xe
    cd74:	00058513          	mv	a0,a1
    cd78:	00060593          	mv	a1,a2
    cd7c:	00112623          	sw	ra,12(sp)
    cd80:	9c04a023          	sw	zero,-1600(s1) # d9c0 <errno>
    cd84:	894f90ef          	jal	ra,5e18 <_kill>
    cd88:	fff00793          	li	a5,-1
    cd8c:	00f51863          	bne	a0,a5,cd9c <_kill_r+0x3c>
    cd90:	9c04a783          	lw	a5,-1600(s1)
    cd94:	00078463          	beqz	a5,cd9c <_kill_r+0x3c>
    cd98:	00f42023          	sw	a5,0(s0)
    cd9c:	00c12083          	lw	ra,12(sp)
    cda0:	00812403          	lw	s0,8(sp)
    cda4:	00412483          	lw	s1,4(sp)
    cda8:	01010113          	addi	sp,sp,16
    cdac:	00008067          	ret

0000cdb0 <_getpid_r>:
    cdb0:	870f906f          	j	5e20 <_getpid>
