
zephyr.elf:     file format elf32-littleriscv


Disassembly of section vector:

00000000 <__start>:

	/*
	 * Set mtvec (Machine Trap-Vector Base-Address Register)
	 * to __irq_wrapper.
	 */
	la t0, __irq_wrapper
   0:	00000297          	auipc	t0,0x0
   4:	03028293          	addi	t0,t0,48 # 30 <__irq_wrapper>
	csrw mtvec, t0
   8:	30529073          	csrw	mtvec,t0
	/*
	* To avoid having to hardcode the main clock frequency,
	* we read the actual value from register 0x8000103c
	* and store to z_clock_hw_cycles_per_sec
	*/
	li	t0, 0x80001000
   c:	800012b7          	lui	t0,0x80001
	lw	t1, 0x3c(t0)
  10:	03c2a303          	lw	t1,60(t0) # 8000103c <CONFIG_SYSTEM_WORKQUEUE_PRIORITY+0x8000103d>
	la	t0, z_clock_hw_cycles_per_sec
  14:	00082297          	auipc	t0,0x82
  18:	d9c28293          	addi	t0,t0,-612 # 81db0 <z_clock_hw_cycles_per_sec>
	sw	t1, 0(t0)
  1c:	0062a023          	sw	t1,0(t0)

	/* Jump to __initialize */
	tail __initialize
  20:	4940506f          	j	54b4 <__initialize>

Disassembly of section exceptions:

00000030 <__irq_wrapper>:
	 * Save caller-saved registers on current thread stack.
	 * NOTE: need to be updated to account for floating-point registers
	 * floating-point registers should be accounted for when corresponding
	 * config variable is set
	 */
	STORE_CALLER_SAVED()
  30:	fb010113          	addi	sp,sp,-80
  34:	00112023          	sw	ra,0(sp)
  38:	00412223          	sw	tp,4(sp)
  3c:	00512423          	sw	t0,8(sp)
  40:	00612623          	sw	t1,12(sp)
  44:	00712823          	sw	t2,16(sp)
  48:	01c12a23          	sw	t3,20(sp)
  4c:	01d12c23          	sw	t4,24(sp)
  50:	01e12e23          	sw	t5,28(sp)
  54:	03f12023          	sw	t6,32(sp)
  58:	02a12223          	sw	a0,36(sp)
  5c:	02b12423          	sw	a1,40(sp)
  60:	02c12623          	sw	a2,44(sp)
  64:	02d12823          	sw	a3,48(sp)
  68:	02e12a23          	sw	a4,52(sp)
  6c:	02f12c23          	sw	a5,56(sp)
  70:	03012e23          	sw	a6,60(sp)
  74:	05112023          	sw	a7,64(sp)

skip_store_fp_caller_saved:
#endif /* CONFIG_FPU && CONFIG_FPU_SHARING */

	/* Save MEPC register */
	csrr t0, mepc
  78:	341022f3          	csrr	t0,mepc
	RV_OP_STOREREG t0, __z_arch_esf_t_mepc_OFFSET(sp)
  7c:	04512223          	sw	t0,68(sp)

	/* Save SOC-specific MSTATUS register */
	csrr t0, mstatus
  80:	300022f3          	csrr	t0,mstatus
	RV_OP_STOREREG t0, __z_arch_esf_t_mstatus_OFFSET(sp)
  84:	04512423          	sw	t0,72(sp)
	 * SOCs (like pulpino or riscv-qemu), the MSB is never set to indicate
	 * interrupt. Hence, check for interrupt/exception via the __soc_is_irq
	 * function (that needs to be implemented by each SOC). The result is
	 * returned via register a0 (1: interrupt, 0 exception)
	 */
	jal ra, __soc_is_irq
  88:	228000ef          	jal	ra,2b0 <__soc_is_irq>

	/* If a0 != 0, jump to is_interrupt */
	addi t1, x0, 0
  8c:	00000313          	li	t1,0
	bnez a0, is_interrupt
  90:	02051e63          	bnez	a0,cc <is_interrupt>
	/*
	 * If the exception is the result of an ECALL, check whether to
	 * perform a context-switch or an IRQ offload. Otherwise call _Fault
	 * to report the exception.
	 */
	csrr t0, mcause
  94:	342022f3          	csrr	t0,mcause
	li t2, SOC_MCAUSE_EXP_MASK
  98:	800003b7          	lui	t2,0x80000
  9c:	fff38393          	addi	t2,t2,-1 # 7fffffff <CONFIG_SYSTEM_WORKQUEUE_PRIORITY+0x80000000>
	and t0, t0, t2
  a0:	0072f2b3          	and	t0,t0,t2
	li t1, SOC_MCAUSE_ECALL_EXP
  a4:	00b00313          	li	t1,11

	/*
	 * If mcause == SOC_MCAUSE_ECALL_EXP, handle system call from
	 * kernel thread.
	 */
	beq t0, t1, is_kernel_syscall
  a8:	00628a63          	beq	t0,t1,bc <is_kernel_syscall>
	 * Stack pointer is pointing to a z_arch_esf_t structure, pass it
	 * to _Fault (via register a0).
	 * If _Fault shall return, set return address to
	 * no_reschedule to restore stack.
	 */
	addi a0, sp, 0
  ac:	00010513          	mv	a0,sp
	RV_OP_LOADREG t1, _kernel_offset_to_current(t0)
	RV_OP_LOADREG t0, _thread_offset_to_priv_stack_start(t1)
	RV_OP_STOREREG sp, _thread_offset_to_user_sp(t1) /* Update user SP */
	addi sp, t0, CONFIG_PRIVILEGED_STACK_SIZE
#else
	la ra, no_reschedule
  b0:	00000097          	auipc	ra,0x0
  b4:	19408093          	addi	ra,ra,404 # 244 <no_reschedule>
#endif /* CONFIG_USERSPACE */

	tail _Fault
  b8:	3b40506f          	j	546c <_Fault>

000000bc <is_kernel_syscall>:
	 * again upon exiting the ISR.
	 *
	 * It's safe to always increment by 4, even with compressed
	 * instructions, because the ecall instruction is always 4 bytes.
	 */
	RV_OP_LOADREG t0, __z_arch_esf_t_mepc_OFFSET(sp)
  bc:	04412283          	lw	t0,68(sp)
	addi t0, t0, 4
  c0:	00428293          	addi	t0,t0,4
	RV_OP_STOREREG t0, __z_arch_esf_t_mepc_OFFSET(sp)
  c4:	04512223          	sw	t0,68(sp)
	j z_riscv_user_mode_enter_syscall
#endif /* CONFIG_USERSPACE */
	/*
	 * Go to reschedule to handle context-switch
	 */
	j reschedule
  c8:	0800006f          	j	148 <reschedule>

000000cc <is_interrupt>:
	 * Save current thread stack pointer and switch
	 * stack pointer to interrupt stack.
	 */

	/* Save thread stack pointer to temp register t0 */
	addi t0, sp, 0
  cc:	00010293          	mv	t0,sp

	/* Switch to interrupt stack */
	la t2, _kernel
  d0:	0000d397          	auipc	t2,0xd
  d4:	42c38393          	addi	t2,t2,1068 # d4fc <_kernel>
	RV_OP_LOADREG sp, _kernel_offset_to_irq_stack(t2)
  d8:	0043a103          	lw	sp,4(t2)

	/*
	 * Save thread stack pointer on interrupt stack
	 * In RISC-V, stack pointer needs to be 16-byte aligned
	 */
	addi sp, sp, -16
  dc:	ff010113          	addi	sp,sp,-16
	RV_OP_STOREREG t0, 0x00(sp)
  e0:	00512023          	sw	t0,0(sp)

000000e4 <on_irq_stack>:
	la t2, _kernel
#endif /* !CONFIG_USERSPACE && !CONFIG_PMP_STACK_GUARD */

on_irq_stack:
	/* Increment _kernel.cpus[0].nested variable */
	lw t3, _kernel_offset_to_nested(t2)
  e4:	0003ae03          	lw	t3,0(t2)
	addi t3, t3, 1
  e8:	001e0e13          	addi	t3,t3,1
	sw t3, _kernel_offset_to_nested(t2)
  ec:	01c3a023          	sw	t3,0(t2)
#ifdef CONFIG_TRACING_ISR
	call sys_trace_isr_enter
#endif

	/* Get IRQ causing interrupt */
	csrr a0, mcause
  f0:	34202573          	csrr	a0,mcause
	li t0, SOC_MCAUSE_EXP_MASK
  f4:	800002b7          	lui	t0,0x80000
  f8:	fff28293          	addi	t0,t0,-1 # 7fffffff <CONFIG_SYSTEM_WORKQUEUE_PRIORITY+0x80000000>
	and a0, a0, t0
  fc:	00557533          	and	a0,a0,t0

	/*
	 * Clear pending IRQ generating the interrupt at SOC level
	 * Pass IRQ number to __soc_handle_irq via register a0
	 */
	jal ra, __soc_handle_irq
 100:	1a0000ef          	jal	ra,2a0 <__soc_handle_irq>

	/*
	 * Call corresponding registered function in _sw_isr_table.
	 * (table is 2-word wide, we should shift index accordingly)
	 */
	la t0, _sw_isr_table
 104:	0000c297          	auipc	t0,0xc
 108:	3a828293          	addi	t0,t0,936 # c4ac <_sw_isr_table>
	slli a0, a0, (RV_REGSHIFT + 1)
 10c:	00351513          	slli	a0,a0,0x3
	add t0, t0, a0
 110:	00a282b3          	add	t0,t0,a0

	/* Load argument in a0 register */
	RV_OP_LOADREG a0, 0x00(t0)
 114:	0002a503          	lw	a0,0(t0)

	/* Load ISR function address in register t1 */
	RV_OP_LOADREG t1, RV_REGSIZE(t0)
 118:	0042a303          	lw	t1,4(t0)

	/* Call ISR function */
	jalr ra, t1
 11c:	000300e7          	jalr	t1

00000120 <on_thread_stack>:

on_thread_stack:
	/* Get reference to _kernel */
	la t1, _kernel
 120:	0000d317          	auipc	t1,0xd
 124:	3dc30313          	addi	t1,t1,988 # d4fc <_kernel>

	/* Decrement _kernel.cpus[0].nested variable */
	lw t2, _kernel_offset_to_nested(t1)
 128:	00032383          	lw	t2,0(t1)
	addi t2, t2, -1
 12c:	fff38393          	addi	t2,t2,-1
	sw t2, _kernel_offset_to_nested(t1)
 130:	00732023          	sw	t2,0(t1)

#if !defined(CONFIG_USERSPACE) && !defined(CONFIG_PMP_STACK_GUARD)
	/* Restore thread stack pointer */
	RV_OP_LOADREG t0, 0x00(sp)
 134:	00012283          	lw	t0,0(sp)
	addi sp, t0, 0
 138:	00028113          	mv	sp,t0
	/*
	 * Check if we need to perform a reschedule
	 */

	/* Get pointer to _kernel.current */
	RV_OP_LOADREG t2, _kernel_offset_to_current(t1)
 13c:	00832383          	lw	t2,8(t1)

	/*
	 * Check if next thread to schedule is current thread.
	 * If yes do not perform a reschedule
	 */
	RV_OP_LOADREG t3, _kernel_offset_to_ready_q_cache(t1)
 140:	01832e03          	lw	t3,24(t1)
	beq t3, t2, no_reschedule
 144:	107e0063          	beq	t3,t2,244 <no_reschedule>

00000148 <reschedule>:
	 * Note:
	 *   Sometimes this code is execute back-to-back before the target thread
	 *   has a chance to run. If this happens, the current thread and the
	 *   target thread will be the same.
	 */
	la t0, _kernel
 148:	0000d297          	auipc	t0,0xd
 14c:	3b428293          	addi	t0,t0,948 # d4fc <_kernel>
	RV_OP_LOADREG t2, _kernel_offset_to_current(t0)
 150:	0082a383          	lw	t2,8(t0)
	RV_OP_LOADREG t3, _kernel_offset_to_ready_q_cache(t0)
 154:	0182ae03          	lw	t3,24(t0)
	beq t2, t3, no_reschedule
 158:	0fc38663          	beq	t2,t3,244 <no_reschedule>

#if CONFIG_INSTRUMENT_THREAD_SWITCHING
	call z_thread_mark_switched_out
#endif
	/* Get reference to _kernel */
	la t0, _kernel
 15c:	0000d297          	auipc	t0,0xd
 160:	3a028293          	addi	t0,t0,928 # d4fc <_kernel>

	/* Get pointer to _kernel.current */
	RV_OP_LOADREG t1, _kernel_offset_to_current(t0)
 164:	0082a303          	lw	t1,8(t0)

	/*
	 * Save callee-saved registers of current kernel thread
	 * prior to handle context-switching
	 */
	STORE_CALLEE_SAVED(t1)
 168:	02832a23          	sw	s0,52(t1)
 16c:	02932c23          	sw	s1,56(t1)
 170:	03232e23          	sw	s2,60(t1)
 174:	05332023          	sw	s3,64(t1)
 178:	05432223          	sw	s4,68(t1)
 17c:	05532423          	sw	s5,72(t1)
 180:	05632623          	sw	s6,76(t1)
 184:	05732823          	sw	s7,80(t1)
 188:	05832a23          	sw	s8,84(t1)
 18c:	05932c23          	sw	s9,88(t1)
 190:	05a32e23          	sw	s10,92(t1)
 194:	07b32023          	sw	s11,96(t1)

00000198 <skip_callee_saved_reg>:

	/*
	 * Save stack pointer of current thread and set the default return value
	 * of z_swap to _k_neg_eagain for the thread.
	 */
	RV_OP_STOREREG sp, _thread_offset_to_sp(t1)
 198:	02232823          	sw	sp,48(t1)
	la t2, _k_neg_eagain
 19c:	0000c397          	auipc	t2,0xc
 1a0:	5f838393          	addi	t2,t2,1528 # c794 <_k_neg_eagain>
	lw t3, 0x00(t2)
 1a4:	0003ae03          	lw	t3,0(t2)
	sw t3, _thread_offset_to_swap_return_value(t1)
 1a8:	07c32c23          	sw	t3,120(t1)

	/* Get next thread to schedule. */
	RV_OP_LOADREG t1, _kernel_offset_to_ready_q_cache(t0)
 1ac:	0182a303          	lw	t1,24(t0)

	/*
	 * Set _kernel.current to new thread loaded in t1
	 */
	RV_OP_STOREREG t1, _kernel_offset_to_current(t0)
 1b0:	0062a423          	sw	t1,8(t0)

	/* Switch to new thread stack */
	RV_OP_LOADREG sp, _thread_offset_to_sp(t1)
 1b4:	03032103          	lw	sp,48(t1)

	/* Restore callee-saved registers of new thread */
	LOAD_CALLEE_SAVED(t1)
 1b8:	03432403          	lw	s0,52(t1)
 1bc:	03832483          	lw	s1,56(t1)
 1c0:	03c32903          	lw	s2,60(t1)
 1c4:	04032983          	lw	s3,64(t1)
 1c8:	04432a03          	lw	s4,68(t1)
 1cc:	04832a83          	lw	s5,72(t1)
 1d0:	04c32b03          	lw	s6,76(t1)
 1d4:	05032b83          	lw	s7,80(t1)
 1d8:	05432c03          	lw	s8,84(t1)
 1dc:	05832c83          	lw	s9,88(t1)
 1e0:	05c32d03          	lw	s10,92(t1)
 1e4:	06032d83          	lw	s11,96(t1)
	addi a0, sp, __z_arch_esf_t_soc_context_OFFSET
	jal ra, __soc_restore_context
#endif /* CONFIG_RISCV_SOC_CONTEXT_SAVE */

	/* Restore MEPC register */
	RV_OP_LOADREG t0, __z_arch_esf_t_mepc_OFFSET(sp)
 1e8:	04412283          	lw	t0,68(sp)
	csrw mepc, t0
 1ec:	34129073          	csrw	mepc,t0

	/* Restore SOC-specific MSTATUS register */
	RV_OP_LOADREG t0, __z_arch_esf_t_mstatus_OFFSET(sp)
 1f0:	04812283          	lw	t0,72(sp)
	csrw mstatus, t0
 1f4:	30029073          	csrw	mstatus,t0

skip_load_fp_caller_saved_resched:
#endif /* CONFIG_FPU && CONFIG_FPU_SHARING */

	/* Restore caller-saved registers from thread stack */
	LOAD_CALLER_SAVED()
 1f8:	00012083          	lw	ra,0(sp)
 1fc:	00412203          	lw	tp,4(sp)
 200:	00812283          	lw	t0,8(sp)
 204:	00c12303          	lw	t1,12(sp)
 208:	01012383          	lw	t2,16(sp)
 20c:	01412e03          	lw	t3,20(sp)
 210:	01812e83          	lw	t4,24(sp)
 214:	01c12f03          	lw	t5,28(sp)
 218:	02012f83          	lw	t6,32(sp)
 21c:	02412503          	lw	a0,36(sp)
 220:	02812583          	lw	a1,40(sp)
 224:	02c12603          	lw	a2,44(sp)
 228:	03012683          	lw	a3,48(sp)
 22c:	03412703          	lw	a4,52(sp)
 230:	03812783          	lw	a5,56(sp)
 234:	03c12803          	lw	a6,60(sp)
 238:	04012883          	lw	a7,64(sp)
 23c:	05010113          	addi	sp,sp,80

	/* Call SOC_ERET to exit ISR */
	SOC_ERET
 240:	30200073          	mret

00000244 <no_reschedule>:
	addi a0, sp, __z_arch_esf_t_soc_context_OFFSET
	jal ra, __soc_restore_context
#endif /* CONFIG_RISCV_SOC_CONTEXT_SAVE */

	/* Restore MEPC register */
	RV_OP_LOADREG t0, __z_arch_esf_t_mepc_OFFSET(sp)
 244:	04412283          	lw	t0,68(sp)
	csrw mepc, t0
 248:	34129073          	csrw	mepc,t0

	/* Restore SOC-specific MSTATUS register */
	RV_OP_LOADREG t0, __z_arch_esf_t_mstatus_OFFSET(sp)
 24c:	04812283          	lw	t0,72(sp)
	csrw mstatus, t0
 250:	30029073          	csrw	mstatus,t0

skip_load_fp_caller_saved:
#endif /* CONFIG_FPU && CONFIG_FPU_SHARING */

	/* Restore caller-saved registers from thread stack */
	LOAD_CALLER_SAVED()
 254:	00012083          	lw	ra,0(sp)
 258:	00412203          	lw	tp,4(sp)
 25c:	00812283          	lw	t0,8(sp)
 260:	00c12303          	lw	t1,12(sp)
 264:	01012383          	lw	t2,16(sp)
 268:	01412e03          	lw	t3,20(sp)
 26c:	01812e83          	lw	t4,24(sp)
 270:	01c12f03          	lw	t5,28(sp)
 274:	02012f83          	lw	t6,32(sp)
 278:	02412503          	lw	a0,36(sp)
 27c:	02812583          	lw	a1,40(sp)
 280:	02c12603          	lw	a2,44(sp)
 284:	03012683          	lw	a3,48(sp)
 288:	03412703          	lw	a4,52(sp)
 28c:	03812783          	lw	a5,56(sp)
 290:	03c12803          	lw	a6,60(sp)
 294:	04012883          	lw	a7,64(sp)
 298:	05010113          	addi	sp,sp,80

#ifdef CONFIG_PMP_STACK_GUARD
	csrrw sp, mscratch, sp
#endif /* CONFIG_PMP_STACK_GUARD */
	/* Call SOC_ERET to exit ISR */
	SOC_ERET
 29c:	30200073          	mret

000002a0 <__soc_handle_irq>:
 * SOC-specific function to handle pending IRQ number generating the interrupt.
 * Exception number is given as parameter via register a0.
 */
SECTION_FUNC(exception.other, __soc_handle_irq)
	/* Clear exception number from CSR mip register */
	li t1, 1
 2a0:	00100313          	li	t1,1
	sll t0, t1, a0
 2a4:	00a312b3          	sll	t0,t1,a0
	csrrc t1, mip, t0
 2a8:	3442b373          	csrrc	t1,mip,t0

	/* Return */
	jalr x0, ra
 2ac:	00008067          	ret

000002b0 <__soc_is_irq>:
 * return 1 (interrupt) or 0 (exception)
 *
 */
SECTION_FUNC(exception.other, __soc_is_irq)
	/* Read mcause and check if interrupt bit is set */
	csrr t0, mcause
 2b0:	342022f3          	csrr	t0,mcause
	li t1, SOC_MCAUSE_IRQ_MASK
 2b4:	80000337          	lui	t1,0x80000
	and t0, t0, t1
 2b8:	0062f2b3          	and	t0,t0,t1

	/* If interrupt bit is not set, return with 0 */
	addi a0, x0, 0
 2bc:	00000513          	li	a0,0
	beqz t0, not_interrupt
 2c0:	00028463          	beqz	t0,2c8 <not_interrupt>
	addi a0, a0, 1
 2c4:	00150513          	addi	a0,a0,1

000002c8 <not_interrupt>:

not_interrupt:
	/* return */
	jalr x0, ra
 2c8:	00008067          	ret

000002cc <arch_swap>:
 * key is stored in a0 register
 */
SECTION_FUNC(exception.other, arch_swap)

	/* Make a system call to perform context switch */
	ecall
 2cc:	00000073          	ecall
	 * Prior to unlocking irq, load return value of
	 * arch_swap to temp register t2 (from
	 * _thread_offset_to_swap_return_value). Normally, it should be -EAGAIN,
	 * unless someone has previously called arch_thread_return_value_set(..).
	 */
	la t0, _kernel
 2d0:	0000d297          	auipc	t0,0xd
 2d4:	22c28293          	addi	t0,t0,556 # d4fc <_kernel>

	/* Get pointer to _kernel.current */
	RV_OP_LOADREG t1, _kernel_offset_to_current(t0)
 2d8:	0082a303          	lw	t1,8(t0)

	/* Load return value of arch_swap function in temp register t2 */
	lw t2, _thread_offset_to_swap_return_value(t1)
 2dc:	07832383          	lw	t2,120(t1) # 80000078 <CONFIG_SYSTEM_WORKQUEUE_PRIORITY+0x80000079>

	/*
	 * Unlock irq, following IRQ lock state in a0 register.
	 * Use atomic instruction csrrs to do so.
	 */
	andi a0, a0, MSTATUS_IEN
 2e0:	00857513          	andi	a0,a0,8
	csrrs t0, mstatus, a0
 2e4:	300522f3          	csrrs	t0,mstatus,a0

	/* Set value of return register a0 to value of register t2 */
	addi a0, t2, 0
 2e8:	00038513          	mv	a0,t2

	/* Return */
	jalr x0, ra
 2ec:	00008067          	ret

Disassembly of section text:

000002f0 <__clzsi2>:
     2f0:	000107b7          	lui	a5,0x10
     2f4:	02f57a63          	bgeu	a0,a5,328 <__clzsi2+0x38>
     2f8:	0ff00793          	li	a5,255
     2fc:	00a7b7b3          	sltu	a5,a5,a0
     300:	00379793          	slli	a5,a5,0x3
     304:	0000c737          	lui	a4,0xc
     308:	02000693          	li	a3,32
     30c:	40f686b3          	sub	a3,a3,a5
     310:	00f55533          	srl	a0,a0,a5
     314:	79c70793          	addi	a5,a4,1948 # c79c <__clz_tab>
     318:	00a78533          	add	a0,a5,a0
     31c:	00054503          	lbu	a0,0(a0)
     320:	40a68533          	sub	a0,a3,a0
     324:	00008067          	ret
     328:	01000737          	lui	a4,0x1000
     32c:	01000793          	li	a5,16
     330:	fce56ae3          	bltu	a0,a4,304 <__clzsi2+0x14>
     334:	01800793          	li	a5,24
     338:	fcdff06f          	j	304 <__clzsi2+0x14>

0000033c <__udivdi3>:
     33c:	00050893          	mv	a7,a0
     340:	00058793          	mv	a5,a1
     344:	00060813          	mv	a6,a2
     348:	00068513          	mv	a0,a3
     34c:	00088313          	mv	t1,a7
     350:	28069463          	bnez	a3,5d8 <CONFIG_MAIN_STACK_SIZE+0x1d8>
     354:	0000c6b7          	lui	a3,0xc
     358:	79c68693          	addi	a3,a3,1948 # c79c <__clz_tab>
     35c:	0ec5f663          	bgeu	a1,a2,448 <CONFIG_MAIN_STACK_SIZE+0x48>
     360:	00010737          	lui	a4,0x10
     364:	0ce67863          	bgeu	a2,a4,434 <CONFIG_MAIN_STACK_SIZE+0x34>
     368:	0ff00713          	li	a4,255
     36c:	00c73733          	sltu	a4,a4,a2
     370:	00371713          	slli	a4,a4,0x3
     374:	00e65533          	srl	a0,a2,a4
     378:	00a686b3          	add	a3,a3,a0
     37c:	0006c683          	lbu	a3,0(a3)
     380:	02000513          	li	a0,32
     384:	00e68733          	add	a4,a3,a4
     388:	40e506b3          	sub	a3,a0,a4
     38c:	00e50c63          	beq	a0,a4,3a4 <__udivdi3+0x68>
     390:	00d795b3          	sll	a1,a5,a3
     394:	00e8d733          	srl	a4,a7,a4
     398:	00d61833          	sll	a6,a2,a3
     39c:	00b765b3          	or	a1,a4,a1
     3a0:	00d89333          	sll	t1,a7,a3
     3a4:	01085893          	srli	a7,a6,0x10
     3a8:	0315d6b3          	divu	a3,a1,a7
     3ac:	01081613          	slli	a2,a6,0x10
     3b0:	01065613          	srli	a2,a2,0x10
     3b4:	01035793          	srli	a5,t1,0x10
     3b8:	0315f733          	remu	a4,a1,a7
     3bc:	00068513          	mv	a0,a3
     3c0:	02d605b3          	mul	a1,a2,a3
     3c4:	01071713          	slli	a4,a4,0x10
     3c8:	00f767b3          	or	a5,a4,a5
     3cc:	00b7fe63          	bgeu	a5,a1,3e8 <__udivdi3+0xac>
     3d0:	010787b3          	add	a5,a5,a6
     3d4:	fff68513          	addi	a0,a3,-1
     3d8:	0107e863          	bltu	a5,a6,3e8 <__udivdi3+0xac>
     3dc:	00b7f663          	bgeu	a5,a1,3e8 <__udivdi3+0xac>
     3e0:	ffe68513          	addi	a0,a3,-2
     3e4:	010787b3          	add	a5,a5,a6
     3e8:	40b787b3          	sub	a5,a5,a1
     3ec:	0317f733          	remu	a4,a5,a7
     3f0:	01031313          	slli	t1,t1,0x10
     3f4:	01035313          	srli	t1,t1,0x10
     3f8:	0317d7b3          	divu	a5,a5,a7
     3fc:	01071713          	slli	a4,a4,0x10
     400:	00676333          	or	t1,a4,t1
     404:	02f606b3          	mul	a3,a2,a5
     408:	00078613          	mv	a2,a5
     40c:	00d37c63          	bgeu	t1,a3,424 <CONFIG_MAIN_STACK_SIZE+0x24>
     410:	00680333          	add	t1,a6,t1
     414:	fff78613          	addi	a2,a5,-1 # ffff <W1+0x8df>
     418:	01036663          	bltu	t1,a6,424 <CONFIG_MAIN_STACK_SIZE+0x24>
     41c:	00d37463          	bgeu	t1,a3,424 <CONFIG_MAIN_STACK_SIZE+0x24>
     420:	ffe78613          	addi	a2,a5,-2
     424:	01051513          	slli	a0,a0,0x10
     428:	00c56533          	or	a0,a0,a2
     42c:	00000593          	li	a1,0
     430:	0e40006f          	j	514 <CONFIG_MAIN_STACK_SIZE+0x114>
     434:	01000537          	lui	a0,0x1000
     438:	01000713          	li	a4,16
     43c:	f2a66ce3          	bltu	a2,a0,374 <__udivdi3+0x38>
     440:	01800713          	li	a4,24
     444:	f31ff06f          	j	374 <__udivdi3+0x38>
     448:	00061663          	bnez	a2,454 <CONFIG_MAIN_STACK_SIZE+0x54>
     44c:	00100713          	li	a4,1
     450:	02c75833          	divu	a6,a4,a2
     454:	00010737          	lui	a4,0x10
     458:	0ce87063          	bgeu	a6,a4,518 <CONFIG_MAIN_STACK_SIZE+0x118>
     45c:	0ff00713          	li	a4,255
     460:	01077463          	bgeu	a4,a6,468 <CONFIG_MAIN_STACK_SIZE+0x68>
     464:	00800513          	li	a0,8
     468:	00a85733          	srl	a4,a6,a0
     46c:	00e686b3          	add	a3,a3,a4
     470:	0006c703          	lbu	a4,0(a3)
     474:	02000613          	li	a2,32
     478:	00a70733          	add	a4,a4,a0
     47c:	40e606b3          	sub	a3,a2,a4
     480:	0ae61663          	bne	a2,a4,52c <CONFIG_MAIN_STACK_SIZE+0x12c>
     484:	410787b3          	sub	a5,a5,a6
     488:	00100593          	li	a1,1
     48c:	01085893          	srli	a7,a6,0x10
     490:	01081613          	slli	a2,a6,0x10
     494:	01065613          	srli	a2,a2,0x10
     498:	01035713          	srli	a4,t1,0x10
     49c:	0317f6b3          	remu	a3,a5,a7
     4a0:	0317d7b3          	divu	a5,a5,a7
     4a4:	01069693          	slli	a3,a3,0x10
     4a8:	00e6e733          	or	a4,a3,a4
     4ac:	02f60e33          	mul	t3,a2,a5
     4b0:	00078513          	mv	a0,a5
     4b4:	01c77e63          	bgeu	a4,t3,4d0 <CONFIG_MAIN_STACK_SIZE+0xd0>
     4b8:	01070733          	add	a4,a4,a6
     4bc:	fff78513          	addi	a0,a5,-1
     4c0:	01076863          	bltu	a4,a6,4d0 <CONFIG_MAIN_STACK_SIZE+0xd0>
     4c4:	01c77663          	bgeu	a4,t3,4d0 <CONFIG_MAIN_STACK_SIZE+0xd0>
     4c8:	ffe78513          	addi	a0,a5,-2
     4cc:	01070733          	add	a4,a4,a6
     4d0:	41c70733          	sub	a4,a4,t3
     4d4:	031777b3          	remu	a5,a4,a7
     4d8:	01031313          	slli	t1,t1,0x10
     4dc:	01035313          	srli	t1,t1,0x10
     4e0:	03175733          	divu	a4,a4,a7
     4e4:	01079793          	slli	a5,a5,0x10
     4e8:	0067e333          	or	t1,a5,t1
     4ec:	02e606b3          	mul	a3,a2,a4
     4f0:	00070613          	mv	a2,a4
     4f4:	00d37c63          	bgeu	t1,a3,50c <CONFIG_MAIN_STACK_SIZE+0x10c>
     4f8:	00680333          	add	t1,a6,t1
     4fc:	fff70613          	addi	a2,a4,-1 # ffff <W1+0x8df>
     500:	01036663          	bltu	t1,a6,50c <CONFIG_MAIN_STACK_SIZE+0x10c>
     504:	00d37463          	bgeu	t1,a3,50c <CONFIG_MAIN_STACK_SIZE+0x10c>
     508:	ffe70613          	addi	a2,a4,-2
     50c:	01051513          	slli	a0,a0,0x10
     510:	00c56533          	or	a0,a0,a2
     514:	00008067          	ret
     518:	01000737          	lui	a4,0x1000
     51c:	01000513          	li	a0,16
     520:	f4e864e3          	bltu	a6,a4,468 <CONFIG_MAIN_STACK_SIZE+0x68>
     524:	01800513          	li	a0,24
     528:	f41ff06f          	j	468 <CONFIG_MAIN_STACK_SIZE+0x68>
     52c:	00d81833          	sll	a6,a6,a3
     530:	00e7d533          	srl	a0,a5,a4
     534:	00d89333          	sll	t1,a7,a3
     538:	00d797b3          	sll	a5,a5,a3
     53c:	00e8d733          	srl	a4,a7,a4
     540:	01085893          	srli	a7,a6,0x10
     544:	00f76633          	or	a2,a4,a5
     548:	03157733          	remu	a4,a0,a7
     54c:	01081793          	slli	a5,a6,0x10
     550:	0107d793          	srli	a5,a5,0x10
     554:	01065593          	srli	a1,a2,0x10
     558:	03155533          	divu	a0,a0,a7
     55c:	01071713          	slli	a4,a4,0x10
     560:	00b76733          	or	a4,a4,a1
     564:	02a786b3          	mul	a3,a5,a0
     568:	00050593          	mv	a1,a0
     56c:	00d77e63          	bgeu	a4,a3,588 <CONFIG_MAIN_STACK_SIZE+0x188>
     570:	01070733          	add	a4,a4,a6
     574:	fff50593          	addi	a1,a0,-1 # ffffff <CONFIG_HEAP_MEM_POOL_SIZE+0xefffff>
     578:	01076863          	bltu	a4,a6,588 <CONFIG_MAIN_STACK_SIZE+0x188>
     57c:	00d77663          	bgeu	a4,a3,588 <CONFIG_MAIN_STACK_SIZE+0x188>
     580:	ffe50593          	addi	a1,a0,-2
     584:	01070733          	add	a4,a4,a6
     588:	40d706b3          	sub	a3,a4,a3
     58c:	0316f733          	remu	a4,a3,a7
     590:	01061613          	slli	a2,a2,0x10
     594:	01065613          	srli	a2,a2,0x10
     598:	0316d6b3          	divu	a3,a3,a7
     59c:	01071713          	slli	a4,a4,0x10
     5a0:	02d78533          	mul	a0,a5,a3
     5a4:	00c767b3          	or	a5,a4,a2
     5a8:	00068713          	mv	a4,a3
     5ac:	00a7fe63          	bgeu	a5,a0,5c8 <CONFIG_MAIN_STACK_SIZE+0x1c8>
     5b0:	010787b3          	add	a5,a5,a6
     5b4:	fff68713          	addi	a4,a3,-1
     5b8:	0107e863          	bltu	a5,a6,5c8 <CONFIG_MAIN_STACK_SIZE+0x1c8>
     5bc:	00a7f663          	bgeu	a5,a0,5c8 <CONFIG_MAIN_STACK_SIZE+0x1c8>
     5c0:	ffe68713          	addi	a4,a3,-2
     5c4:	010787b3          	add	a5,a5,a6
     5c8:	01059593          	slli	a1,a1,0x10
     5cc:	40a787b3          	sub	a5,a5,a0
     5d0:	00e5e5b3          	or	a1,a1,a4
     5d4:	eb9ff06f          	j	48c <CONFIG_MAIN_STACK_SIZE+0x8c>
     5d8:	18d5e663          	bltu	a1,a3,764 <CONFIG_MAIN_STACK_SIZE+0x364>
     5dc:	00010737          	lui	a4,0x10
     5e0:	04e6f463          	bgeu	a3,a4,628 <CONFIG_MAIN_STACK_SIZE+0x228>
     5e4:	0ff00713          	li	a4,255
     5e8:	00d735b3          	sltu	a1,a4,a3
     5ec:	00359593          	slli	a1,a1,0x3
     5f0:	0000c737          	lui	a4,0xc
     5f4:	00b6d533          	srl	a0,a3,a1
     5f8:	79c70713          	addi	a4,a4,1948 # c79c <__clz_tab>
     5fc:	00a70733          	add	a4,a4,a0
     600:	00074703          	lbu	a4,0(a4)
     604:	02000513          	li	a0,32
     608:	00b70733          	add	a4,a4,a1
     60c:	40e505b3          	sub	a1,a0,a4
     610:	02e51663          	bne	a0,a4,63c <CONFIG_MAIN_STACK_SIZE+0x23c>
     614:	00100513          	li	a0,1
     618:	eef6eee3          	bltu	a3,a5,514 <CONFIG_MAIN_STACK_SIZE+0x114>
     61c:	00c8b533          	sltu	a0,a7,a2
     620:	00154513          	xori	a0,a0,1
     624:	ef1ff06f          	j	514 <CONFIG_MAIN_STACK_SIZE+0x114>
     628:	01000737          	lui	a4,0x1000
     62c:	01000593          	li	a1,16
     630:	fce6e0e3          	bltu	a3,a4,5f0 <CONFIG_MAIN_STACK_SIZE+0x1f0>
     634:	01800593          	li	a1,24
     638:	fb9ff06f          	j	5f0 <CONFIG_MAIN_STACK_SIZE+0x1f0>
     63c:	00e65833          	srl	a6,a2,a4
     640:	00b696b3          	sll	a3,a3,a1
     644:	00d86833          	or	a6,a6,a3
     648:	00e7de33          	srl	t3,a5,a4
     64c:	01085e93          	srli	t4,a6,0x10
     650:	03de76b3          	remu	a3,t3,t4
     654:	00b797b3          	sll	a5,a5,a1
     658:	00e8d733          	srl	a4,a7,a4
     65c:	00b61333          	sll	t1,a2,a1
     660:	00f76633          	or	a2,a4,a5
     664:	01081793          	slli	a5,a6,0x10
     668:	0107d793          	srli	a5,a5,0x10
     66c:	01065713          	srli	a4,a2,0x10
     670:	03de5e33          	divu	t3,t3,t4
     674:	01069693          	slli	a3,a3,0x10
     678:	00e6e733          	or	a4,a3,a4
     67c:	03c78f33          	mul	t5,a5,t3
     680:	000e0513          	mv	a0,t3
     684:	01e77e63          	bgeu	a4,t5,6a0 <CONFIG_MAIN_STACK_SIZE+0x2a0>
     688:	01070733          	add	a4,a4,a6
     68c:	fffe0513          	addi	a0,t3,-1
     690:	01076863          	bltu	a4,a6,6a0 <CONFIG_MAIN_STACK_SIZE+0x2a0>
     694:	01e77663          	bgeu	a4,t5,6a0 <CONFIG_MAIN_STACK_SIZE+0x2a0>
     698:	ffee0513          	addi	a0,t3,-2
     69c:	01070733          	add	a4,a4,a6
     6a0:	41e70733          	sub	a4,a4,t5
     6a4:	03d776b3          	remu	a3,a4,t4
     6a8:	03d75733          	divu	a4,a4,t4
     6ac:	01069693          	slli	a3,a3,0x10
     6b0:	02e78e33          	mul	t3,a5,a4
     6b4:	01061793          	slli	a5,a2,0x10
     6b8:	0107d793          	srli	a5,a5,0x10
     6bc:	00f6e7b3          	or	a5,a3,a5
     6c0:	00070613          	mv	a2,a4
     6c4:	01c7fe63          	bgeu	a5,t3,6e0 <CONFIG_MAIN_STACK_SIZE+0x2e0>
     6c8:	010787b3          	add	a5,a5,a6
     6cc:	fff70613          	addi	a2,a4,-1 # ffffff <CONFIG_HEAP_MEM_POOL_SIZE+0xefffff>
     6d0:	0107e863          	bltu	a5,a6,6e0 <CONFIG_MAIN_STACK_SIZE+0x2e0>
     6d4:	01c7f663          	bgeu	a5,t3,6e0 <CONFIG_MAIN_STACK_SIZE+0x2e0>
     6d8:	ffe70613          	addi	a2,a4,-2
     6dc:	010787b3          	add	a5,a5,a6
     6e0:	01051513          	slli	a0,a0,0x10
     6e4:	00010eb7          	lui	t4,0x10
     6e8:	00c56533          	or	a0,a0,a2
     6ec:	fffe8693          	addi	a3,t4,-1 # ffff <W1+0x8df>
     6f0:	00d57833          	and	a6,a0,a3
     6f4:	01055613          	srli	a2,a0,0x10
     6f8:	00d376b3          	and	a3,t1,a3
     6fc:	01035313          	srli	t1,t1,0x10
     700:	41c787b3          	sub	a5,a5,t3
     704:	02d80e33          	mul	t3,a6,a3
     708:	02d606b3          	mul	a3,a2,a3
     70c:	010e5713          	srli	a4,t3,0x10
     710:	02680833          	mul	a6,a6,t1
     714:	00d80833          	add	a6,a6,a3
     718:	01070733          	add	a4,a4,a6
     71c:	02660633          	mul	a2,a2,t1
     720:	00d77463          	bgeu	a4,a3,728 <CONFIG_MAIN_STACK_SIZE+0x328>
     724:	01d60633          	add	a2,a2,t4
     728:	01075693          	srli	a3,a4,0x10
     72c:	00c68633          	add	a2,a3,a2
     730:	02c7e663          	bltu	a5,a2,75c <CONFIG_MAIN_STACK_SIZE+0x35c>
     734:	cec79ce3          	bne	a5,a2,42c <CONFIG_MAIN_STACK_SIZE+0x2c>
     738:	000107b7          	lui	a5,0x10
     73c:	fff78793          	addi	a5,a5,-1 # ffff <W1+0x8df>
     740:	00f77733          	and	a4,a4,a5
     744:	01071713          	slli	a4,a4,0x10
     748:	00fe7e33          	and	t3,t3,a5
     74c:	00b898b3          	sll	a7,a7,a1
     750:	01c70733          	add	a4,a4,t3
     754:	00000593          	li	a1,0
     758:	dae8fee3          	bgeu	a7,a4,514 <CONFIG_MAIN_STACK_SIZE+0x114>
     75c:	fff50513          	addi	a0,a0,-1
     760:	ccdff06f          	j	42c <CONFIG_MAIN_STACK_SIZE+0x2c>
     764:	00000593          	li	a1,0
     768:	00000513          	li	a0,0
     76c:	da9ff06f          	j	514 <CONFIG_MAIN_STACK_SIZE+0x114>

00000770 <__umoddi3>:
     770:	00050e93          	mv	t4,a0
     774:	00058313          	mv	t1,a1
     778:	00060813          	mv	a6,a2
     77c:	00068793          	mv	a5,a3
     780:	22069a63          	bnez	a3,9b4 <CONFIG_ISR_STACK_SIZE+0x1b4>
     784:	0000c737          	lui	a4,0xc
     788:	79c70713          	addi	a4,a4,1948 # c79c <__clz_tab>
     78c:	0cc5fc63          	bgeu	a1,a2,864 <CONFIG_ISR_STACK_SIZE+0x64>
     790:	000106b7          	lui	a3,0x10
     794:	0ad67e63          	bgeu	a2,a3,850 <CONFIG_ISR_STACK_SIZE+0x50>
     798:	0ff00693          	li	a3,255
     79c:	00c6f463          	bgeu	a3,a2,7a4 <__umoddi3+0x34>
     7a0:	00800793          	li	a5,8
     7a4:	00f656b3          	srl	a3,a2,a5
     7a8:	00d70733          	add	a4,a4,a3
     7ac:	00074703          	lbu	a4,0(a4)
     7b0:	00f707b3          	add	a5,a4,a5
     7b4:	02000713          	li	a4,32
     7b8:	40f708b3          	sub	a7,a4,a5
     7bc:	00f70c63          	beq	a4,a5,7d4 <__umoddi3+0x64>
     7c0:	011315b3          	sll	a1,t1,a7
     7c4:	00fed7b3          	srl	a5,t4,a5
     7c8:	01161833          	sll	a6,a2,a7
     7cc:	00b7e5b3          	or	a1,a5,a1
     7d0:	011e9533          	sll	a0,t4,a7
     7d4:	01085693          	srli	a3,a6,0x10
     7d8:	02d5f7b3          	remu	a5,a1,a3
     7dc:	01081613          	slli	a2,a6,0x10
     7e0:	01065613          	srli	a2,a2,0x10
     7e4:	01055713          	srli	a4,a0,0x10
     7e8:	02d5d5b3          	divu	a1,a1,a3
     7ec:	01079793          	slli	a5,a5,0x10
     7f0:	00e7e733          	or	a4,a5,a4
     7f4:	02b605b3          	mul	a1,a2,a1
     7f8:	00b77a63          	bgeu	a4,a1,80c <CONFIG_ISR_STACK_SIZE+0xc>
     7fc:	01070733          	add	a4,a4,a6
     800:	01076663          	bltu	a4,a6,80c <CONFIG_ISR_STACK_SIZE+0xc>
     804:	00b77463          	bgeu	a4,a1,80c <CONFIG_ISR_STACK_SIZE+0xc>
     808:	01070733          	add	a4,a4,a6
     80c:	40b70733          	sub	a4,a4,a1
     810:	02d777b3          	remu	a5,a4,a3
     814:	01051513          	slli	a0,a0,0x10
     818:	01055513          	srli	a0,a0,0x10
     81c:	02d75733          	divu	a4,a4,a3
     820:	01079793          	slli	a5,a5,0x10
     824:	00a7e533          	or	a0,a5,a0
     828:	02e60733          	mul	a4,a2,a4
     82c:	00e57a63          	bgeu	a0,a4,840 <CONFIG_ISR_STACK_SIZE+0x40>
     830:	01050533          	add	a0,a0,a6
     834:	01056663          	bltu	a0,a6,840 <CONFIG_ISR_STACK_SIZE+0x40>
     838:	00e57463          	bgeu	a0,a4,840 <CONFIG_ISR_STACK_SIZE+0x40>
     83c:	01050533          	add	a0,a0,a6
     840:	40e50533          	sub	a0,a0,a4
     844:	01155533          	srl	a0,a0,a7
     848:	00000593          	li	a1,0
     84c:	00008067          	ret
     850:	010006b7          	lui	a3,0x1000
     854:	01000793          	li	a5,16
     858:	f4d666e3          	bltu	a2,a3,7a4 <__umoddi3+0x34>
     85c:	01800793          	li	a5,24
     860:	f45ff06f          	j	7a4 <__umoddi3+0x34>
     864:	00061663          	bnez	a2,870 <CONFIG_ISR_STACK_SIZE+0x70>
     868:	00100693          	li	a3,1
     86c:	02c6d833          	divu	a6,a3,a2
     870:	000106b7          	lui	a3,0x10
     874:	12d87663          	bgeu	a6,a3,9a0 <CONFIG_ISR_STACK_SIZE+0x1a0>
     878:	0ff00693          	li	a3,255
     87c:	0106f463          	bgeu	a3,a6,884 <CONFIG_ISR_STACK_SIZE+0x84>
     880:	00800793          	li	a5,8
     884:	00f856b3          	srl	a3,a6,a5
     888:	00d70733          	add	a4,a4,a3
     88c:	00074603          	lbu	a2,0(a4)
     890:	410305b3          	sub	a1,t1,a6
     894:	00f60633          	add	a2,a2,a5
     898:	02000793          	li	a5,32
     89c:	40c788b3          	sub	a7,a5,a2
     8a0:	08c78663          	beq	a5,a2,92c <CONFIG_ISR_STACK_SIZE+0x12c>
     8a4:	01181833          	sll	a6,a6,a7
     8a8:	00c357b3          	srl	a5,t1,a2
     8ac:	011315b3          	sll	a1,t1,a7
     8b0:	01085313          	srli	t1,a6,0x10
     8b4:	00ced633          	srl	a2,t4,a2
     8b8:	00b66633          	or	a2,a2,a1
     8bc:	01081593          	slli	a1,a6,0x10
     8c0:	0105d593          	srli	a1,a1,0x10
     8c4:	011e9533          	sll	a0,t4,a7
     8c8:	0267d6b3          	divu	a3,a5,t1
     8cc:	0267f733          	remu	a4,a5,t1
     8d0:	01065793          	srli	a5,a2,0x10
     8d4:	02d586b3          	mul	a3,a1,a3
     8d8:	01071713          	slli	a4,a4,0x10
     8dc:	00f76733          	or	a4,a4,a5
     8e0:	00d77a63          	bgeu	a4,a3,8f4 <CONFIG_ISR_STACK_SIZE+0xf4>
     8e4:	01070733          	add	a4,a4,a6
     8e8:	01076663          	bltu	a4,a6,8f4 <CONFIG_ISR_STACK_SIZE+0xf4>
     8ec:	00d77463          	bgeu	a4,a3,8f4 <CONFIG_ISR_STACK_SIZE+0xf4>
     8f0:	01070733          	add	a4,a4,a6
     8f4:	40d706b3          	sub	a3,a4,a3
     8f8:	0266f733          	remu	a4,a3,t1
     8fc:	01061613          	slli	a2,a2,0x10
     900:	01065613          	srli	a2,a2,0x10
     904:	0266d6b3          	divu	a3,a3,t1
     908:	01071713          	slli	a4,a4,0x10
     90c:	02d586b3          	mul	a3,a1,a3
     910:	00c765b3          	or	a1,a4,a2
     914:	00d5fa63          	bgeu	a1,a3,928 <CONFIG_ISR_STACK_SIZE+0x128>
     918:	010585b3          	add	a1,a1,a6
     91c:	0105e663          	bltu	a1,a6,928 <CONFIG_ISR_STACK_SIZE+0x128>
     920:	00d5f463          	bgeu	a1,a3,928 <CONFIG_ISR_STACK_SIZE+0x128>
     924:	010585b3          	add	a1,a1,a6
     928:	40d585b3          	sub	a1,a1,a3
     92c:	01085693          	srli	a3,a6,0x10
     930:	02d5f733          	remu	a4,a1,a3
     934:	01081793          	slli	a5,a6,0x10
     938:	0107d793          	srli	a5,a5,0x10
     93c:	01055613          	srli	a2,a0,0x10
     940:	02d5d5b3          	divu	a1,a1,a3
     944:	01071713          	slli	a4,a4,0x10
     948:	00c76733          	or	a4,a4,a2
     94c:	02b785b3          	mul	a1,a5,a1
     950:	00b77a63          	bgeu	a4,a1,964 <CONFIG_ISR_STACK_SIZE+0x164>
     954:	01070733          	add	a4,a4,a6
     958:	01076663          	bltu	a4,a6,964 <CONFIG_ISR_STACK_SIZE+0x164>
     95c:	00b77463          	bgeu	a4,a1,964 <CONFIG_ISR_STACK_SIZE+0x164>
     960:	01070733          	add	a4,a4,a6
     964:	40b705b3          	sub	a1,a4,a1
     968:	02d5f733          	remu	a4,a1,a3
     96c:	01051513          	slli	a0,a0,0x10
     970:	01055513          	srli	a0,a0,0x10
     974:	02d5d5b3          	divu	a1,a1,a3
     978:	02b785b3          	mul	a1,a5,a1
     97c:	01071793          	slli	a5,a4,0x10
     980:	00a7e533          	or	a0,a5,a0
     984:	00b57a63          	bgeu	a0,a1,998 <CONFIG_ISR_STACK_SIZE+0x198>
     988:	01050533          	add	a0,a0,a6
     98c:	01056663          	bltu	a0,a6,998 <CONFIG_ISR_STACK_SIZE+0x198>
     990:	00b57463          	bgeu	a0,a1,998 <CONFIG_ISR_STACK_SIZE+0x198>
     994:	01050533          	add	a0,a0,a6
     998:	40b50533          	sub	a0,a0,a1
     99c:	ea9ff06f          	j	844 <CONFIG_ISR_STACK_SIZE+0x44>
     9a0:	010006b7          	lui	a3,0x1000
     9a4:	01000793          	li	a5,16
     9a8:	ecd86ee3          	bltu	a6,a3,884 <CONFIG_ISR_STACK_SIZE+0x84>
     9ac:	01800793          	li	a5,24
     9b0:	ed5ff06f          	j	884 <CONFIG_ISR_STACK_SIZE+0x84>
     9b4:	e8d5ece3          	bltu	a1,a3,84c <CONFIG_ISR_STACK_SIZE+0x4c>
     9b8:	000107b7          	lui	a5,0x10
     9bc:	04f6f863          	bgeu	a3,a5,a0c <CONFIG_ISR_STACK_SIZE+0x20c>
     9c0:	0ff00893          	li	a7,255
     9c4:	00d8b7b3          	sltu	a5,a7,a3
     9c8:	00379793          	slli	a5,a5,0x3
     9cc:	0000c737          	lui	a4,0xc
     9d0:	00f6d833          	srl	a6,a3,a5
     9d4:	79c70713          	addi	a4,a4,1948 # c79c <__clz_tab>
     9d8:	01070733          	add	a4,a4,a6
     9dc:	00074883          	lbu	a7,0(a4)
     9e0:	00f888b3          	add	a7,a7,a5
     9e4:	02000793          	li	a5,32
     9e8:	41178833          	sub	a6,a5,a7
     9ec:	03179a63          	bne	a5,a7,a20 <CONFIG_ISR_STACK_SIZE+0x220>
     9f0:	0066e463          	bltu	a3,t1,9f8 <CONFIG_ISR_STACK_SIZE+0x1f8>
     9f4:	e4ceece3          	bltu	t4,a2,84c <CONFIG_ISR_STACK_SIZE+0x4c>
     9f8:	40ce8533          	sub	a0,t4,a2
     9fc:	40d305b3          	sub	a1,t1,a3
     a00:	00aebeb3          	sltu	t4,t4,a0
     a04:	41d585b3          	sub	a1,a1,t4
     a08:	e45ff06f          	j	84c <CONFIG_ISR_STACK_SIZE+0x4c>
     a0c:	01000737          	lui	a4,0x1000
     a10:	01000793          	li	a5,16
     a14:	fae6ece3          	bltu	a3,a4,9cc <CONFIG_ISR_STACK_SIZE+0x1cc>
     a18:	01800793          	li	a5,24
     a1c:	fb1ff06f          	j	9cc <CONFIG_ISR_STACK_SIZE+0x1cc>
     a20:	011657b3          	srl	a5,a2,a7
     a24:	010696b3          	sll	a3,a3,a6
     a28:	00d7ee33          	or	t3,a5,a3
     a2c:	01135f33          	srl	t5,t1,a7
     a30:	011ed7b3          	srl	a5,t4,a7
     a34:	010e9533          	sll	a0,t4,a6
     a38:	010e5e93          	srli	t4,t3,0x10
     a3c:	010315b3          	sll	a1,t1,a6
     a40:	03df5333          	divu	t1,t5,t4
     a44:	00b7e7b3          	or	a5,a5,a1
     a48:	010e1593          	slli	a1,t3,0x10
     a4c:	0105d593          	srli	a1,a1,0x10
     a50:	0107d713          	srli	a4,a5,0x10
     a54:	01061633          	sll	a2,a2,a6
     a58:	03df76b3          	remu	a3,t5,t4
     a5c:	02658f33          	mul	t5,a1,t1
     a60:	01069693          	slli	a3,a3,0x10
     a64:	00e6e733          	or	a4,a3,a4
     a68:	00030693          	mv	a3,t1
     a6c:	01e77e63          	bgeu	a4,t5,a88 <CONFIG_ISR_STACK_SIZE+0x288>
     a70:	01c70733          	add	a4,a4,t3
     a74:	fff30693          	addi	a3,t1,-1
     a78:	01c76863          	bltu	a4,t3,a88 <CONFIG_ISR_STACK_SIZE+0x288>
     a7c:	01e77663          	bgeu	a4,t5,a88 <CONFIG_ISR_STACK_SIZE+0x288>
     a80:	ffe30693          	addi	a3,t1,-2
     a84:	01c70733          	add	a4,a4,t3
     a88:	41e70733          	sub	a4,a4,t5
     a8c:	03d77333          	remu	t1,a4,t4
     a90:	01079793          	slli	a5,a5,0x10
     a94:	0107d793          	srli	a5,a5,0x10
     a98:	03d75733          	divu	a4,a4,t4
     a9c:	01031313          	slli	t1,t1,0x10
     aa0:	00f36333          	or	t1,t1,a5
     aa4:	02e585b3          	mul	a1,a1,a4
     aa8:	00070793          	mv	a5,a4
     aac:	00b37e63          	bgeu	t1,a1,ac8 <CONFIG_ISR_STACK_SIZE+0x2c8>
     ab0:	01c30333          	add	t1,t1,t3
     ab4:	fff70793          	addi	a5,a4,-1 # ffffff <CONFIG_HEAP_MEM_POOL_SIZE+0xefffff>
     ab8:	01c36863          	bltu	t1,t3,ac8 <CONFIG_ISR_STACK_SIZE+0x2c8>
     abc:	00b37663          	bgeu	t1,a1,ac8 <CONFIG_ISR_STACK_SIZE+0x2c8>
     ac0:	ffe70793          	addi	a5,a4,-2
     ac4:	01c30333          	add	t1,t1,t3
     ac8:	01069693          	slli	a3,a3,0x10
     acc:	00010f37          	lui	t5,0x10
     ad0:	00f6e6b3          	or	a3,a3,a5
     ad4:	40b305b3          	sub	a1,t1,a1
     ad8:	ffff0313          	addi	t1,t5,-1 # ffff <W1+0x8df>
     adc:	0066feb3          	and	t4,a3,t1
     ae0:	01065713          	srli	a4,a2,0x10
     ae4:	0106d693          	srli	a3,a3,0x10
     ae8:	00667333          	and	t1,a2,t1
     aec:	026e87b3          	mul	a5,t4,t1
     af0:	02668333          	mul	t1,a3,t1
     af4:	02ee8eb3          	mul	t4,t4,a4
     af8:	02e686b3          	mul	a3,a3,a4
     afc:	006e8eb3          	add	t4,t4,t1
     b00:	0107d713          	srli	a4,a5,0x10
     b04:	01d70733          	add	a4,a4,t4
     b08:	00677463          	bgeu	a4,t1,b10 <CONFIG_ISR_STACK_SIZE+0x310>
     b0c:	01e686b3          	add	a3,a3,t5
     b10:	01075313          	srli	t1,a4,0x10
     b14:	00d306b3          	add	a3,t1,a3
     b18:	00010337          	lui	t1,0x10
     b1c:	fff30313          	addi	t1,t1,-1 # ffff <W1+0x8df>
     b20:	00677733          	and	a4,a4,t1
     b24:	01071713          	slli	a4,a4,0x10
     b28:	0067f7b3          	and	a5,a5,t1
     b2c:	00f707b3          	add	a5,a4,a5
     b30:	00d5e663          	bltu	a1,a3,b3c <CONFIG_ISR_STACK_SIZE+0x33c>
     b34:	00d59e63          	bne	a1,a3,b50 <CONFIG_ISR_STACK_SIZE+0x350>
     b38:	00f57c63          	bgeu	a0,a5,b50 <CONFIG_ISR_STACK_SIZE+0x350>
     b3c:	40c78633          	sub	a2,a5,a2
     b40:	00c7b7b3          	sltu	a5,a5,a2
     b44:	01c787b3          	add	a5,a5,t3
     b48:	40f686b3          	sub	a3,a3,a5
     b4c:	00060793          	mv	a5,a2
     b50:	40f507b3          	sub	a5,a0,a5
     b54:	00f53533          	sltu	a0,a0,a5
     b58:	40d585b3          	sub	a1,a1,a3
     b5c:	40a585b3          	sub	a1,a1,a0
     b60:	011598b3          	sll	a7,a1,a7
     b64:	0107d533          	srl	a0,a5,a6
     b68:	00a8e533          	or	a0,a7,a0
     b6c:	0105d5b3          	srl	a1,a1,a6
     b70:	cddff06f          	j	84c <CONFIG_ISR_STACK_SIZE+0x4c>

00000b74 <__adddf3>:
     b74:	00100837          	lui	a6,0x100
     b78:	fff80813          	addi	a6,a6,-1 # fffff <__data_region_end+0x7e1e7>
     b7c:	fe010113          	addi	sp,sp,-32
     b80:	00b877b3          	and	a5,a6,a1
     b84:	0145d713          	srli	a4,a1,0x14
     b88:	00d87833          	and	a6,a6,a3
     b8c:	0146d313          	srli	t1,a3,0x14
     b90:	00812c23          	sw	s0,24(sp)
     b94:	00379793          	slli	a5,a5,0x3
     b98:	7ff77413          	andi	s0,a4,2047
     b9c:	01d55713          	srli	a4,a0,0x1d
     ba0:	00381813          	slli	a6,a6,0x3
     ba4:	00912a23          	sw	s1,20(sp)
     ba8:	00f767b3          	or	a5,a4,a5
     bac:	01f5d493          	srli	s1,a1,0x1f
     bb0:	01d65713          	srli	a4,a2,0x1d
     bb4:	7ff37313          	andi	t1,t1,2047
     bb8:	00112e23          	sw	ra,28(sp)
     bbc:	01212823          	sw	s2,16(sp)
     bc0:	01312623          	sw	s3,12(sp)
     bc4:	01f6d693          	srli	a3,a3,0x1f
     bc8:	01076733          	or	a4,a4,a6
     bcc:	00351593          	slli	a1,a0,0x3
     bd0:	00361613          	slli	a2,a2,0x3
     bd4:	40640833          	sub	a6,s0,t1
     bd8:	2cd49863          	bne	s1,a3,ea8 <__adddf3+0x334>
     bdc:	13005063          	blez	a6,cfc <__adddf3+0x188>
     be0:	04031063          	bnez	t1,c20 <__adddf3+0xac>
     be4:	00c766b3          	or	a3,a4,a2
     be8:	70068c63          	beqz	a3,1300 <__adddf3+0x78c>
     bec:	fff80513          	addi	a0,a6,-1
     bf0:	02051063          	bnez	a0,c10 <__adddf3+0x9c>
     bf4:	00c58633          	add	a2,a1,a2
     bf8:	00b63533          	sltu	a0,a2,a1
     bfc:	00e787b3          	add	a5,a5,a4
     c00:	00a787b3          	add	a5,a5,a0
     c04:	00060593          	mv	a1,a2
     c08:	00100413          	li	s0,1
     c0c:	0700006f          	j	c7c <__adddf3+0x108>
     c10:	7ff00693          	li	a3,2047
     c14:	02d81063          	bne	a6,a3,c34 <__adddf3+0xc0>
     c18:	7ff00413          	li	s0,2047
     c1c:	2140006f          	j	e30 <__adddf3+0x2bc>
     c20:	7ff00693          	li	a3,2047
     c24:	20d40663          	beq	s0,a3,e30 <__adddf3+0x2bc>
     c28:	008006b7          	lui	a3,0x800
     c2c:	00d76733          	or	a4,a4,a3
     c30:	00080513          	mv	a0,a6
     c34:	03800693          	li	a3,56
     c38:	0aa6cc63          	blt	a3,a0,cf0 <__adddf3+0x17c>
     c3c:	01f00693          	li	a3,31
     c40:	06a6ce63          	blt	a3,a0,cbc <__adddf3+0x148>
     c44:	02000813          	li	a6,32
     c48:	40a80833          	sub	a6,a6,a0
     c4c:	010716b3          	sll	a3,a4,a6
     c50:	00a658b3          	srl	a7,a2,a0
     c54:	01061633          	sll	a2,a2,a6
     c58:	0116e6b3          	or	a3,a3,a7
     c5c:	00c03633          	snez	a2,a2
     c60:	00c6e633          	or	a2,a3,a2
     c64:	00a75733          	srl	a4,a4,a0
     c68:	00b60633          	add	a2,a2,a1
     c6c:	00b63533          	sltu	a0,a2,a1
     c70:	00f70733          	add	a4,a4,a5
     c74:	00a707b3          	add	a5,a4,a0
     c78:	00060593          	mv	a1,a2
     c7c:	00800737          	lui	a4,0x800
     c80:	00e7f733          	and	a4,a5,a4
     c84:	1a070663          	beqz	a4,e30 <__adddf3+0x2bc>
     c88:	00140413          	addi	s0,s0,1
     c8c:	7ff00713          	li	a4,2047
     c90:	5ce40a63          	beq	s0,a4,1264 <__adddf3+0x6f0>
     c94:	ff800737          	lui	a4,0xff800
     c98:	fff70713          	addi	a4,a4,-1 # ff7fffff <CONFIG_SYSTEM_WORKQUEUE_PRIORITY+0xff800000>
     c9c:	00e7f7b3          	and	a5,a5,a4
     ca0:	0015f513          	andi	a0,a1,1
     ca4:	0015d713          	srli	a4,a1,0x1
     ca8:	00a76533          	or	a0,a4,a0
     cac:	01f79593          	slli	a1,a5,0x1f
     cb0:	00a5e5b3          	or	a1,a1,a0
     cb4:	0017d793          	srli	a5,a5,0x1
     cb8:	1780006f          	j	e30 <__adddf3+0x2bc>
     cbc:	fe050693          	addi	a3,a0,-32
     cc0:	02000893          	li	a7,32
     cc4:	00d756b3          	srl	a3,a4,a3
     cc8:	00000813          	li	a6,0
     ccc:	01150863          	beq	a0,a7,cdc <__adddf3+0x168>
     cd0:	04000813          	li	a6,64
     cd4:	40a80533          	sub	a0,a6,a0
     cd8:	00a71833          	sll	a6,a4,a0
     cdc:	00c86633          	or	a2,a6,a2
     ce0:	00c03633          	snez	a2,a2
     ce4:	00c6e633          	or	a2,a3,a2
     ce8:	00000713          	li	a4,0
     cec:	f7dff06f          	j	c68 <__adddf3+0xf4>
     cf0:	00c76633          	or	a2,a4,a2
     cf4:	00c03633          	snez	a2,a2
     cf8:	ff1ff06f          	j	ce8 <__adddf3+0x174>
     cfc:	0e080263          	beqz	a6,de0 <__adddf3+0x26c>
     d00:	40830533          	sub	a0,t1,s0
     d04:	02041e63          	bnez	s0,d40 <__adddf3+0x1cc>
     d08:	00b7e6b3          	or	a3,a5,a1
     d0c:	52068c63          	beqz	a3,1244 <__adddf3+0x6d0>
     d10:	fff50693          	addi	a3,a0,-1
     d14:	00069c63          	bnez	a3,d2c <__adddf3+0x1b8>
     d18:	00c585b3          	add	a1,a1,a2
     d1c:	00e787b3          	add	a5,a5,a4
     d20:	00c5b633          	sltu	a2,a1,a2
     d24:	00c787b3          	add	a5,a5,a2
     d28:	ee1ff06f          	j	c08 <__adddf3+0x94>
     d2c:	7ff00813          	li	a6,2047
     d30:	03051263          	bne	a0,a6,d54 <__adddf3+0x1e0>
     d34:	00070793          	mv	a5,a4
     d38:	00060593          	mv	a1,a2
     d3c:	eddff06f          	j	c18 <__adddf3+0xa4>
     d40:	7ff00693          	li	a3,2047
     d44:	fed308e3          	beq	t1,a3,d34 <__adddf3+0x1c0>
     d48:	008006b7          	lui	a3,0x800
     d4c:	00d7e7b3          	or	a5,a5,a3
     d50:	00050693          	mv	a3,a0
     d54:	03800513          	li	a0,56
     d58:	06d54e63          	blt	a0,a3,dd4 <__adddf3+0x260>
     d5c:	01f00513          	li	a0,31
     d60:	04d54063          	blt	a0,a3,da0 <__adddf3+0x22c>
     d64:	02000813          	li	a6,32
     d68:	40d80833          	sub	a6,a6,a3
     d6c:	01079533          	sll	a0,a5,a6
     d70:	00d5d8b3          	srl	a7,a1,a3
     d74:	010595b3          	sll	a1,a1,a6
     d78:	01156533          	or	a0,a0,a7
     d7c:	00b035b3          	snez	a1,a1
     d80:	00b56533          	or	a0,a0,a1
     d84:	00d7d7b3          	srl	a5,a5,a3
     d88:	00c505b3          	add	a1,a0,a2
     d8c:	00e787b3          	add	a5,a5,a4
     d90:	00c5b633          	sltu	a2,a1,a2
     d94:	00c787b3          	add	a5,a5,a2
     d98:	00030413          	mv	s0,t1
     d9c:	ee1ff06f          	j	c7c <__adddf3+0x108>
     da0:	fe068513          	addi	a0,a3,-32 # 7fffe0 <CONFIG_HEAP_MEM_POOL_SIZE+0x6fffe0>
     da4:	02000893          	li	a7,32
     da8:	00a7d833          	srl	a6,a5,a0
     dac:	00000513          	li	a0,0
     db0:	01168863          	beq	a3,a7,dc0 <__adddf3+0x24c>
     db4:	04000513          	li	a0,64
     db8:	40d50533          	sub	a0,a0,a3
     dbc:	00a79533          	sll	a0,a5,a0
     dc0:	00b56533          	or	a0,a0,a1
     dc4:	00a03533          	snez	a0,a0
     dc8:	00a86533          	or	a0,a6,a0
     dcc:	00000793          	li	a5,0
     dd0:	fb9ff06f          	j	d88 <__adddf3+0x214>
     dd4:	00b7e533          	or	a0,a5,a1
     dd8:	00a03533          	snez	a0,a0
     ddc:	ff1ff06f          	j	dcc <__adddf3+0x258>
     de0:	00140693          	addi	a3,s0,1
     de4:	7fe6f513          	andi	a0,a3,2046
     de8:	08051863          	bnez	a0,e78 <__adddf3+0x304>
     dec:	00b7e6b3          	or	a3,a5,a1
     df0:	06041463          	bnez	s0,e58 <__adddf3+0x2e4>
     df4:	46068063          	beqz	a3,1254 <__adddf3+0x6e0>
     df8:	00c766b3          	or	a3,a4,a2
     dfc:	02068a63          	beqz	a3,e30 <__adddf3+0x2bc>
     e00:	00c58633          	add	a2,a1,a2
     e04:	00e787b3          	add	a5,a5,a4
     e08:	00b63533          	sltu	a0,a2,a1
     e0c:	00a787b3          	add	a5,a5,a0
     e10:	00800737          	lui	a4,0x800
     e14:	00e7f733          	and	a4,a5,a4
     e18:	00060593          	mv	a1,a2
     e1c:	00070a63          	beqz	a4,e30 <__adddf3+0x2bc>
     e20:	ff800737          	lui	a4,0xff800
     e24:	fff70713          	addi	a4,a4,-1 # ff7fffff <CONFIG_SYSTEM_WORKQUEUE_PRIORITY+0xff800000>
     e28:	00e7f7b3          	and	a5,a5,a4
     e2c:	00100413          	li	s0,1
     e30:	0075f713          	andi	a4,a1,7
     e34:	42070c63          	beqz	a4,126c <__adddf3+0x6f8>
     e38:	00f5f713          	andi	a4,a1,15
     e3c:	00400693          	li	a3,4
     e40:	42d70663          	beq	a4,a3,126c <__adddf3+0x6f8>
     e44:	00458713          	addi	a4,a1,4
     e48:	00b73533          	sltu	a0,a4,a1
     e4c:	00a787b3          	add	a5,a5,a0
     e50:	00070593          	mv	a1,a4
     e54:	4180006f          	j	126c <__adddf3+0x6f8>
     e58:	ec068ee3          	beqz	a3,d34 <__adddf3+0x1c0>
     e5c:	00c76633          	or	a2,a4,a2
     e60:	da060ce3          	beqz	a2,c18 <__adddf3+0xa4>
     e64:	00000493          	li	s1,0
     e68:	004007b7          	lui	a5,0x400
     e6c:	00000593          	li	a1,0
     e70:	7ff00413          	li	s0,2047
     e74:	3f80006f          	j	126c <__adddf3+0x6f8>
     e78:	7ff00513          	li	a0,2047
     e7c:	3ea68263          	beq	a3,a0,1260 <__adddf3+0x6ec>
     e80:	00c58633          	add	a2,a1,a2
     e84:	00b63533          	sltu	a0,a2,a1
     e88:	00e787b3          	add	a5,a5,a4
     e8c:	00a787b3          	add	a5,a5,a0
     e90:	01f79513          	slli	a0,a5,0x1f
     e94:	00165613          	srli	a2,a2,0x1
     e98:	00c565b3          	or	a1,a0,a2
     e9c:	0017d793          	srli	a5,a5,0x1
     ea0:	00068413          	mv	s0,a3
     ea4:	f8dff06f          	j	e30 <__adddf3+0x2bc>
     ea8:	0f005c63          	blez	a6,fa0 <__adddf3+0x42c>
     eac:	08031e63          	bnez	t1,f48 <__adddf3+0x3d4>
     eb0:	00c766b3          	or	a3,a4,a2
     eb4:	44068663          	beqz	a3,1300 <__adddf3+0x78c>
     eb8:	fff80513          	addi	a0,a6,-1
     ebc:	02051063          	bnez	a0,edc <__adddf3+0x368>
     ec0:	40c58633          	sub	a2,a1,a2
     ec4:	00c5b533          	sltu	a0,a1,a2
     ec8:	40e787b3          	sub	a5,a5,a4
     ecc:	40a787b3          	sub	a5,a5,a0
     ed0:	00060593          	mv	a1,a2
     ed4:	00100413          	li	s0,1
     ed8:	0540006f          	j	f2c <__adddf3+0x3b8>
     edc:	7ff00693          	li	a3,2047
     ee0:	d2d80ce3          	beq	a6,a3,c18 <__adddf3+0xa4>
     ee4:	03800693          	li	a3,56
     ee8:	0aa6c663          	blt	a3,a0,f94 <__adddf3+0x420>
     eec:	01f00693          	li	a3,31
     ef0:	06a6c863          	blt	a3,a0,f60 <__adddf3+0x3ec>
     ef4:	02000813          	li	a6,32
     ef8:	40a80833          	sub	a6,a6,a0
     efc:	010716b3          	sll	a3,a4,a6
     f00:	00a658b3          	srl	a7,a2,a0
     f04:	01061633          	sll	a2,a2,a6
     f08:	0116e6b3          	or	a3,a3,a7
     f0c:	00c03633          	snez	a2,a2
     f10:	00c6e633          	or	a2,a3,a2
     f14:	00a75733          	srl	a4,a4,a0
     f18:	40c58633          	sub	a2,a1,a2
     f1c:	00c5b533          	sltu	a0,a1,a2
     f20:	40e78733          	sub	a4,a5,a4
     f24:	40a707b3          	sub	a5,a4,a0
     f28:	00060593          	mv	a1,a2
     f2c:	00800937          	lui	s2,0x800
     f30:	0127f733          	and	a4,a5,s2
     f34:	ee070ee3          	beqz	a4,e30 <__adddf3+0x2bc>
     f38:	fff90913          	addi	s2,s2,-1 # 7fffff <CONFIG_HEAP_MEM_POOL_SIZE+0x6fffff>
     f3c:	0127f933          	and	s2,a5,s2
     f40:	00058993          	mv	s3,a1
     f44:	2140006f          	j	1158 <__adddf3+0x5e4>
     f48:	7ff00693          	li	a3,2047
     f4c:	eed402e3          	beq	s0,a3,e30 <__adddf3+0x2bc>
     f50:	008006b7          	lui	a3,0x800
     f54:	00d76733          	or	a4,a4,a3
     f58:	00080513          	mv	a0,a6
     f5c:	f89ff06f          	j	ee4 <__adddf3+0x370>
     f60:	fe050693          	addi	a3,a0,-32
     f64:	02000893          	li	a7,32
     f68:	00d756b3          	srl	a3,a4,a3
     f6c:	00000813          	li	a6,0
     f70:	01150863          	beq	a0,a7,f80 <__adddf3+0x40c>
     f74:	04000813          	li	a6,64
     f78:	40a80533          	sub	a0,a6,a0
     f7c:	00a71833          	sll	a6,a4,a0
     f80:	00c86633          	or	a2,a6,a2
     f84:	00c03633          	snez	a2,a2
     f88:	00c6e633          	or	a2,a3,a2
     f8c:	00000713          	li	a4,0
     f90:	f89ff06f          	j	f18 <__adddf3+0x3a4>
     f94:	00c76633          	or	a2,a4,a2
     f98:	00c03633          	snez	a2,a2
     f9c:	ff1ff06f          	j	f8c <__adddf3+0x418>
     fa0:	0e080863          	beqz	a6,1090 <__adddf3+0x51c>
     fa4:	40830533          	sub	a0,t1,s0
     fa8:	04041263          	bnez	s0,fec <__adddf3+0x478>
     fac:	00b7e833          	or	a6,a5,a1
     fb0:	34080c63          	beqz	a6,1308 <__adddf3+0x794>
     fb4:	fff50813          	addi	a6,a0,-1
     fb8:	00081e63          	bnez	a6,fd4 <__adddf3+0x460>
     fbc:	40b605b3          	sub	a1,a2,a1
     fc0:	40f707b3          	sub	a5,a4,a5
     fc4:	00b63633          	sltu	a2,a2,a1
     fc8:	40c787b3          	sub	a5,a5,a2
     fcc:	00068493          	mv	s1,a3
     fd0:	f05ff06f          	j	ed4 <__adddf3+0x360>
     fd4:	7ff00893          	li	a7,2047
     fd8:	03151463          	bne	a0,a7,1000 <__adddf3+0x48c>
     fdc:	00070793          	mv	a5,a4
     fe0:	00060593          	mv	a1,a2
     fe4:	7ff00413          	li	s0,2047
     fe8:	0d00006f          	j	10b8 <__adddf3+0x544>
     fec:	7ff00813          	li	a6,2047
     ff0:	ff0306e3          	beq	t1,a6,fdc <__adddf3+0x468>
     ff4:	00800837          	lui	a6,0x800
     ff8:	0107e7b3          	or	a5,a5,a6
     ffc:	00050813          	mv	a6,a0
    1000:	03800513          	li	a0,56
    1004:	09054063          	blt	a0,a6,1084 <__adddf3+0x510>
    1008:	01f00513          	li	a0,31
    100c:	05054263          	blt	a0,a6,1050 <__adddf3+0x4dc>
    1010:	02000893          	li	a7,32
    1014:	410888b3          	sub	a7,a7,a6
    1018:	01179533          	sll	a0,a5,a7
    101c:	0105de33          	srl	t3,a1,a6
    1020:	011595b3          	sll	a1,a1,a7
    1024:	01c56533          	or	a0,a0,t3
    1028:	00b035b3          	snez	a1,a1
    102c:	00b56533          	or	a0,a0,a1
    1030:	0107d7b3          	srl	a5,a5,a6
    1034:	40a605b3          	sub	a1,a2,a0
    1038:	40f707b3          	sub	a5,a4,a5
    103c:	00b63633          	sltu	a2,a2,a1
    1040:	40c787b3          	sub	a5,a5,a2
    1044:	00030413          	mv	s0,t1
    1048:	00068493          	mv	s1,a3
    104c:	ee1ff06f          	j	f2c <__adddf3+0x3b8>
    1050:	fe080513          	addi	a0,a6,-32 # 7fffe0 <CONFIG_HEAP_MEM_POOL_SIZE+0x6fffe0>
    1054:	02000e13          	li	t3,32
    1058:	00a7d8b3          	srl	a7,a5,a0
    105c:	00000513          	li	a0,0
    1060:	01c80863          	beq	a6,t3,1070 <__adddf3+0x4fc>
    1064:	04000513          	li	a0,64
    1068:	41050533          	sub	a0,a0,a6
    106c:	00a79533          	sll	a0,a5,a0
    1070:	00b56533          	or	a0,a0,a1
    1074:	00a03533          	snez	a0,a0
    1078:	00a8e533          	or	a0,a7,a0
    107c:	00000793          	li	a5,0
    1080:	fb5ff06f          	j	1034 <__adddf3+0x4c0>
    1084:	00b7e533          	or	a0,a5,a1
    1088:	00a03533          	snez	a0,a0
    108c:	ff1ff06f          	j	107c <__adddf3+0x508>
    1090:	00140513          	addi	a0,s0,1
    1094:	7fe57513          	andi	a0,a0,2046
    1098:	08051863          	bnez	a0,1128 <__adddf3+0x5b4>
    109c:	00b7e833          	or	a6,a5,a1
    10a0:	00c76533          	or	a0,a4,a2
    10a4:	06041263          	bnez	s0,1108 <__adddf3+0x594>
    10a8:	00081c63          	bnez	a6,10c0 <__adddf3+0x54c>
    10ac:	26050663          	beqz	a0,1318 <__adddf3+0x7a4>
    10b0:	00070793          	mv	a5,a4
    10b4:	00060593          	mv	a1,a2
    10b8:	00068493          	mv	s1,a3
    10bc:	d75ff06f          	j	e30 <__adddf3+0x2bc>
    10c0:	d60508e3          	beqz	a0,e30 <__adddf3+0x2bc>
    10c4:	40c58833          	sub	a6,a1,a2
    10c8:	0105b8b3          	sltu	a7,a1,a6
    10cc:	40e78533          	sub	a0,a5,a4
    10d0:	41150533          	sub	a0,a0,a7
    10d4:	008008b7          	lui	a7,0x800
    10d8:	011578b3          	and	a7,a0,a7
    10dc:	00088c63          	beqz	a7,10f4 <__adddf3+0x580>
    10e0:	40b605b3          	sub	a1,a2,a1
    10e4:	40f707b3          	sub	a5,a4,a5
    10e8:	00b63633          	sltu	a2,a2,a1
    10ec:	40c787b3          	sub	a5,a5,a2
    10f0:	fc9ff06f          	j	10b8 <__adddf3+0x544>
    10f4:	00a865b3          	or	a1,a6,a0
    10f8:	22058863          	beqz	a1,1328 <__adddf3+0x7b4>
    10fc:	00050793          	mv	a5,a0
    1100:	00080593          	mv	a1,a6
    1104:	d2dff06f          	j	e30 <__adddf3+0x2bc>
    1108:	00081c63          	bnez	a6,1120 <__adddf3+0x5ac>
    110c:	22050263          	beqz	a0,1330 <__adddf3+0x7bc>
    1110:	00070793          	mv	a5,a4
    1114:	00060593          	mv	a1,a2
    1118:	00068493          	mv	s1,a3
    111c:	afdff06f          	j	c18 <__adddf3+0xa4>
    1120:	ae050ce3          	beqz	a0,c18 <__adddf3+0xa4>
    1124:	d41ff06f          	j	e64 <__adddf3+0x2f0>
    1128:	40c589b3          	sub	s3,a1,a2
    112c:	0135b533          	sltu	a0,a1,s3
    1130:	40e78933          	sub	s2,a5,a4
    1134:	40a90933          	sub	s2,s2,a0
    1138:	00800537          	lui	a0,0x800
    113c:	00a97533          	and	a0,s2,a0
    1140:	08050463          	beqz	a0,11c8 <__adddf3+0x654>
    1144:	40b609b3          	sub	s3,a2,a1
    1148:	40f707b3          	sub	a5,a4,a5
    114c:	01363633          	sltu	a2,a2,s3
    1150:	40c78933          	sub	s2,a5,a2
    1154:	00068493          	mv	s1,a3
    1158:	08090263          	beqz	s2,11dc <__adddf3+0x668>
    115c:	00090513          	mv	a0,s2
    1160:	990ff0ef          	jal	ra,2f0 <__clzsi2>
    1164:	ff850713          	addi	a4,a0,-8 # 7ffff8 <CONFIG_HEAP_MEM_POOL_SIZE+0x6ffff8>
    1168:	01f00793          	li	a5,31
    116c:	08e7c063          	blt	a5,a4,11ec <__adddf3+0x678>
    1170:	02000793          	li	a5,32
    1174:	40e787b3          	sub	a5,a5,a4
    1178:	00e91933          	sll	s2,s2,a4
    117c:	00f9d7b3          	srl	a5,s3,a5
    1180:	0127e7b3          	or	a5,a5,s2
    1184:	00e995b3          	sll	a1,s3,a4
    1188:	0a874463          	blt	a4,s0,1230 <__adddf3+0x6bc>
    118c:	40870733          	sub	a4,a4,s0
    1190:	00170693          	addi	a3,a4,1
    1194:	01f00613          	li	a2,31
    1198:	06d64263          	blt	a2,a3,11fc <__adddf3+0x688>
    119c:	02000713          	li	a4,32
    11a0:	40d70733          	sub	a4,a4,a3
    11a4:	00e79633          	sll	a2,a5,a4
    11a8:	00d5d533          	srl	a0,a1,a3
    11ac:	00e595b3          	sll	a1,a1,a4
    11b0:	00a66633          	or	a2,a2,a0
    11b4:	00b035b3          	snez	a1,a1
    11b8:	00b665b3          	or	a1,a2,a1
    11bc:	00d7d7b3          	srl	a5,a5,a3
    11c0:	00000413          	li	s0,0
    11c4:	c6dff06f          	j	e30 <__adddf3+0x2bc>
    11c8:	0129e5b3          	or	a1,s3,s2
    11cc:	f80596e3          	bnez	a1,1158 <__adddf3+0x5e4>
    11d0:	00000793          	li	a5,0
    11d4:	00000413          	li	s0,0
    11d8:	1480006f          	j	1320 <__adddf3+0x7ac>
    11dc:	00098513          	mv	a0,s3
    11e0:	910ff0ef          	jal	ra,2f0 <__clzsi2>
    11e4:	02050513          	addi	a0,a0,32
    11e8:	f7dff06f          	j	1164 <__adddf3+0x5f0>
    11ec:	fd850793          	addi	a5,a0,-40
    11f0:	00f997b3          	sll	a5,s3,a5
    11f4:	00000593          	li	a1,0
    11f8:	f91ff06f          	j	1188 <__adddf3+0x614>
    11fc:	fe170713          	addi	a4,a4,-31
    1200:	02000613          	li	a2,32
    1204:	00e7d733          	srl	a4,a5,a4
    1208:	00000513          	li	a0,0
    120c:	00c68863          	beq	a3,a2,121c <__adddf3+0x6a8>
    1210:	04000513          	li	a0,64
    1214:	40d50533          	sub	a0,a0,a3
    1218:	00a79533          	sll	a0,a5,a0
    121c:	00a5e533          	or	a0,a1,a0
    1220:	00a03533          	snez	a0,a0
    1224:	00a765b3          	or	a1,a4,a0
    1228:	00000793          	li	a5,0
    122c:	f95ff06f          	j	11c0 <__adddf3+0x64c>
    1230:	40e40433          	sub	s0,s0,a4
    1234:	ff800737          	lui	a4,0xff800
    1238:	fff70713          	addi	a4,a4,-1 # ff7fffff <CONFIG_SYSTEM_WORKQUEUE_PRIORITY+0xff800000>
    123c:	00e7f7b3          	and	a5,a5,a4
    1240:	bf1ff06f          	j	e30 <__adddf3+0x2bc>
    1244:	00070793          	mv	a5,a4
    1248:	00060593          	mv	a1,a2
    124c:	00050413          	mv	s0,a0
    1250:	be1ff06f          	j	e30 <__adddf3+0x2bc>
    1254:	00070793          	mv	a5,a4
    1258:	00060593          	mv	a1,a2
    125c:	bd5ff06f          	j	e30 <__adddf3+0x2bc>
    1260:	7ff00413          	li	s0,2047
    1264:	00000793          	li	a5,0
    1268:	00000593          	li	a1,0
    126c:	00800737          	lui	a4,0x800
    1270:	00e7f733          	and	a4,a5,a4
    1274:	00070e63          	beqz	a4,1290 <__adddf3+0x71c>
    1278:	00140413          	addi	s0,s0,1
    127c:	7ff00713          	li	a4,2047
    1280:	0ce40063          	beq	s0,a4,1340 <__adddf3+0x7cc>
    1284:	ff800737          	lui	a4,0xff800
    1288:	fff70713          	addi	a4,a4,-1 # ff7fffff <CONFIG_SYSTEM_WORKQUEUE_PRIORITY+0xff800000>
    128c:	00e7f7b3          	and	a5,a5,a4
    1290:	01d79713          	slli	a4,a5,0x1d
    1294:	0035d513          	srli	a0,a1,0x3
    1298:	00a76533          	or	a0,a4,a0
    129c:	7ff00713          	li	a4,2047
    12a0:	0037d793          	srli	a5,a5,0x3
    12a4:	00e41e63          	bne	s0,a4,12c0 <__adddf3+0x74c>
    12a8:	00f56533          	or	a0,a0,a5
    12ac:	00000793          	li	a5,0
    12b0:	00050863          	beqz	a0,12c0 <__adddf3+0x74c>
    12b4:	000807b7          	lui	a5,0x80
    12b8:	00000513          	li	a0,0
    12bc:	00000493          	li	s1,0
    12c0:	01441713          	slli	a4,s0,0x14
    12c4:	7ff006b7          	lui	a3,0x7ff00
    12c8:	00c79793          	slli	a5,a5,0xc
    12cc:	01c12083          	lw	ra,28(sp)
    12d0:	01812403          	lw	s0,24(sp)
    12d4:	00d77733          	and	a4,a4,a3
    12d8:	00c7d793          	srli	a5,a5,0xc
    12dc:	01f49493          	slli	s1,s1,0x1f
    12e0:	00f767b3          	or	a5,a4,a5
    12e4:	0097e733          	or	a4,a5,s1
    12e8:	01012903          	lw	s2,16(sp)
    12ec:	01412483          	lw	s1,20(sp)
    12f0:	00c12983          	lw	s3,12(sp)
    12f4:	00070593          	mv	a1,a4
    12f8:	02010113          	addi	sp,sp,32
    12fc:	00008067          	ret
    1300:	00080413          	mv	s0,a6
    1304:	b2dff06f          	j	e30 <__adddf3+0x2bc>
    1308:	00070793          	mv	a5,a4
    130c:	00060593          	mv	a1,a2
    1310:	00050413          	mv	s0,a0
    1314:	da5ff06f          	j	10b8 <__adddf3+0x544>
    1318:	00000793          	li	a5,0
    131c:	00000593          	li	a1,0
    1320:	00000493          	li	s1,0
    1324:	f49ff06f          	j	126c <__adddf3+0x6f8>
    1328:	00000793          	li	a5,0
    132c:	ff5ff06f          	j	1320 <__adddf3+0x7ac>
    1330:	00000593          	li	a1,0
    1334:	00000493          	li	s1,0
    1338:	004007b7          	lui	a5,0x400
    133c:	b35ff06f          	j	e70 <__adddf3+0x2fc>
    1340:	00000793          	li	a5,0
    1344:	00000593          	li	a1,0
    1348:	f49ff06f          	j	1290 <__adddf3+0x71c>

0000134c <__divdf3>:
    134c:	fd010113          	addi	sp,sp,-48
    1350:	03212023          	sw	s2,32(sp)
    1354:	0145d913          	srli	s2,a1,0x14
    1358:	02912223          	sw	s1,36(sp)
    135c:	01312e23          	sw	s3,28(sp)
    1360:	01412c23          	sw	s4,24(sp)
    1364:	01612823          	sw	s6,16(sp)
    1368:	01812423          	sw	s8,8(sp)
    136c:	00c59493          	slli	s1,a1,0xc
    1370:	02112623          	sw	ra,44(sp)
    1374:	02812423          	sw	s0,40(sp)
    1378:	01512a23          	sw	s5,20(sp)
    137c:	01712623          	sw	s7,12(sp)
    1380:	7ff97913          	andi	s2,s2,2047
    1384:	00050a13          	mv	s4,a0
    1388:	00060b13          	mv	s6,a2
    138c:	00068c13          	mv	s8,a3
    1390:	00c4d493          	srli	s1,s1,0xc
    1394:	01f5d993          	srli	s3,a1,0x1f
    1398:	0a090063          	beqz	s2,1438 <__divdf3+0xec>
    139c:	7ff00793          	li	a5,2047
    13a0:	0ef90e63          	beq	s2,a5,149c <__divdf3+0x150>
    13a4:	01d55a93          	srli	s5,a0,0x1d
    13a8:	00349493          	slli	s1,s1,0x3
    13ac:	009ae4b3          	or	s1,s5,s1
    13b0:	00800ab7          	lui	s5,0x800
    13b4:	0154eab3          	or	s5,s1,s5
    13b8:	00351413          	slli	s0,a0,0x3
    13bc:	c0190913          	addi	s2,s2,-1023
    13c0:	00000b93          	li	s7,0
    13c4:	00cc1513          	slli	a0,s8,0xc
    13c8:	00c55493          	srli	s1,a0,0xc
    13cc:	014c5513          	srli	a0,s8,0x14
    13d0:	7ff57593          	andi	a1,a0,2047
    13d4:	01fc5c13          	srli	s8,s8,0x1f
    13d8:	10058063          	beqz	a1,14d8 <__divdf3+0x18c>
    13dc:	7ff00793          	li	a5,2047
    13e0:	16f58263          	beq	a1,a5,1544 <__divdf3+0x1f8>
    13e4:	00349513          	slli	a0,s1,0x3
    13e8:	01db5793          	srli	a5,s6,0x1d
    13ec:	00a7e533          	or	a0,a5,a0
    13f0:	008004b7          	lui	s1,0x800
    13f4:	009564b3          	or	s1,a0,s1
    13f8:	003b1f93          	slli	t6,s6,0x3
    13fc:	c0158513          	addi	a0,a1,-1023
    1400:	00000793          	li	a5,0
    1404:	002b9713          	slli	a4,s7,0x2
    1408:	00f76733          	or	a4,a4,a5
    140c:	fff70713          	addi	a4,a4,-1
    1410:	00e00613          	li	a2,14
    1414:	0189c6b3          	xor	a3,s3,s8
    1418:	40a905b3          	sub	a1,s2,a0
    141c:	16e66063          	bltu	a2,a4,157c <__divdf3+0x230>
    1420:	0000d637          	lui	a2,0xd
    1424:	00271713          	slli	a4,a4,0x2
    1428:	89c60613          	addi	a2,a2,-1892 # c89c <__clz_tab+0x100>
    142c:	00c70733          	add	a4,a4,a2
    1430:	00072703          	lw	a4,0(a4)
    1434:	00070067          	jr	a4
    1438:	00a4eab3          	or	s5,s1,a0
    143c:	060a8e63          	beqz	s5,14b8 <__divdf3+0x16c>
    1440:	04048063          	beqz	s1,1480 <__divdf3+0x134>
    1444:	00048513          	mv	a0,s1
    1448:	ea9fe0ef          	jal	ra,2f0 <__clzsi2>
    144c:	ff550793          	addi	a5,a0,-11
    1450:	01c00713          	li	a4,28
    1454:	02f74c63          	blt	a4,a5,148c <__divdf3+0x140>
    1458:	01d00a93          	li	s5,29
    145c:	ff850413          	addi	s0,a0,-8
    1460:	40fa8ab3          	sub	s5,s5,a5
    1464:	008494b3          	sll	s1,s1,s0
    1468:	015a5ab3          	srl	s5,s4,s5
    146c:	009aeab3          	or	s5,s5,s1
    1470:	008a1433          	sll	s0,s4,s0
    1474:	c0d00593          	li	a1,-1011
    1478:	40a58933          	sub	s2,a1,a0
    147c:	f45ff06f          	j	13c0 <__divdf3+0x74>
    1480:	e71fe0ef          	jal	ra,2f0 <__clzsi2>
    1484:	02050513          	addi	a0,a0,32
    1488:	fc5ff06f          	j	144c <__divdf3+0x100>
    148c:	fd850493          	addi	s1,a0,-40
    1490:	009a1ab3          	sll	s5,s4,s1
    1494:	00000413          	li	s0,0
    1498:	fddff06f          	j	1474 <__divdf3+0x128>
    149c:	00a4eab3          	or	s5,s1,a0
    14a0:	020a8463          	beqz	s5,14c8 <__divdf3+0x17c>
    14a4:	00050413          	mv	s0,a0
    14a8:	00048a93          	mv	s5,s1
    14ac:	7ff00913          	li	s2,2047
    14b0:	00300b93          	li	s7,3
    14b4:	f11ff06f          	j	13c4 <__divdf3+0x78>
    14b8:	00000413          	li	s0,0
    14bc:	00000913          	li	s2,0
    14c0:	00100b93          	li	s7,1
    14c4:	f01ff06f          	j	13c4 <__divdf3+0x78>
    14c8:	00000413          	li	s0,0
    14cc:	7ff00913          	li	s2,2047
    14d0:	00200b93          	li	s7,2
    14d4:	ef1ff06f          	j	13c4 <__divdf3+0x78>
    14d8:	0164efb3          	or	t6,s1,s6
    14dc:	080f8063          	beqz	t6,155c <__divdf3+0x210>
    14e0:	04048263          	beqz	s1,1524 <__divdf3+0x1d8>
    14e4:	00048513          	mv	a0,s1
    14e8:	e09fe0ef          	jal	ra,2f0 <__clzsi2>
    14ec:	00050593          	mv	a1,a0
    14f0:	ff558793          	addi	a5,a1,-11
    14f4:	01c00713          	li	a4,28
    14f8:	02f74e63          	blt	a4,a5,1534 <__divdf3+0x1e8>
    14fc:	01d00693          	li	a3,29
    1500:	ff858f93          	addi	t6,a1,-8
    1504:	40f686b3          	sub	a3,a3,a5
    1508:	01f49533          	sll	a0,s1,t6
    150c:	00db56b3          	srl	a3,s6,a3
    1510:	00a6e4b3          	or	s1,a3,a0
    1514:	01fb1fb3          	sll	t6,s6,t6
    1518:	c0d00693          	li	a3,-1011
    151c:	40b68533          	sub	a0,a3,a1
    1520:	ee1ff06f          	j	1400 <__divdf3+0xb4>
    1524:	000b0513          	mv	a0,s6
    1528:	dc9fe0ef          	jal	ra,2f0 <__clzsi2>
    152c:	02050593          	addi	a1,a0,32
    1530:	fc1ff06f          	j	14f0 <__divdf3+0x1a4>
    1534:	fd858513          	addi	a0,a1,-40
    1538:	00ab14b3          	sll	s1,s6,a0
    153c:	00000f93          	li	t6,0
    1540:	fd9ff06f          	j	1518 <__divdf3+0x1cc>
    1544:	0164efb3          	or	t6,s1,s6
    1548:	020f8263          	beqz	t6,156c <__divdf3+0x220>
    154c:	000b0f93          	mv	t6,s6
    1550:	7ff00513          	li	a0,2047
    1554:	00300793          	li	a5,3
    1558:	eadff06f          	j	1404 <__divdf3+0xb8>
    155c:	00000493          	li	s1,0
    1560:	00000513          	li	a0,0
    1564:	00100793          	li	a5,1
    1568:	e9dff06f          	j	1404 <__divdf3+0xb8>
    156c:	00000493          	li	s1,0
    1570:	7ff00513          	li	a0,2047
    1574:	00200793          	li	a5,2
    1578:	e8dff06f          	j	1404 <__divdf3+0xb8>
    157c:	0154e663          	bltu	s1,s5,1588 <__divdf3+0x23c>
    1580:	349a9e63          	bne	s5,s1,18dc <__divdf3+0x590>
    1584:	35f46c63          	bltu	s0,t6,18dc <__divdf3+0x590>
    1588:	01fa9613          	slli	a2,s5,0x1f
    158c:	00145713          	srli	a4,s0,0x1
    1590:	01f41793          	slli	a5,s0,0x1f
    1594:	001ada93          	srli	s5,s5,0x1
    1598:	00e66433          	or	s0,a2,a4
    159c:	00849513          	slli	a0,s1,0x8
    15a0:	018fd893          	srli	a7,t6,0x18
    15a4:	00a8e8b3          	or	a7,a7,a0
    15a8:	01055513          	srli	a0,a0,0x10
    15ac:	02aade33          	divu	t3,s5,a0
    15b0:	01089e93          	slli	t4,a7,0x10
    15b4:	010ede93          	srli	t4,t4,0x10
    15b8:	01045713          	srli	a4,s0,0x10
    15bc:	008f9313          	slli	t1,t6,0x8
    15c0:	02aafab3          	remu	s5,s5,a0
    15c4:	000e0613          	mv	a2,t3
    15c8:	03ce8833          	mul	a6,t4,t3
    15cc:	010a9a93          	slli	s5,s5,0x10
    15d0:	01576733          	or	a4,a4,s5
    15d4:	01077e63          	bgeu	a4,a6,15f0 <__divdf3+0x2a4>
    15d8:	01170733          	add	a4,a4,a7
    15dc:	fffe0613          	addi	a2,t3,-1
    15e0:	01176863          	bltu	a4,a7,15f0 <__divdf3+0x2a4>
    15e4:	01077663          	bgeu	a4,a6,15f0 <__divdf3+0x2a4>
    15e8:	ffee0613          	addi	a2,t3,-2
    15ec:	01170733          	add	a4,a4,a7
    15f0:	41070733          	sub	a4,a4,a6
    15f4:	02a75e33          	divu	t3,a4,a0
    15f8:	01041413          	slli	s0,s0,0x10
    15fc:	01045413          	srli	s0,s0,0x10
    1600:	02a77733          	remu	a4,a4,a0
    1604:	000e0293          	mv	t0,t3
    1608:	03ce8833          	mul	a6,t4,t3
    160c:	01071713          	slli	a4,a4,0x10
    1610:	00e46733          	or	a4,s0,a4
    1614:	01077e63          	bgeu	a4,a6,1630 <__divdf3+0x2e4>
    1618:	01170733          	add	a4,a4,a7
    161c:	fffe0293          	addi	t0,t3,-1
    1620:	01176863          	bltu	a4,a7,1630 <__divdf3+0x2e4>
    1624:	01077663          	bgeu	a4,a6,1630 <__divdf3+0x2e4>
    1628:	ffee0293          	addi	t0,t3,-2
    162c:	01170733          	add	a4,a4,a7
    1630:	41070433          	sub	s0,a4,a6
    1634:	01061613          	slli	a2,a2,0x10
    1638:	00010837          	lui	a6,0x10
    163c:	005662b3          	or	t0,a2,t0
    1640:	fff80e13          	addi	t3,a6,-1 # ffff <W1+0x8df>
    1644:	0102d613          	srli	a2,t0,0x10
    1648:	01c2f733          	and	a4,t0,t3
    164c:	01035f13          	srli	t5,t1,0x10
    1650:	01c37e33          	and	t3,t1,t3
    1654:	02ee03b3          	mul	t2,t3,a4
    1658:	03c604b3          	mul	s1,a2,t3
    165c:	02ef0733          	mul	a4,t5,a4
    1660:	03e60fb3          	mul	t6,a2,t5
    1664:	00970633          	add	a2,a4,s1
    1668:	0103d713          	srli	a4,t2,0x10
    166c:	00c70733          	add	a4,a4,a2
    1670:	00977463          	bgeu	a4,s1,1678 <__divdf3+0x32c>
    1674:	010f8fb3          	add	t6,t6,a6
    1678:	01075613          	srli	a2,a4,0x10
    167c:	01f60633          	add	a2,a2,t6
    1680:	00010fb7          	lui	t6,0x10
    1684:	ffff8f93          	addi	t6,t6,-1 # ffff <W1+0x8df>
    1688:	01f77833          	and	a6,a4,t6
    168c:	01081813          	slli	a6,a6,0x10
    1690:	01f3f3b3          	and	t2,t2,t6
    1694:	00780833          	add	a6,a6,t2
    1698:	00c46863          	bltu	s0,a2,16a8 <__divdf3+0x35c>
    169c:	00028493          	mv	s1,t0
    16a0:	04c41463          	bne	s0,a2,16e8 <__divdf3+0x39c>
    16a4:	0507f263          	bgeu	a5,a6,16e8 <__divdf3+0x39c>
    16a8:	006787b3          	add	a5,a5,t1
    16ac:	0067b733          	sltu	a4,a5,t1
    16b0:	01170733          	add	a4,a4,a7
    16b4:	00e40433          	add	s0,s0,a4
    16b8:	fff28493          	addi	s1,t0,-1
    16bc:	0088e663          	bltu	a7,s0,16c8 <__divdf3+0x37c>
    16c0:	02889463          	bne	a7,s0,16e8 <__divdf3+0x39c>
    16c4:	0267e263          	bltu	a5,t1,16e8 <__divdf3+0x39c>
    16c8:	00c46663          	bltu	s0,a2,16d4 <__divdf3+0x388>
    16cc:	00861e63          	bne	a2,s0,16e8 <__divdf3+0x39c>
    16d0:	0107fc63          	bgeu	a5,a6,16e8 <__divdf3+0x39c>
    16d4:	006787b3          	add	a5,a5,t1
    16d8:	0067b733          	sltu	a4,a5,t1
    16dc:	01170733          	add	a4,a4,a7
    16e0:	ffe28493          	addi	s1,t0,-2
    16e4:	00e40433          	add	s0,s0,a4
    16e8:	41078833          	sub	a6,a5,a6
    16ec:	40c40433          	sub	s0,s0,a2
    16f0:	0107b7b3          	sltu	a5,a5,a6
    16f4:	40f40433          	sub	s0,s0,a5
    16f8:	fff00f93          	li	t6,-1
    16fc:	12888463          	beq	a7,s0,1824 <__divdf3+0x4d8>
    1700:	02a45fb3          	divu	t6,s0,a0
    1704:	01085713          	srli	a4,a6,0x10
    1708:	02a47433          	remu	s0,s0,a0
    170c:	000f8613          	mv	a2,t6
    1710:	03fe87b3          	mul	a5,t4,t6
    1714:	01041413          	slli	s0,s0,0x10
    1718:	00876433          	or	s0,a4,s0
    171c:	00f47e63          	bgeu	s0,a5,1738 <__divdf3+0x3ec>
    1720:	01140433          	add	s0,s0,a7
    1724:	ffff8613          	addi	a2,t6,-1
    1728:	01146863          	bltu	s0,a7,1738 <__divdf3+0x3ec>
    172c:	00f47663          	bgeu	s0,a5,1738 <__divdf3+0x3ec>
    1730:	ffef8613          	addi	a2,t6,-2
    1734:	01140433          	add	s0,s0,a7
    1738:	40f40433          	sub	s0,s0,a5
    173c:	02a45733          	divu	a4,s0,a0
    1740:	01081813          	slli	a6,a6,0x10
    1744:	01085813          	srli	a6,a6,0x10
    1748:	02a47433          	remu	s0,s0,a0
    174c:	00070793          	mv	a5,a4
    1750:	02ee8eb3          	mul	t4,t4,a4
    1754:	01041413          	slli	s0,s0,0x10
    1758:	00886433          	or	s0,a6,s0
    175c:	01d47e63          	bgeu	s0,t4,1778 <__divdf3+0x42c>
    1760:	01140433          	add	s0,s0,a7
    1764:	fff70793          	addi	a5,a4,-1
    1768:	01146863          	bltu	s0,a7,1778 <__divdf3+0x42c>
    176c:	01d47663          	bgeu	s0,t4,1778 <__divdf3+0x42c>
    1770:	ffe70793          	addi	a5,a4,-2
    1774:	01140433          	add	s0,s0,a7
    1778:	01061613          	slli	a2,a2,0x10
    177c:	00f66633          	or	a2,a2,a5
    1780:	01061793          	slli	a5,a2,0x10
    1784:	0107d793          	srli	a5,a5,0x10
    1788:	01065713          	srli	a4,a2,0x10
    178c:	02ef0833          	mul	a6,t5,a4
    1790:	41d40433          	sub	s0,s0,t4
    1794:	02ff0f33          	mul	t5,t5,a5
    1798:	03c78eb3          	mul	t4,a5,t3
    179c:	03c70e33          	mul	t3,a4,t3
    17a0:	010ed793          	srli	a5,t4,0x10
    17a4:	01cf0f33          	add	t5,t5,t3
    17a8:	01e787b3          	add	a5,a5,t5
    17ac:	01c7f663          	bgeu	a5,t3,17b8 <__divdf3+0x46c>
    17b0:	00010737          	lui	a4,0x10
    17b4:	00e80833          	add	a6,a6,a4
    17b8:	0107d713          	srli	a4,a5,0x10
    17bc:	01070733          	add	a4,a4,a6
    17c0:	00010837          	lui	a6,0x10
    17c4:	fff80813          	addi	a6,a6,-1 # ffff <W1+0x8df>
    17c8:	0107f533          	and	a0,a5,a6
    17cc:	01051513          	slli	a0,a0,0x10
    17d0:	010efeb3          	and	t4,t4,a6
    17d4:	01d50533          	add	a0,a0,t4
    17d8:	00e46863          	bltu	s0,a4,17e8 <__divdf3+0x49c>
    17dc:	24e41463          	bne	s0,a4,1a24 <__divdf3+0x6d8>
    17e0:	00060f93          	mv	t6,a2
    17e4:	04050063          	beqz	a0,1824 <__divdf3+0x4d8>
    17e8:	00888433          	add	s0,a7,s0
    17ec:	fff60f93          	addi	t6,a2,-1
    17f0:	03146463          	bltu	s0,a7,1818 <__divdf3+0x4cc>
    17f4:	00e46663          	bltu	s0,a4,1800 <__divdf3+0x4b4>
    17f8:	22e41463          	bne	s0,a4,1a20 <__divdf3+0x6d4>
    17fc:	02a37063          	bgeu	t1,a0,181c <__divdf3+0x4d0>
    1800:	00131793          	slli	a5,t1,0x1
    1804:	0067b333          	sltu	t1,a5,t1
    1808:	011308b3          	add	a7,t1,a7
    180c:	ffe60f93          	addi	t6,a2,-2
    1810:	01140433          	add	s0,s0,a7
    1814:	00078313          	mv	t1,a5
    1818:	00e41463          	bne	s0,a4,1820 <__divdf3+0x4d4>
    181c:	00650463          	beq	a0,t1,1824 <__divdf3+0x4d8>
    1820:	001fef93          	ori	t6,t6,1
    1824:	3ff58793          	addi	a5,a1,1023
    1828:	10f05a63          	blez	a5,193c <__divdf3+0x5f0>
    182c:	007ff713          	andi	a4,t6,7
    1830:	02070063          	beqz	a4,1850 <__divdf3+0x504>
    1834:	00fff713          	andi	a4,t6,15
    1838:	00400613          	li	a2,4
    183c:	00c70a63          	beq	a4,a2,1850 <__divdf3+0x504>
    1840:	004f8613          	addi	a2,t6,4
    1844:	01f63fb3          	sltu	t6,a2,t6
    1848:	01f484b3          	add	s1,s1,t6
    184c:	00060f93          	mv	t6,a2
    1850:	01000737          	lui	a4,0x1000
    1854:	00e4f733          	and	a4,s1,a4
    1858:	00070a63          	beqz	a4,186c <__divdf3+0x520>
    185c:	ff0007b7          	lui	a5,0xff000
    1860:	fff78793          	addi	a5,a5,-1 # feffffff <CONFIG_SYSTEM_WORKQUEUE_PRIORITY+0xff000000>
    1864:	00f4f4b3          	and	s1,s1,a5
    1868:	40058793          	addi	a5,a1,1024
    186c:	7fe00713          	li	a4,2046
    1870:	0af74063          	blt	a4,a5,1910 <__divdf3+0x5c4>
    1874:	003fdf93          	srli	t6,t6,0x3
    1878:	01d49713          	slli	a4,s1,0x1d
    187c:	01f76733          	or	a4,a4,t6
    1880:	0034d513          	srli	a0,s1,0x3
    1884:	01479793          	slli	a5,a5,0x14
    1888:	7ff00637          	lui	a2,0x7ff00
    188c:	00c51513          	slli	a0,a0,0xc
    1890:	02c12083          	lw	ra,44(sp)
    1894:	02812403          	lw	s0,40(sp)
    1898:	00c7f7b3          	and	a5,a5,a2
    189c:	00c55513          	srli	a0,a0,0xc
    18a0:	00a7e533          	or	a0,a5,a0
    18a4:	01f69693          	slli	a3,a3,0x1f
    18a8:	00d567b3          	or	a5,a0,a3
    18ac:	02412483          	lw	s1,36(sp)
    18b0:	02012903          	lw	s2,32(sp)
    18b4:	01c12983          	lw	s3,28(sp)
    18b8:	01812a03          	lw	s4,24(sp)
    18bc:	01412a83          	lw	s5,20(sp)
    18c0:	01012b03          	lw	s6,16(sp)
    18c4:	00c12b83          	lw	s7,12(sp)
    18c8:	00812c03          	lw	s8,8(sp)
    18cc:	00070513          	mv	a0,a4
    18d0:	00078593          	mv	a1,a5
    18d4:	03010113          	addi	sp,sp,48
    18d8:	00008067          	ret
    18dc:	fff58593          	addi	a1,a1,-1
    18e0:	00000793          	li	a5,0
    18e4:	cb9ff06f          	j	159c <__divdf3+0x250>
    18e8:	00098693          	mv	a3,s3
    18ec:	000a8493          	mv	s1,s5
    18f0:	00040f93          	mv	t6,s0
    18f4:	000b8793          	mv	a5,s7
    18f8:	00300713          	li	a4,3
    18fc:	0ee78a63          	beq	a5,a4,19f0 <__divdf3+0x6a4>
    1900:	00100713          	li	a4,1
    1904:	10e78063          	beq	a5,a4,1a04 <__divdf3+0x6b8>
    1908:	00200713          	li	a4,2
    190c:	f0e79ce3          	bne	a5,a4,1824 <__divdf3+0x4d8>
    1910:	00000513          	li	a0,0
    1914:	00000713          	li	a4,0
    1918:	7ff00793          	li	a5,2047
    191c:	f69ff06f          	j	1884 <__divdf3+0x538>
    1920:	000c0693          	mv	a3,s8
    1924:	fd5ff06f          	j	18f8 <__divdf3+0x5ac>
    1928:	000804b7          	lui	s1,0x80
    192c:	00000f93          	li	t6,0
    1930:	00000693          	li	a3,0
    1934:	00300793          	li	a5,3
    1938:	fc1ff06f          	j	18f8 <__divdf3+0x5ac>
    193c:	00100513          	li	a0,1
    1940:	40f50533          	sub	a0,a0,a5
    1944:	03800713          	li	a4,56
    1948:	0aa74e63          	blt	a4,a0,1a04 <__divdf3+0x6b8>
    194c:	01f00713          	li	a4,31
    1950:	06a74663          	blt	a4,a0,19bc <__divdf3+0x670>
    1954:	41e58593          	addi	a1,a1,1054
    1958:	00b497b3          	sll	a5,s1,a1
    195c:	00afd733          	srl	a4,t6,a0
    1960:	00bf95b3          	sll	a1,t6,a1
    1964:	00e7e7b3          	or	a5,a5,a4
    1968:	00b035b3          	snez	a1,a1
    196c:	00b7e7b3          	or	a5,a5,a1
    1970:	00a4d533          	srl	a0,s1,a0
    1974:	0077f713          	andi	a4,a5,7
    1978:	02070063          	beqz	a4,1998 <__divdf3+0x64c>
    197c:	00f7f713          	andi	a4,a5,15
    1980:	00400613          	li	a2,4
    1984:	00c70a63          	beq	a4,a2,1998 <__divdf3+0x64c>
    1988:	00478713          	addi	a4,a5,4
    198c:	00f737b3          	sltu	a5,a4,a5
    1990:	00f50533          	add	a0,a0,a5
    1994:	00070793          	mv	a5,a4
    1998:	00800737          	lui	a4,0x800
    199c:	00e57733          	and	a4,a0,a4
    19a0:	06071863          	bnez	a4,1a10 <__divdf3+0x6c4>
    19a4:	01d51713          	slli	a4,a0,0x1d
    19a8:	0037d793          	srli	a5,a5,0x3
    19ac:	00f76733          	or	a4,a4,a5
    19b0:	00355513          	srli	a0,a0,0x3
    19b4:	00000793          	li	a5,0
    19b8:	ecdff06f          	j	1884 <__divdf3+0x538>
    19bc:	fe100713          	li	a4,-31
    19c0:	40f707b3          	sub	a5,a4,a5
    19c4:	02000613          	li	a2,32
    19c8:	00f4d7b3          	srl	a5,s1,a5
    19cc:	00000713          	li	a4,0
    19d0:	00c50663          	beq	a0,a2,19dc <__divdf3+0x690>
    19d4:	43e58713          	addi	a4,a1,1086
    19d8:	00e49733          	sll	a4,s1,a4
    19dc:	01f76733          	or	a4,a4,t6
    19e0:	00e03733          	snez	a4,a4
    19e4:	00e7e7b3          	or	a5,a5,a4
    19e8:	00000513          	li	a0,0
    19ec:	f89ff06f          	j	1974 <__divdf3+0x628>
    19f0:	00080537          	lui	a0,0x80
    19f4:	00000713          	li	a4,0
    19f8:	7ff00793          	li	a5,2047
    19fc:	00000693          	li	a3,0
    1a00:	e85ff06f          	j	1884 <__divdf3+0x538>
    1a04:	00000513          	li	a0,0
    1a08:	00000713          	li	a4,0
    1a0c:	fa9ff06f          	j	19b4 <__divdf3+0x668>
    1a10:	00000513          	li	a0,0
    1a14:	00000713          	li	a4,0
    1a18:	00100793          	li	a5,1
    1a1c:	e69ff06f          	j	1884 <__divdf3+0x538>
    1a20:	000f8613          	mv	a2,t6
    1a24:	00060f93          	mv	t6,a2
    1a28:	df9ff06f          	j	1820 <__divdf3+0x4d4>

00001a2c <__muldf3>:
    1a2c:	fd010113          	addi	sp,sp,-48
    1a30:	01312e23          	sw	s3,28(sp)
    1a34:	0145d993          	srli	s3,a1,0x14
    1a38:	02812423          	sw	s0,40(sp)
    1a3c:	02912223          	sw	s1,36(sp)
    1a40:	01412c23          	sw	s4,24(sp)
    1a44:	01512a23          	sw	s5,20(sp)
    1a48:	01712623          	sw	s7,12(sp)
    1a4c:	00c59493          	slli	s1,a1,0xc
    1a50:	02112623          	sw	ra,44(sp)
    1a54:	03212023          	sw	s2,32(sp)
    1a58:	01612823          	sw	s6,16(sp)
    1a5c:	7ff9f993          	andi	s3,s3,2047
    1a60:	00050413          	mv	s0,a0
    1a64:	00060b93          	mv	s7,a2
    1a68:	00068a93          	mv	s5,a3
    1a6c:	00c4d493          	srli	s1,s1,0xc
    1a70:	01f5da13          	srli	s4,a1,0x1f
    1a74:	0a098263          	beqz	s3,1b18 <__muldf3+0xec>
    1a78:	7ff00793          	li	a5,2047
    1a7c:	10f98063          	beq	s3,a5,1b7c <__muldf3+0x150>
    1a80:	01d55793          	srli	a5,a0,0x1d
    1a84:	00349493          	slli	s1,s1,0x3
    1a88:	0097e4b3          	or	s1,a5,s1
    1a8c:	008007b7          	lui	a5,0x800
    1a90:	00f4e4b3          	or	s1,s1,a5
    1a94:	00351913          	slli	s2,a0,0x3
    1a98:	c0198993          	addi	s3,s3,-1023
    1a9c:	00000b13          	li	s6,0
    1aa0:	014ad513          	srli	a0,s5,0x14
    1aa4:	00ca9413          	slli	s0,s5,0xc
    1aa8:	7ff57513          	andi	a0,a0,2047
    1aac:	00c45413          	srli	s0,s0,0xc
    1ab0:	01fada93          	srli	s5,s5,0x1f
    1ab4:	10050063          	beqz	a0,1bb4 <__muldf3+0x188>
    1ab8:	7ff00793          	li	a5,2047
    1abc:	16f50063          	beq	a0,a5,1c1c <__muldf3+0x1f0>
    1ac0:	01dbd793          	srli	a5,s7,0x1d
    1ac4:	00341413          	slli	s0,s0,0x3
    1ac8:	0087e433          	or	s0,a5,s0
    1acc:	008007b7          	lui	a5,0x800
    1ad0:	00f46433          	or	s0,s0,a5
    1ad4:	c0150513          	addi	a0,a0,-1023 # 7fc01 <digit7+0x521>
    1ad8:	003b9793          	slli	a5,s7,0x3
    1adc:	00000713          	li	a4,0
    1ae0:	002b1693          	slli	a3,s6,0x2
    1ae4:	00e6e6b3          	or	a3,a3,a4
    1ae8:	00a98533          	add	a0,s3,a0
    1aec:	fff68693          	addi	a3,a3,-1 # 7fefffff <CONFIG_SYS_CLOCK_HW_CYCLES_PER_SEC+0x7cf50f7f>
    1af0:	00e00813          	li	a6,14
    1af4:	015a4633          	xor	a2,s4,s5
    1af8:	00150593          	addi	a1,a0,1
    1afc:	14d86c63          	bltu	a6,a3,1c54 <__muldf3+0x228>
    1b00:	0000d537          	lui	a0,0xd
    1b04:	00269693          	slli	a3,a3,0x2
    1b08:	8d850513          	addi	a0,a0,-1832 # c8d8 <__clz_tab+0x13c>
    1b0c:	00a686b3          	add	a3,a3,a0
    1b10:	0006a683          	lw	a3,0(a3)
    1b14:	00068067          	jr	a3
    1b18:	00a4e933          	or	s2,s1,a0
    1b1c:	06090c63          	beqz	s2,1b94 <__muldf3+0x168>
    1b20:	04048063          	beqz	s1,1b60 <__muldf3+0x134>
    1b24:	00048513          	mv	a0,s1
    1b28:	fc8fe0ef          	jal	ra,2f0 <__clzsi2>
    1b2c:	ff550713          	addi	a4,a0,-11
    1b30:	01c00793          	li	a5,28
    1b34:	02e7cc63          	blt	a5,a4,1b6c <__muldf3+0x140>
    1b38:	01d00793          	li	a5,29
    1b3c:	ff850913          	addi	s2,a0,-8
    1b40:	40e787b3          	sub	a5,a5,a4
    1b44:	012494b3          	sll	s1,s1,s2
    1b48:	00f457b3          	srl	a5,s0,a5
    1b4c:	0097e4b3          	or	s1,a5,s1
    1b50:	01241933          	sll	s2,s0,s2
    1b54:	c0d00993          	li	s3,-1011
    1b58:	40a989b3          	sub	s3,s3,a0
    1b5c:	f41ff06f          	j	1a9c <__muldf3+0x70>
    1b60:	f90fe0ef          	jal	ra,2f0 <__clzsi2>
    1b64:	02050513          	addi	a0,a0,32
    1b68:	fc5ff06f          	j	1b2c <__muldf3+0x100>
    1b6c:	fd850493          	addi	s1,a0,-40
    1b70:	009414b3          	sll	s1,s0,s1
    1b74:	00000913          	li	s2,0
    1b78:	fddff06f          	j	1b54 <__muldf3+0x128>
    1b7c:	00a4e933          	or	s2,s1,a0
    1b80:	02090263          	beqz	s2,1ba4 <__muldf3+0x178>
    1b84:	00050913          	mv	s2,a0
    1b88:	7ff00993          	li	s3,2047
    1b8c:	00300b13          	li	s6,3
    1b90:	f11ff06f          	j	1aa0 <__muldf3+0x74>
    1b94:	00000493          	li	s1,0
    1b98:	00000993          	li	s3,0
    1b9c:	00100b13          	li	s6,1
    1ba0:	f01ff06f          	j	1aa0 <__muldf3+0x74>
    1ba4:	00000493          	li	s1,0
    1ba8:	7ff00993          	li	s3,2047
    1bac:	00200b13          	li	s6,2
    1bb0:	ef1ff06f          	j	1aa0 <__muldf3+0x74>
    1bb4:	017467b3          	or	a5,s0,s7
    1bb8:	06078e63          	beqz	a5,1c34 <__muldf3+0x208>
    1bbc:	04040063          	beqz	s0,1bfc <__muldf3+0x1d0>
    1bc0:	00040513          	mv	a0,s0
    1bc4:	f2cfe0ef          	jal	ra,2f0 <__clzsi2>
    1bc8:	ff550693          	addi	a3,a0,-11
    1bcc:	01c00793          	li	a5,28
    1bd0:	02d7ce63          	blt	a5,a3,1c0c <__muldf3+0x1e0>
    1bd4:	01d00713          	li	a4,29
    1bd8:	ff850793          	addi	a5,a0,-8
    1bdc:	40d70733          	sub	a4,a4,a3
    1be0:	00f41433          	sll	s0,s0,a5
    1be4:	00ebd733          	srl	a4,s7,a4
    1be8:	00876433          	or	s0,a4,s0
    1bec:	00fb97b3          	sll	a5,s7,a5
    1bf0:	c0d00713          	li	a4,-1011
    1bf4:	40a70533          	sub	a0,a4,a0
    1bf8:	ee5ff06f          	j	1adc <__muldf3+0xb0>
    1bfc:	000b8513          	mv	a0,s7
    1c00:	ef0fe0ef          	jal	ra,2f0 <__clzsi2>
    1c04:	02050513          	addi	a0,a0,32
    1c08:	fc1ff06f          	j	1bc8 <__muldf3+0x19c>
    1c0c:	fd850413          	addi	s0,a0,-40
    1c10:	008b9433          	sll	s0,s7,s0
    1c14:	00000793          	li	a5,0
    1c18:	fd9ff06f          	j	1bf0 <__muldf3+0x1c4>
    1c1c:	017467b3          	or	a5,s0,s7
    1c20:	02078263          	beqz	a5,1c44 <__muldf3+0x218>
    1c24:	000b8793          	mv	a5,s7
    1c28:	7ff00513          	li	a0,2047
    1c2c:	00300713          	li	a4,3
    1c30:	eb1ff06f          	j	1ae0 <__muldf3+0xb4>
    1c34:	00000413          	li	s0,0
    1c38:	00000513          	li	a0,0
    1c3c:	00100713          	li	a4,1
    1c40:	ea1ff06f          	j	1ae0 <__muldf3+0xb4>
    1c44:	00000413          	li	s0,0
    1c48:	7ff00513          	li	a0,2047
    1c4c:	00200713          	li	a4,2
    1c50:	e91ff06f          	j	1ae0 <__muldf3+0xb4>
    1c54:	00010f37          	lui	t5,0x10
    1c58:	ffff0e93          	addi	t4,t5,-1 # ffff <W1+0x8df>
    1c5c:	01095713          	srli	a4,s2,0x10
    1c60:	0107d893          	srli	a7,a5,0x10
    1c64:	01d97933          	and	s2,s2,t4
    1c68:	01d7f7b3          	and	a5,a5,t4
    1c6c:	03288833          	mul	a6,a7,s2
    1c70:	02f906b3          	mul	a3,s2,a5
    1c74:	02f70fb3          	mul	t6,a4,a5
    1c78:	01f80333          	add	t1,a6,t6
    1c7c:	0106d813          	srli	a6,a3,0x10
    1c80:	00680833          	add	a6,a6,t1
    1c84:	03170e33          	mul	t3,a4,a7
    1c88:	01f87463          	bgeu	a6,t6,1c90 <__muldf3+0x264>
    1c8c:	01ee0e33          	add	t3,t3,t5
    1c90:	01085393          	srli	t2,a6,0x10
    1c94:	01d87833          	and	a6,a6,t4
    1c98:	01d6f6b3          	and	a3,a3,t4
    1c9c:	01045f13          	srli	t5,s0,0x10
    1ca0:	01d472b3          	and	t0,s0,t4
    1ca4:	01081813          	slli	a6,a6,0x10
    1ca8:	00d80833          	add	a6,a6,a3
    1cac:	02570eb3          	mul	t4,a4,t0
    1cb0:	025906b3          	mul	a3,s2,t0
    1cb4:	032f0933          	mul	s2,t5,s2
    1cb8:	01d90333          	add	t1,s2,t4
    1cbc:	0106d913          	srli	s2,a3,0x10
    1cc0:	00690933          	add	s2,s2,t1
    1cc4:	03e70733          	mul	a4,a4,t5
    1cc8:	01d97663          	bgeu	s2,t4,1cd4 <__muldf3+0x2a8>
    1ccc:	00010337          	lui	t1,0x10
    1cd0:	00670733          	add	a4,a4,t1
    1cd4:	01095e93          	srli	t4,s2,0x10
    1cd8:	000109b7          	lui	s3,0x10
    1cdc:	00ee8eb3          	add	t4,t4,a4
    1ce0:	fff98713          	addi	a4,s3,-1 # ffff <W1+0x8df>
    1ce4:	00e97933          	and	s2,s2,a4
    1ce8:	00e6f6b3          	and	a3,a3,a4
    1cec:	0104d413          	srli	s0,s1,0x10
    1cf0:	01091913          	slli	s2,s2,0x10
    1cf4:	00e4f4b3          	and	s1,s1,a4
    1cf8:	02978733          	mul	a4,a5,s1
    1cfc:	00d90933          	add	s2,s2,a3
    1d00:	012383b3          	add	t2,t2,s2
    1d04:	02f40333          	mul	t1,s0,a5
    1d08:	029886b3          	mul	a3,a7,s1
    1d0c:	028887b3          	mul	a5,a7,s0
    1d10:	006688b3          	add	a7,a3,t1
    1d14:	01075693          	srli	a3,a4,0x10
    1d18:	011686b3          	add	a3,a3,a7
    1d1c:	0066f463          	bgeu	a3,t1,1d24 <__muldf3+0x2f8>
    1d20:	013787b3          	add	a5,a5,s3
    1d24:	0106d893          	srli	a7,a3,0x10
    1d28:	000109b7          	lui	s3,0x10
    1d2c:	00f88fb3          	add	t6,a7,a5
    1d30:	fff98793          	addi	a5,s3,-1 # ffff <W1+0x8df>
    1d34:	029288b3          	mul	a7,t0,s1
    1d38:	00f6f6b3          	and	a3,a3,a5
    1d3c:	00f77733          	and	a4,a4,a5
    1d40:	01069693          	slli	a3,a3,0x10
    1d44:	00e686b3          	add	a3,a3,a4
    1d48:	025407b3          	mul	a5,s0,t0
    1d4c:	029f04b3          	mul	s1,t5,s1
    1d50:	028f0333          	mul	t1,t5,s0
    1d54:	00f484b3          	add	s1,s1,a5
    1d58:	0108d413          	srli	s0,a7,0x10
    1d5c:	009404b3          	add	s1,s0,s1
    1d60:	00f4f463          	bgeu	s1,a5,1d68 <__muldf3+0x33c>
    1d64:	01330333          	add	t1,t1,s3
    1d68:	000107b7          	lui	a5,0x10
    1d6c:	fff78793          	addi	a5,a5,-1 # ffff <W1+0x8df>
    1d70:	00f4f733          	and	a4,s1,a5
    1d74:	00f8f8b3          	and	a7,a7,a5
    1d78:	01071713          	slli	a4,a4,0x10
    1d7c:	007e0e33          	add	t3,t3,t2
    1d80:	01170733          	add	a4,a4,a7
    1d84:	012e3933          	sltu	s2,t3,s2
    1d88:	01d70733          	add	a4,a4,t4
    1d8c:	01270433          	add	s0,a4,s2
    1d90:	00de0e33          	add	t3,t3,a3
    1d94:	00de36b3          	sltu	a3,t3,a3
    1d98:	01f408b3          	add	a7,s0,t6
    1d9c:	00d88f33          	add	t5,a7,a3
    1da0:	01d73733          	sltu	a4,a4,t4
    1da4:	01243433          	sltu	s0,s0,s2
    1da8:	00876433          	or	s0,a4,s0
    1dac:	0104d493          	srli	s1,s1,0x10
    1db0:	01f8b8b3          	sltu	a7,a7,t6
    1db4:	00df36b3          	sltu	a3,t5,a3
    1db8:	00940433          	add	s0,s0,s1
    1dbc:	00d8e6b3          	or	a3,a7,a3
    1dc0:	00d40433          	add	s0,s0,a3
    1dc4:	00640433          	add	s0,s0,t1
    1dc8:	017f5793          	srli	a5,t5,0x17
    1dcc:	00941413          	slli	s0,s0,0x9
    1dd0:	00f46433          	or	s0,s0,a5
    1dd4:	009e1793          	slli	a5,t3,0x9
    1dd8:	0107e7b3          	or	a5,a5,a6
    1ddc:	00f037b3          	snez	a5,a5
    1de0:	017e5e13          	srli	t3,t3,0x17
    1de4:	009f1713          	slli	a4,t5,0x9
    1de8:	01c7e7b3          	or	a5,a5,t3
    1dec:	00e7e7b3          	or	a5,a5,a4
    1df0:	01000737          	lui	a4,0x1000
    1df4:	00e47733          	and	a4,s0,a4
    1df8:	10070663          	beqz	a4,1f04 <__muldf3+0x4d8>
    1dfc:	0017d713          	srli	a4,a5,0x1
    1e00:	0017f793          	andi	a5,a5,1
    1e04:	00f767b3          	or	a5,a4,a5
    1e08:	01f41713          	slli	a4,s0,0x1f
    1e0c:	00e7e7b3          	or	a5,a5,a4
    1e10:	00145413          	srli	s0,s0,0x1
    1e14:	3ff58693          	addi	a3,a1,1023
    1e18:	0ed05a63          	blez	a3,1f0c <__muldf3+0x4e0>
    1e1c:	0077f713          	andi	a4,a5,7
    1e20:	02070063          	beqz	a4,1e40 <__muldf3+0x414>
    1e24:	00f7f713          	andi	a4,a5,15
    1e28:	00400513          	li	a0,4
    1e2c:	00a70a63          	beq	a4,a0,1e40 <__muldf3+0x414>
    1e30:	00478713          	addi	a4,a5,4
    1e34:	00f737b3          	sltu	a5,a4,a5
    1e38:	00f40433          	add	s0,s0,a5
    1e3c:	00070793          	mv	a5,a4
    1e40:	01000737          	lui	a4,0x1000
    1e44:	00e47733          	and	a4,s0,a4
    1e48:	00070a63          	beqz	a4,1e5c <__muldf3+0x430>
    1e4c:	ff000737          	lui	a4,0xff000
    1e50:	fff70713          	addi	a4,a4,-1 # feffffff <CONFIG_SYSTEM_WORKQUEUE_PRIORITY+0xff000000>
    1e54:	00e47433          	and	s0,s0,a4
    1e58:	40058693          	addi	a3,a1,1024
    1e5c:	7fe00713          	li	a4,2046
    1e60:	16d74a63          	blt	a4,a3,1fd4 <__muldf3+0x5a8>
    1e64:	0037d713          	srli	a4,a5,0x3
    1e68:	01d41793          	slli	a5,s0,0x1d
    1e6c:	00e7e7b3          	or	a5,a5,a4
    1e70:	00345413          	srli	s0,s0,0x3
    1e74:	01469713          	slli	a4,a3,0x14
    1e78:	00c41413          	slli	s0,s0,0xc
    1e7c:	7ff006b7          	lui	a3,0x7ff00
    1e80:	00d77733          	and	a4,a4,a3
    1e84:	00c45413          	srli	s0,s0,0xc
    1e88:	00876433          	or	s0,a4,s0
    1e8c:	01f61613          	slli	a2,a2,0x1f
    1e90:	02c12083          	lw	ra,44(sp)
    1e94:	00c46733          	or	a4,s0,a2
    1e98:	02812403          	lw	s0,40(sp)
    1e9c:	02412483          	lw	s1,36(sp)
    1ea0:	02012903          	lw	s2,32(sp)
    1ea4:	01c12983          	lw	s3,28(sp)
    1ea8:	01812a03          	lw	s4,24(sp)
    1eac:	01412a83          	lw	s5,20(sp)
    1eb0:	01012b03          	lw	s6,16(sp)
    1eb4:	00c12b83          	lw	s7,12(sp)
    1eb8:	00078513          	mv	a0,a5
    1ebc:	00070593          	mv	a1,a4
    1ec0:	03010113          	addi	sp,sp,48
    1ec4:	00008067          	ret
    1ec8:	000a0613          	mv	a2,s4
    1ecc:	00048413          	mv	s0,s1
    1ed0:	00090793          	mv	a5,s2
    1ed4:	000b0713          	mv	a4,s6
    1ed8:	00200693          	li	a3,2
    1edc:	0ed70c63          	beq	a4,a3,1fd4 <__muldf3+0x5a8>
    1ee0:	00300693          	li	a3,3
    1ee4:	0cd70e63          	beq	a4,a3,1fc0 <__muldf3+0x594>
    1ee8:	00100693          	li	a3,1
    1eec:	f2d714e3          	bne	a4,a3,1e14 <__muldf3+0x3e8>
    1ef0:	00000413          	li	s0,0
    1ef4:	00000793          	li	a5,0
    1ef8:	08c0006f          	j	1f84 <__muldf3+0x558>
    1efc:	000a8613          	mv	a2,s5
    1f00:	fd9ff06f          	j	1ed8 <__muldf3+0x4ac>
    1f04:	00050593          	mv	a1,a0
    1f08:	f0dff06f          	j	1e14 <__muldf3+0x3e8>
    1f0c:	00100513          	li	a0,1
    1f10:	40d50533          	sub	a0,a0,a3
    1f14:	03800713          	li	a4,56
    1f18:	fca74ce3          	blt	a4,a0,1ef0 <__muldf3+0x4c4>
    1f1c:	01f00713          	li	a4,31
    1f20:	06a74663          	blt	a4,a0,1f8c <__muldf3+0x560>
    1f24:	41e58593          	addi	a1,a1,1054
    1f28:	00b41733          	sll	a4,s0,a1
    1f2c:	00a7d6b3          	srl	a3,a5,a0
    1f30:	00b797b3          	sll	a5,a5,a1
    1f34:	00d76733          	or	a4,a4,a3
    1f38:	00f037b3          	snez	a5,a5
    1f3c:	00f767b3          	or	a5,a4,a5
    1f40:	00a45433          	srl	s0,s0,a0
    1f44:	0077f713          	andi	a4,a5,7
    1f48:	02070063          	beqz	a4,1f68 <__muldf3+0x53c>
    1f4c:	00f7f713          	andi	a4,a5,15
    1f50:	00400693          	li	a3,4
    1f54:	00d70a63          	beq	a4,a3,1f68 <__muldf3+0x53c>
    1f58:	00478713          	addi	a4,a5,4
    1f5c:	00f737b3          	sltu	a5,a4,a5
    1f60:	00f40433          	add	s0,s0,a5
    1f64:	00070793          	mv	a5,a4
    1f68:	00800737          	lui	a4,0x800
    1f6c:	00e47733          	and	a4,s0,a4
    1f70:	06071a63          	bnez	a4,1fe4 <__muldf3+0x5b8>
    1f74:	01d41713          	slli	a4,s0,0x1d
    1f78:	0037d793          	srli	a5,a5,0x3
    1f7c:	00f767b3          	or	a5,a4,a5
    1f80:	00345413          	srli	s0,s0,0x3
    1f84:	00000693          	li	a3,0
    1f88:	eedff06f          	j	1e74 <__muldf3+0x448>
    1f8c:	fe100713          	li	a4,-31
    1f90:	40d70733          	sub	a4,a4,a3
    1f94:	02000813          	li	a6,32
    1f98:	00e45733          	srl	a4,s0,a4
    1f9c:	00000693          	li	a3,0
    1fa0:	01050663          	beq	a0,a6,1fac <__muldf3+0x580>
    1fa4:	43e58593          	addi	a1,a1,1086
    1fa8:	00b416b3          	sll	a3,s0,a1
    1fac:	00f6e7b3          	or	a5,a3,a5
    1fb0:	00f037b3          	snez	a5,a5
    1fb4:	00f767b3          	or	a5,a4,a5
    1fb8:	00000413          	li	s0,0
    1fbc:	f89ff06f          	j	1f44 <__muldf3+0x518>
    1fc0:	00080437          	lui	s0,0x80
    1fc4:	00000793          	li	a5,0
    1fc8:	7ff00693          	li	a3,2047
    1fcc:	00000613          	li	a2,0
    1fd0:	ea5ff06f          	j	1e74 <__muldf3+0x448>
    1fd4:	00000413          	li	s0,0
    1fd8:	00000793          	li	a5,0
    1fdc:	7ff00693          	li	a3,2047
    1fe0:	e95ff06f          	j	1e74 <__muldf3+0x448>
    1fe4:	00000413          	li	s0,0
    1fe8:	00000793          	li	a5,0
    1fec:	00100693          	li	a3,1
    1ff0:	e85ff06f          	j	1e74 <__muldf3+0x448>

00001ff4 <__subdf3>:
    1ff4:	00100837          	lui	a6,0x100
    1ff8:	fff80813          	addi	a6,a6,-1 # fffff <__data_region_end+0x7e1e7>
    1ffc:	fe010113          	addi	sp,sp,-32
    2000:	00b877b3          	and	a5,a6,a1
    2004:	0145d713          	srli	a4,a1,0x14
    2008:	00d87833          	and	a6,a6,a3
    200c:	0146d313          	srli	t1,a3,0x14
    2010:	00812c23          	sw	s0,24(sp)
    2014:	00379793          	slli	a5,a5,0x3
    2018:	7ff77413          	andi	s0,a4,2047
    201c:	01d55713          	srli	a4,a0,0x1d
    2020:	00912a23          	sw	s1,20(sp)
    2024:	00f767b3          	or	a5,a4,a5
    2028:	01f5d493          	srli	s1,a1,0x1f
    202c:	01d65713          	srli	a4,a2,0x1d
    2030:	00351593          	slli	a1,a0,0x3
    2034:	00381813          	slli	a6,a6,0x3
    2038:	00112e23          	sw	ra,28(sp)
    203c:	01212823          	sw	s2,16(sp)
    2040:	01312623          	sw	s3,12(sp)
    2044:	7ff37313          	andi	t1,t1,2047
    2048:	7ff00513          	li	a0,2047
    204c:	01f6d693          	srli	a3,a3,0x1f
    2050:	01076733          	or	a4,a4,a6
    2054:	00361613          	slli	a2,a2,0x3
    2058:	00a31663          	bne	t1,a0,2064 <CONFIG_SRAM_SIZE+0x64>
    205c:	00c76533          	or	a0,a4,a2
    2060:	00051463          	bnez	a0,2068 <CONFIG_SRAM_SIZE+0x68>
    2064:	0016c693          	xori	a3,a3,1
    2068:	40640833          	sub	a6,s0,t1
    206c:	2c969863          	bne	a3,s1,233c <CONFIG_SRAM_SIZE+0x33c>
    2070:	13005063          	blez	a6,2190 <CONFIG_SRAM_SIZE+0x190>
    2074:	04031063          	bnez	t1,20b4 <CONFIG_SRAM_SIZE+0xb4>
    2078:	00c766b3          	or	a3,a4,a2
    207c:	70068c63          	beqz	a3,2794 <CONFIG_SRAM_SIZE+0x794>
    2080:	fff80513          	addi	a0,a6,-1
    2084:	02051063          	bnez	a0,20a4 <CONFIG_SRAM_SIZE+0xa4>
    2088:	00c58633          	add	a2,a1,a2
    208c:	00b63533          	sltu	a0,a2,a1
    2090:	00e787b3          	add	a5,a5,a4
    2094:	00a787b3          	add	a5,a5,a0
    2098:	00060593          	mv	a1,a2
    209c:	00100413          	li	s0,1
    20a0:	0700006f          	j	2110 <CONFIG_SRAM_SIZE+0x110>
    20a4:	7ff00693          	li	a3,2047
    20a8:	02d81063          	bne	a6,a3,20c8 <CONFIG_SRAM_SIZE+0xc8>
    20ac:	7ff00413          	li	s0,2047
    20b0:	2140006f          	j	22c4 <CONFIG_SRAM_SIZE+0x2c4>
    20b4:	7ff00693          	li	a3,2047
    20b8:	20d40663          	beq	s0,a3,22c4 <CONFIG_SRAM_SIZE+0x2c4>
    20bc:	008006b7          	lui	a3,0x800
    20c0:	00d76733          	or	a4,a4,a3
    20c4:	00080513          	mv	a0,a6
    20c8:	03800693          	li	a3,56
    20cc:	0aa6cc63          	blt	a3,a0,2184 <CONFIG_SRAM_SIZE+0x184>
    20d0:	01f00693          	li	a3,31
    20d4:	06a6ce63          	blt	a3,a0,2150 <CONFIG_SRAM_SIZE+0x150>
    20d8:	02000813          	li	a6,32
    20dc:	40a80833          	sub	a6,a6,a0
    20e0:	010716b3          	sll	a3,a4,a6
    20e4:	00a658b3          	srl	a7,a2,a0
    20e8:	01061633          	sll	a2,a2,a6
    20ec:	0116e6b3          	or	a3,a3,a7
    20f0:	00c03633          	snez	a2,a2
    20f4:	00c6e633          	or	a2,a3,a2
    20f8:	00a75733          	srl	a4,a4,a0
    20fc:	00b60633          	add	a2,a2,a1
    2100:	00b63533          	sltu	a0,a2,a1
    2104:	00f70733          	add	a4,a4,a5
    2108:	00a707b3          	add	a5,a4,a0
    210c:	00060593          	mv	a1,a2
    2110:	00800737          	lui	a4,0x800
    2114:	00e7f733          	and	a4,a5,a4
    2118:	1a070663          	beqz	a4,22c4 <CONFIG_SRAM_SIZE+0x2c4>
    211c:	00140413          	addi	s0,s0,1 # 80001 <digit7+0x921>
    2120:	7ff00713          	li	a4,2047
    2124:	5ce40a63          	beq	s0,a4,26f8 <CONFIG_SRAM_SIZE+0x6f8>
    2128:	ff800737          	lui	a4,0xff800
    212c:	fff70713          	addi	a4,a4,-1 # ff7fffff <CONFIG_SYSTEM_WORKQUEUE_PRIORITY+0xff800000>
    2130:	00e7f7b3          	and	a5,a5,a4
    2134:	0015f513          	andi	a0,a1,1
    2138:	0015d713          	srli	a4,a1,0x1
    213c:	00a76533          	or	a0,a4,a0
    2140:	01f79593          	slli	a1,a5,0x1f
    2144:	00a5e5b3          	or	a1,a1,a0
    2148:	0017d793          	srli	a5,a5,0x1
    214c:	1780006f          	j	22c4 <CONFIG_SRAM_SIZE+0x2c4>
    2150:	fe050693          	addi	a3,a0,-32
    2154:	02000893          	li	a7,32
    2158:	00d756b3          	srl	a3,a4,a3
    215c:	00000813          	li	a6,0
    2160:	01150863          	beq	a0,a7,2170 <CONFIG_SRAM_SIZE+0x170>
    2164:	04000813          	li	a6,64
    2168:	40a80533          	sub	a0,a6,a0
    216c:	00a71833          	sll	a6,a4,a0
    2170:	00c86633          	or	a2,a6,a2
    2174:	00c03633          	snez	a2,a2
    2178:	00c6e633          	or	a2,a3,a2
    217c:	00000713          	li	a4,0
    2180:	f7dff06f          	j	20fc <CONFIG_SRAM_SIZE+0xfc>
    2184:	00c76633          	or	a2,a4,a2
    2188:	00c03633          	snez	a2,a2
    218c:	ff1ff06f          	j	217c <CONFIG_SRAM_SIZE+0x17c>
    2190:	0e080263          	beqz	a6,2274 <CONFIG_SRAM_SIZE+0x274>
    2194:	40830533          	sub	a0,t1,s0
    2198:	02041e63          	bnez	s0,21d4 <CONFIG_SRAM_SIZE+0x1d4>
    219c:	00b7e6b3          	or	a3,a5,a1
    21a0:	52068c63          	beqz	a3,26d8 <CONFIG_SRAM_SIZE+0x6d8>
    21a4:	fff50693          	addi	a3,a0,-1
    21a8:	00069c63          	bnez	a3,21c0 <CONFIG_SRAM_SIZE+0x1c0>
    21ac:	00c585b3          	add	a1,a1,a2
    21b0:	00e787b3          	add	a5,a5,a4
    21b4:	00c5b633          	sltu	a2,a1,a2
    21b8:	00c787b3          	add	a5,a5,a2
    21bc:	ee1ff06f          	j	209c <CONFIG_SRAM_SIZE+0x9c>
    21c0:	7ff00813          	li	a6,2047
    21c4:	03051263          	bne	a0,a6,21e8 <CONFIG_SRAM_SIZE+0x1e8>
    21c8:	00070793          	mv	a5,a4
    21cc:	00060593          	mv	a1,a2
    21d0:	eddff06f          	j	20ac <CONFIG_SRAM_SIZE+0xac>
    21d4:	7ff00693          	li	a3,2047
    21d8:	fed308e3          	beq	t1,a3,21c8 <CONFIG_SRAM_SIZE+0x1c8>
    21dc:	008006b7          	lui	a3,0x800
    21e0:	00d7e7b3          	or	a5,a5,a3
    21e4:	00050693          	mv	a3,a0
    21e8:	03800513          	li	a0,56
    21ec:	06d54e63          	blt	a0,a3,2268 <CONFIG_SRAM_SIZE+0x268>
    21f0:	01f00513          	li	a0,31
    21f4:	04d54063          	blt	a0,a3,2234 <CONFIG_SRAM_SIZE+0x234>
    21f8:	02000813          	li	a6,32
    21fc:	40d80833          	sub	a6,a6,a3
    2200:	01079533          	sll	a0,a5,a6
    2204:	00d5d8b3          	srl	a7,a1,a3
    2208:	010595b3          	sll	a1,a1,a6
    220c:	01156533          	or	a0,a0,a7
    2210:	00b035b3          	snez	a1,a1
    2214:	00b56533          	or	a0,a0,a1
    2218:	00d7d7b3          	srl	a5,a5,a3
    221c:	00c505b3          	add	a1,a0,a2
    2220:	00e787b3          	add	a5,a5,a4
    2224:	00c5b633          	sltu	a2,a1,a2
    2228:	00c787b3          	add	a5,a5,a2
    222c:	00030413          	mv	s0,t1
    2230:	ee1ff06f          	j	2110 <CONFIG_SRAM_SIZE+0x110>
    2234:	fe068513          	addi	a0,a3,-32 # 7fffe0 <CONFIG_HEAP_MEM_POOL_SIZE+0x6fffe0>
    2238:	02000893          	li	a7,32
    223c:	00a7d833          	srl	a6,a5,a0
    2240:	00000513          	li	a0,0
    2244:	01168863          	beq	a3,a7,2254 <CONFIG_SRAM_SIZE+0x254>
    2248:	04000513          	li	a0,64
    224c:	40d50533          	sub	a0,a0,a3
    2250:	00a79533          	sll	a0,a5,a0
    2254:	00b56533          	or	a0,a0,a1
    2258:	00a03533          	snez	a0,a0
    225c:	00a86533          	or	a0,a6,a0
    2260:	00000793          	li	a5,0
    2264:	fb9ff06f          	j	221c <CONFIG_SRAM_SIZE+0x21c>
    2268:	00b7e533          	or	a0,a5,a1
    226c:	00a03533          	snez	a0,a0
    2270:	ff1ff06f          	j	2260 <CONFIG_SRAM_SIZE+0x260>
    2274:	00140693          	addi	a3,s0,1
    2278:	7fe6f513          	andi	a0,a3,2046
    227c:	08051863          	bnez	a0,230c <CONFIG_SRAM_SIZE+0x30c>
    2280:	00b7e6b3          	or	a3,a5,a1
    2284:	06041463          	bnez	s0,22ec <CONFIG_SRAM_SIZE+0x2ec>
    2288:	46068063          	beqz	a3,26e8 <CONFIG_SRAM_SIZE+0x6e8>
    228c:	00c766b3          	or	a3,a4,a2
    2290:	02068a63          	beqz	a3,22c4 <CONFIG_SRAM_SIZE+0x2c4>
    2294:	00c58633          	add	a2,a1,a2
    2298:	00e787b3          	add	a5,a5,a4
    229c:	00b63533          	sltu	a0,a2,a1
    22a0:	00a787b3          	add	a5,a5,a0
    22a4:	00800737          	lui	a4,0x800
    22a8:	00e7f733          	and	a4,a5,a4
    22ac:	00060593          	mv	a1,a2
    22b0:	00070a63          	beqz	a4,22c4 <CONFIG_SRAM_SIZE+0x2c4>
    22b4:	ff800737          	lui	a4,0xff800
    22b8:	fff70713          	addi	a4,a4,-1 # ff7fffff <CONFIG_SYSTEM_WORKQUEUE_PRIORITY+0xff800000>
    22bc:	00e7f7b3          	and	a5,a5,a4
    22c0:	00100413          	li	s0,1
    22c4:	0075f713          	andi	a4,a1,7
    22c8:	42070c63          	beqz	a4,2700 <CONFIG_SRAM_SIZE+0x700>
    22cc:	00f5f713          	andi	a4,a1,15
    22d0:	00400693          	li	a3,4
    22d4:	42d70663          	beq	a4,a3,2700 <CONFIG_SRAM_SIZE+0x700>
    22d8:	00458713          	addi	a4,a1,4
    22dc:	00b73533          	sltu	a0,a4,a1
    22e0:	00a787b3          	add	a5,a5,a0
    22e4:	00070593          	mv	a1,a4
    22e8:	4180006f          	j	2700 <CONFIG_SRAM_SIZE+0x700>
    22ec:	ec068ee3          	beqz	a3,21c8 <CONFIG_SRAM_SIZE+0x1c8>
    22f0:	00c76633          	or	a2,a4,a2
    22f4:	da060ce3          	beqz	a2,20ac <CONFIG_SRAM_SIZE+0xac>
    22f8:	00000493          	li	s1,0
    22fc:	004007b7          	lui	a5,0x400
    2300:	00000593          	li	a1,0
    2304:	7ff00413          	li	s0,2047
    2308:	3f80006f          	j	2700 <CONFIG_SRAM_SIZE+0x700>
    230c:	7ff00513          	li	a0,2047
    2310:	3ea68263          	beq	a3,a0,26f4 <CONFIG_SRAM_SIZE+0x6f4>
    2314:	00c58633          	add	a2,a1,a2
    2318:	00b63533          	sltu	a0,a2,a1
    231c:	00e787b3          	add	a5,a5,a4
    2320:	00a787b3          	add	a5,a5,a0
    2324:	01f79513          	slli	a0,a5,0x1f
    2328:	00165613          	srli	a2,a2,0x1
    232c:	00c565b3          	or	a1,a0,a2
    2330:	0017d793          	srli	a5,a5,0x1
    2334:	00068413          	mv	s0,a3
    2338:	f8dff06f          	j	22c4 <CONFIG_SRAM_SIZE+0x2c4>
    233c:	0f005c63          	blez	a6,2434 <CONFIG_SRAM_SIZE+0x434>
    2340:	08031e63          	bnez	t1,23dc <CONFIG_SRAM_SIZE+0x3dc>
    2344:	00c766b3          	or	a3,a4,a2
    2348:	44068663          	beqz	a3,2794 <CONFIG_SRAM_SIZE+0x794>
    234c:	fff80513          	addi	a0,a6,-1
    2350:	02051063          	bnez	a0,2370 <CONFIG_SRAM_SIZE+0x370>
    2354:	40c58633          	sub	a2,a1,a2
    2358:	00c5b533          	sltu	a0,a1,a2
    235c:	40e787b3          	sub	a5,a5,a4
    2360:	40a787b3          	sub	a5,a5,a0
    2364:	00060593          	mv	a1,a2
    2368:	00100413          	li	s0,1
    236c:	0540006f          	j	23c0 <CONFIG_SRAM_SIZE+0x3c0>
    2370:	7ff00693          	li	a3,2047
    2374:	d2d80ce3          	beq	a6,a3,20ac <CONFIG_SRAM_SIZE+0xac>
    2378:	03800693          	li	a3,56
    237c:	0aa6c663          	blt	a3,a0,2428 <CONFIG_SRAM_SIZE+0x428>
    2380:	01f00693          	li	a3,31
    2384:	06a6c863          	blt	a3,a0,23f4 <CONFIG_SRAM_SIZE+0x3f4>
    2388:	02000813          	li	a6,32
    238c:	40a80833          	sub	a6,a6,a0
    2390:	010716b3          	sll	a3,a4,a6
    2394:	00a658b3          	srl	a7,a2,a0
    2398:	01061633          	sll	a2,a2,a6
    239c:	0116e6b3          	or	a3,a3,a7
    23a0:	00c03633          	snez	a2,a2
    23a4:	00c6e633          	or	a2,a3,a2
    23a8:	00a75733          	srl	a4,a4,a0
    23ac:	40c58633          	sub	a2,a1,a2
    23b0:	00c5b533          	sltu	a0,a1,a2
    23b4:	40e78733          	sub	a4,a5,a4
    23b8:	40a707b3          	sub	a5,a4,a0
    23bc:	00060593          	mv	a1,a2
    23c0:	00800937          	lui	s2,0x800
    23c4:	0127f733          	and	a4,a5,s2
    23c8:	ee070ee3          	beqz	a4,22c4 <CONFIG_SRAM_SIZE+0x2c4>
    23cc:	fff90913          	addi	s2,s2,-1 # 7fffff <CONFIG_HEAP_MEM_POOL_SIZE+0x6fffff>
    23d0:	0127f933          	and	s2,a5,s2
    23d4:	00058993          	mv	s3,a1
    23d8:	2140006f          	j	25ec <CONFIG_SRAM_SIZE+0x5ec>
    23dc:	7ff00693          	li	a3,2047
    23e0:	eed402e3          	beq	s0,a3,22c4 <CONFIG_SRAM_SIZE+0x2c4>
    23e4:	008006b7          	lui	a3,0x800
    23e8:	00d76733          	or	a4,a4,a3
    23ec:	00080513          	mv	a0,a6
    23f0:	f89ff06f          	j	2378 <CONFIG_SRAM_SIZE+0x378>
    23f4:	fe050693          	addi	a3,a0,-32
    23f8:	02000893          	li	a7,32
    23fc:	00d756b3          	srl	a3,a4,a3
    2400:	00000813          	li	a6,0
    2404:	01150863          	beq	a0,a7,2414 <CONFIG_SRAM_SIZE+0x414>
    2408:	04000813          	li	a6,64
    240c:	40a80533          	sub	a0,a6,a0
    2410:	00a71833          	sll	a6,a4,a0
    2414:	00c86633          	or	a2,a6,a2
    2418:	00c03633          	snez	a2,a2
    241c:	00c6e633          	or	a2,a3,a2
    2420:	00000713          	li	a4,0
    2424:	f89ff06f          	j	23ac <CONFIG_SRAM_SIZE+0x3ac>
    2428:	00c76633          	or	a2,a4,a2
    242c:	00c03633          	snez	a2,a2
    2430:	ff1ff06f          	j	2420 <CONFIG_SRAM_SIZE+0x420>
    2434:	0e080863          	beqz	a6,2524 <CONFIG_SRAM_SIZE+0x524>
    2438:	40830533          	sub	a0,t1,s0
    243c:	04041263          	bnez	s0,2480 <CONFIG_SRAM_SIZE+0x480>
    2440:	00b7e833          	or	a6,a5,a1
    2444:	34080c63          	beqz	a6,279c <CONFIG_SRAM_SIZE+0x79c>
    2448:	fff50813          	addi	a6,a0,-1
    244c:	00081e63          	bnez	a6,2468 <CONFIG_SRAM_SIZE+0x468>
    2450:	40b605b3          	sub	a1,a2,a1
    2454:	40f707b3          	sub	a5,a4,a5
    2458:	00b63633          	sltu	a2,a2,a1
    245c:	40c787b3          	sub	a5,a5,a2
    2460:	00068493          	mv	s1,a3
    2464:	f05ff06f          	j	2368 <CONFIG_SRAM_SIZE+0x368>
    2468:	7ff00893          	li	a7,2047
    246c:	03151463          	bne	a0,a7,2494 <CONFIG_SRAM_SIZE+0x494>
    2470:	00070793          	mv	a5,a4
    2474:	00060593          	mv	a1,a2
    2478:	7ff00413          	li	s0,2047
    247c:	0d00006f          	j	254c <CONFIG_SRAM_SIZE+0x54c>
    2480:	7ff00813          	li	a6,2047
    2484:	ff0306e3          	beq	t1,a6,2470 <CONFIG_SRAM_SIZE+0x470>
    2488:	00800837          	lui	a6,0x800
    248c:	0107e7b3          	or	a5,a5,a6
    2490:	00050813          	mv	a6,a0
    2494:	03800513          	li	a0,56
    2498:	09054063          	blt	a0,a6,2518 <CONFIG_SRAM_SIZE+0x518>
    249c:	01f00513          	li	a0,31
    24a0:	05054263          	blt	a0,a6,24e4 <CONFIG_SRAM_SIZE+0x4e4>
    24a4:	02000893          	li	a7,32
    24a8:	410888b3          	sub	a7,a7,a6
    24ac:	01179533          	sll	a0,a5,a7
    24b0:	0105de33          	srl	t3,a1,a6
    24b4:	011595b3          	sll	a1,a1,a7
    24b8:	01c56533          	or	a0,a0,t3
    24bc:	00b035b3          	snez	a1,a1
    24c0:	00b56533          	or	a0,a0,a1
    24c4:	0107d7b3          	srl	a5,a5,a6
    24c8:	40a605b3          	sub	a1,a2,a0
    24cc:	40f707b3          	sub	a5,a4,a5
    24d0:	00b63633          	sltu	a2,a2,a1
    24d4:	40c787b3          	sub	a5,a5,a2
    24d8:	00030413          	mv	s0,t1
    24dc:	00068493          	mv	s1,a3
    24e0:	ee1ff06f          	j	23c0 <CONFIG_SRAM_SIZE+0x3c0>
    24e4:	fe080513          	addi	a0,a6,-32 # 7fffe0 <CONFIG_HEAP_MEM_POOL_SIZE+0x6fffe0>
    24e8:	02000e13          	li	t3,32
    24ec:	00a7d8b3          	srl	a7,a5,a0
    24f0:	00000513          	li	a0,0
    24f4:	01c80863          	beq	a6,t3,2504 <CONFIG_SRAM_SIZE+0x504>
    24f8:	04000513          	li	a0,64
    24fc:	41050533          	sub	a0,a0,a6
    2500:	00a79533          	sll	a0,a5,a0
    2504:	00b56533          	or	a0,a0,a1
    2508:	00a03533          	snez	a0,a0
    250c:	00a8e533          	or	a0,a7,a0
    2510:	00000793          	li	a5,0
    2514:	fb5ff06f          	j	24c8 <CONFIG_SRAM_SIZE+0x4c8>
    2518:	00b7e533          	or	a0,a5,a1
    251c:	00a03533          	snez	a0,a0
    2520:	ff1ff06f          	j	2510 <CONFIG_SRAM_SIZE+0x510>
    2524:	00140513          	addi	a0,s0,1
    2528:	7fe57513          	andi	a0,a0,2046
    252c:	08051863          	bnez	a0,25bc <CONFIG_SRAM_SIZE+0x5bc>
    2530:	00c76533          	or	a0,a4,a2
    2534:	00b7e833          	or	a6,a5,a1
    2538:	06041263          	bnez	s0,259c <CONFIG_SRAM_SIZE+0x59c>
    253c:	00081c63          	bnez	a6,2554 <CONFIG_SRAM_SIZE+0x554>
    2540:	26050663          	beqz	a0,27ac <CONFIG_SRAM_SIZE+0x7ac>
    2544:	00070793          	mv	a5,a4
    2548:	00060593          	mv	a1,a2
    254c:	00068493          	mv	s1,a3
    2550:	d75ff06f          	j	22c4 <CONFIG_SRAM_SIZE+0x2c4>
    2554:	d60508e3          	beqz	a0,22c4 <CONFIG_SRAM_SIZE+0x2c4>
    2558:	40c58833          	sub	a6,a1,a2
    255c:	0105b8b3          	sltu	a7,a1,a6
    2560:	40e78533          	sub	a0,a5,a4
    2564:	41150533          	sub	a0,a0,a7
    2568:	008008b7          	lui	a7,0x800
    256c:	011578b3          	and	a7,a0,a7
    2570:	00088c63          	beqz	a7,2588 <CONFIG_SRAM_SIZE+0x588>
    2574:	40b605b3          	sub	a1,a2,a1
    2578:	40f707b3          	sub	a5,a4,a5
    257c:	00b63633          	sltu	a2,a2,a1
    2580:	40c787b3          	sub	a5,a5,a2
    2584:	fc9ff06f          	j	254c <CONFIG_SRAM_SIZE+0x54c>
    2588:	00a865b3          	or	a1,a6,a0
    258c:	22058863          	beqz	a1,27bc <CONFIG_SRAM_SIZE+0x7bc>
    2590:	00050793          	mv	a5,a0
    2594:	00080593          	mv	a1,a6
    2598:	d2dff06f          	j	22c4 <CONFIG_SRAM_SIZE+0x2c4>
    259c:	00081c63          	bnez	a6,25b4 <CONFIG_SRAM_SIZE+0x5b4>
    25a0:	22050263          	beqz	a0,27c4 <CONFIG_SRAM_SIZE+0x7c4>
    25a4:	00070793          	mv	a5,a4
    25a8:	00060593          	mv	a1,a2
    25ac:	00068493          	mv	s1,a3
    25b0:	afdff06f          	j	20ac <CONFIG_SRAM_SIZE+0xac>
    25b4:	ae050ce3          	beqz	a0,20ac <CONFIG_SRAM_SIZE+0xac>
    25b8:	d41ff06f          	j	22f8 <CONFIG_SRAM_SIZE+0x2f8>
    25bc:	40c589b3          	sub	s3,a1,a2
    25c0:	0135b533          	sltu	a0,a1,s3
    25c4:	40e78933          	sub	s2,a5,a4
    25c8:	40a90933          	sub	s2,s2,a0
    25cc:	00800537          	lui	a0,0x800
    25d0:	00a97533          	and	a0,s2,a0
    25d4:	08050463          	beqz	a0,265c <CONFIG_SRAM_SIZE+0x65c>
    25d8:	40b609b3          	sub	s3,a2,a1
    25dc:	40f707b3          	sub	a5,a4,a5
    25e0:	01363633          	sltu	a2,a2,s3
    25e4:	40c78933          	sub	s2,a5,a2
    25e8:	00068493          	mv	s1,a3
    25ec:	08090263          	beqz	s2,2670 <CONFIG_SRAM_SIZE+0x670>
    25f0:	00090513          	mv	a0,s2
    25f4:	cfdfd0ef          	jal	ra,2f0 <__clzsi2>
    25f8:	ff850713          	addi	a4,a0,-8 # 7ffff8 <CONFIG_HEAP_MEM_POOL_SIZE+0x6ffff8>
    25fc:	01f00793          	li	a5,31
    2600:	08e7c063          	blt	a5,a4,2680 <CONFIG_SRAM_SIZE+0x680>
    2604:	02000793          	li	a5,32
    2608:	40e787b3          	sub	a5,a5,a4
    260c:	00e91933          	sll	s2,s2,a4
    2610:	00f9d7b3          	srl	a5,s3,a5
    2614:	0127e7b3          	or	a5,a5,s2
    2618:	00e995b3          	sll	a1,s3,a4
    261c:	0a874463          	blt	a4,s0,26c4 <CONFIG_SRAM_SIZE+0x6c4>
    2620:	40870733          	sub	a4,a4,s0
    2624:	00170693          	addi	a3,a4,1
    2628:	01f00613          	li	a2,31
    262c:	06d64263          	blt	a2,a3,2690 <CONFIG_SRAM_SIZE+0x690>
    2630:	02000713          	li	a4,32
    2634:	40d70733          	sub	a4,a4,a3
    2638:	00e79633          	sll	a2,a5,a4
    263c:	00d5d533          	srl	a0,a1,a3
    2640:	00e595b3          	sll	a1,a1,a4
    2644:	00a66633          	or	a2,a2,a0
    2648:	00b035b3          	snez	a1,a1
    264c:	00b665b3          	or	a1,a2,a1
    2650:	00d7d7b3          	srl	a5,a5,a3
    2654:	00000413          	li	s0,0
    2658:	c6dff06f          	j	22c4 <CONFIG_SRAM_SIZE+0x2c4>
    265c:	0129e5b3          	or	a1,s3,s2
    2660:	f80596e3          	bnez	a1,25ec <CONFIG_SRAM_SIZE+0x5ec>
    2664:	00000793          	li	a5,0
    2668:	00000413          	li	s0,0
    266c:	1480006f          	j	27b4 <CONFIG_SRAM_SIZE+0x7b4>
    2670:	00098513          	mv	a0,s3
    2674:	c7dfd0ef          	jal	ra,2f0 <__clzsi2>
    2678:	02050513          	addi	a0,a0,32
    267c:	f7dff06f          	j	25f8 <CONFIG_SRAM_SIZE+0x5f8>
    2680:	fd850793          	addi	a5,a0,-40
    2684:	00f997b3          	sll	a5,s3,a5
    2688:	00000593          	li	a1,0
    268c:	f91ff06f          	j	261c <CONFIG_SRAM_SIZE+0x61c>
    2690:	fe170713          	addi	a4,a4,-31
    2694:	02000613          	li	a2,32
    2698:	00e7d733          	srl	a4,a5,a4
    269c:	00000513          	li	a0,0
    26a0:	00c68863          	beq	a3,a2,26b0 <CONFIG_SRAM_SIZE+0x6b0>
    26a4:	04000513          	li	a0,64
    26a8:	40d50533          	sub	a0,a0,a3
    26ac:	00a79533          	sll	a0,a5,a0
    26b0:	00a5e533          	or	a0,a1,a0
    26b4:	00a03533          	snez	a0,a0
    26b8:	00a765b3          	or	a1,a4,a0
    26bc:	00000793          	li	a5,0
    26c0:	f95ff06f          	j	2654 <CONFIG_SRAM_SIZE+0x654>
    26c4:	40e40433          	sub	s0,s0,a4
    26c8:	ff800737          	lui	a4,0xff800
    26cc:	fff70713          	addi	a4,a4,-1 # ff7fffff <CONFIG_SYSTEM_WORKQUEUE_PRIORITY+0xff800000>
    26d0:	00e7f7b3          	and	a5,a5,a4
    26d4:	bf1ff06f          	j	22c4 <CONFIG_SRAM_SIZE+0x2c4>
    26d8:	00070793          	mv	a5,a4
    26dc:	00060593          	mv	a1,a2
    26e0:	00050413          	mv	s0,a0
    26e4:	be1ff06f          	j	22c4 <CONFIG_SRAM_SIZE+0x2c4>
    26e8:	00070793          	mv	a5,a4
    26ec:	00060593          	mv	a1,a2
    26f0:	bd5ff06f          	j	22c4 <CONFIG_SRAM_SIZE+0x2c4>
    26f4:	7ff00413          	li	s0,2047
    26f8:	00000793          	li	a5,0
    26fc:	00000593          	li	a1,0
    2700:	00800737          	lui	a4,0x800
    2704:	00e7f733          	and	a4,a5,a4
    2708:	00070e63          	beqz	a4,2724 <CONFIG_SRAM_SIZE+0x724>
    270c:	00140413          	addi	s0,s0,1
    2710:	7ff00713          	li	a4,2047
    2714:	0ce40063          	beq	s0,a4,27d4 <CONFIG_SRAM_SIZE+0x7d4>
    2718:	ff800737          	lui	a4,0xff800
    271c:	fff70713          	addi	a4,a4,-1 # ff7fffff <CONFIG_SYSTEM_WORKQUEUE_PRIORITY+0xff800000>
    2720:	00e7f7b3          	and	a5,a5,a4
    2724:	01d79713          	slli	a4,a5,0x1d
    2728:	0035d513          	srli	a0,a1,0x3
    272c:	00a76533          	or	a0,a4,a0
    2730:	7ff00713          	li	a4,2047
    2734:	0037d793          	srli	a5,a5,0x3
    2738:	00e41e63          	bne	s0,a4,2754 <CONFIG_SRAM_SIZE+0x754>
    273c:	00f56533          	or	a0,a0,a5
    2740:	00000793          	li	a5,0
    2744:	00050863          	beqz	a0,2754 <CONFIG_SRAM_SIZE+0x754>
    2748:	000807b7          	lui	a5,0x80
    274c:	00000513          	li	a0,0
    2750:	00000493          	li	s1,0
    2754:	01441713          	slli	a4,s0,0x14
    2758:	7ff006b7          	lui	a3,0x7ff00
    275c:	00c79793          	slli	a5,a5,0xc
    2760:	01c12083          	lw	ra,28(sp)
    2764:	01812403          	lw	s0,24(sp)
    2768:	00d77733          	and	a4,a4,a3
    276c:	00c7d793          	srli	a5,a5,0xc
    2770:	01f49493          	slli	s1,s1,0x1f
    2774:	00f767b3          	or	a5,a4,a5
    2778:	0097e733          	or	a4,a5,s1
    277c:	01012903          	lw	s2,16(sp)
    2780:	01412483          	lw	s1,20(sp)
    2784:	00c12983          	lw	s3,12(sp)
    2788:	00070593          	mv	a1,a4
    278c:	02010113          	addi	sp,sp,32
    2790:	00008067          	ret
    2794:	00080413          	mv	s0,a6
    2798:	b2dff06f          	j	22c4 <CONFIG_SRAM_SIZE+0x2c4>
    279c:	00070793          	mv	a5,a4
    27a0:	00060593          	mv	a1,a2
    27a4:	00050413          	mv	s0,a0
    27a8:	da5ff06f          	j	254c <CONFIG_SRAM_SIZE+0x54c>
    27ac:	00000793          	li	a5,0
    27b0:	00000593          	li	a1,0
    27b4:	00000493          	li	s1,0
    27b8:	f49ff06f          	j	2700 <CONFIG_SRAM_SIZE+0x700>
    27bc:	00000793          	li	a5,0
    27c0:	ff5ff06f          	j	27b4 <CONFIG_SRAM_SIZE+0x7b4>
    27c4:	00000593          	li	a1,0
    27c8:	00000493          	li	s1,0
    27cc:	004007b7          	lui	a5,0x400
    27d0:	b35ff06f          	j	2304 <CONFIG_SRAM_SIZE+0x304>
    27d4:	00000793          	li	a5,0
    27d8:	00000593          	li	a1,0
    27dc:	f49ff06f          	j	2724 <CONFIG_SRAM_SIZE+0x724>

000027e0 <__floatunsidf>:
    27e0:	ff010113          	addi	sp,sp,-16
    27e4:	00812423          	sw	s0,8(sp)
    27e8:	00112623          	sw	ra,12(sp)
    27ec:	00050413          	mv	s0,a0
    27f0:	06050263          	beqz	a0,2854 <__floatunsidf+0x74>
    27f4:	afdfd0ef          	jal	ra,2f0 <__clzsi2>
    27f8:	41e00713          	li	a4,1054
    27fc:	00a00793          	li	a5,10
    2800:	40a70733          	sub	a4,a4,a0
    2804:	04a7c063          	blt	a5,a0,2844 <__floatunsidf+0x64>
    2808:	00b00793          	li	a5,11
    280c:	40a787b3          	sub	a5,a5,a0
    2810:	01550513          	addi	a0,a0,21
    2814:	00f457b3          	srl	a5,s0,a5
    2818:	00a41433          	sll	s0,s0,a0
    281c:	00c12083          	lw	ra,12(sp)
    2820:	00040513          	mv	a0,s0
    2824:	00c79793          	slli	a5,a5,0xc
    2828:	00812403          	lw	s0,8(sp)
    282c:	01471713          	slli	a4,a4,0x14
    2830:	00c7d793          	srli	a5,a5,0xc
    2834:	00f766b3          	or	a3,a4,a5
    2838:	00068593          	mv	a1,a3
    283c:	01010113          	addi	sp,sp,16
    2840:	00008067          	ret
    2844:	ff550793          	addi	a5,a0,-11
    2848:	00f417b3          	sll	a5,s0,a5
    284c:	00000413          	li	s0,0
    2850:	fcdff06f          	j	281c <__floatunsidf+0x3c>
    2854:	00000793          	li	a5,0
    2858:	00000713          	li	a4,0
    285c:	fc1ff06f          	j	281c <__floatunsidf+0x3c>

00002860 <__divsf3>:
    2860:	fe010113          	addi	sp,sp,-32
    2864:	00912a23          	sw	s1,20(sp)
    2868:	01755493          	srli	s1,a0,0x17
    286c:	01212823          	sw	s2,16(sp)
    2870:	01312623          	sw	s3,12(sp)
    2874:	01412423          	sw	s4,8(sp)
    2878:	00951993          	slli	s3,a0,0x9
    287c:	00112e23          	sw	ra,28(sp)
    2880:	00812c23          	sw	s0,24(sp)
    2884:	01512223          	sw	s5,4(sp)
    2888:	0ff4f493          	andi	s1,s1,255
    288c:	00058a13          	mv	s4,a1
    2890:	0099d993          	srli	s3,s3,0x9
    2894:	01f55913          	srli	s2,a0,0x1f
    2898:	08048463          	beqz	s1,2920 <__divsf3+0xc0>
    289c:	0ff00793          	li	a5,255
    28a0:	0af48063          	beq	s1,a5,2940 <__divsf3+0xe0>
    28a4:	00399993          	slli	s3,s3,0x3
    28a8:	040007b7          	lui	a5,0x4000
    28ac:	00f9e9b3          	or	s3,s3,a5
    28b0:	f8148493          	addi	s1,s1,-127 # 7ff81 <digit7+0x8a1>
    28b4:	00000a93          	li	s5,0
    28b8:	017a5513          	srli	a0,s4,0x17
    28bc:	009a1413          	slli	s0,s4,0x9
    28c0:	0ff57513          	andi	a0,a0,255
    28c4:	00945413          	srli	s0,s0,0x9
    28c8:	01fa5a13          	srli	s4,s4,0x1f
    28cc:	08050a63          	beqz	a0,2960 <__divsf3+0x100>
    28d0:	0ff00793          	li	a5,255
    28d4:	0af50663          	beq	a0,a5,2980 <__divsf3+0x120>
    28d8:	00341413          	slli	s0,s0,0x3
    28dc:	040007b7          	lui	a5,0x4000
    28e0:	00f46433          	or	s0,s0,a5
    28e4:	f8150513          	addi	a0,a0,-127
    28e8:	00000793          	li	a5,0
    28ec:	002a9693          	slli	a3,s5,0x2
    28f0:	00f6e6b3          	or	a3,a3,a5
    28f4:	fff68693          	addi	a3,a3,-1 # 7fefffff <CONFIG_SYS_CLOCK_HW_CYCLES_PER_SEC+0x7cf50f7f>
    28f8:	00e00713          	li	a4,14
    28fc:	01494633          	xor	a2,s2,s4
    2900:	40a48533          	sub	a0,s1,a0
    2904:	08d76e63          	bltu	a4,a3,29a0 <__divsf3+0x140>
    2908:	0000d737          	lui	a4,0xd
    290c:	91470713          	addi	a4,a4,-1772 # c914 <__clz_tab+0x178>
    2910:	00269693          	slli	a3,a3,0x2
    2914:	00e686b3          	add	a3,a3,a4
    2918:	0006a703          	lw	a4,0(a3)
    291c:	00070067          	jr	a4
    2920:	02098a63          	beqz	s3,2954 <__divsf3+0xf4>
    2924:	00098513          	mv	a0,s3
    2928:	9c9fd0ef          	jal	ra,2f0 <__clzsi2>
    292c:	ffb50793          	addi	a5,a0,-5
    2930:	f8a00493          	li	s1,-118
    2934:	00f999b3          	sll	s3,s3,a5
    2938:	40a484b3          	sub	s1,s1,a0
    293c:	f79ff06f          	j	28b4 <__divsf3+0x54>
    2940:	0ff00493          	li	s1,255
    2944:	00200a93          	li	s5,2
    2948:	f60988e3          	beqz	s3,28b8 <__divsf3+0x58>
    294c:	00300a93          	li	s5,3
    2950:	f69ff06f          	j	28b8 <__divsf3+0x58>
    2954:	00000493          	li	s1,0
    2958:	00100a93          	li	s5,1
    295c:	f5dff06f          	j	28b8 <__divsf3+0x58>
    2960:	02040a63          	beqz	s0,2994 <__divsf3+0x134>
    2964:	00040513          	mv	a0,s0
    2968:	989fd0ef          	jal	ra,2f0 <__clzsi2>
    296c:	ffb50793          	addi	a5,a0,-5
    2970:	00f41433          	sll	s0,s0,a5
    2974:	f8a00793          	li	a5,-118
    2978:	40a78533          	sub	a0,a5,a0
    297c:	f6dff06f          	j	28e8 <__divsf3+0x88>
    2980:	0ff00513          	li	a0,255
    2984:	00200793          	li	a5,2
    2988:	f60402e3          	beqz	s0,28ec <__divsf3+0x8c>
    298c:	00300793          	li	a5,3
    2990:	f5dff06f          	j	28ec <__divsf3+0x8c>
    2994:	00000513          	li	a0,0
    2998:	00100793          	li	a5,1
    299c:	f51ff06f          	j	28ec <__divsf3+0x8c>
    29a0:	00541813          	slli	a6,s0,0x5
    29a4:	1289f463          	bgeu	s3,s0,2acc <__divsf3+0x26c>
    29a8:	fff50513          	addi	a0,a0,-1
    29ac:	00000693          	li	a3,0
    29b0:	01085413          	srli	s0,a6,0x10
    29b4:	0289d333          	divu	t1,s3,s0
    29b8:	000107b7          	lui	a5,0x10
    29bc:	fff78793          	addi	a5,a5,-1 # ffff <W1+0x8df>
    29c0:	00f877b3          	and	a5,a6,a5
    29c4:	0106d693          	srli	a3,a3,0x10
    29c8:	0289f733          	remu	a4,s3,s0
    29cc:	00030593          	mv	a1,t1
    29d0:	026788b3          	mul	a7,a5,t1
    29d4:	01071713          	slli	a4,a4,0x10
    29d8:	00e6e733          	or	a4,a3,a4
    29dc:	01177e63          	bgeu	a4,a7,29f8 <__divsf3+0x198>
    29e0:	01070733          	add	a4,a4,a6
    29e4:	fff30593          	addi	a1,t1,-1 # ffff <W1+0x8df>
    29e8:	01076863          	bltu	a4,a6,29f8 <__divsf3+0x198>
    29ec:	01177663          	bgeu	a4,a7,29f8 <__divsf3+0x198>
    29f0:	ffe30593          	addi	a1,t1,-2
    29f4:	01070733          	add	a4,a4,a6
    29f8:	41170733          	sub	a4,a4,a7
    29fc:	028758b3          	divu	a7,a4,s0
    2a00:	02877733          	remu	a4,a4,s0
    2a04:	031786b3          	mul	a3,a5,a7
    2a08:	01071793          	slli	a5,a4,0x10
    2a0c:	00088713          	mv	a4,a7
    2a10:	00d7fe63          	bgeu	a5,a3,2a2c <__divsf3+0x1cc>
    2a14:	010787b3          	add	a5,a5,a6
    2a18:	fff88713          	addi	a4,a7,-1 # 7fffff <CONFIG_HEAP_MEM_POOL_SIZE+0x6fffff>
    2a1c:	0107e863          	bltu	a5,a6,2a2c <__divsf3+0x1cc>
    2a20:	00d7f663          	bgeu	a5,a3,2a2c <__divsf3+0x1cc>
    2a24:	ffe88713          	addi	a4,a7,-2
    2a28:	010787b3          	add	a5,a5,a6
    2a2c:	01059413          	slli	s0,a1,0x10
    2a30:	40d787b3          	sub	a5,a5,a3
    2a34:	00e46433          	or	s0,s0,a4
    2a38:	00f037b3          	snez	a5,a5
    2a3c:	00f46433          	or	s0,s0,a5
    2a40:	07f50713          	addi	a4,a0,127
    2a44:	0ce05e63          	blez	a4,2b20 <__divsf3+0x2c0>
    2a48:	00747793          	andi	a5,s0,7
    2a4c:	00078a63          	beqz	a5,2a60 <__divsf3+0x200>
    2a50:	00f47793          	andi	a5,s0,15
    2a54:	00400693          	li	a3,4
    2a58:	00d78463          	beq	a5,a3,2a60 <__divsf3+0x200>
    2a5c:	00440413          	addi	s0,s0,4
    2a60:	080007b7          	lui	a5,0x8000
    2a64:	00f477b3          	and	a5,s0,a5
    2a68:	00078a63          	beqz	a5,2a7c <__divsf3+0x21c>
    2a6c:	f80007b7          	lui	a5,0xf8000
    2a70:	fff78793          	addi	a5,a5,-1 # f7ffffff <CONFIG_SYSTEM_WORKQUEUE_PRIORITY+0xf8000000>
    2a74:	00f47433          	and	s0,s0,a5
    2a78:	08050713          	addi	a4,a0,128
    2a7c:	0fe00793          	li	a5,254
    2a80:	00345413          	srli	s0,s0,0x3
    2a84:	06e7cc63          	blt	a5,a4,2afc <__divsf3+0x29c>
    2a88:	01771793          	slli	a5,a4,0x17
    2a8c:	00941413          	slli	s0,s0,0x9
    2a90:	7f800737          	lui	a4,0x7f800
    2a94:	00e7f7b3          	and	a5,a5,a4
    2a98:	00945413          	srli	s0,s0,0x9
    2a9c:	0087e433          	or	s0,a5,s0
    2aa0:	01f61513          	slli	a0,a2,0x1f
    2aa4:	01c12083          	lw	ra,28(sp)
    2aa8:	00a46533          	or	a0,s0,a0
    2aac:	01812403          	lw	s0,24(sp)
    2ab0:	01412483          	lw	s1,20(sp)
    2ab4:	01012903          	lw	s2,16(sp)
    2ab8:	00c12983          	lw	s3,12(sp)
    2abc:	00812a03          	lw	s4,8(sp)
    2ac0:	00412a83          	lw	s5,4(sp)
    2ac4:	02010113          	addi	sp,sp,32
    2ac8:	00008067          	ret
    2acc:	01f99693          	slli	a3,s3,0x1f
    2ad0:	0019d993          	srli	s3,s3,0x1
    2ad4:	eddff06f          	j	29b0 <__divsf3+0x150>
    2ad8:	00090613          	mv	a2,s2
    2adc:	00098413          	mv	s0,s3
    2ae0:	000a8793          	mv	a5,s5
    2ae4:	00300713          	li	a4,3
    2ae8:	08e78863          	beq	a5,a4,2b78 <__divsf3+0x318>
    2aec:	00100713          	li	a4,1
    2af0:	08e78c63          	beq	a5,a4,2b88 <__divsf3+0x328>
    2af4:	00200713          	li	a4,2
    2af8:	f4e794e3          	bne	a5,a4,2a40 <__divsf3+0x1e0>
    2afc:	00000413          	li	s0,0
    2b00:	0ff00713          	li	a4,255
    2b04:	f85ff06f          	j	2a88 <__divsf3+0x228>
    2b08:	000a0613          	mv	a2,s4
    2b0c:	fd9ff06f          	j	2ae4 <__divsf3+0x284>
    2b10:	00400437          	lui	s0,0x400
    2b14:	00000613          	li	a2,0
    2b18:	00300793          	li	a5,3
    2b1c:	fc9ff06f          	j	2ae4 <__divsf3+0x284>
    2b20:	00100793          	li	a5,1
    2b24:	40e787b3          	sub	a5,a5,a4
    2b28:	01b00713          	li	a4,27
    2b2c:	04f74e63          	blt	a4,a5,2b88 <__divsf3+0x328>
    2b30:	09e50513          	addi	a0,a0,158
    2b34:	00f457b3          	srl	a5,s0,a5
    2b38:	00a41433          	sll	s0,s0,a0
    2b3c:	00803433          	snez	s0,s0
    2b40:	0087e433          	or	s0,a5,s0
    2b44:	00747793          	andi	a5,s0,7
    2b48:	00078a63          	beqz	a5,2b5c <__divsf3+0x2fc>
    2b4c:	00f47793          	andi	a5,s0,15
    2b50:	00400713          	li	a4,4
    2b54:	00e78463          	beq	a5,a4,2b5c <__divsf3+0x2fc>
    2b58:	00440413          	addi	s0,s0,4 # 400004 <CONFIG_HEAP_MEM_POOL_SIZE+0x300004>
    2b5c:	040007b7          	lui	a5,0x4000
    2b60:	00f477b3          	and	a5,s0,a5
    2b64:	00345413          	srli	s0,s0,0x3
    2b68:	02078263          	beqz	a5,2b8c <__divsf3+0x32c>
    2b6c:	00000413          	li	s0,0
    2b70:	00100713          	li	a4,1
    2b74:	f15ff06f          	j	2a88 <__divsf3+0x228>
    2b78:	00400437          	lui	s0,0x400
    2b7c:	0ff00713          	li	a4,255
    2b80:	00000613          	li	a2,0
    2b84:	f05ff06f          	j	2a88 <__divsf3+0x228>
    2b88:	00000413          	li	s0,0
    2b8c:	00000713          	li	a4,0
    2b90:	ef9ff06f          	j	2a88 <__divsf3+0x228>

00002b94 <__gesf2>:
    2b94:	01755693          	srli	a3,a0,0x17
    2b98:	008007b7          	lui	a5,0x800
    2b9c:	fff78793          	addi	a5,a5,-1 # 7fffff <CONFIG_HEAP_MEM_POOL_SIZE+0x6fffff>
    2ba0:	0175d713          	srli	a4,a1,0x17
    2ba4:	0ff6f693          	andi	a3,a3,255
    2ba8:	0ff00813          	li	a6,255
    2bac:	00a7f633          	and	a2,a5,a0
    2bb0:	0ff77713          	andi	a4,a4,255
    2bb4:	00b7f7b3          	and	a5,a5,a1
    2bb8:	01f55513          	srli	a0,a0,0x1f
    2bbc:	01f5d593          	srli	a1,a1,0x1f
    2bc0:	01069863          	bne	a3,a6,2bd0 <__gesf2+0x3c>
    2bc4:	06060a63          	beqz	a2,2c38 <__gesf2+0xa4>
    2bc8:	ffe00513          	li	a0,-2
    2bcc:	00008067          	ret
    2bd0:	01071463          	bne	a4,a6,2bd8 <__gesf2+0x44>
    2bd4:	fe079ae3          	bnez	a5,2bc8 <__gesf2+0x34>
    2bd8:	06069263          	bnez	a3,2c3c <__gesf2+0xa8>
    2bdc:	00071463          	bnez	a4,2be4 <__gesf2+0x50>
    2be0:	04078863          	beqz	a5,2c30 <__gesf2+0x9c>
    2be4:	00060c63          	beqz	a2,2bfc <__gesf2+0x68>
    2be8:	00b51463          	bne	a0,a1,2bf0 <__gesf2+0x5c>
    2bec:	02d75063          	bge	a4,a3,2c0c <__gesf2+0x78>
    2bf0:	02050c63          	beqz	a0,2c28 <__gesf2+0x94>
    2bf4:	fff00513          	li	a0,-1
    2bf8:	00008067          	ret
    2bfc:	fff00513          	li	a0,-1
    2c00:	00058a63          	beqz	a1,2c14 <__gesf2+0x80>
    2c04:	00058513          	mv	a0,a1
    2c08:	00008067          	ret
    2c0c:	00e6d663          	bge	a3,a4,2c18 <__gesf2+0x84>
    2c10:	fe0502e3          	beqz	a0,2bf4 <__gesf2+0x60>
    2c14:	00008067          	ret
    2c18:	fcc7ece3          	bltu	a5,a2,2bf0 <__gesf2+0x5c>
    2c1c:	fef66ae3          	bltu	a2,a5,2c10 <__gesf2+0x7c>
    2c20:	00000513          	li	a0,0
    2c24:	00008067          	ret
    2c28:	00100513          	li	a0,1
    2c2c:	00008067          	ret
    2c30:	fe0608e3          	beqz	a2,2c20 <__gesf2+0x8c>
    2c34:	fbdff06f          	j	2bf0 <__gesf2+0x5c>
    2c38:	f8d70ee3          	beq	a4,a3,2bd4 <__gesf2+0x40>
    2c3c:	fa0716e3          	bnez	a4,2be8 <__gesf2+0x54>
    2c40:	fa0788e3          	beqz	a5,2bf0 <__gesf2+0x5c>
    2c44:	fa5ff06f          	j	2be8 <__gesf2+0x54>

00002c48 <__lesf2>:
    2c48:	01755693          	srli	a3,a0,0x17
    2c4c:	008007b7          	lui	a5,0x800
    2c50:	fff78793          	addi	a5,a5,-1 # 7fffff <CONFIG_HEAP_MEM_POOL_SIZE+0x6fffff>
    2c54:	0175d713          	srli	a4,a1,0x17
    2c58:	0ff6f693          	andi	a3,a3,255
    2c5c:	0ff00813          	li	a6,255
    2c60:	00a7f633          	and	a2,a5,a0
    2c64:	0ff77713          	andi	a4,a4,255
    2c68:	00b7f7b3          	and	a5,a5,a1
    2c6c:	01f55513          	srli	a0,a0,0x1f
    2c70:	01f5d593          	srli	a1,a1,0x1f
    2c74:	01069863          	bne	a3,a6,2c84 <__lesf2+0x3c>
    2c78:	06060a63          	beqz	a2,2cec <__lesf2+0xa4>
    2c7c:	00200513          	li	a0,2
    2c80:	00008067          	ret
    2c84:	01071463          	bne	a4,a6,2c8c <__lesf2+0x44>
    2c88:	fe079ae3          	bnez	a5,2c7c <__lesf2+0x34>
    2c8c:	06069263          	bnez	a3,2cf0 <__lesf2+0xa8>
    2c90:	00071463          	bnez	a4,2c98 <__lesf2+0x50>
    2c94:	04078863          	beqz	a5,2ce4 <__lesf2+0x9c>
    2c98:	00060c63          	beqz	a2,2cb0 <__lesf2+0x68>
    2c9c:	00b51463          	bne	a0,a1,2ca4 <__lesf2+0x5c>
    2ca0:	02d75063          	bge	a4,a3,2cc0 <__lesf2+0x78>
    2ca4:	02050c63          	beqz	a0,2cdc <__lesf2+0x94>
    2ca8:	fff00513          	li	a0,-1
    2cac:	00008067          	ret
    2cb0:	fff00513          	li	a0,-1
    2cb4:	00058a63          	beqz	a1,2cc8 <__lesf2+0x80>
    2cb8:	00058513          	mv	a0,a1
    2cbc:	00008067          	ret
    2cc0:	00e6d663          	bge	a3,a4,2ccc <__lesf2+0x84>
    2cc4:	fe0502e3          	beqz	a0,2ca8 <__lesf2+0x60>
    2cc8:	00008067          	ret
    2ccc:	fcc7ece3          	bltu	a5,a2,2ca4 <__lesf2+0x5c>
    2cd0:	fef66ae3          	bltu	a2,a5,2cc4 <__lesf2+0x7c>
    2cd4:	00000513          	li	a0,0
    2cd8:	00008067          	ret
    2cdc:	00100513          	li	a0,1
    2ce0:	00008067          	ret
    2ce4:	fe0608e3          	beqz	a2,2cd4 <__lesf2+0x8c>
    2ce8:	fbdff06f          	j	2ca4 <__lesf2+0x5c>
    2cec:	f8d70ee3          	beq	a4,a3,2c88 <__lesf2+0x40>
    2cf0:	fa0716e3          	bnez	a4,2c9c <__lesf2+0x54>
    2cf4:	fa0788e3          	beqz	a5,2ca4 <__lesf2+0x5c>
    2cf8:	fa5ff06f          	j	2c9c <__lesf2+0x54>

00002cfc <__subsf3>:
    2cfc:	00800737          	lui	a4,0x800
    2d00:	ff010113          	addi	sp,sp,-16
    2d04:	fff70713          	addi	a4,a4,-1 # 7fffff <CONFIG_HEAP_MEM_POOL_SIZE+0x6fffff>
    2d08:	0175d613          	srli	a2,a1,0x17
    2d0c:	00a777b3          	and	a5,a4,a0
    2d10:	00812423          	sw	s0,8(sp)
    2d14:	00b77733          	and	a4,a4,a1
    2d18:	00912223          	sw	s1,4(sp)
    2d1c:	01755413          	srli	s0,a0,0x17
    2d20:	00112623          	sw	ra,12(sp)
    2d24:	01212023          	sw	s2,0(sp)
    2d28:	0ff67613          	andi	a2,a2,255
    2d2c:	0ff00693          	li	a3,255
    2d30:	0ff47413          	andi	s0,s0,255
    2d34:	01f55493          	srli	s1,a0,0x1f
    2d38:	00379793          	slli	a5,a5,0x3
    2d3c:	01f5d593          	srli	a1,a1,0x1f
    2d40:	00371713          	slli	a4,a4,0x3
    2d44:	00d61463          	bne	a2,a3,2d4c <__subsf3+0x50>
    2d48:	00071463          	bnez	a4,2d50 <__subsf3+0x54>
    2d4c:	0015c593          	xori	a1,a1,1
    2d50:	40c406b3          	sub	a3,s0,a2
    2d54:	18959a63          	bne	a1,s1,2ee8 <__subsf3+0x1ec>
    2d58:	0ad05063          	blez	a3,2df8 <__subsf3+0xfc>
    2d5c:	02061663          	bnez	a2,2d88 <__subsf3+0x8c>
    2d60:	18070063          	beqz	a4,2ee0 <__subsf3+0x1e4>
    2d64:	fff68613          	addi	a2,a3,-1
    2d68:	00061863          	bnez	a2,2d78 <__subsf3+0x7c>
    2d6c:	00e787b3          	add	a5,a5,a4
    2d70:	00100413          	li	s0,1
    2d74:	0500006f          	j	2dc4 <__subsf3+0xc8>
    2d78:	0ff00593          	li	a1,255
    2d7c:	02b69063          	bne	a3,a1,2d9c <__subsf3+0xa0>
    2d80:	0ff00413          	li	s0,255
    2d84:	1180006f          	j	2e9c <__subsf3+0x1a0>
    2d88:	0ff00613          	li	a2,255
    2d8c:	10c40863          	beq	s0,a2,2e9c <__subsf3+0x1a0>
    2d90:	04000637          	lui	a2,0x4000
    2d94:	00c76733          	or	a4,a4,a2
    2d98:	00068613          	mv	a2,a3
    2d9c:	01b00593          	li	a1,27
    2da0:	00100693          	li	a3,1
    2da4:	00c5ce63          	blt	a1,a2,2dc0 <__subsf3+0xc4>
    2da8:	02000693          	li	a3,32
    2dac:	40c686b3          	sub	a3,a3,a2
    2db0:	00c755b3          	srl	a1,a4,a2
    2db4:	00d71733          	sll	a4,a4,a3
    2db8:	00e03733          	snez	a4,a4
    2dbc:	00e5e6b3          	or	a3,a1,a4
    2dc0:	00d787b3          	add	a5,a5,a3
    2dc4:	04000737          	lui	a4,0x4000
    2dc8:	00e7f733          	and	a4,a5,a4
    2dcc:	0c070863          	beqz	a4,2e9c <__subsf3+0x1a0>
    2dd0:	00140413          	addi	s0,s0,1 # 400001 <CONFIG_HEAP_MEM_POOL_SIZE+0x300001>
    2dd4:	0ff00713          	li	a4,255
    2dd8:	30e40263          	beq	s0,a4,30dc <__subsf3+0x3e0>
    2ddc:	7e000737          	lui	a4,0x7e000
    2de0:	0017f693          	andi	a3,a5,1
    2de4:	fff70713          	addi	a4,a4,-1 # 7dffffff <CONFIG_SYS_CLOCK_HW_CYCLES_PER_SEC+0x7b050f7f>
    2de8:	0017d793          	srli	a5,a5,0x1
    2dec:	00e7f7b3          	and	a5,a5,a4
    2df0:	00d7e7b3          	or	a5,a5,a3
    2df4:	0a80006f          	j	2e9c <__subsf3+0x1a0>
    2df8:	06068663          	beqz	a3,2e64 <__subsf3+0x168>
    2dfc:	408606b3          	sub	a3,a2,s0
    2e00:	02041063          	bnez	s0,2e20 <__subsf3+0x124>
    2e04:	2c078263          	beqz	a5,30c8 <__subsf3+0x3cc>
    2e08:	fff68593          	addi	a1,a3,-1
    2e0c:	f60580e3          	beqz	a1,2d6c <__subsf3+0x70>
    2e10:	0ff00513          	li	a0,255
    2e14:	02a69063          	bne	a3,a0,2e34 <__subsf3+0x138>
    2e18:	00070793          	mv	a5,a4
    2e1c:	f65ff06f          	j	2d80 <__subsf3+0x84>
    2e20:	0ff00593          	li	a1,255
    2e24:	feb60ae3          	beq	a2,a1,2e18 <__subsf3+0x11c>
    2e28:	040005b7          	lui	a1,0x4000
    2e2c:	00b7e7b3          	or	a5,a5,a1
    2e30:	00068593          	mv	a1,a3
    2e34:	01b00513          	li	a0,27
    2e38:	00100693          	li	a3,1
    2e3c:	00b54e63          	blt	a0,a1,2e58 <__subsf3+0x15c>
    2e40:	02000693          	li	a3,32
    2e44:	40b686b3          	sub	a3,a3,a1
    2e48:	00b7d533          	srl	a0,a5,a1
    2e4c:	00d797b3          	sll	a5,a5,a3
    2e50:	00f037b3          	snez	a5,a5
    2e54:	00f566b3          	or	a3,a0,a5
    2e58:	00e687b3          	add	a5,a3,a4
    2e5c:	00060413          	mv	s0,a2
    2e60:	f65ff06f          	j	2dc4 <__subsf3+0xc8>
    2e64:	00140693          	addi	a3,s0,1
    2e68:	0fe6f613          	andi	a2,a3,254
    2e6c:	06061263          	bnez	a2,2ed0 <__subsf3+0x1d4>
    2e70:	04041463          	bnez	s0,2eb8 <__subsf3+0x1bc>
    2e74:	24078e63          	beqz	a5,30d0 <__subsf3+0x3d4>
    2e78:	02070263          	beqz	a4,2e9c <__subsf3+0x1a0>
    2e7c:	00e787b3          	add	a5,a5,a4
    2e80:	04000737          	lui	a4,0x4000
    2e84:	00e7f733          	and	a4,a5,a4
    2e88:	00070a63          	beqz	a4,2e9c <__subsf3+0x1a0>
    2e8c:	fc000737          	lui	a4,0xfc000
    2e90:	fff70713          	addi	a4,a4,-1 # fbffffff <CONFIG_SYSTEM_WORKQUEUE_PRIORITY+0xfc000000>
    2e94:	00e7f7b3          	and	a5,a5,a4
    2e98:	00100413          	li	s0,1
    2e9c:	0077f713          	andi	a4,a5,7
    2ea0:	24070063          	beqz	a4,30e0 <__subsf3+0x3e4>
    2ea4:	00f7f713          	andi	a4,a5,15
    2ea8:	00400693          	li	a3,4
    2eac:	22d70a63          	beq	a4,a3,30e0 <__subsf3+0x3e4>
    2eb0:	00478793          	addi	a5,a5,4
    2eb4:	22c0006f          	j	30e0 <__subsf3+0x3e4>
    2eb8:	f60780e3          	beqz	a5,2e18 <__subsf3+0x11c>
    2ebc:	ec0702e3          	beqz	a4,2d80 <__subsf3+0x84>
    2ec0:	00000493          	li	s1,0
    2ec4:	020007b7          	lui	a5,0x2000
    2ec8:	0ff00413          	li	s0,255
    2ecc:	2140006f          	j	30e0 <__subsf3+0x3e4>
    2ed0:	0ff00613          	li	a2,255
    2ed4:	20c68263          	beq	a3,a2,30d8 <__subsf3+0x3dc>
    2ed8:	00e787b3          	add	a5,a5,a4
    2edc:	0017d793          	srli	a5,a5,0x1
    2ee0:	00068413          	mv	s0,a3
    2ee4:	fb9ff06f          	j	2e9c <__subsf3+0x1a0>
    2ee8:	08d05063          	blez	a3,2f68 <__subsf3+0x26c>
    2eec:	06061263          	bnez	a2,2f50 <__subsf3+0x254>
    2ef0:	fe0708e3          	beqz	a4,2ee0 <__subsf3+0x1e4>
    2ef4:	fff68613          	addi	a2,a3,-1
    2ef8:	00061863          	bnez	a2,2f08 <__subsf3+0x20c>
    2efc:	40e787b3          	sub	a5,a5,a4
    2f00:	00100413          	li	s0,1
    2f04:	0340006f          	j	2f38 <__subsf3+0x23c>
    2f08:	0ff00593          	li	a1,255
    2f0c:	e6b68ae3          	beq	a3,a1,2d80 <__subsf3+0x84>
    2f10:	01b00593          	li	a1,27
    2f14:	00100693          	li	a3,1
    2f18:	00c5ce63          	blt	a1,a2,2f34 <__subsf3+0x238>
    2f1c:	02000693          	li	a3,32
    2f20:	40c686b3          	sub	a3,a3,a2
    2f24:	00c755b3          	srl	a1,a4,a2
    2f28:	00d71733          	sll	a4,a4,a3
    2f2c:	00e03733          	snez	a4,a4
    2f30:	00e5e6b3          	or	a3,a1,a4
    2f34:	40d787b3          	sub	a5,a5,a3
    2f38:	04000937          	lui	s2,0x4000
    2f3c:	0127f733          	and	a4,a5,s2
    2f40:	f4070ee3          	beqz	a4,2e9c <__subsf3+0x1a0>
    2f44:	fff90913          	addi	s2,s2,-1 # 3ffffff <CONFIG_SYS_CLOCK_HW_CYCLES_PER_SEC+0x1050f7f>
    2f48:	0127f933          	and	s2,a5,s2
    2f4c:	1180006f          	j	3064 <__subsf3+0x368>
    2f50:	0ff00613          	li	a2,255
    2f54:	f4c404e3          	beq	s0,a2,2e9c <__subsf3+0x1a0>
    2f58:	04000637          	lui	a2,0x4000
    2f5c:	00c76733          	or	a4,a4,a2
    2f60:	00068613          	mv	a2,a3
    2f64:	fadff06f          	j	2f10 <__subsf3+0x214>
    2f68:	08068063          	beqz	a3,2fe8 <__subsf3+0x2ec>
    2f6c:	408606b3          	sub	a3,a2,s0
    2f70:	02041863          	bnez	s0,2fa0 <__subsf3+0x2a4>
    2f74:	1e078063          	beqz	a5,3154 <__subsf3+0x458>
    2f78:	fff68513          	addi	a0,a3,-1
    2f7c:	00051863          	bnez	a0,2f8c <__subsf3+0x290>
    2f80:	40f707b3          	sub	a5,a4,a5
    2f84:	00058493          	mv	s1,a1
    2f88:	f79ff06f          	j	2f00 <__subsf3+0x204>
    2f8c:	0ff00813          	li	a6,255
    2f90:	03069263          	bne	a3,a6,2fb4 <__subsf3+0x2b8>
    2f94:	00070793          	mv	a5,a4
    2f98:	0ff00413          	li	s0,255
    2f9c:	06c0006f          	j	3008 <__subsf3+0x30c>
    2fa0:	0ff00513          	li	a0,255
    2fa4:	fea608e3          	beq	a2,a0,2f94 <__subsf3+0x298>
    2fa8:	04000537          	lui	a0,0x4000
    2fac:	00a7e7b3          	or	a5,a5,a0
    2fb0:	00068513          	mv	a0,a3
    2fb4:	01b00813          	li	a6,27
    2fb8:	00100693          	li	a3,1
    2fbc:	00a84e63          	blt	a6,a0,2fd8 <__subsf3+0x2dc>
    2fc0:	02000693          	li	a3,32
    2fc4:	40a686b3          	sub	a3,a3,a0
    2fc8:	00a7d833          	srl	a6,a5,a0
    2fcc:	00d797b3          	sll	a5,a5,a3
    2fd0:	00f037b3          	snez	a5,a5
    2fd4:	00f866b3          	or	a3,a6,a5
    2fd8:	40d707b3          	sub	a5,a4,a3
    2fdc:	00060413          	mv	s0,a2
    2fe0:	00058493          	mv	s1,a1
    2fe4:	f55ff06f          	j	2f38 <__subsf3+0x23c>
    2fe8:	00140693          	addi	a3,s0,1
    2fec:	0fe6f693          	andi	a3,a3,254
    2ff0:	04069e63          	bnez	a3,304c <__subsf3+0x350>
    2ff4:	04041263          	bnez	s0,3038 <__subsf3+0x33c>
    2ff8:	00079c63          	bnez	a5,3010 <__subsf3+0x314>
    2ffc:	00000493          	li	s1,0
    3000:	0e070063          	beqz	a4,30e0 <__subsf3+0x3e4>
    3004:	00070793          	mv	a5,a4
    3008:	00058493          	mv	s1,a1
    300c:	e91ff06f          	j	2e9c <__subsf3+0x1a0>
    3010:	e80706e3          	beqz	a4,2e9c <__subsf3+0x1a0>
    3014:	40e786b3          	sub	a3,a5,a4
    3018:	04000637          	lui	a2,0x4000
    301c:	00c6f633          	and	a2,a3,a2
    3020:	40f707b3          	sub	a5,a4,a5
    3024:	fe0612e3          	bnez	a2,3008 <__subsf3+0x30c>
    3028:	00000793          	li	a5,0
    302c:	08068063          	beqz	a3,30ac <__subsf3+0x3b0>
    3030:	00068793          	mv	a5,a3
    3034:	e69ff06f          	j	2e9c <__subsf3+0x1a0>
    3038:	e80792e3          	bnez	a5,2ebc <__subsf3+0x1c0>
    303c:	e80702e3          	beqz	a4,2ec0 <__subsf3+0x1c4>
    3040:	00070793          	mv	a5,a4
    3044:	00058493          	mv	s1,a1
    3048:	d39ff06f          	j	2d80 <__subsf3+0x84>
    304c:	40e78933          	sub	s2,a5,a4
    3050:	040006b7          	lui	a3,0x4000
    3054:	00d976b3          	and	a3,s2,a3
    3058:	04068463          	beqz	a3,30a0 <__subsf3+0x3a4>
    305c:	40f70933          	sub	s2,a4,a5
    3060:	00058493          	mv	s1,a1
    3064:	00090513          	mv	a0,s2
    3068:	a88fd0ef          	jal	ra,2f0 <__clzsi2>
    306c:	ffb50513          	addi	a0,a0,-5 # 3fffffb <CONFIG_SYS_CLOCK_HW_CYCLES_PER_SEC+0x1050f7b>
    3070:	00a91933          	sll	s2,s2,a0
    3074:	04854063          	blt	a0,s0,30b4 <__subsf3+0x3b8>
    3078:	40850533          	sub	a0,a0,s0
    307c:	00150513          	addi	a0,a0,1
    3080:	02000413          	li	s0,32
    3084:	00a957b3          	srl	a5,s2,a0
    3088:	40a40533          	sub	a0,s0,a0
    308c:	00a91933          	sll	s2,s2,a0
    3090:	01203933          	snez	s2,s2
    3094:	0127e7b3          	or	a5,a5,s2
    3098:	00000413          	li	s0,0
    309c:	e01ff06f          	j	2e9c <__subsf3+0x1a0>
    30a0:	fc0912e3          	bnez	s2,3064 <__subsf3+0x368>
    30a4:	00000793          	li	a5,0
    30a8:	00000413          	li	s0,0
    30ac:	00000493          	li	s1,0
    30b0:	0300006f          	j	30e0 <__subsf3+0x3e4>
    30b4:	fc0007b7          	lui	a5,0xfc000
    30b8:	fff78793          	addi	a5,a5,-1 # fbffffff <CONFIG_SYSTEM_WORKQUEUE_PRIORITY+0xfc000000>
    30bc:	40a40433          	sub	s0,s0,a0
    30c0:	00f977b3          	and	a5,s2,a5
    30c4:	dd9ff06f          	j	2e9c <__subsf3+0x1a0>
    30c8:	00070793          	mv	a5,a4
    30cc:	e15ff06f          	j	2ee0 <__subsf3+0x1e4>
    30d0:	00070793          	mv	a5,a4
    30d4:	dc9ff06f          	j	2e9c <__subsf3+0x1a0>
    30d8:	0ff00413          	li	s0,255
    30dc:	00000793          	li	a5,0
    30e0:	04000737          	lui	a4,0x4000
    30e4:	00e7f733          	and	a4,a5,a4
    30e8:	00070e63          	beqz	a4,3104 <__subsf3+0x408>
    30ec:	00140413          	addi	s0,s0,1
    30f0:	0ff00713          	li	a4,255
    30f4:	06e40663          	beq	s0,a4,3160 <__subsf3+0x464>
    30f8:	fc000737          	lui	a4,0xfc000
    30fc:	fff70713          	addi	a4,a4,-1 # fbffffff <CONFIG_SYSTEM_WORKQUEUE_PRIORITY+0xfc000000>
    3100:	00e7f7b3          	and	a5,a5,a4
    3104:	0ff00713          	li	a4,255
    3108:	0037d793          	srli	a5,a5,0x3
    310c:	00e41863          	bne	s0,a4,311c <__subsf3+0x420>
    3110:	00078663          	beqz	a5,311c <__subsf3+0x420>
    3114:	004007b7          	lui	a5,0x400
    3118:	00000493          	li	s1,0
    311c:	7f800537          	lui	a0,0x7f800
    3120:	01741413          	slli	s0,s0,0x17
    3124:	00979793          	slli	a5,a5,0x9
    3128:	00a47433          	and	s0,s0,a0
    312c:	0097d793          	srli	a5,a5,0x9
    3130:	00c12083          	lw	ra,12(sp)
    3134:	00f467b3          	or	a5,s0,a5
    3138:	00812403          	lw	s0,8(sp)
    313c:	01f49513          	slli	a0,s1,0x1f
    3140:	00012903          	lw	s2,0(sp)
    3144:	00412483          	lw	s1,4(sp)
    3148:	00a7e533          	or	a0,a5,a0
    314c:	01010113          	addi	sp,sp,16
    3150:	00008067          	ret
    3154:	00070793          	mv	a5,a4
    3158:	00068413          	mv	s0,a3
    315c:	eadff06f          	j	3008 <__subsf3+0x30c>
    3160:	00000793          	li	a5,0
    3164:	fa1ff06f          	j	3104 <__subsf3+0x408>

00003168 <__floatsisf>:
    3168:	ff010113          	addi	sp,sp,-16
    316c:	00112623          	sw	ra,12(sp)
    3170:	00812423          	sw	s0,8(sp)
    3174:	00912223          	sw	s1,4(sp)
    3178:	0e050663          	beqz	a0,3264 <__floatsisf+0xfc>
    317c:	41f55793          	srai	a5,a0,0x1f
    3180:	00a7c433          	xor	s0,a5,a0
    3184:	40f40433          	sub	s0,s0,a5
    3188:	01f55493          	srli	s1,a0,0x1f
    318c:	00040513          	mv	a0,s0
    3190:	960fd0ef          	jal	ra,2f0 <__clzsi2>
    3194:	09e00793          	li	a5,158
    3198:	00050713          	mv	a4,a0
    319c:	40a78533          	sub	a0,a5,a0
    31a0:	09600793          	li	a5,150
    31a4:	04a7c063          	blt	a5,a0,31e4 <__floatsisf+0x7c>
    31a8:	00800793          	li	a5,8
    31ac:	00e7d663          	bge	a5,a4,31b8 <__floatsisf+0x50>
    31b0:	ff870713          	addi	a4,a4,-8
    31b4:	00e41433          	sll	s0,s0,a4
    31b8:	00941413          	slli	s0,s0,0x9
    31bc:	01751513          	slli	a0,a0,0x17
    31c0:	00945413          	srli	s0,s0,0x9
    31c4:	00856433          	or	s0,a0,s0
    31c8:	01f49513          	slli	a0,s1,0x1f
    31cc:	00c12083          	lw	ra,12(sp)
    31d0:	00a46533          	or	a0,s0,a0
    31d4:	00812403          	lw	s0,8(sp)
    31d8:	00412483          	lw	s1,4(sp)
    31dc:	01010113          	addi	sp,sp,16
    31e0:	00008067          	ret
    31e4:	09900793          	li	a5,153
    31e8:	02a7d063          	bge	a5,a0,3208 <__floatsisf+0xa0>
    31ec:	00500793          	li	a5,5
    31f0:	40e787b3          	sub	a5,a5,a4
    31f4:	01b70693          	addi	a3,a4,27
    31f8:	00f457b3          	srl	a5,s0,a5
    31fc:	00d41433          	sll	s0,s0,a3
    3200:	00803433          	snez	s0,s0
    3204:	0087e433          	or	s0,a5,s0
    3208:	00500793          	li	a5,5
    320c:	00e7d663          	bge	a5,a4,3218 <__floatsisf+0xb0>
    3210:	ffb70793          	addi	a5,a4,-5
    3214:	00f41433          	sll	s0,s0,a5
    3218:	fc0006b7          	lui	a3,0xfc000
    321c:	fff68693          	addi	a3,a3,-1 # fbffffff <CONFIG_SYSTEM_WORKQUEUE_PRIORITY+0xfc000000>
    3220:	00747793          	andi	a5,s0,7
    3224:	00d476b3          	and	a3,s0,a3
    3228:	00078a63          	beqz	a5,323c <__floatsisf+0xd4>
    322c:	00f47413          	andi	s0,s0,15
    3230:	00400793          	li	a5,4
    3234:	00f40463          	beq	s0,a5,323c <__floatsisf+0xd4>
    3238:	00468693          	addi	a3,a3,4
    323c:	040007b7          	lui	a5,0x4000
    3240:	00f6f7b3          	and	a5,a3,a5
    3244:	00078c63          	beqz	a5,325c <__floatsisf+0xf4>
    3248:	fc0007b7          	lui	a5,0xfc000
    324c:	fff78793          	addi	a5,a5,-1 # fbffffff <CONFIG_SYSTEM_WORKQUEUE_PRIORITY+0xfc000000>
    3250:	00f6f6b3          	and	a3,a3,a5
    3254:	09f00793          	li	a5,159
    3258:	40e78533          	sub	a0,a5,a4
    325c:	0036d413          	srli	s0,a3,0x3
    3260:	f59ff06f          	j	31b8 <__floatsisf+0x50>
    3264:	00000493          	li	s1,0
    3268:	00000413          	li	s0,0
    326c:	f4dff06f          	j	31b8 <__floatsisf+0x50>

00003270 <__extendsfdf2>:
    3270:	01755713          	srli	a4,a0,0x17
    3274:	0ff77713          	andi	a4,a4,255
    3278:	ff010113          	addi	sp,sp,-16
    327c:	00170793          	addi	a5,a4,1
    3280:	00812423          	sw	s0,8(sp)
    3284:	00912223          	sw	s1,4(sp)
    3288:	00951413          	slli	s0,a0,0x9
    328c:	00112623          	sw	ra,12(sp)
    3290:	0fe7f793          	andi	a5,a5,254
    3294:	00945413          	srli	s0,s0,0x9
    3298:	01f55493          	srli	s1,a0,0x1f
    329c:	04078263          	beqz	a5,32e0 <__extendsfdf2+0x70>
    32a0:	00345793          	srli	a5,s0,0x3
    32a4:	38070713          	addi	a4,a4,896
    32a8:	01d41413          	slli	s0,s0,0x1d
    32ac:	00c79793          	slli	a5,a5,0xc
    32b0:	01471713          	slli	a4,a4,0x14
    32b4:	00c7d793          	srli	a5,a5,0xc
    32b8:	01f49513          	slli	a0,s1,0x1f
    32bc:	00f767b3          	or	a5,a4,a5
    32c0:	00c12083          	lw	ra,12(sp)
    32c4:	00a7e733          	or	a4,a5,a0
    32c8:	00040513          	mv	a0,s0
    32cc:	00812403          	lw	s0,8(sp)
    32d0:	00412483          	lw	s1,4(sp)
    32d4:	00070593          	mv	a1,a4
    32d8:	01010113          	addi	sp,sp,16
    32dc:	00008067          	ret
    32e0:	04071663          	bnez	a4,332c <__extendsfdf2+0xbc>
    32e4:	00000793          	li	a5,0
    32e8:	fc0402e3          	beqz	s0,32ac <__extendsfdf2+0x3c>
    32ec:	00040513          	mv	a0,s0
    32f0:	800fd0ef          	jal	ra,2f0 <__clzsi2>
    32f4:	00a00793          	li	a5,10
    32f8:	02a7c263          	blt	a5,a0,331c <__extendsfdf2+0xac>
    32fc:	00b00793          	li	a5,11
    3300:	40a787b3          	sub	a5,a5,a0
    3304:	01550713          	addi	a4,a0,21 # 7f800015 <CONFIG_SYS_CLOCK_HW_CYCLES_PER_SEC+0x7c850f95>
    3308:	00f457b3          	srl	a5,s0,a5
    330c:	00e41433          	sll	s0,s0,a4
    3310:	38900713          	li	a4,905
    3314:	40a70733          	sub	a4,a4,a0
    3318:	f95ff06f          	j	32ac <__extendsfdf2+0x3c>
    331c:	ff550793          	addi	a5,a0,-11
    3320:	00f417b3          	sll	a5,s0,a5
    3324:	00000413          	li	s0,0
    3328:	fe9ff06f          	j	3310 <__extendsfdf2+0xa0>
    332c:	00000793          	li	a5,0
    3330:	00040a63          	beqz	s0,3344 <__extendsfdf2+0xd4>
    3334:	00345793          	srli	a5,s0,0x3
    3338:	00080737          	lui	a4,0x80
    333c:	01d41413          	slli	s0,s0,0x1d
    3340:	00e7e7b3          	or	a5,a5,a4
    3344:	7ff00713          	li	a4,2047
    3348:	f65ff06f          	j	32ac <__extendsfdf2+0x3c>

0000334c <__truncdfsf2>:
    334c:	0145d613          	srli	a2,a1,0x14
    3350:	7ff67613          	andi	a2,a2,2047
    3354:	00c59693          	slli	a3,a1,0xc
    3358:	00160713          	addi	a4,a2,1 # 4000001 <CONFIG_SYS_CLOCK_HW_CYCLES_PER_SEC+0x1050f81>
    335c:	0096d793          	srli	a5,a3,0x9
    3360:	7fe77713          	andi	a4,a4,2046
    3364:	01d55693          	srli	a3,a0,0x1d
    3368:	00f6e6b3          	or	a3,a3,a5
    336c:	01f5d593          	srli	a1,a1,0x1f
    3370:	00351793          	slli	a5,a0,0x3
    3374:	0a070663          	beqz	a4,3420 <__truncdfsf2+0xd4>
    3378:	c8060713          	addi	a4,a2,-896
    337c:	0fe00813          	li	a6,254
    3380:	0ce84263          	blt	a6,a4,3444 <__truncdfsf2+0xf8>
    3384:	08e04063          	bgtz	a4,3404 <__truncdfsf2+0xb8>
    3388:	fe900513          	li	a0,-23
    338c:	12a74063          	blt	a4,a0,34ac <__truncdfsf2+0x160>
    3390:	00800537          	lui	a0,0x800
    3394:	00a6e6b3          	or	a3,a3,a0
    3398:	01e00513          	li	a0,30
    339c:	40e50533          	sub	a0,a0,a4
    33a0:	01f00813          	li	a6,31
    33a4:	02a84863          	blt	a6,a0,33d4 <__truncdfsf2+0x88>
    33a8:	c8260613          	addi	a2,a2,-894
    33ac:	00a7d533          	srl	a0,a5,a0
    33b0:	00c797b3          	sll	a5,a5,a2
    33b4:	00f037b3          	snez	a5,a5
    33b8:	00c696b3          	sll	a3,a3,a2
    33bc:	00d7e7b3          	or	a5,a5,a3
    33c0:	00f567b3          	or	a5,a0,a5
    33c4:	00000713          	li	a4,0
    33c8:	0077f693          	andi	a3,a5,7
    33cc:	08068063          	beqz	a3,344c <__truncdfsf2+0x100>
    33d0:	0e40006f          	j	34b4 <__truncdfsf2+0x168>
    33d4:	ffe00813          	li	a6,-2
    33d8:	40e80733          	sub	a4,a6,a4
    33dc:	02000893          	li	a7,32
    33e0:	00e6d733          	srl	a4,a3,a4
    33e4:	00000813          	li	a6,0
    33e8:	01150663          	beq	a0,a7,33f4 <__truncdfsf2+0xa8>
    33ec:	ca260613          	addi	a2,a2,-862
    33f0:	00c69833          	sll	a6,a3,a2
    33f4:	00f867b3          	or	a5,a6,a5
    33f8:	00f037b3          	snez	a5,a5
    33fc:	00f767b3          	or	a5,a4,a5
    3400:	fc5ff06f          	j	33c4 <__truncdfsf2+0x78>
    3404:	00651513          	slli	a0,a0,0x6
    3408:	00a03533          	snez	a0,a0
    340c:	00369693          	slli	a3,a3,0x3
    3410:	01d7d793          	srli	a5,a5,0x1d
    3414:	00d566b3          	or	a3,a0,a3
    3418:	00f6e7b3          	or	a5,a3,a5
    341c:	fadff06f          	j	33c8 <__truncdfsf2+0x7c>
    3420:	00f6e7b3          	or	a5,a3,a5
    3424:	00061663          	bnez	a2,3430 <__truncdfsf2+0xe4>
    3428:	00f037b3          	snez	a5,a5
    342c:	f99ff06f          	j	33c4 <__truncdfsf2+0x78>
    3430:	0ff00713          	li	a4,255
    3434:	00078c63          	beqz	a5,344c <__truncdfsf2+0x100>
    3438:	00369693          	slli	a3,a3,0x3
    343c:	020007b7          	lui	a5,0x2000
    3440:	fd9ff06f          	j	3418 <__truncdfsf2+0xcc>
    3444:	00000793          	li	a5,0
    3448:	0ff00713          	li	a4,255
    344c:	040006b7          	lui	a3,0x4000
    3450:	00d7f6b3          	and	a3,a5,a3
    3454:	00068e63          	beqz	a3,3470 <__truncdfsf2+0x124>
    3458:	00170713          	addi	a4,a4,1 # 80001 <digit7+0x921>
    345c:	0ff00693          	li	a3,255
    3460:	06d70463          	beq	a4,a3,34c8 <__truncdfsf2+0x17c>
    3464:	fc0006b7          	lui	a3,0xfc000
    3468:	fff68693          	addi	a3,a3,-1 # fbffffff <CONFIG_SYSTEM_WORKQUEUE_PRIORITY+0xfc000000>
    346c:	00d7f7b3          	and	a5,a5,a3
    3470:	0ff00693          	li	a3,255
    3474:	0037d793          	srli	a5,a5,0x3
    3478:	00d71863          	bne	a4,a3,3488 <__truncdfsf2+0x13c>
    347c:	00078663          	beqz	a5,3488 <__truncdfsf2+0x13c>
    3480:	004007b7          	lui	a5,0x400
    3484:	00000593          	li	a1,0
    3488:	7f800537          	lui	a0,0x7f800
    348c:	01771713          	slli	a4,a4,0x17
    3490:	00979793          	slli	a5,a5,0x9
    3494:	00a77733          	and	a4,a4,a0
    3498:	0097d793          	srli	a5,a5,0x9
    349c:	00f767b3          	or	a5,a4,a5
    34a0:	01f59513          	slli	a0,a1,0x1f
    34a4:	00a7e533          	or	a0,a5,a0
    34a8:	00008067          	ret
    34ac:	00100793          	li	a5,1
    34b0:	00000713          	li	a4,0
    34b4:	00f7f693          	andi	a3,a5,15
    34b8:	00400613          	li	a2,4
    34bc:	f8c688e3          	beq	a3,a2,344c <__truncdfsf2+0x100>
    34c0:	00478793          	addi	a5,a5,4 # 400004 <CONFIG_HEAP_MEM_POOL_SIZE+0x300004>
    34c4:	f89ff06f          	j	344c <__truncdfsf2+0x100>
    34c8:	00000793          	li	a5,0
    34cc:	fa5ff06f          	j	3470 <__truncdfsf2+0x124>

000034d0 <memcpy>:
    34d0:	00050313          	mv	t1,a0
    34d4:	00060e63          	beqz	a2,34f0 <memcpy+0x20>
    34d8:	00058383          	lb	t2,0(a1) # 4000000 <CONFIG_SYS_CLOCK_HW_CYCLES_PER_SEC+0x1050f80>
    34dc:	00730023          	sb	t2,0(t1)
    34e0:	fff60613          	addi	a2,a2,-1
    34e4:	00130313          	addi	t1,t1,1
    34e8:	00158593          	addi	a1,a1,1
    34ec:	fe0616e3          	bnez	a2,34d8 <memcpy+0x8>
    34f0:	00008067          	ret

000034f4 <memset>:
    34f4:	00050313          	mv	t1,a0
    34f8:	00060a63          	beqz	a2,350c <memset+0x18>
    34fc:	00b30023          	sb	a1,0(t1)
    3500:	fff60613          	addi	a2,a2,-1
    3504:	00130313          	addi	t1,t1,1
    3508:	fe061ae3          	bnez	a2,34fc <memset+0x8>
    350c:	00008067          	ret

00003510 <__eqdf2>:
    3510:	0145d713          	srli	a4,a1,0x14
    3514:	001007b7          	lui	a5,0x100
    3518:	fff78793          	addi	a5,a5,-1 # fffff <__data_region_end+0x7e1e7>
    351c:	0146d813          	srli	a6,a3,0x14
    3520:	00050313          	mv	t1,a0
    3524:	00050e93          	mv	t4,a0
    3528:	7ff77713          	andi	a4,a4,2047
    352c:	7ff00513          	li	a0,2047
    3530:	00b7f8b3          	and	a7,a5,a1
    3534:	00060f13          	mv	t5,a2
    3538:	00d7f7b3          	and	a5,a5,a3
    353c:	01f5d593          	srli	a1,a1,0x1f
    3540:	7ff87813          	andi	a6,a6,2047
    3544:	01f6d693          	srli	a3,a3,0x1f
    3548:	00a71c63          	bne	a4,a0,3560 <__eqdf2+0x50>
    354c:	0068ee33          	or	t3,a7,t1
    3550:	00100513          	li	a0,1
    3554:	000e1463          	bnez	t3,355c <__eqdf2+0x4c>
    3558:	00e80663          	beq	a6,a4,3564 <__eqdf2+0x54>
    355c:	00008067          	ret
    3560:	00a81863          	bne	a6,a0,3570 <__eqdf2+0x60>
    3564:	00c7e633          	or	a2,a5,a2
    3568:	00100513          	li	a0,1
    356c:	fe0618e3          	bnez	a2,355c <__eqdf2+0x4c>
    3570:	00100513          	li	a0,1
    3574:	ff0714e3          	bne	a4,a6,355c <__eqdf2+0x4c>
    3578:	fef892e3          	bne	a7,a5,355c <__eqdf2+0x4c>
    357c:	ffee90e3          	bne	t4,t5,355c <__eqdf2+0x4c>
    3580:	00d58a63          	beq	a1,a3,3594 <__eqdf2+0x84>
    3584:	fc071ce3          	bnez	a4,355c <__eqdf2+0x4c>
    3588:	0068e533          	or	a0,a7,t1
    358c:	00a03533          	snez	a0,a0
    3590:	00008067          	ret
    3594:	00000513          	li	a0,0
    3598:	00008067          	ret

0000359c <__gedf2>:
    359c:	00100737          	lui	a4,0x100
    35a0:	fff70713          	addi	a4,a4,-1 # fffff <__data_region_end+0x7e1e7>
    35a4:	0145d813          	srli	a6,a1,0x14
    35a8:	00b778b3          	and	a7,a4,a1
    35ac:	00050793          	mv	a5,a0
    35b0:	00050313          	mv	t1,a0
    35b4:	7ff87813          	andi	a6,a6,2047
    35b8:	01f5d513          	srli	a0,a1,0x1f
    35bc:	7ff00e93          	li	t4,2047
    35c0:	0146d593          	srli	a1,a3,0x14
    35c4:	00d77733          	and	a4,a4,a3
    35c8:	00060e13          	mv	t3,a2
    35cc:	7ff5f593          	andi	a1,a1,2047
    35d0:	01f6d693          	srli	a3,a3,0x1f
    35d4:	01d81a63          	bne	a6,t4,35e8 <__gedf2+0x4c>
    35d8:	00f8eeb3          	or	t4,a7,a5
    35dc:	080e8a63          	beqz	t4,3670 <__gedf2+0xd4>
    35e0:	ffe00513          	li	a0,-2
    35e4:	00008067          	ret
    35e8:	01d59663          	bne	a1,t4,35f4 <__gedf2+0x58>
    35ec:	00c76eb3          	or	t4,a4,a2
    35f0:	fe0e98e3          	bnez	t4,35e0 <__gedf2+0x44>
    35f4:	08081063          	bnez	a6,3674 <__gedf2+0xd8>
    35f8:	00f8e7b3          	or	a5,a7,a5
    35fc:	0017b793          	seqz	a5,a5
    3600:	00059663          	bnez	a1,360c <__gedf2+0x70>
    3604:	00c76633          	or	a2,a4,a2
    3608:	04060c63          	beqz	a2,3660 <__gedf2+0xc4>
    360c:	00079c63          	bnez	a5,3624 <__gedf2+0x88>
    3610:	00d51463          	bne	a0,a3,3618 <__gedf2+0x7c>
    3614:	0305d063          	bge	a1,a6,3634 <__gedf2+0x98>
    3618:	04050063          	beqz	a0,3658 <__gedf2+0xbc>
    361c:	fff00513          	li	a0,-1
    3620:	00008067          	ret
    3624:	fff00513          	li	a0,-1
    3628:	00068a63          	beqz	a3,363c <__gedf2+0xa0>
    362c:	00068513          	mv	a0,a3
    3630:	00008067          	ret
    3634:	00b85663          	bge	a6,a1,3640 <__gedf2+0xa4>
    3638:	fe0502e3          	beqz	a0,361c <__gedf2+0x80>
    363c:	00008067          	ret
    3640:	fd176ce3          	bltu	a4,a7,3618 <__gedf2+0x7c>
    3644:	02e89263          	bne	a7,a4,3668 <__gedf2+0xcc>
    3648:	fc6e68e3          	bltu	t3,t1,3618 <__gedf2+0x7c>
    364c:	ffc366e3          	bltu	t1,t3,3638 <__gedf2+0x9c>
    3650:	00000513          	li	a0,0
    3654:	00008067          	ret
    3658:	00100513          	li	a0,1
    365c:	00008067          	ret
    3660:	fe0798e3          	bnez	a5,3650 <__gedf2+0xb4>
    3664:	fb5ff06f          	j	3618 <__gedf2+0x7c>
    3668:	fce8e8e3          	bltu	a7,a4,3638 <__gedf2+0x9c>
    366c:	fe5ff06f          	j	3650 <__gedf2+0xb4>
    3670:	f7058ee3          	beq	a1,a6,35ec <__gedf2+0x50>
    3674:	f8059ee3          	bnez	a1,3610 <__gedf2+0x74>
    3678:	00000793          	li	a5,0
    367c:	f89ff06f          	j	3604 <__gedf2+0x68>

00003680 <__ledf2>:
    3680:	00100737          	lui	a4,0x100
    3684:	fff70713          	addi	a4,a4,-1 # fffff <__data_region_end+0x7e1e7>
    3688:	0145d813          	srli	a6,a1,0x14
    368c:	00b778b3          	and	a7,a4,a1
    3690:	00050793          	mv	a5,a0
    3694:	00050313          	mv	t1,a0
    3698:	7ff87813          	andi	a6,a6,2047
    369c:	01f5d513          	srli	a0,a1,0x1f
    36a0:	7ff00e93          	li	t4,2047
    36a4:	0146d593          	srli	a1,a3,0x14
    36a8:	00d77733          	and	a4,a4,a3
    36ac:	00060e13          	mv	t3,a2
    36b0:	7ff5f593          	andi	a1,a1,2047
    36b4:	01f6d693          	srli	a3,a3,0x1f
    36b8:	01d81a63          	bne	a6,t4,36cc <__ledf2+0x4c>
    36bc:	00f8eeb3          	or	t4,a7,a5
    36c0:	080e8a63          	beqz	t4,3754 <__ledf2+0xd4>
    36c4:	00200513          	li	a0,2
    36c8:	00008067          	ret
    36cc:	01d59663          	bne	a1,t4,36d8 <__ledf2+0x58>
    36d0:	00c76eb3          	or	t4,a4,a2
    36d4:	fe0e98e3          	bnez	t4,36c4 <__ledf2+0x44>
    36d8:	08081063          	bnez	a6,3758 <__ledf2+0xd8>
    36dc:	00f8e7b3          	or	a5,a7,a5
    36e0:	0017b793          	seqz	a5,a5
    36e4:	00059663          	bnez	a1,36f0 <__ledf2+0x70>
    36e8:	00c76633          	or	a2,a4,a2
    36ec:	04060c63          	beqz	a2,3744 <__ledf2+0xc4>
    36f0:	00079c63          	bnez	a5,3708 <__ledf2+0x88>
    36f4:	00d51463          	bne	a0,a3,36fc <__ledf2+0x7c>
    36f8:	0305d063          	bge	a1,a6,3718 <__ledf2+0x98>
    36fc:	04050063          	beqz	a0,373c <__ledf2+0xbc>
    3700:	fff00513          	li	a0,-1
    3704:	00008067          	ret
    3708:	fff00513          	li	a0,-1
    370c:	00068a63          	beqz	a3,3720 <__ledf2+0xa0>
    3710:	00068513          	mv	a0,a3
    3714:	00008067          	ret
    3718:	00b85663          	bge	a6,a1,3724 <__ledf2+0xa4>
    371c:	fe0502e3          	beqz	a0,3700 <__ledf2+0x80>
    3720:	00008067          	ret
    3724:	fd176ce3          	bltu	a4,a7,36fc <__ledf2+0x7c>
    3728:	02e89263          	bne	a7,a4,374c <__ledf2+0xcc>
    372c:	fc6e68e3          	bltu	t3,t1,36fc <__ledf2+0x7c>
    3730:	ffc366e3          	bltu	t1,t3,371c <__ledf2+0x9c>
    3734:	00000513          	li	a0,0
    3738:	00008067          	ret
    373c:	00100513          	li	a0,1
    3740:	00008067          	ret
    3744:	fe0798e3          	bnez	a5,3734 <__ledf2+0xb4>
    3748:	fb5ff06f          	j	36fc <__ledf2+0x7c>
    374c:	fce8e8e3          	bltu	a7,a4,371c <__ledf2+0x9c>
    3750:	fe5ff06f          	j	3734 <__ledf2+0xb4>
    3754:	f7058ee3          	beq	a1,a6,36d0 <__ledf2+0x50>
    3758:	f8059ee3          	bnez	a1,36f4 <__ledf2+0x74>
    375c:	00000793          	li	a5,0
    3760:	f89ff06f          	j	36e8 <__ledf2+0x68>

00003764 <__unorddf2>:
    3764:	00100737          	lui	a4,0x100
    3768:	fff70793          	addi	a5,a4,-1 # fffff <__data_region_end+0x7e1e7>
    376c:	00b7f733          	and	a4,a5,a1
    3770:	0145d593          	srli	a1,a1,0x14
    3774:	00d7f7b3          	and	a5,a5,a3
    3778:	7ff5f593          	andi	a1,a1,2047
    377c:	0146d693          	srli	a3,a3,0x14
    3780:	7ff00813          	li	a6,2047
    3784:	7ff6f693          	andi	a3,a3,2047
    3788:	01059863          	bne	a1,a6,3798 <__unorddf2+0x34>
    378c:	00a76733          	or	a4,a4,a0
    3790:	00100513          	li	a0,1
    3794:	00071c63          	bnez	a4,37ac <__unorddf2+0x48>
    3798:	7ff00713          	li	a4,2047
    379c:	00000513          	li	a0,0
    37a0:	00e69663          	bne	a3,a4,37ac <__unorddf2+0x48>
    37a4:	00c7e7b3          	or	a5,a5,a2
    37a8:	00f03533          	snez	a0,a5
    37ac:	00008067          	ret

000037b0 <__fixdfsi>:
    37b0:	0145d713          	srli	a4,a1,0x14
    37b4:	001006b7          	lui	a3,0x100
    37b8:	fff68793          	addi	a5,a3,-1 # fffff <__data_region_end+0x7e1e7>
    37bc:	7ff77713          	andi	a4,a4,2047
    37c0:	3fe00613          	li	a2,1022
    37c4:	00b7f7b3          	and	a5,a5,a1
    37c8:	01f5d593          	srli	a1,a1,0x1f
    37cc:	04e65e63          	bge	a2,a4,3828 <__fixdfsi+0x78>
    37d0:	41d00613          	li	a2,1053
    37d4:	00e65a63          	bge	a2,a4,37e8 <__fixdfsi+0x38>
    37d8:	80000537          	lui	a0,0x80000
    37dc:	fff54513          	not	a0,a0
    37e0:	00a58533          	add	a0,a1,a0
    37e4:	00008067          	ret
    37e8:	00d7e7b3          	or	a5,a5,a3
    37ec:	43300693          	li	a3,1075
    37f0:	40e686b3          	sub	a3,a3,a4
    37f4:	01f00613          	li	a2,31
    37f8:	02d64063          	blt	a2,a3,3818 <__fixdfsi+0x68>
    37fc:	bed70713          	addi	a4,a4,-1043
    3800:	00e797b3          	sll	a5,a5,a4
    3804:	00d55533          	srl	a0,a0,a3
    3808:	00a7e533          	or	a0,a5,a0
    380c:	02058063          	beqz	a1,382c <__fixdfsi+0x7c>
    3810:	40a00533          	neg	a0,a0
    3814:	00008067          	ret
    3818:	41300513          	li	a0,1043
    381c:	40e50533          	sub	a0,a0,a4
    3820:	00a7d533          	srl	a0,a5,a0
    3824:	fe9ff06f          	j	380c <__fixdfsi+0x5c>
    3828:	00000513          	li	a0,0
    382c:	00008067          	ret

00003830 <__floatsidf>:
    3830:	ff010113          	addi	sp,sp,-16
    3834:	00112623          	sw	ra,12(sp)
    3838:	00812423          	sw	s0,8(sp)
    383c:	00912223          	sw	s1,4(sp)
    3840:	08050663          	beqz	a0,38cc <__floatsidf+0x9c>
    3844:	41f55793          	srai	a5,a0,0x1f
    3848:	00a7c433          	xor	s0,a5,a0
    384c:	40f40433          	sub	s0,s0,a5
    3850:	01f55493          	srli	s1,a0,0x1f
    3854:	00040513          	mv	a0,s0
    3858:	a99fc0ef          	jal	ra,2f0 <__clzsi2>
    385c:	41e00713          	li	a4,1054
    3860:	00a00793          	li	a5,10
    3864:	40a70733          	sub	a4,a4,a0
    3868:	04a7c863          	blt	a5,a0,38b8 <__floatsidf+0x88>
    386c:	00b00793          	li	a5,11
    3870:	40a787b3          	sub	a5,a5,a0
    3874:	01550513          	addi	a0,a0,21 # 80000015 <CONFIG_SYSTEM_WORKQUEUE_PRIORITY+0x80000016>
    3878:	00f457b3          	srl	a5,s0,a5
    387c:	00a41433          	sll	s0,s0,a0
    3880:	00048513          	mv	a0,s1
    3884:	00c79793          	slli	a5,a5,0xc
    3888:	01471713          	slli	a4,a4,0x14
    388c:	00c7d793          	srli	a5,a5,0xc
    3890:	01f51513          	slli	a0,a0,0x1f
    3894:	00f767b3          	or	a5,a4,a5
    3898:	00c12083          	lw	ra,12(sp)
    389c:	00a7e733          	or	a4,a5,a0
    38a0:	00040513          	mv	a0,s0
    38a4:	00812403          	lw	s0,8(sp)
    38a8:	00412483          	lw	s1,4(sp)
    38ac:	00070593          	mv	a1,a4
    38b0:	01010113          	addi	sp,sp,16
    38b4:	00008067          	ret
    38b8:	ff550513          	addi	a0,a0,-11
    38bc:	00a417b3          	sll	a5,s0,a0
    38c0:	00048513          	mv	a0,s1
    38c4:	00000413          	li	s0,0
    38c8:	fbdff06f          	j	3884 <__floatsidf+0x54>
    38cc:	00000713          	li	a4,0
    38d0:	00000793          	li	a5,0
    38d4:	ff1ff06f          	j	38c4 <__floatsidf+0x94>

000038d8 <__trunctfdf2>:
    38d8:	fd010113          	addi	sp,sp,-48
    38dc:	00852783          	lw	a5,8(a0)
    38e0:	02812423          	sw	s0,40(sp)
    38e4:	00c52403          	lw	s0,12(a0)
    38e8:	00452703          	lw	a4,4(a0)
    38ec:	00052683          	lw	a3,0(a0)
    38f0:	00f12423          	sw	a5,8(sp)
    38f4:	00f12c23          	sw	a5,24(sp)
    38f8:	01041793          	slli	a5,s0,0x10
    38fc:	00e12223          	sw	a4,4(sp)
    3900:	00e12a23          	sw	a4,20(sp)
    3904:	0107d793          	srli	a5,a5,0x10
    3908:	00141713          	slli	a4,s0,0x1
    390c:	00812623          	sw	s0,12(sp)
    3910:	02112623          	sw	ra,44(sp)
    3914:	02912223          	sw	s1,36(sp)
    3918:	00d12023          	sw	a3,0(sp)
    391c:	00d12823          	sw	a3,16(sp)
    3920:	00f12e23          	sw	a5,28(sp)
    3924:	01175713          	srli	a4,a4,0x11
    3928:	01f45413          	srli	s0,s0,0x1f
    392c:	01010513          	addi	a0,sp,16
    3930:	01c10613          	addi	a2,sp,28
    3934:	00062783          	lw	a5,0(a2)
    3938:	ffc62683          	lw	a3,-4(a2)
    393c:	ffc60613          	addi	a2,a2,-4
    3940:	00379793          	slli	a5,a5,0x3
    3944:	01d6d693          	srli	a3,a3,0x1d
    3948:	00d7e7b3          	or	a5,a5,a3
    394c:	00f62223          	sw	a5,4(a2)
    3950:	fec512e3          	bne	a0,a2,3934 <__trunctfdf2+0x5c>
    3954:	01012683          	lw	a3,16(sp)
    3958:	00170793          	addi	a5,a4,1
    395c:	00369593          	slli	a1,a3,0x3
    3960:	000086b7          	lui	a3,0x8
    3964:	ffe68693          	addi	a3,a3,-2 # 7ffe <__exponent+0x52>
    3968:	00b12823          	sw	a1,16(sp)
    396c:	00d7f7b3          	and	a5,a5,a3
    3970:	1c078063          	beqz	a5,3b30 <__trunctfdf2+0x258>
    3974:	ffffc7b7          	lui	a5,0xffffc
    3978:	40078793          	addi	a5,a5,1024 # ffffc400 <CONFIG_SYSTEM_WORKQUEUE_PRIORITY+0xffffc401>
    397c:	00f70733          	add	a4,a4,a5
    3980:	7fe00793          	li	a5,2046
    3984:	20e7c263          	blt	a5,a4,3b88 <__trunctfdf2+0x2b0>
    3988:	06e05863          	blez	a4,39f8 <__trunctfdf2+0x120>
    398c:	01812503          	lw	a0,24(sp)
    3990:	01c12603          	lw	a2,28(sp)
    3994:	01412783          	lw	a5,20(sp)
    3998:	01c55693          	srli	a3,a0,0x1c
    399c:	00461613          	slli	a2,a2,0x4
    39a0:	00d66633          	or	a2,a2,a3
    39a4:	00479693          	slli	a3,a5,0x4
    39a8:	00b6e6b3          	or	a3,a3,a1
    39ac:	01c7d793          	srli	a5,a5,0x1c
    39b0:	00451513          	slli	a0,a0,0x4
    39b4:	00d036b3          	snez	a3,a3
    39b8:	00a7e7b3          	or	a5,a5,a0
    39bc:	00f6e6b3          	or	a3,a3,a5
    39c0:	00c12a23          	sw	a2,20(sp)
    39c4:	00d12823          	sw	a3,16(sp)
    39c8:	01012683          	lw	a3,16(sp)
    39cc:	01412783          	lw	a5,20(sp)
    39d0:	0076f613          	andi	a2,a3,7
    39d4:	1c060063          	beqz	a2,3b94 <__trunctfdf2+0x2bc>
    39d8:	00f6f613          	andi	a2,a3,15
    39dc:	00400593          	li	a1,4
    39e0:	1ab60a63          	beq	a2,a1,3b94 <__trunctfdf2+0x2bc>
    39e4:	00468613          	addi	a2,a3,4
    39e8:	00d636b3          	sltu	a3,a2,a3
    39ec:	00d787b3          	add	a5,a5,a3
    39f0:	00060693          	mv	a3,a2
    39f4:	1a00006f          	j	3b94 <__trunctfdf2+0x2bc>
    39f8:	fcc00793          	li	a5,-52
    39fc:	00f75c63          	bge	a4,a5,3a14 <__trunctfdf2+0x13c>
    3a00:	00012a23          	sw	zero,20(sp)
    3a04:	00100793          	li	a5,1
    3a08:	00f12823          	sw	a5,16(sp)
    3a0c:	00000713          	li	a4,0
    3a10:	fb9ff06f          	j	39c8 <__trunctfdf2+0xf0>
    3a14:	01c12783          	lw	a5,28(sp)
    3a18:	000808b7          	lui	a7,0x80
    3a1c:	00050593          	mv	a1,a0
    3a20:	00f8e8b3          	or	a7,a7,a5
    3a24:	03d00793          	li	a5,61
    3a28:	40e78733          	sub	a4,a5,a4
    3a2c:	01112e23          	sw	a7,28(sp)
    3a30:	40575793          	srai	a5,a4,0x5
    3a34:	00000693          	li	a3,0
    3a38:	00000493          	li	s1,0
    3a3c:	0005a803          	lw	a6,0(a1)
    3a40:	00168693          	addi	a3,a3,1
    3a44:	00458593          	addi	a1,a1,4
    3a48:	0104e4b3          	or	s1,s1,a6
    3a4c:	fed798e3          	bne	a5,a3,3a3c <__trunctfdf2+0x164>
    3a50:	01f77713          	andi	a4,a4,31
    3a54:	00279693          	slli	a3,a5,0x2
    3a58:	02071863          	bnez	a4,3a88 <__trunctfdf2+0x1b0>
    3a5c:	00300593          	li	a1,3
    3a60:	40f585b3          	sub	a1,a1,a5
    3a64:	00d60833          	add	a6,a2,a3
    3a68:	00082803          	lw	a6,0(a6)
    3a6c:	00170713          	addi	a4,a4,1
    3a70:	00460613          	addi	a2,a2,4
    3a74:	ff062e23          	sw	a6,-4(a2)
    3a78:	fee5d6e3          	bge	a1,a4,3a64 <__trunctfdf2+0x18c>
    3a7c:	00400713          	li	a4,4
    3a80:	40f707b3          	sub	a5,a4,a5
    3a84:	0580006f          	j	3adc <__trunctfdf2+0x204>
    3a88:	ffc00e13          	li	t3,-4
    3a8c:	03c78e33          	mul	t3,a5,t3
    3a90:	02010613          	addi	a2,sp,32
    3a94:	00d60633          	add	a2,a2,a3
    3a98:	ff062603          	lw	a2,-16(a2)
    3a9c:	02000813          	li	a6,32
    3aa0:	40e80833          	sub	a6,a6,a4
    3aa4:	01061633          	sll	a2,a2,a6
    3aa8:	00c4e4b3          	or	s1,s1,a2
    3aac:	00300613          	li	a2,3
    3ab0:	00d506b3          	add	a3,a0,a3
    3ab4:	00000313          	li	t1,0
    3ab8:	40f60633          	sub	a2,a2,a5
    3abc:	04c34663          	blt	t1,a2,3b08 <__trunctfdf2+0x230>
    3ac0:	00400693          	li	a3,4
    3ac4:	40f687b3          	sub	a5,a3,a5
    3ac8:	00261613          	slli	a2,a2,0x2
    3acc:	02010693          	addi	a3,sp,32
    3ad0:	00c68633          	add	a2,a3,a2
    3ad4:	00e8d733          	srl	a4,a7,a4
    3ad8:	fee62823          	sw	a4,-16(a2)
    3adc:	00400613          	li	a2,4
    3ae0:	40f60633          	sub	a2,a2,a5
    3ae4:	00279793          	slli	a5,a5,0x2
    3ae8:	00f50533          	add	a0,a0,a5
    3aec:	00261613          	slli	a2,a2,0x2
    3af0:	00000593          	li	a1,0
    3af4:	a01ff0ef          	jal	ra,34f4 <memset>
    3af8:	01012703          	lw	a4,16(sp)
    3afc:	009037b3          	snez	a5,s1
    3b00:	00f767b3          	or	a5,a4,a5
    3b04:	f05ff06f          	j	3a08 <__trunctfdf2+0x130>
    3b08:	0006a583          	lw	a1,0(a3)
    3b0c:	0046ae83          	lw	t4,4(a3)
    3b10:	01c68f33          	add	t5,a3,t3
    3b14:	00e5d5b3          	srl	a1,a1,a4
    3b18:	010e9eb3          	sll	t4,t4,a6
    3b1c:	01d5e5b3          	or	a1,a1,t4
    3b20:	00bf2023          	sw	a1,0(t5)
    3b24:	00130313          	addi	t1,t1,1
    3b28:	00468693          	addi	a3,a3,4
    3b2c:	f91ff06f          	j	3abc <__trunctfdf2+0x1e4>
    3b30:	01412603          	lw	a2,20(sp)
    3b34:	01812783          	lw	a5,24(sp)
    3b38:	01c12503          	lw	a0,28(sp)
    3b3c:	00c7e6b3          	or	a3,a5,a2
    3b40:	00a6e6b3          	or	a3,a3,a0
    3b44:	00b6e6b3          	or	a3,a3,a1
    3b48:	00071863          	bnez	a4,3b58 <__trunctfdf2+0x280>
    3b4c:	00d036b3          	snez	a3,a3
    3b50:	00000793          	li	a5,0
    3b54:	e7dff06f          	j	39d0 <__trunctfdf2+0xf8>
    3b58:	0c068663          	beqz	a3,3c24 <__trunctfdf2+0x34c>
    3b5c:	01c65693          	srli	a3,a2,0x1c
    3b60:	00451513          	slli	a0,a0,0x4
    3b64:	00479613          	slli	a2,a5,0x4
    3b68:	01c7d793          	srli	a5,a5,0x1c
    3b6c:	00400737          	lui	a4,0x400
    3b70:	00c6e6b3          	or	a3,a3,a2
    3b74:	00a7e7b3          	or	a5,a5,a0
    3b78:	00e7e7b3          	or	a5,a5,a4
    3b7c:	ff86f693          	andi	a3,a3,-8
    3b80:	7ff00713          	li	a4,2047
    3b84:	e4dff06f          	j	39d0 <__trunctfdf2+0xf8>
    3b88:	00000793          	li	a5,0
    3b8c:	00000693          	li	a3,0
    3b90:	7ff00713          	li	a4,2047
    3b94:	00800637          	lui	a2,0x800
    3b98:	00c7f633          	and	a2,a5,a2
    3b9c:	00060e63          	beqz	a2,3bb8 <__trunctfdf2+0x2e0>
    3ba0:	00170713          	addi	a4,a4,1 # 400001 <CONFIG_HEAP_MEM_POOL_SIZE+0x300001>
    3ba4:	7ff00613          	li	a2,2047
    3ba8:	08c70263          	beq	a4,a2,3c2c <__trunctfdf2+0x354>
    3bac:	ff800637          	lui	a2,0xff800
    3bb0:	fff60613          	addi	a2,a2,-1 # ff7fffff <CONFIG_SYSTEM_WORKQUEUE_PRIORITY+0xff800000>
    3bb4:	00c7f7b3          	and	a5,a5,a2
    3bb8:	01d79613          	slli	a2,a5,0x1d
    3bbc:	0036d693          	srli	a3,a3,0x3
    3bc0:	00d666b3          	or	a3,a2,a3
    3bc4:	7ff00613          	li	a2,2047
    3bc8:	0037d793          	srli	a5,a5,0x3
    3bcc:	00c71e63          	bne	a4,a2,3be8 <__trunctfdf2+0x310>
    3bd0:	00f6e6b3          	or	a3,a3,a5
    3bd4:	00000793          	li	a5,0
    3bd8:	00068863          	beqz	a3,3be8 <__trunctfdf2+0x310>
    3bdc:	000807b7          	lui	a5,0x80
    3be0:	00000693          	li	a3,0
    3be4:	00000413          	li	s0,0
    3be8:	01471713          	slli	a4,a4,0x14
    3bec:	7ff00637          	lui	a2,0x7ff00
    3bf0:	00c79793          	slli	a5,a5,0xc
    3bf4:	00c77733          	and	a4,a4,a2
    3bf8:	00c7d793          	srli	a5,a5,0xc
    3bfc:	01f41413          	slli	s0,s0,0x1f
    3c00:	00f767b3          	or	a5,a4,a5
    3c04:	02c12083          	lw	ra,44(sp)
    3c08:	0087e733          	or	a4,a5,s0
    3c0c:	02812403          	lw	s0,40(sp)
    3c10:	02412483          	lw	s1,36(sp)
    3c14:	00068513          	mv	a0,a3
    3c18:	00070593          	mv	a1,a4
    3c1c:	03010113          	addi	sp,sp,48
    3c20:	00008067          	ret
    3c24:	00000793          	li	a5,0
    3c28:	f69ff06f          	j	3b90 <__trunctfdf2+0x2b8>
    3c2c:	00000793          	li	a5,0
    3c30:	00000693          	li	a3,0
    3c34:	f85ff06f          	j	3bb8 <__trunctfdf2+0x2e0>

00003c38 <_OffsetAbsSyms>:
 * point regs
 */
GEN_ABSOLUTE_SYM(_K_THREAD_NO_FLOAT_SIZEOF,
		 STACK_ROUND_UP(sizeof(struct k_thread)));

GEN_ABS_SYM_END
    3c38:	00008067          	ret

00003c3c <my_isr>:
 * @brief gives the semaphore for accelerator thread to procede
 * 
 * @param arg 
 */
void my_isr(const void *arg) {
    *acceleratorIP_ISR = 0x1;
    3c3c:	000827b7          	lui	a5,0x82
    3c40:	d747a783          	lw	a5,-652(a5) # 81d74 <acceleratorIP_ISR>
    3c44:	00100713          	li	a4,1
    3c48:	00e7a023          	sw	a4,0(a5)
		arch_syscall_invoke1(*(uintptr_t *)&sem, K_SYSCALL_K_SEM_GIVE);
		return;
	}
#endif
	compiler_barrier();
	z_impl_k_sem_give(sem);
    3c4c:	00082537          	lui	a0,0x82
    3c50:	e0850513          	addi	a0,a0,-504 # 81e08 <accel_sem>
    3c54:	2f10206f          	j	6744 <z_impl_k_sem_give>

00003c58 <my_isr_installer>:
    *acceleratorGIER = 0x1;
    3c58:	000827b7          	lui	a5,0x82
    3c5c:	d6c7a703          	lw	a4,-660(a5) # 81d6c <acceleratorGIER>
    3c60:	00100793          	li	a5,1
    arch_irq_enable(ACCEL_IRQ);
    3c64:	00f00513          	li	a0,15
    *acceleratorGIER = 0x1;
    3c68:	00f72023          	sw	a5,0(a4)
    *acceleratorIP_IER = 0x1;
    3c6c:	00082737          	lui	a4,0x82
    3c70:	d7072703          	lw	a4,-656(a4) # 81d70 <acceleratorIP_IER>
    3c74:	00f72023          	sw	a5,0(a4)
    arch_irq_enable(ACCEL_IRQ);
    3c78:	4110106f          	j	5888 <arch_irq_enable>

00003c7c <dot>:
        if(prediction == digity) accuracy_hw++;
    }
}

void dot(int resultAddress, int mat1Address, int mat2Address, int rows1, int cols1, int cols2)
{
    3c7c:	fd010113          	addi	sp,sp,-48
    3c80:	02812423          	sw	s0,40(sp)
    3c84:	02912223          	sw	s1,36(sp)
    3c88:	03212023          	sw	s2,32(sp)
    3c8c:	01312e23          	sw	s3,28(sp)
    3c90:	01412c23          	sw	s4,24(sp)
    3c94:	01512a23          	sw	s5,20(sp)
    3c98:	01612823          	sw	s6,16(sp)
    3c9c:	01712623          	sw	s7,12(sp)
    3ca0:	01812423          	sw	s8,8(sp)
    3ca4:	00078413          	mv	s0,a5
    3ca8:	02112623          	sw	ra,44(sp)

    volatile int *acceleratorGIER = (int *)(ACCELERATOR_BASE_ADDRESS + 0x04);
    volatile int *acceleratorIP_ISR = (int *)(ACCELERATOR_BASE_ADDRESS + 0x0c);

    /* disable accelerator interrupts */
    *acceleratorGIER = 0x0;
    3cac:	900007b7          	lui	a5,0x90000

    for(int i=0; i<cols2; i++) {
        for(int j=0; j<784; j++)
    3cb0:	05001bb7          	lui	s7,0x5001
{
    3cb4:	00050913          	mv	s2,a0
    3cb8:	00058993          	mv	s3,a1
    3cbc:	00060a13          	mv	s4,a2
    3cc0:	00068a93          	mv	s5,a3
    3cc4:	00070b13          	mv	s6,a4
    *acceleratorGIER = 0x0;
    3cc8:	0007a223          	sw	zero,4(a5) # 90000004 <CONFIG_SYSTEM_WORKQUEUE_PRIORITY+0x90000005>
    for(int i=0; i<cols2; i++) {
    3ccc:	00241c13          	slli	s8,s0,0x2
    3cd0:	00000493          	li	s1,0
        for(int j=0; j<784; j++)
    3cd4:	c40b8b93          	addi	s7,s7,-960 # 5000c40 <CONFIG_SYS_CLOCK_HW_CYCLES_PER_SEC+0x2051bc0>
    for(int i=0; i<cols2; i++) {
    3cd8:	0484c263          	blt	s1,s0,3d1c <dot+0xa0>
    }

    /* enable accelerator interrupts */
    *acceleratorIP_ISR = 0x1;
    *acceleratorGIER = 0x1;
}
    3cdc:	02c12083          	lw	ra,44(sp)
    3ce0:	02812403          	lw	s0,40(sp)
    *acceleratorIP_ISR = 0x1;
    3ce4:	900007b7          	lui	a5,0x90000
    3ce8:	00100713          	li	a4,1
    3cec:	00e7a623          	sw	a4,12(a5) # 9000000c <CONFIG_SYSTEM_WORKQUEUE_PRIORITY+0x9000000d>
    *acceleratorGIER = 0x1;
    3cf0:	00e7a223          	sw	a4,4(a5)
}
    3cf4:	02412483          	lw	s1,36(sp)
    3cf8:	02012903          	lw	s2,32(sp)
    3cfc:	01c12983          	lw	s3,28(sp)
    3d00:	01812a03          	lw	s4,24(sp)
    3d04:	01412a83          	lw	s5,20(sp)
    3d08:	01012b03          	lw	s6,16(sp)
    3d0c:	00c12b83          	lw	s7,12(sp)
    3d10:	00812c03          	lw	s8,8(sp)
    3d14:	03010113          	addi	sp,sp,48
    3d18:	00008067          	ret
    3d1c:	00249613          	slli	a2,s1,0x2
    3d20:	00ca0733          	add	a4,s4,a2
    for(int i=0; i<cols2; i++) {
    3d24:	050007b7          	lui	a5,0x5000
            column[j] = mat2[j*cols2+i];
    3d28:	00072683          	lw	a3,0(a4)
        for(int j=0; j<784; j++)
    3d2c:	00478793          	addi	a5,a5,4 # 5000004 <CONFIG_SYS_CLOCK_HW_CYCLES_PER_SEC+0x2050f84>
    3d30:	01870733          	add	a4,a4,s8
            column[j] = mat2[j*cols2+i];
    3d34:	fed7ae23          	sw	a3,-4(a5)
        for(int j=0; j<784; j++)
    3d38:	ff7798e3          	bne	a5,s7,3d28 <dot+0xac>
        multiply_mat_hw_pool(mat1Address, COLUMN_BASE_ADDRESS, resultAddress+i*sizeof(float), rows1, cols1, 1);
    3d3c:	00100793          	li	a5,1
    3d40:	000b0713          	mv	a4,s6
    3d44:	000a8693          	mv	a3,s5
    3d48:	00c90633          	add	a2,s2,a2
    3d4c:	050005b7          	lui	a1,0x5000
    3d50:	00098513          	mv	a0,s3
    3d54:	009000ef          	jal	ra,455c <multiply_mat_hw_pool>
    for(int i=0; i<cols2; i++) {
    3d58:	00148493          	addi	s1,s1,1
    3d5c:	f7dff06f          	j	3cd8 <dot+0x5c>

00003d60 <dot_>:

void dot_(int resultAddress, int mat1Address, int mat2Address, int rows1, int cols1, int cols2)
{
    3d60:	fd010113          	addi	sp,sp,-48
    3d64:	01712623          	sw	s7,12(sp)
    float *column = (float *)COLUMN_BASE_ADDRESS;
    float *mat2 = (float *)mat2Address;

    for(int i=0; i<cols2; i++) {
        for(int j=0; j<784; j++)
    3d68:	05001bb7          	lui	s7,0x5001
{
    3d6c:	02812423          	sw	s0,40(sp)
    3d70:	02912223          	sw	s1,36(sp)
    3d74:	03212023          	sw	s2,32(sp)
    3d78:	01312e23          	sw	s3,28(sp)
    3d7c:	01412c23          	sw	s4,24(sp)
    3d80:	01512a23          	sw	s5,20(sp)
    3d84:	01612823          	sw	s6,16(sp)
    3d88:	01812423          	sw	s8,8(sp)
    3d8c:	01912223          	sw	s9,4(sp)
    3d90:	02112623          	sw	ra,44(sp)
    3d94:	00050913          	mv	s2,a0
    3d98:	00058993          	mv	s3,a1
    3d9c:	00060a13          	mv	s4,a2
    3da0:	00068a93          	mv	s5,a3
    3da4:	00070b13          	mv	s6,a4
    3da8:	00078413          	mv	s0,a5
    3dac:	00279c93          	slli	s9,a5,0x2
    for(int i=0; i<cols2; i++) {
    3db0:	00000493          	li	s1,0
        for(int j=0; j<784; j++)
    3db4:	c40b8b93          	addi	s7,s7,-960 # 5000c40 <CONFIG_SYS_CLOCK_HW_CYCLES_PER_SEC+0x2051bc0>
	return z_impl_k_sem_take(sem, timeout);
    3db8:	00082c37          	lui	s8,0x82
    for(int i=0; i<cols2; i++) {
    3dbc:	0284cc63          	blt	s1,s0,3df4 <dot_+0x94>
            column[j] = mat2[j*cols2+i];
            
        multiply_mat_hw(mat1Address, COLUMN_BASE_ADDRESS, resultAddress+i*sizeof(float), rows1, cols1, 1);
        k_sem_take(&accel_sem, K_FOREVER);
    }
}
    3dc0:	02c12083          	lw	ra,44(sp)
    3dc4:	02812403          	lw	s0,40(sp)
    3dc8:	02412483          	lw	s1,36(sp)
    3dcc:	02012903          	lw	s2,32(sp)
    3dd0:	01c12983          	lw	s3,28(sp)
    3dd4:	01812a03          	lw	s4,24(sp)
    3dd8:	01412a83          	lw	s5,20(sp)
    3ddc:	01012b03          	lw	s6,16(sp)
    3de0:	00c12b83          	lw	s7,12(sp)
    3de4:	00812c03          	lw	s8,8(sp)
    3de8:	00412c83          	lw	s9,4(sp)
    3dec:	03010113          	addi	sp,sp,48
    3df0:	00008067          	ret
    3df4:	00249613          	slli	a2,s1,0x2
    3df8:	00ca0733          	add	a4,s4,a2
    for(int i=0; i<cols2; i++) {
    3dfc:	050007b7          	lui	a5,0x5000
            column[j] = mat2[j*cols2+i];
    3e00:	00072683          	lw	a3,0(a4)
        for(int j=0; j<784; j++)
    3e04:	00478793          	addi	a5,a5,4 # 5000004 <CONFIG_SYS_CLOCK_HW_CYCLES_PER_SEC+0x2050f84>
    3e08:	01970733          	add	a4,a4,s9
            column[j] = mat2[j*cols2+i];
    3e0c:	fed7ae23          	sw	a3,-4(a5)
        for(int j=0; j<784; j++)
    3e10:	ff7798e3          	bne	a5,s7,3e00 <dot_+0xa0>
        multiply_mat_hw(mat1Address, COLUMN_BASE_ADDRESS, resultAddress+i*sizeof(float), rows1, cols1, 1);
    3e14:	00100793          	li	a5,1
    3e18:	000b0713          	mv	a4,s6
    3e1c:	000a8693          	mv	a3,s5
    3e20:	00c90633          	add	a2,s2,a2
    3e24:	050005b7          	lui	a1,0x5000
    3e28:	00098513          	mv	a0,s3
    3e2c:	768000ef          	jal	ra,4594 <multiply_mat_hw>
    3e30:	fff00593          	li	a1,-1
    3e34:	fff00613          	li	a2,-1
    3e38:	e08c0513          	addi	a0,s8,-504 # 81e08 <accel_sem>
    3e3c:	175020ef          	jal	ra,67b0 <z_impl_k_sem_take>
    for(int i=0; i<cols2; i++) {
    3e40:	00148493          	addi	s1,s1,1
    3e44:	f79ff06f          	j	3dbc <dot_+0x5c>

00003e48 <get_digit>:

int get_digit(int num, float **digit)
{
    int digity;
    switch(num) {
    3e48:	fff50513          	addi	a0,a0,-1
    3e4c:	00800793          	li	a5,8
    3e50:	00a7ee63          	bltu	a5,a0,3e6c <get_digit+0x24>
    3e54:	0000d7b7          	lui	a5,0xd
    3e58:	a7078793          	addi	a5,a5,-1424 # ca70 <__mprec_tens+0xc8>
    3e5c:	00251513          	slli	a0,a0,0x2
    3e60:	00f50533          	add	a0,a0,a5
    3e64:	00052783          	lw	a5,0(a0)
    3e68:	00078067          	jr	a5
        case 0:
            digity = digit0y;
    3e6c:	000827b7          	lui	a5,0x82
    3e70:	d787a503          	lw	a0,-648(a5) # 81d78 <digit0y>
            *digit = &digit0[0];
    3e74:	0007a7b7          	lui	a5,0x7a
    3e78:	12078793          	addi	a5,a5,288 # 7a120 <digit0>
            digity = digit8y;
            *digit = &digit8[0];
            break;
        case 9:
            digity = digit9y;
            *digit = &digit9[0];
    3e7c:	00f5a023          	sw	a5,0(a1) # 5000000 <CONFIG_SYS_CLOCK_HW_CYCLES_PER_SEC+0x2050f80>
            digity = digit0y;
            *digit = &digit0[0];
            break;
    }
    return digity;
}
    3e80:	00008067          	ret
            digity = digit1y;
    3e84:	0000d7b7          	lui	a5,0xd
    3e88:	1247a503          	lw	a0,292(a5) # d124 <digit1y>
            *digit = &digit1[0];
    3e8c:	0007b7b7          	lui	a5,0x7b
    3e90:	d6078793          	addi	a5,a5,-672 # 7ad60 <digit1>
    3e94:	fe9ff06f          	j	3e7c <get_digit+0x34>
            digity = digit2y;
    3e98:	000827b7          	lui	a5,0x82
    3e9c:	d7c7a503          	lw	a0,-644(a5) # 81d7c <digit2y>
            *digit = &digit2[0];
    3ea0:	0007c7b7          	lui	a5,0x7c
    3ea4:	9a078793          	addi	a5,a5,-1632 # 7b9a0 <digit2>
    3ea8:	fd5ff06f          	j	3e7c <get_digit+0x34>
            digity = digit3y;
    3eac:	000827b7          	lui	a5,0x82
    3eb0:	d807a503          	lw	a0,-640(a5) # 81d80 <digit3y>
            *digit = &digit3[0];
    3eb4:	0007c7b7          	lui	a5,0x7c
    3eb8:	5e078793          	addi	a5,a5,1504 # 7c5e0 <digit3>
    3ebc:	fc1ff06f          	j	3e7c <get_digit+0x34>
            digity = digit4y;
    3ec0:	0000d7b7          	lui	a5,0xd
    3ec4:	1287a503          	lw	a0,296(a5) # d128 <digit4y>
            *digit = &digit4[0];
    3ec8:	0007d7b7          	lui	a5,0x7d
    3ecc:	22078793          	addi	a5,a5,544 # 7d220 <digit4>
    3ed0:	fadff06f          	j	3e7c <get_digit+0x34>
            digity = digit5y;
    3ed4:	0000d7b7          	lui	a5,0xd
    3ed8:	12c7a503          	lw	a0,300(a5) # d12c <digit5y>
            *digit = &digit5[0];
    3edc:	0007e7b7          	lui	a5,0x7e
    3ee0:	e6078793          	addi	a5,a5,-416 # 7de60 <digit5>
    3ee4:	f99ff06f          	j	3e7c <get_digit+0x34>
            digity = digit6y;
    3ee8:	000827b7          	lui	a5,0x82
    3eec:	d847a503          	lw	a0,-636(a5) # 81d84 <digit6y>
            *digit = &digit6[0];
    3ef0:	0007f7b7          	lui	a5,0x7f
    3ef4:	aa078793          	addi	a5,a5,-1376 # 7eaa0 <digit6>
    3ef8:	f85ff06f          	j	3e7c <get_digit+0x34>
            digity = digit7y;
    3efc:	000827b7          	lui	a5,0x82
    3f00:	d887a503          	lw	a0,-632(a5) # 81d88 <digit7y>
            *digit = &digit7[0];
    3f04:	0007f7b7          	lui	a5,0x7f
    3f08:	6e078793          	addi	a5,a5,1760 # 7f6e0 <digit7>
    3f0c:	f71ff06f          	j	3e7c <get_digit+0x34>
            digity = digit8y;
    3f10:	000827b7          	lui	a5,0x82
    3f14:	d8c7a503          	lw	a0,-628(a5) # 81d8c <digit8y>
            *digit = &digit8[0];
    3f18:	000807b7          	lui	a5,0x80
    3f1c:	32078793          	addi	a5,a5,800 # 80320 <digit8>
    3f20:	f5dff06f          	j	3e7c <get_digit+0x34>
            digity = digit9y;
    3f24:	000827b7          	lui	a5,0x82
    3f28:	d907a503          	lw	a0,-624(a5) # 81d90 <digit9y>
            *digit = &digit9[0];
    3f2c:	000817b7          	lui	a5,0x81
    3f30:	f6078793          	addi	a5,a5,-160 # 80f60 <digit9>
    3f34:	f49ff06f          	j	3e7c <get_digit+0x34>

00003f38 <main>:
    printf("*** Starting NN UC 1 ***\n\n");
    3f38:	0000d537          	lui	a0,0xd
{
    3f3c:	f4010113          	addi	sp,sp,-192
    printf("*** Starting NN UC 1 ***\n\n");
    3f40:	a9450513          	addi	a0,a0,-1388 # ca94 <__mprec_tens+0xec>
{
    3f44:	0a112e23          	sw	ra,188(sp)
    3f48:	0a812c23          	sw	s0,184(sp)
    3f4c:	0a912a23          	sw	s1,180(sp)
    3f50:	0b212823          	sw	s2,176(sp)
    3f54:	0b312623          	sw	s3,172(sp)
    3f58:	0b412423          	sw	s4,168(sp)
    3f5c:	0b512223          	sw	s5,164(sp)
    3f60:	0b612023          	sw	s6,160(sp)
    3f64:	09712e23          	sw	s7,156(sp)
    3f68:	09812c23          	sw	s8,152(sp)
    3f6c:	09912a23          	sw	s9,148(sp)
    3f70:	09a12823          	sw	s10,144(sp)
    3f74:	09b12623          	sw	s11,140(sp)
    printf("*** Starting NN UC 1 ***\n\n");
    3f78:	5d9040ef          	jal	ra,8d50 <iprintf>
    printf("Installing ISR...\n");
    3f7c:	0000d537          	lui	a0,0xd
    3f80:	ab050513          	addi	a0,a0,-1360 # cab0 <__mprec_tens+0x108>
    3f84:	5cd040ef          	jal	ra,8d50 <iprintf>
    my_isr_installer();
    3f88:	cd1ff0ef          	jal	ra,3c58 <my_isr_installer>
    printf("\nPerforming feed forward neural network using the hardware accelerator with pooling\n");
    3f8c:	0000d537          	lui	a0,0xd
    3f90:	ac450513          	addi	a0,a0,-1340 # cac4 <__mprec_tens+0x11c>
    3f94:	5bd040ef          	jal	ra,8d50 <iprintf>
		}
	} else if (mul_ratio) {
		if (result32) {
			return ((uint32_t)t) * (to_hz / from_hz);
		} else {
			return t * ((uint64_t)to_hz / from_hz);
    3f98:	00a00993          	li	s3,10
	return z_impl_k_uptime_ticks();
    3f9c:	6f8030ef          	jal	ra,7694 <z_impl_k_uptime_ticks>
    3fa0:	02a989b3          	mul	s3,s3,a0
        dot(A1_BASE_ADDRESS, (int)digit, (int)&W1, 1, DIGIT_SIZE, W1_COLS);
    3fa4:	040004b7          	lui	s1,0x4000
        dot(A2_BASE_ADDRESS, A1_BASE_ADDRESS, (int)&W2, 1, W1_COLS, W2_COLS);
    3fa8:	20048a13          	addi	s4,s1,512 # 4000200 <CONFIG_SYS_CLOCK_HW_CYCLES_PER_SEC+0x1051180>
    for(int i=0; i<DIGITS; i++) {
    3fac:	00000413          	li	s0,0
    int accuracy_pool=0;
    3fb0:	00000913          	li	s2,0
        dot(A1_BASE_ADDRESS, (int)digit, (int)&W1, 1, DIGIT_SIZE, W1_COLS);
    3fb4:	0000fb37          	lui	s6,0xf
        dot(A2_BASE_ADDRESS, A1_BASE_ADDRESS, (int)&W2, 1, W1_COLS, W2_COLS);
    3fb8:	00071bb7          	lui	s7,0x71
        dot(YHAT_BASE_ADDRESS, A2_BASE_ADDRESS, (int)&W3, 1, W2_COLS, W3_COLS);
    3fbc:	00079c37          	lui	s8,0x79
    3fc0:	30048493          	addi	s1,s1,768
        digity = get_digit(i, &digit);
    3fc4:	01810593          	addi	a1,sp,24
    3fc8:	00040513          	mv	a0,s0
    3fcc:	e7dff0ef          	jal	ra,3e48 <get_digit>
        dot(A1_BASE_ADDRESS, (int)digit, (int)&W1, 1, DIGIT_SIZE, W1_COLS);
    3fd0:	01812583          	lw	a1,24(sp)
    3fd4:	08000793          	li	a5,128
    3fd8:	31000713          	li	a4,784
    3fdc:	00100693          	li	a3,1
    3fe0:	720b0613          	addi	a2,s6,1824 # f720 <W1>
        digity = get_digit(i, &digit);
    3fe4:	00050a93          	mv	s5,a0
        dot(A1_BASE_ADDRESS, (int)digit, (int)&W1, 1, DIGIT_SIZE, W1_COLS);
    3fe8:	04000537          	lui	a0,0x4000
    3fec:	c91ff0ef          	jal	ra,3c7c <dot>
        relu(a1, W1_COLS);
    3ff0:	08000593          	li	a1,128
    3ff4:	04000537          	lui	a0,0x4000
    3ff8:	348000ef          	jal	ra,4340 <relu>
        dot(A2_BASE_ADDRESS, A1_BASE_ADDRESS, (int)&W2, 1, W1_COLS, W2_COLS);
    3ffc:	04000793          	li	a5,64
    4000:	08000713          	li	a4,128
    4004:	00100693          	li	a3,1
    4008:	720b8613          	addi	a2,s7,1824 # 71720 <W2>
    400c:	040005b7          	lui	a1,0x4000
    4010:	000a0513          	mv	a0,s4
    4014:	c69ff0ef          	jal	ra,3c7c <dot>
        relu(a2, W2_COLS);
    4018:	04000593          	li	a1,64
    401c:	000a0513          	mv	a0,s4
    4020:	320000ef          	jal	ra,4340 <relu>
        dot(YHAT_BASE_ADDRESS, A2_BASE_ADDRESS, (int)&W3, 1, W2_COLS, W3_COLS);
    4024:	00a00793          	li	a5,10
    4028:	04000713          	li	a4,64
    402c:	00100693          	li	a3,1
    4030:	720c0613          	addi	a2,s8,1824 # 79720 <W3>
    4034:	000a0593          	mv	a1,s4
    4038:	00048513          	mv	a0,s1
    403c:	c41ff0ef          	jal	ra,3c7c <dot>
        softmax(yhat, W3_COLS);
    4040:	00a00593          	li	a1,10
    4044:	00048513          	mv	a0,s1
    4048:	358000ef          	jal	ra,43a0 <softmax>
        prediction = get_prediction(yhat, DIGITS);
    404c:	00a00593          	li	a1,10
    4050:	00048513          	mv	a0,s1
    4054:	47c000ef          	jal	ra,44d0 <get_prediction>
        if(prediction == digity) accuracy_pool++;
    4058:	00aa9463          	bne	s5,a0,4060 <main+0x128>
    405c:	00190913          	addi	s2,s2,1
    for(int i=0; i<DIGITS; i++) {
    4060:	00140413          	addi	s0,s0,1
    4064:	00a00793          	li	a5,10
    4068:	f4f41ee3          	bne	s0,a5,3fc4 <main+0x8c>
    406c:	628030ef          	jal	ra,7694 <z_impl_k_uptime_ticks>
    4070:	02a405b3          	mul	a1,s0,a0
    printf("Execution time: %d ms\n", time_pool);
    4074:	0000dc37          	lui	s8,0xd
    4078:	b1cc0513          	addi	a0,s8,-1252 # cb1c <__mprec_tens+0x174>
    printf("Accuracy: %f\n", (float)accuracy_pool/DIGITS);
    407c:	0000cab7          	lui	s5,0xc
    4080:	0000da37          	lui	s4,0xd
    4084:	0000d437          	lui	s0,0xd
    4088:	16840413          	addi	s0,s0,360 # d168 <threads>
    for(int i=0; i<NUM_THREADS; i++) {
    408c:	00000493          	li	s1,0
    4090:	fff00b13          	li	s6,-1
    4094:	fff00b93          	li	s7,-1
    printf("Execution time: %d ms\n", time_pool);
    4098:	413585b3          	sub	a1,a1,s3
    409c:	4b5040ef          	jal	ra,8d50 <iprintf>
    printf("Accuracy: %f\n", (float)accuracy_pool/DIGITS);
    40a0:	00090513          	mv	a0,s2
    40a4:	8c4ff0ef          	jal	ra,3168 <__floatsisf>
    40a8:	788aa583          	lw	a1,1928(s5) # c788 <__device_handles_end+0xc4>
    40ac:	0000d9b7          	lui	s3,0xd
    40b0:	0000d937          	lui	s2,0xd
    40b4:	facfe0ef          	jal	ra,2860 <__divsf3>
    40b8:	9b8ff0ef          	jal	ra,3270 <__extendsfdf2>
    40bc:	00050613          	mv	a2,a0
    40c0:	00058693          	mv	a3,a1
    40c4:	b34a0513          	addi	a0,s4,-1228 # cb34 <__mprec_tens+0x18c>
    40c8:	489040ef          	jal	ra,8d50 <iprintf>
    for(int i=0; i<NUM_THREADS; i++) {
    40cc:	52098993          	addi	s3,s3,1312 # d520 <sched_spinlock>
    40d0:	4e890913          	addi	s2,s2,1256 # d4e8 <thread_ids>
	return z_impl_k_thread_create(new_thread, stack, stack_size, entry, p1, p2, p3, prio, options, delay);
    40d4:	00400d93          	li	s11,4
    40d8:	00004d37          	lui	s10,0x4
        snprintk(tname, CONFIG_THREAD_MAX_NAME_LEN, "thread %d", i);
    40dc:	0000dcb7          	lui	s9,0xd
    40e0:	00500893          	li	a7,5
    40e4:	00000813          	li	a6,0
    40e8:	00000793          	li	a5,0
    40ec:	00048713          	mv	a4,s1
    40f0:	200d0693          	addi	a3,s10,512 # 4200 <thread_accelerator>
    40f4:	00098593          	mv	a1,s3
    40f8:	01612423          	sw	s6,8(sp)
    40fc:	01712623          	sw	s7,12(sp)
    4100:	01b12023          	sw	s11,0(sp)
    4104:	40000613          	li	a2,1024
    4108:	00040513          	mv	a0,s0
    410c:	22c020ef          	jal	ra,6338 <z_impl_k_thread_create>
        thread_ids[i] = k_thread_create(&threads[i], &stacks[i][0], STACKSIZE,
    4110:	00a92023          	sw	a0,0(s2)
        snprintk(tname, CONFIG_THREAD_MAX_NAME_LEN, "thread %d", i);
    4114:	00048693          	mv	a3,s1
    4118:	b44c8613          	addi	a2,s9,-1212 # cb44 <__mprec_tens+0x19c>
    411c:	06400593          	li	a1,100
    4120:	01c10513          	addi	a0,sp,28
    4124:	5c0000ef          	jal	ra,46e4 <snprintk>
	return z_impl_k_thread_name_set(thread, str);
    4128:	01c10593          	addi	a1,sp,28
    412c:	00040513          	mv	a0,s0
    4130:	178020ef          	jal	ra,62a8 <z_impl_k_thread_name_set>
	z_impl_k_thread_start(thread);
    4134:	00040513          	mv	a0,s0
    4138:	178020ef          	jal	ra,62b0 <z_impl_k_thread_start>
    for(int i=0; i<NUM_THREADS; i++) {
    413c:	00148493          	addi	s1,s1,1
    4140:	00500793          	li	a5,5
    4144:	08040413          	addi	s0,s0,128
    4148:	40098993          	addi	s3,s3,1024
    414c:	00490913          	addi	s2,s2,4
    4150:	f8f498e3          	bne	s1,a5,40e0 <main+0x1a8>
    printf("\nPerforming feed forward neural network using the hardware accelerator\n");
    4154:	0000d537          	lui	a0,0xd
    4158:	b5050513          	addi	a0,a0,-1200 # cb50 <__mprec_tens+0x1a8>
    415c:	3f5040ef          	jal	ra,8d50 <iprintf>
	return z_impl_k_uptime_ticks();
    4160:	534030ef          	jal	ra,7694 <z_impl_k_uptime_ticks>
    4164:	00050413          	mv	s0,a0
	return z_impl_z_current_get();
    4168:	751020ef          	jal	ra,70b8 <z_impl_z_current_get>
	z_impl_k_thread_priority_set(thread, prio);
    416c:	00a00593          	li	a1,10
    4170:	745020ef          	jal	ra,70b4 <z_impl_k_thread_priority_set>
	return z_impl_k_uptime_ticks();
    4174:	520030ef          	jal	ra,7694 <z_impl_k_uptime_ticks>
    4178:	40850533          	sub	a0,a0,s0
    printf("Execution time: %d ms\n", time_hw);
    417c:	00a00593          	li	a1,10
    4180:	02b505b3          	mul	a1,a0,a1
    4184:	b1cc0513          	addi	a0,s8,-1252
    4188:	3c9040ef          	jal	ra,8d50 <iprintf>
    printf("Accuracy: %f\n", (float)accuracy_hw/DIGITS);
    418c:	0000d7b7          	lui	a5,0xd
    4190:	1207a503          	lw	a0,288(a5) # d120 <accuracy_hw>
    4194:	fd5fe0ef          	jal	ra,3168 <__floatsisf>
    4198:	788aa583          	lw	a1,1928(s5)
    419c:	ec4fe0ef          	jal	ra,2860 <__divsf3>
    41a0:	8d0ff0ef          	jal	ra,3270 <__extendsfdf2>
    41a4:	00050613          	mv	a2,a0
    41a8:	00058693          	mv	a3,a1
    41ac:	b34a0513          	addi	a0,s4,-1228
    41b0:	3a1040ef          	jal	ra,8d50 <iprintf>
    printf("\n*** Exiting NN UC 1 ***\n");
    41b4:	0000d537          	lui	a0,0xd
    41b8:	b9850513          	addi	a0,a0,-1128 # cb98 <__mprec_tens+0x1f0>
    41bc:	395040ef          	jal	ra,8d50 <iprintf>
}
    41c0:	0bc12083          	lw	ra,188(sp)
    41c4:	0b812403          	lw	s0,184(sp)
    41c8:	0b412483          	lw	s1,180(sp)
    41cc:	0b012903          	lw	s2,176(sp)
    41d0:	0ac12983          	lw	s3,172(sp)
    41d4:	0a812a03          	lw	s4,168(sp)
    41d8:	0a412a83          	lw	s5,164(sp)
    41dc:	0a012b03          	lw	s6,160(sp)
    41e0:	09c12b83          	lw	s7,156(sp)
    41e4:	09812c03          	lw	s8,152(sp)
    41e8:	09412c83          	lw	s9,148(sp)
    41ec:	09012d03          	lw	s10,144(sp)
    41f0:	08c12d83          	lw	s11,140(sp)
    41f4:	00000513          	li	a0,0
    41f8:	0c010113          	addi	sp,sp,192
    41fc:	00008067          	ret

00004200 <thread_accelerator>:
{
    4200:	fc010113          	addi	sp,sp,-64
    4204:	02912a23          	sw	s1,52(sp)
    int my_a1_address = A1_BASE_ADDRESS+my_id*0x1000;
    4208:	000044b7          	lui	s1,0x4
    420c:	009504b3          	add	s1,a0,s1
    4210:	00c49493          	slli	s1,s1,0xc
{
    4214:	02812c23          	sw	s0,56(sp)
    4218:	03312623          	sw	s3,44(sp)
    421c:	03412423          	sw	s4,40(sp)
    4220:	03512223          	sw	s5,36(sp)
    4224:	03612023          	sw	s6,32(sp)
    4228:	01712e23          	sw	s7,28(sp)
    422c:	01812c23          	sw	s8,24(sp)
    4230:	01912a23          	sw	s9,20(sp)
    4234:	02112e23          	sw	ra,60(sp)
    4238:	03212823          	sw	s2,48(sp)
    423c:	00050413          	mv	s0,a0
    int my_a2_address = A2_BASE_ADDRESS+my_id*0x1000;
    4240:	20048993          	addi	s3,s1,512 # 4200 <thread_accelerator>
    int my_yhat_address = YHAT_BASE_ADDRESS+my_id*0x1000;
    4244:	30048a13          	addi	s4,s1,768
    for(int i=0; i<DIGITS/NUM_THREADS; i++) {
    4248:	00a50c13          	addi	s8,a0,10
        dot_(my_a1_address, (int)digit, (int)&W1, 1, DIGIT_SIZE, W1_COLS);
    424c:	0000fab7          	lui	s5,0xf
        dot_(my_a2_address, my_a1_address, (int)&W2, 1, W1_COLS, W2_COLS);
    4250:	00071b37          	lui	s6,0x71
        dot_(my_yhat_address, my_a2_address, (int)&W3, 1, W2_COLS, W3_COLS);
    4254:	00079bb7          	lui	s7,0x79
        if(prediction == digity) accuracy_hw++;
    4258:	0000dcb7          	lui	s9,0xd
        digity = get_digit(my_id+i*NUM_THREADS, &digit);
    425c:	00c10593          	addi	a1,sp,12
    4260:	00040513          	mv	a0,s0
    4264:	be5ff0ef          	jal	ra,3e48 <get_digit>
        dot_(my_a1_address, (int)digit, (int)&W1, 1, DIGIT_SIZE, W1_COLS);
    4268:	00c12583          	lw	a1,12(sp)
    426c:	08000793          	li	a5,128
    4270:	31000713          	li	a4,784
    4274:	00100693          	li	a3,1
    4278:	720a8613          	addi	a2,s5,1824 # f720 <W1>
        digity = get_digit(my_id+i*NUM_THREADS, &digit);
    427c:	00050913          	mv	s2,a0
        dot_(my_a1_address, (int)digit, (int)&W1, 1, DIGIT_SIZE, W1_COLS);
    4280:	00048513          	mv	a0,s1
    4284:	addff0ef          	jal	ra,3d60 <dot_>
        relu(a1, W1_COLS);
    4288:	08000593          	li	a1,128
    428c:	00048513          	mv	a0,s1
    4290:	0b0000ef          	jal	ra,4340 <relu>
        dot_(my_a2_address, my_a1_address, (int)&W2, 1, W1_COLS, W2_COLS);
    4294:	04000793          	li	a5,64
    4298:	08000713          	li	a4,128
    429c:	00100693          	li	a3,1
    42a0:	720b0613          	addi	a2,s6,1824 # 71720 <W2>
    42a4:	00048593          	mv	a1,s1
    42a8:	00098513          	mv	a0,s3
    42ac:	ab5ff0ef          	jal	ra,3d60 <dot_>
        relu(a2, W2_COLS);
    42b0:	04000593          	li	a1,64
    42b4:	00098513          	mv	a0,s3
    42b8:	088000ef          	jal	ra,4340 <relu>
        dot_(my_yhat_address, my_a2_address, (int)&W3, 1, W2_COLS, W3_COLS);
    42bc:	00a00793          	li	a5,10
    42c0:	04000713          	li	a4,64
    42c4:	00100693          	li	a3,1
    42c8:	720b8613          	addi	a2,s7,1824 # 79720 <W3>
    42cc:	00098593          	mv	a1,s3
    42d0:	000a0513          	mv	a0,s4
    42d4:	a8dff0ef          	jal	ra,3d60 <dot_>
        softmax(yhat, W3_COLS);
    42d8:	00a00593          	li	a1,10
    42dc:	000a0513          	mv	a0,s4
    42e0:	0c0000ef          	jal	ra,43a0 <softmax>
        prediction = get_prediction(yhat, DIGITS);
    42e4:	00a00593          	li	a1,10
    42e8:	000a0513          	mv	a0,s4
    42ec:	1e4000ef          	jal	ra,44d0 <get_prediction>
        if(prediction == digity) accuracy_hw++;
    42f0:	00a91a63          	bne	s2,a0,4304 <thread_accelerator+0x104>
    42f4:	120c8713          	addi	a4,s9,288 # d120 <accuracy_hw>
    42f8:	00072783          	lw	a5,0(a4)
    42fc:	00178793          	addi	a5,a5,1
    4300:	00f72023          	sw	a5,0(a4)
    for(int i=0; i<DIGITS/NUM_THREADS; i++) {
    4304:	00540413          	addi	s0,s0,5
    4308:	f5841ae3          	bne	s0,s8,425c <thread_accelerator+0x5c>
}
    430c:	03c12083          	lw	ra,60(sp)
    4310:	03812403          	lw	s0,56(sp)
    4314:	03412483          	lw	s1,52(sp)
    4318:	03012903          	lw	s2,48(sp)
    431c:	02c12983          	lw	s3,44(sp)
    4320:	02812a03          	lw	s4,40(sp)
    4324:	02412a83          	lw	s5,36(sp)
    4328:	02012b03          	lw	s6,32(sp)
    432c:	01c12b83          	lw	s7,28(sp)
    4330:	01812c03          	lw	s8,24(sp)
    4334:	01412c83          	lw	s9,20(sp)
    4338:	04010113          	addi	sp,sp,64
    433c:	00008067          	ret

00004340 <relu>:
#include "nn.h"

void relu(float *m, int size)
{
    4340:	ff010113          	addi	sp,sp,-16
    4344:	00812423          	sw	s0,8(sp)
    4348:	00912223          	sw	s1,4(sp)
    434c:	01212023          	sw	s2,0(sp)
    4350:	00112623          	sw	ra,12(sp)
    4354:	00058493          	mv	s1,a1
    4358:	00050413          	mv	s0,a0
    for (int i=0; i<size; i++) {
    435c:	00000913          	li	s2,0
    4360:	00994e63          	blt	s2,s1,437c <relu+0x3c>
        if (m[i] < 0) {
            m[i] = 0;
        }
    }
}
    4364:	00c12083          	lw	ra,12(sp)
    4368:	00812403          	lw	s0,8(sp)
    436c:	00412483          	lw	s1,4(sp)
    4370:	00012903          	lw	s2,0(sp)
    4374:	01010113          	addi	sp,sp,16
    4378:	00008067          	ret
        if (m[i] < 0) {
    437c:	00042503          	lw	a0,0(s0)
    4380:	00000593          	li	a1,0
    4384:	8c5fe0ef          	jal	ra,2c48 <__lesf2>
    4388:	00055663          	bgez	a0,4394 <relu+0x54>
            m[i] = 0;
    438c:	00000793          	li	a5,0
    4390:	00f42023          	sw	a5,0(s0)
    for (int i=0; i<size; i++) {
    4394:	00190913          	addi	s2,s2,1
    4398:	00440413          	addi	s0,s0,4
    439c:	fc5ff06f          	j	4360 <relu+0x20>

000043a0 <softmax>:

void softmax(float *m, int size)
{
    43a0:	fe010113          	addi	sp,sp,-32
    43a4:	00812c23          	sw	s0,24(sp)
    43a8:	00912a23          	sw	s1,20(sp)
    43ac:	01212823          	sw	s2,16(sp)
    43b0:	01312623          	sw	s3,12(sp)
    43b4:	00112e23          	sw	ra,28(sp)
    43b8:	01412423          	sw	s4,8(sp)
    43bc:	01512223          	sw	s5,4(sp)
    43c0:	01612023          	sw	s6,0(sp)
    43c4:	00050413          	mv	s0,a0
    43c8:	00058493          	mv	s1,a1
    float max = 0;
    for (int i = 0; i<size; i++) {
    43cc:	00000913          	li	s2,0
    float max = 0;
    43d0:	00000993          	li	s3,0
    for (int i = 0; i<size; i++) {
    43d4:	04994063          	blt	s2,s1,4414 <softmax+0x74>
            max = m[i];
        }
    }

    float sum = 0;
    for (int i=0; i<size; i++) {
    43d8:	00000a13          	li	s4,0
    float sum = 0;
    43dc:	00000913          	li	s2,0
    for (int i=0; i<size; i++) {
    43e0:	049a4e63          	blt	s4,s1,443c <softmax+0x9c>
        sum += exp(m[i]-max);
    }

    for (int i=0; i<size; i++) {
    43e4:	00000a13          	li	s4,0
    43e8:	089a4e63          	blt	s4,s1,4484 <softmax+0xe4>
        m[i] = exp(m[i]-max)/sum;
    }
}
    43ec:	01c12083          	lw	ra,28(sp)
    43f0:	01812403          	lw	s0,24(sp)
    43f4:	01412483          	lw	s1,20(sp)
    43f8:	01012903          	lw	s2,16(sp)
    43fc:	00c12983          	lw	s3,12(sp)
    4400:	00812a03          	lw	s4,8(sp)
    4404:	00412a83          	lw	s5,4(sp)
    4408:	00012b03          	lw	s6,0(sp)
    440c:	02010113          	addi	sp,sp,32
    4410:	00008067          	ret
        if (m[i] > max) {
    4414:	00291793          	slli	a5,s2,0x2
    4418:	00f407b3          	add	a5,s0,a5
    441c:	0007aa03          	lw	s4,0(a5)
    4420:	00098593          	mv	a1,s3
    4424:	000a0513          	mv	a0,s4
    4428:	f6cfe0ef          	jal	ra,2b94 <__gesf2>
    442c:	00a05463          	blez	a0,4434 <softmax+0x94>
            max = m[i];
    4430:	000a0993          	mv	s3,s4
    for (int i = 0; i<size; i++) {
    4434:	00190913          	addi	s2,s2,1
    4438:	f9dff06f          	j	43d4 <softmax+0x34>
        sum += exp(m[i]-max);
    443c:	002a1793          	slli	a5,s4,0x2
    4440:	00f407b3          	add	a5,s0,a5
    4444:	0007a503          	lw	a0,0(a5)
    4448:	00098593          	mv	a1,s3
    for (int i=0; i<size; i++) {
    444c:	001a0a13          	addi	s4,s4,1
        sum += exp(m[i]-max);
    4450:	8adfe0ef          	jal	ra,2cfc <__subsf3>
    4454:	e1dfe0ef          	jal	ra,3270 <__extendsfdf2>
    4458:	25c030ef          	jal	ra,76b4 <exp>
    445c:	00050b13          	mv	s6,a0
    4460:	00090513          	mv	a0,s2
    4464:	00058a93          	mv	s5,a1
    4468:	e09fe0ef          	jal	ra,3270 <__extendsfdf2>
    446c:	000b0613          	mv	a2,s6
    4470:	000a8693          	mv	a3,s5
    4474:	f00fc0ef          	jal	ra,b74 <__adddf3>
    4478:	ed5fe0ef          	jal	ra,334c <__truncdfsf2>
    447c:	00050913          	mv	s2,a0
    for (int i=0; i<size; i++) {
    4480:	f61ff06f          	j	43e0 <softmax+0x40>
        m[i] = exp(m[i]-max)/sum;
    4484:	00042503          	lw	a0,0(s0)
    4488:	00098593          	mv	a1,s3
    for (int i=0; i<size; i++) {
    448c:	001a0a13          	addi	s4,s4,1
        m[i] = exp(m[i]-max)/sum;
    4490:	86dfe0ef          	jal	ra,2cfc <__subsf3>
    4494:	dddfe0ef          	jal	ra,3270 <__extendsfdf2>
    4498:	21c030ef          	jal	ra,76b4 <exp>
    449c:	00050b13          	mv	s6,a0
    44a0:	00090513          	mv	a0,s2
    44a4:	00058a93          	mv	s5,a1
    44a8:	dc9fe0ef          	jal	ra,3270 <__extendsfdf2>
    44ac:	00050613          	mv	a2,a0
    44b0:	00058693          	mv	a3,a1
    44b4:	000b0513          	mv	a0,s6
    44b8:	000a8593          	mv	a1,s5
    44bc:	e91fc0ef          	jal	ra,134c <__divdf3>
    44c0:	e8dfe0ef          	jal	ra,334c <__truncdfsf2>
    44c4:	00a42023          	sw	a0,0(s0)
    for (int i=0; i<size; i++) {
    44c8:	00440413          	addi	s0,s0,4
    44cc:	f1dff06f          	j	43e8 <softmax+0x48>

000044d0 <get_prediction>:

int get_prediction(float yhat[DIGITS], int size)
{
    44d0:	fe010113          	addi	sp,sp,-32
    44d4:	00812c23          	sw	s0,24(sp)
    44d8:	00912a23          	sw	s1,20(sp)
    44dc:	01212823          	sw	s2,16(sp)
    44e0:	01312623          	sw	s3,12(sp)
    44e4:	01412423          	sw	s4,8(sp)
    44e8:	00112e23          	sw	ra,28(sp)
    44ec:	01512223          	sw	s5,4(sp)
    44f0:	00050913          	mv	s2,a0
    44f4:	00058493          	mv	s1,a1
    int prediction = 0;
    float max = 0;
    for (int i=0; i<size; i++) {
    44f8:	00000413          	li	s0,0
    float max = 0;
    44fc:	00000a13          	li	s4,0
    int prediction = 0;
    4500:	00000993          	li	s3,0
    for (int i=0; i<size; i++) {
    4504:	02944663          	blt	s0,s1,4530 <get_prediction+0x60>
            prediction = i;
        }
    }

    return prediction;
    4508:	01c12083          	lw	ra,28(sp)
    450c:	01812403          	lw	s0,24(sp)
    4510:	01412483          	lw	s1,20(sp)
    4514:	01012903          	lw	s2,16(sp)
    4518:	00812a03          	lw	s4,8(sp)
    451c:	00412a83          	lw	s5,4(sp)
    4520:	00098513          	mv	a0,s3
    4524:	00c12983          	lw	s3,12(sp)
    4528:	02010113          	addi	sp,sp,32
    452c:	00008067          	ret
        if (yhat[i] > max) {
    4530:	00241793          	slli	a5,s0,0x2
    4534:	00f907b3          	add	a5,s2,a5
    4538:	0007aa83          	lw	s5,0(a5)
    453c:	000a0593          	mv	a1,s4
    4540:	000a8513          	mv	a0,s5
    4544:	e50fe0ef          	jal	ra,2b94 <__gesf2>
    4548:	00a05663          	blez	a0,4554 <get_prediction+0x84>
            max = yhat[i];
    454c:	000a8a13          	mv	s4,s5
        if (yhat[i] > max) {
    4550:	00040993          	mv	s3,s0
    for (int i=0; i<size; i++) {
    4554:	00140413          	addi	s0,s0,1
    4558:	fadff06f          	j	4504 <get_prediction+0x34>

0000455c <multiply_mat_hw_pool>:
	volatile int *c = (int *)(ACCELERATOR_BASE_ADDRESS + 0x20);
	volatile int *rowsA = (int *)(ACCELERATOR_BASE_ADDRESS + 0x28);
	volatile int *colsA = (int *)(ACCELERATOR_BASE_ADDRESS + 0x30);
	volatile int *colsB = (int *)(ACCELERATOR_BASE_ADDRESS + 0x38);

    *a = mat1Address;
    455c:	90000837          	lui	a6,0x90000
    4560:	00a82823          	sw	a0,16(a6) # 90000010 <CONFIG_SYSTEM_WORKQUEUE_PRIORITY+0x90000011>
    *b = mat2Address;
    4564:	00b82c23          	sw	a1,24(a6)
    *c = resultAddress;
    4568:	02c82023          	sw	a2,32(a6)
    *rowsA = rows1;
    456c:	02d82423          	sw	a3,40(a6)
    *colsA = cols1;
    4570:	02e82823          	sw	a4,48(a6)
    *colsB = cols2;
    4574:	02f82c23          	sw	a5,56(a6)

    *do_matp_mem = 1;
    4578:	00100793          	li	a5,1
    457c:	00f82023          	sw	a5,0(a6)

    while ((*do_matp_mem & 2) == 0);
    4580:	90000737          	lui	a4,0x90000
    4584:	00072783          	lw	a5,0(a4) # 90000000 <CONFIG_SYSTEM_WORKQUEUE_PRIORITY+0x90000001>
    4588:	0027f793          	andi	a5,a5,2
    458c:	fe078ce3          	beqz	a5,4584 <multiply_mat_hw_pool+0x28>
}
    4590:	00008067          	ret

00004594 <multiply_mat_hw>:
	volatile int *c = (int *)(ACCELERATOR_BASE_ADDRESS + 0x20);
	volatile int *rowsA = (int *)(ACCELERATOR_BASE_ADDRESS + 0x28);
	volatile int *colsA = (int *)(ACCELERATOR_BASE_ADDRESS + 0x30);
	volatile int *colsB = (int *)(ACCELERATOR_BASE_ADDRESS + 0x38);

    *a = mat1Address;
    4594:	90000837          	lui	a6,0x90000
    4598:	00a82823          	sw	a0,16(a6) # 90000010 <CONFIG_SYSTEM_WORKQUEUE_PRIORITY+0x90000011>
    *b = mat2Address;
    459c:	00b82c23          	sw	a1,24(a6)
    *c = resultAddress;
    45a0:	02c82023          	sw	a2,32(a6)
    *rowsA = rows1;
    45a4:	02d82423          	sw	a3,40(a6)
    *colsA = cols1;
    45a8:	02e82823          	sw	a4,48(a6)
    *colsB = cols2;
    45ac:	02f82c23          	sw	a5,56(a6)

    *do_matp_mem = 1;
    45b0:	00100793          	li	a5,1
    45b4:	00f82023          	sw	a5,0(a6)

    // while ((*do_matp_mem & 2) == 0);
    45b8:	00008067          	ret

000045bc <arch_printk_char_out>:
{
	ARG_UNUSED(c);

	/* do nothing */
	return 0;
}
    45bc:	00000513          	li	a0,0
    45c0:	00008067          	ret

000045c4 <char_out>:

static int char_out(int c, void *ctx_p)
{
	struct out_context *ctx = ctx_p;

	ctx->count++;
    45c4:	0005a783          	lw	a5,0(a1) # 4000000 <CONFIG_SYS_CLOCK_HW_CYCLES_PER_SEC+0x1050f80>
    45c8:	00178793          	addi	a5,a5,1
    45cc:	00f5a023          	sw	a5,0(a1)
	return _char_out(c);
    45d0:	000827b7          	lui	a5,0x82
    45d4:	d947a783          	lw	a5,-620(a5) # 81d94 <_char_out>
    45d8:	00078067          	jr	a5

000045dc <str_out>:
	int count;
};

static int str_out(int c, struct str_context *ctx)
{
	if (ctx->str == NULL || ctx->count >= ctx->max) {
    45dc:	0085a703          	lw	a4,8(a1)
    45e0:	0005a783          	lw	a5,0(a1)
		ctx->count++;
		return c;
	}

	if (ctx->count == ctx->max - 1) {
		ctx->str[ctx->count++] = '\0';
    45e4:	00170613          	addi	a2,a4,1
	if (ctx->str == NULL || ctx->count >= ctx->max) {
    45e8:	00078663          	beqz	a5,45f4 <str_out+0x18>
    45ec:	0045a683          	lw	a3,4(a1)
    45f0:	00d74663          	blt	a4,a3,45fc <str_out+0x20>
		ctx->count++;
    45f4:	00c5a423          	sw	a2,8(a1)
		return c;
    45f8:	00008067          	ret
	if (ctx->count == ctx->max - 1) {
    45fc:	fff68693          	addi	a3,a3,-1
		ctx->str[ctx->count++] = '\0';
    4600:	00c5a423          	sw	a2,8(a1)
    4604:	00e787b3          	add	a5,a5,a4
	if (ctx->count == ctx->max - 1) {
    4608:	00e69663          	bne	a3,a4,4614 <str_out+0x38>
		ctx->str[ctx->count++] = '\0';
    460c:	00078023          	sb	zero,0(a5)
    4610:	00008067          	ret
	} else {
		ctx->str[ctx->count++] = c;
    4614:	00a78023          	sb	a0,0(a5)
	}

	return c;
}
    4618:	00008067          	ret

0000461c <__printk_hook_install>:
	_char_out = fn;
    461c:	000827b7          	lui	a5,0x82
    4620:	d8a7aa23          	sw	a0,-620(a5) # 81d94 <_char_out>
}
    4624:	00008067          	ret

00004628 <vprintk>:
{
    4628:	fe010113          	addi	sp,sp,-32
    462c:	00050613          	mv	a2,a0
		cbvprintf(char_out, &ctx, fmt, ap);
    4630:	00004537          	lui	a0,0x4
{
    4634:	00058693          	mv	a3,a1
		cbvprintf(char_out, &ctx, fmt, ap);
    4638:	5c450513          	addi	a0,a0,1476 # 45c4 <char_out>
    463c:	00c10593          	addi	a1,sp,12
{
    4640:	00112e23          	sw	ra,28(sp)
		struct out_context ctx = { 0 };
    4644:	00012623          	sw	zero,12(sp)
		cbvprintf(char_out, &ctx, fmt, ap);
    4648:	320000ef          	jal	ra,4968 <cbvprintf>
}
    464c:	01c12083          	lw	ra,28(sp)
    4650:	02010113          	addi	sp,sp,32
    4654:	00008067          	ret

00004658 <printk>:
{
    4658:	fc010113          	addi	sp,sp,-64
    465c:	02b12223          	sw	a1,36(sp)
	va_start(ap, fmt);
    4660:	02410593          	addi	a1,sp,36
{
    4664:	00112e23          	sw	ra,28(sp)
    4668:	02c12423          	sw	a2,40(sp)
    466c:	02d12623          	sw	a3,44(sp)
    4670:	02e12823          	sw	a4,48(sp)
    4674:	02f12a23          	sw	a5,52(sp)
    4678:	03012c23          	sw	a6,56(sp)
    467c:	03112e23          	sw	a7,60(sp)
	va_start(ap, fmt);
    4680:	00b12623          	sw	a1,12(sp)
	vprintk(fmt, ap);
    4684:	fa5ff0ef          	jal	ra,4628 <vprintk>
}
    4688:	01c12083          	lw	ra,28(sp)
    468c:	04010113          	addi	sp,sp,64
    4690:	00008067          	ret

00004694 <vsnprintk>:

	return ret;
}

int vsnprintk(char *str, size_t size, const char *fmt, va_list ap)
{
    4694:	fe010113          	addi	sp,sp,-32
    4698:	00812c23          	sw	s0,24(sp)
	struct str_context ctx = { str, size, 0 };
    469c:	00a12223          	sw	a0,4(sp)
{
    46a0:	00050413          	mv	s0,a0

	cbvprintf(str_out, &ctx, fmt, ap);
    46a4:	00004537          	lui	a0,0x4
	struct str_context ctx = { str, size, 0 };
    46a8:	00b12423          	sw	a1,8(sp)
	cbvprintf(str_out, &ctx, fmt, ap);
    46ac:	5dc50513          	addi	a0,a0,1500 # 45dc <str_out>
    46b0:	00410593          	addi	a1,sp,4
{
    46b4:	00112e23          	sw	ra,28(sp)
	struct str_context ctx = { str, size, 0 };
    46b8:	00012623          	sw	zero,12(sp)
	cbvprintf(str_out, &ctx, fmt, ap);
    46bc:	2ac000ef          	jal	ra,4968 <cbvprintf>

	if (ctx.count < ctx.max) {
    46c0:	00c12503          	lw	a0,12(sp)
    46c4:	00812783          	lw	a5,8(sp)
    46c8:	00f55663          	bge	a0,a5,46d4 <vsnprintk+0x40>
		str[ctx.count] = '\0';
    46cc:	00a40433          	add	s0,s0,a0
    46d0:	00040023          	sb	zero,0(s0)
	}

	return ctx.count;
}
    46d4:	01c12083          	lw	ra,28(sp)
    46d8:	01812403          	lw	s0,24(sp)
    46dc:	02010113          	addi	sp,sp,32
    46e0:	00008067          	ret

000046e4 <snprintk>:
{
    46e4:	fc010113          	addi	sp,sp,-64
    46e8:	02d12623          	sw	a3,44(sp)
	va_start(ap, fmt);
    46ec:	02c10693          	addi	a3,sp,44
{
    46f0:	00112e23          	sw	ra,28(sp)
    46f4:	02e12823          	sw	a4,48(sp)
    46f8:	02f12a23          	sw	a5,52(sp)
    46fc:	03012c23          	sw	a6,56(sp)
    4700:	03112e23          	sw	a7,60(sp)
	va_start(ap, fmt);
    4704:	00d12623          	sw	a3,12(sp)
	ret = vsnprintk(str, size, fmt, ap);
    4708:	f8dff0ef          	jal	ra,4694 <vsnprintk>
}
    470c:	01c12083          	lw	ra,28(sp)
    4710:	04010113          	addi	sp,sp,64
    4714:	00008067          	ret

00004718 <z_thread_entry>:
 * This routine does not return, and is marked as such so the compiler won't
 * generate preamble code that is only used by functions that actually return.
 */
FUNC_NORETURN void z_thread_entry(k_thread_entry_t entry,
				 void *p1, void *p2, void *p3)
{
    4718:	ff010113          	addi	sp,sp,-16
    471c:	00050793          	mv	a5,a0
    4720:	00058513          	mv	a0,a1
    4724:	00060593          	mv	a1,a2
#ifdef CONFIG_THREAD_LOCAL_STORAGE
	z_tls_current = z_current_get();
#endif
	entry(p1, p2, p3);
    4728:	00068613          	mv	a2,a3
{
    472c:	00112623          	sw	ra,12(sp)
	entry(p1, p2, p3);
    4730:	000780e7          	jalr	a5
	return z_impl_z_current_get();
    4734:	185020ef          	jal	ra,70b8 <z_impl_z_current_get>
	z_impl_k_thread_abort(thread);
    4738:	281020ef          	jal	ra,71b8 <z_impl_k_thread_abort>

0000473c <extract_decimal>:
static size_t extract_decimal(const char **str)
{
	const char *sp = *str;
	size_t val = 0;

	while (isdigit((int)(unsigned char)*sp)) {
    473c:	0000d637          	lui	a2,0xd
	const char *sp = *str;
    4740:	00052683          	lw	a3,0(a0)
{
    4744:	00050713          	mv	a4,a0
	while (isdigit((int)(unsigned char)*sp)) {
    4748:	da560613          	addi	a2,a2,-603 # cda5 <_ctype_+0x1>
	size_t val = 0;
    474c:	00000513          	li	a0,0
		val = 10U * val + *sp++ - '0';
    4750:	00a00813          	li	a6,10
	while (isdigit((int)(unsigned char)*sp)) {
    4754:	0006c583          	lbu	a1,0(a3)
    4758:	00c587b3          	add	a5,a1,a2
    475c:	0007c783          	lbu	a5,0(a5)
    4760:	0047f793          	andi	a5,a5,4
    4764:	00079663          	bnez	a5,4770 <extract_decimal+0x34>
	}
	*str = sp;
    4768:	00d72023          	sw	a3,0(a4)
	return val;
}
    476c:	00008067          	ret
		val = 10U * val + *sp++ - '0';
    4770:	03050533          	mul	a0,a0,a6
    4774:	00168693          	addi	a3,a3,1
    4778:	fd050793          	addi	a5,a0,-48
    477c:	00b78533          	add	a0,a5,a1
    4780:	fd5ff06f          	j	4754 <extract_decimal+0x18>

00004784 <encode_uint>:
 */
static char *encode_uint(uint_value_type value,
			 struct conversion *conv,
			 char *bps,
			 const char *bpe)
{
    4784:	fd010113          	addi	sp,sp,-48
    4788:	02812423          	sw	s0,40(sp)
    478c:	02912223          	sw	s1,36(sp)
    4790:	03212023          	sw	s2,32(sp)
    4794:	01712623          	sw	s7,12(sp)
    4798:	01812423          	sw	s8,8(sp)
    479c:	01912223          	sw	s9,4(sp)
    47a0:	02112623          	sw	ra,44(sp)
    47a4:	01312e23          	sw	s3,28(sp)
    47a8:	01412c23          	sw	s4,24(sp)
    47ac:	01512a23          	sw	s5,20(sp)
    47b0:	01612823          	sw	s6,16(sp)
	bool upcase = isupper((int)conv->specifier);
    47b4:	00364783          	lbu	a5,3(a2)
{
    47b8:	00068913          	mv	s2,a3
	bool upcase = isupper((int)conv->specifier);
    47bc:	0000d6b7          	lui	a3,0xd
    47c0:	da568693          	addi	a3,a3,-603 # cda5 <_ctype_+0x1>
    47c4:	00d786b3          	add	a3,a5,a3
    47c8:	0006c983          	lbu	s3,0(a3)
{
    47cc:	00070413          	mv	s0,a4
	switch (specifier) {
    47d0:	06f00713          	li	a4,111
{
    47d4:	00050c13          	mv	s8,a0
    47d8:	00058c93          	mv	s9,a1
    47dc:	00060b93          	mv	s7,a2
    47e0:	0039f993          	andi	s3,s3,3
	switch (specifier) {
    47e4:	00800493          	li	s1,8
    47e8:	00e78c63          	beq	a5,a4,4800 <encode_uint+0x7c>
    47ec:	0cf76263          	bltu	a4,a5,48b0 <encode_uint+0x12c>
    47f0:	05800713          	li	a4,88
		return 10;
    47f4:	00a00493          	li	s1,10
	switch (specifier) {
    47f8:	00e79463          	bne	a5,a4,4800 <encode_uint+0x7c>
		return 16;
    47fc:	01000493          	li	s1,16
	const unsigned int radix = conversion_radix(conv->specifier);
	char *bp = bps + (bpe - bps);

	do {
		unsigned int lsv = (unsigned int)(value % radix);
    4800:	00000a93          	li	s5,0

		*--bp = (lsv <= 9) ? ('0' + lsv)
    4804:	00900a13          	li	s4,9
    4808:	00100b13          	li	s6,1
		unsigned int lsv = (unsigned int)(value % radix);
    480c:	00048613          	mv	a2,s1
    4810:	00000693          	li	a3,0
    4814:	000c0513          	mv	a0,s8
    4818:	000c8593          	mv	a1,s9
    481c:	f55fb0ef          	jal	ra,770 <__umoddi3>
		*--bp = (lsv <= 9) ? ('0' + lsv)
    4820:	0ff57793          	andi	a5,a0,255
    4824:	0aaa6263          	bltu	s4,a0,48c8 <encode_uint+0x144>
    4828:	03078793          	addi	a5,a5,48
    482c:	0ff7f793          	andi	a5,a5,255
			: upcase ? ('A' + lsv - 10) : ('a' + lsv - 10);
		value /= radix;
    4830:	00048613          	mv	a2,s1
    4834:	00000693          	li	a3,0
    4838:	000c0513          	mv	a0,s8
    483c:	000c8593          	mv	a1,s9
		*--bp = (lsv <= 9) ? ('0' + lsv)
    4840:	fef40fa3          	sb	a5,-1(s0)
    4844:	fff40413          	addi	s0,s0,-1
		value /= radix;
    4848:	af5fb0ef          	jal	ra,33c <__udivdi3>
	} while ((value != 0) && (bps < bp));
    484c:	019a9463          	bne	s5,s9,4854 <encode_uint+0xd0>
    4850:	009c6463          	bltu	s8,s1,4858 <encode_uint+0xd4>
    4854:	06896463          	bltu	s2,s0,48bc <encode_uint+0x138>

	/* Record required alternate forms.  This can be determined
	 * from the radix without re-checking specifier.
	 */
	if (conv->flag_hash) {
    4858:	000bd783          	lhu	a5,0(s7)
    485c:	0207f793          	andi	a5,a5,32
    4860:	00078c63          	beqz	a5,4878 <encode_uint+0xf4>
		if (radix == 8) {
    4864:	00800793          	li	a5,8
    4868:	06f49a63          	bne	s1,a5,48dc <encode_uint+0x158>
			conv->altform_0 = true;
    486c:	002bc783          	lbu	a5,2(s7)
    4870:	0087e793          	ori	a5,a5,8
		} else if (radix == 16) {
			conv->altform_0c = true;
    4874:	00fb8123          	sb	a5,2(s7)
			;
		}
	}

	return bp;
}
    4878:	02c12083          	lw	ra,44(sp)
    487c:	00040513          	mv	a0,s0
    4880:	02812403          	lw	s0,40(sp)
    4884:	02412483          	lw	s1,36(sp)
    4888:	02012903          	lw	s2,32(sp)
    488c:	01c12983          	lw	s3,28(sp)
    4890:	01812a03          	lw	s4,24(sp)
    4894:	01412a83          	lw	s5,20(sp)
    4898:	01012b03          	lw	s6,16(sp)
    489c:	00c12b83          	lw	s7,12(sp)
    48a0:	00812c03          	lw	s8,8(sp)
    48a4:	00412c83          	lw	s9,4(sp)
    48a8:	03010113          	addi	sp,sp,48
    48ac:	00008067          	ret
	switch (specifier) {
    48b0:	0f77f793          	andi	a5,a5,247
    48b4:	07000713          	li	a4,112
    48b8:	f3dff06f          	j	47f4 <encode_uint+0x70>
		value /= radix;
    48bc:	00050c13          	mv	s8,a0
    48c0:	00058c93          	mv	s9,a1
    48c4:	f49ff06f          	j	480c <encode_uint+0x88>
		*--bp = (lsv <= 9) ? ('0' + lsv)
    48c8:	01699663          	bne	s3,s6,48d4 <encode_uint+0x150>
    48cc:	03778793          	addi	a5,a5,55
    48d0:	f5dff06f          	j	482c <encode_uint+0xa8>
    48d4:	05778793          	addi	a5,a5,87
    48d8:	f55ff06f          	j	482c <encode_uint+0xa8>
		} else if (radix == 16) {
    48dc:	01000793          	li	a5,16
    48e0:	f8f49ce3          	bne	s1,a5,4878 <encode_uint+0xf4>
			conv->altform_0c = true;
    48e4:	002bc783          	lbu	a5,2(s7)
    48e8:	0107e793          	ori	a5,a5,16
    48ec:	f89ff06f          	j	4874 <encode_uint+0xf0>

000048f0 <outs>:
/* Outline function to emit all characters in [sp, ep). */
static int outs(cbprintf_cb out,
		void *ctx,
		const char *sp,
		const char *ep)
{
    48f0:	fe010113          	addi	sp,sp,-32
    48f4:	00812c23          	sw	s0,24(sp)
    48f8:	00912a23          	sw	s1,20(sp)
    48fc:	01212823          	sw	s2,16(sp)
    4900:	01312623          	sw	s3,12(sp)
    4904:	01412423          	sw	s4,8(sp)
    4908:	00112e23          	sw	ra,28(sp)
    490c:	00050993          	mv	s3,a0
    4910:	00058a13          	mv	s4,a1
    4914:	00060493          	mv	s1,a2
    4918:	00068913          	mv	s2,a3
	size_t count = 0;

	while ((sp < ep) || ((ep == NULL) && *sp)) {
    491c:	00060413          	mv	s0,a2
    4920:	40940533          	sub	a0,s0,s1
    4924:	01246863          	bltu	s0,s2,4934 <outs+0x44>
    4928:	02091063          	bnez	s2,4948 <outs+0x58>
    492c:	00044783          	lbu	a5,0(s0)
    4930:	00078c63          	beqz	a5,4948 <outs+0x58>
		int rc = out((int)*sp++, ctx);
    4934:	00044503          	lbu	a0,0(s0)
    4938:	000a0593          	mv	a1,s4
    493c:	00140413          	addi	s0,s0,1
    4940:	000980e7          	jalr	s3

		if (rc < 0) {
    4944:	fc055ee3          	bgez	a0,4920 <outs+0x30>
		}
		++count;
	}

	return (int)count;
}
    4948:	01c12083          	lw	ra,28(sp)
    494c:	01812403          	lw	s0,24(sp)
    4950:	01412483          	lw	s1,20(sp)
    4954:	01012903          	lw	s2,16(sp)
    4958:	00c12983          	lw	s3,12(sp)
    495c:	00812a03          	lw	s4,8(sp)
    4960:	02010113          	addi	sp,sp,32
    4964:	00008067          	ret

00004968 <cbvprintf>:

int cbvprintf(cbprintf_cb out, void *ctx, const char *fp, va_list ap)
{
    4968:	f7010113          	addi	sp,sp,-144
    496c:	07512a23          	sw	s5,116(sp)
	switch (conv->specifier) {
    4970:	0000dab7          	lui	s5,0xd
    4974:	bbca8793          	addi	a5,s5,-1092 # cbbc <__mprec_tens+0x214>
{
    4978:	07612823          	sw	s6,112(sp)
		}

		/* Do formatting, either into the buffer or
		 * referencing external data.
		 */
		switch (conv->specifier) {
    497c:	0000db37          	lui	s6,0xd
{
    4980:	07712623          	sw	s7,108(sp)
    4984:	07812423          	sw	s8,104(sp)
	switch (conv->specifier) {
    4988:	00f12223          	sw	a5,4(sp)
	switch ((enum length_mod_enum)conv->length_mod) {
    498c:	0000dbb7          	lui	s7,0xd
		switch (conv->specifier) {
    4990:	c40b0793          	addi	a5,s6,-960 # cc40 <__mprec_tens+0x298>

				goto prec_int_pad0;
			}

			bps = "(nil)";
			bpe = bps + 5;
    4994:	0000dc37          	lui	s8,0xd
{
    4998:	08812423          	sw	s0,136(sp)
    499c:	09212023          	sw	s2,128(sp)
    49a0:	07312e23          	sw	s3,124(sp)
    49a4:	07912223          	sw	s9,100(sp)
    49a8:	05b12e23          	sw	s11,92(sp)
    49ac:	08112623          	sw	ra,140(sp)
    49b0:	08912223          	sw	s1,132(sp)
    49b4:	07412c23          	sw	s4,120(sp)
    49b8:	07a12023          	sw	s10,96(sp)
    49bc:	00050913          	mv	s2,a0
    49c0:	00058993          	mv	s3,a1
    49c4:	00060c93          	mv	s9,a2
    49c8:	00068413          	mv	s0,a3
	size_t count = 0;
    49cc:	00000d93          	li	s11,0
		switch (conv->specifier) {
    49d0:	00f12423          	sw	a5,8(sp)
	switch ((enum length_mod_enum)conv->length_mod) {
    49d4:	c98b8b93          	addi	s7,s7,-872 # cc98 <__mprec_tens+0x2f0>
			bpe = bps + 5;
    49d8:	bb9c0c13          	addi	s8,s8,-1095 # cbb9 <__mprec_tens+0x211>
	while (*fp != 0) {
    49dc:	000cc483          	lbu	s1,0(s9)
    49e0:	00049663          	bnez	s1,49ec <cbvprintf+0x84>
			OUTC(' ');
			--width;
		}
	}

	return count;
    49e4:	000d8513          	mv	a0,s11
    49e8:	1990006f          	j	5380 <cbvprintf+0xa18>
		if (*fp != '%') {
    49ec:	02500793          	li	a5,37
			OUTC(*fp++);
    49f0:	001c8a13          	addi	s4,s9,1
		if (*fp != '%') {
    49f4:	00f48e63          	beq	s1,a5,4a10 <cbvprintf+0xa8>
			OUTC(*fp++);
    49f8:	00098593          	mv	a1,s3
    49fc:	00048513          	mv	a0,s1
			OUTC('%');
    4a00:	000900e7          	jalr	s2
    4a04:	16054ee3          	bltz	a0,5380 <cbvprintf+0xa18>
    4a08:	001d8d93          	addi	s11,s11,1
			break;
    4a0c:	5200006f          	j	4f2c <cbvprintf+0x5c4>
		} state = {
    4a10:	02000613          	li	a2,32
    4a14:	00000593          	li	a1,0
    4a18:	03010513          	addi	a0,sp,48
    4a1c:	ad9fe0ef          	jal	ra,34f4 <memset>
	if (*sp == '%') {
    4a20:	001cc783          	lbu	a5,1(s9)
    4a24:	10978263          	beq	a5,s1,4b28 <cbvprintf+0x1c0>
		switch (*sp) {
    4a28:	02b00693          	li	a3,43
    4a2c:	02d00613          	li	a2,45
    4a30:	03000593          	li	a1,48
    4a34:	02000513          	li	a0,32
    4a38:	02300813          	li	a6,35
    4a3c:	000a4703          	lbu	a4,0(s4)
    4a40:	04015783          	lhu	a5,64(sp)
    4a44:	14d70c63          	beq	a4,a3,4b9c <cbvprintf+0x234>
    4a48:	12e6ea63          	bltu	a3,a4,4b7c <cbvprintf+0x214>
    4a4c:	14a70c63          	beq	a4,a0,4ba4 <cbvprintf+0x23c>
    4a50:	15070e63          	beq	a4,a6,4bac <cbvprintf+0x244>
	if (conv->flag_zero && conv->flag_dash) {
    4a54:	04012703          	lw	a4,64(sp)
    4a58:	04400693          	li	a3,68
    4a5c:	04477713          	andi	a4,a4,68
    4a60:	00d71663          	bne	a4,a3,4a6c <cbvprintf+0x104>
		conv->flag_zero = false;
    4a64:	fbf7f793          	andi	a5,a5,-65
    4a68:	04f11023          	sh	a5,64(sp)
	conv->width_present = true;
    4a6c:	04015783          	lhu	a5,64(sp)
    4a70:	01412a23          	sw	s4,20(sp)
    4a74:	0807e713          	ori	a4,a5,128
    4a78:	04e11023          	sh	a4,64(sp)
	if (*sp == '*') {
    4a7c:	000a4683          	lbu	a3,0(s4)
    4a80:	02a00713          	li	a4,42
    4a84:	12e69863          	bne	a3,a4,4bb4 <cbvprintf+0x24c>
		conv->width_star = true;
    4a88:	1807e793          	ori	a5,a5,384
    4a8c:	04f11023          	sh	a5,64(sp)
		return ++sp;
    4a90:	001a0793          	addi	a5,s4,1
	sp = extract_prec(conv, sp);
    4a94:	00f12a23          	sw	a5,20(sp)
	conv->prec_present = (*sp == '.');
    4a98:	0007c603          	lbu	a2,0(a5)
    4a9c:	fd260713          	addi	a4,a2,-46
    4aa0:	00173713          	seqz	a4,a4
    4aa4:	00971693          	slli	a3,a4,0x9
    4aa8:	04015703          	lhu	a4,64(sp)
    4aac:	dff77713          	andi	a4,a4,-513
    4ab0:	00d76733          	or	a4,a4,a3
    4ab4:	04e11023          	sh	a4,64(sp)
	if (!conv->prec_present) {
    4ab8:	02e00693          	li	a3,46
    4abc:	02d61263          	bne	a2,a3,4ae0 <cbvprintf+0x178>
	++sp;
    4ac0:	00178693          	addi	a3,a5,1
    4ac4:	00d12a23          	sw	a3,20(sp)
	if (*sp == '*') {
    4ac8:	0017c603          	lbu	a2,1(a5)
    4acc:	02a00693          	li	a3,42
    4ad0:	12d61463          	bne	a2,a3,4bf8 <cbvprintf+0x290>
		conv->prec_star = true;
    4ad4:	40076713          	ori	a4,a4,1024
    4ad8:	04e11023          	sh	a4,64(sp)
		return ++sp;
    4adc:	00278793          	addi	a5,a5,2
	switch (*sp) {
    4ae0:	0007c603          	lbu	a2,0(a5)
    4ae4:	06c00713          	li	a4,108
		if (*++sp == 'h') {
    4ae8:	00178593          	addi	a1,a5,1
	switch (*sp) {
    4aec:	22e60263          	beq	a2,a4,4d10 <cbvprintf+0x3a8>
    4af0:	14c76263          	bltu	a4,a2,4c34 <cbvprintf+0x2cc>
    4af4:	06800713          	li	a4,104
    4af8:	16e60663          	beq	a2,a4,4c64 <cbvprintf+0x2fc>
    4afc:	06a00713          	li	a4,106
    4b00:	22e60e63          	beq	a2,a4,4d3c <cbvprintf+0x3d4>
    4b04:	04c00713          	li	a4,76
    4b08:	26e60263          	beq	a2,a4,4d6c <cbvprintf+0x404>
		conv->length_mod = LENGTH_NONE;
    4b0c:	04015703          	lhu	a4,64(sp)
    4b10:	ffff86b7          	lui	a3,0xffff8
    4b14:	7ff68693          	addi	a3,a3,2047 # ffff87ff <CONFIG_SYSTEM_WORKQUEUE_PRIORITY+0xffff8800>
    4b18:	00d77733          	and	a4,a4,a3
    4b1c:	04e11023          	sh	a4,64(sp)
		break;
    4b20:	00078593          	mv	a1,a5
    4b24:	16c0006f          	j	4c90 <cbvprintf+0x328>
		conv->specifier = *sp++;
    4b28:	002c8a13          	addi	s4,s9,2
    4b2c:	04f101a3          	sb	a5,67(sp)
		if (conv->width_star) {
    4b30:	04015783          	lhu	a5,64(sp)
    4b34:	1007f713          	andi	a4,a5,256
    4b38:	32070c63          	beqz	a4,4e70 <cbvprintf+0x508>
			width = va_arg(ap, int);
    4b3c:	00042483          	lw	s1,0(s0)
    4b40:	00440693          	addi	a3,s0,4
			if (width < 0) {
    4b44:	0004d863          	bgez	s1,4b54 <cbvprintf+0x1ec>
				conv->flag_dash = true;
    4b48:	0047e793          	ori	a5,a5,4
    4b4c:	04f11023          	sh	a5,64(sp)
				width = -width;
    4b50:	409004b3          	neg	s1,s1
		if (conv->prec_star) {
    4b54:	04015703          	lhu	a4,64(sp)
    4b58:	40077793          	andi	a5,a4,1024
    4b5c:	32078a63          	beqz	a5,4e90 <cbvprintf+0x528>
			int arg = va_arg(ap, int);
    4b60:	0006aa83          	lw	s5,0(a3)
    4b64:	00468413          	addi	s0,a3,4
			if (arg < 0) {
    4b68:	320adc63          	bgez	s5,4ea0 <cbvprintf+0x538>
				conv->prec_present = false;
    4b6c:	dff77713          	andi	a4,a4,-513
    4b70:	04e11023          	sh	a4,64(sp)
		int precision = -1;
    4b74:	fff00a93          	li	s5,-1
    4b78:	3280006f          	j	4ea0 <cbvprintf+0x538>
		switch (*sp) {
    4b7c:	00c70863          	beq	a4,a2,4b8c <cbvprintf+0x224>
    4b80:	ecb71ae3          	bne	a4,a1,4a54 <cbvprintf+0xec>
			conv->flag_zero = true;
    4b84:	0407e793          	ori	a5,a5,64
    4b88:	0080006f          	j	4b90 <cbvprintf+0x228>
			conv->flag_dash = true;
    4b8c:	0047e793          	ori	a5,a5,4
			conv->flag_zero = true;
    4b90:	04f11023          	sh	a5,64(sp)
			++sp;
    4b94:	001a0a13          	addi	s4,s4,1
	} while (loop);
    4b98:	ea5ff06f          	j	4a3c <cbvprintf+0xd4>
			conv->flag_plus = true;
    4b9c:	0087e793          	ori	a5,a5,8
    4ba0:	ff1ff06f          	j	4b90 <cbvprintf+0x228>
			conv->flag_space = true;
    4ba4:	0107e793          	ori	a5,a5,16
    4ba8:	fe9ff06f          	j	4b90 <cbvprintf+0x228>
			conv->flag_hash = true;
    4bac:	0207e793          	ori	a5,a5,32
    4bb0:	fe1ff06f          	j	4b90 <cbvprintf+0x228>
	size_t width = extract_decimal(&sp);
    4bb4:	01410513          	addi	a0,sp,20
    4bb8:	b85ff0ef          	jal	ra,473c <extract_decimal>
	if (sp != wp) {
    4bbc:	01412783          	lw	a5,20(sp)
    4bc0:	ed478ae3          	beq	a5,s4,4a94 <cbvprintf+0x12c>
		conv->unsupported |= ((conv->width_value < 0)
    4bc4:	04012703          	lw	a4,64(sp)
    4bc8:	04014683          	lbu	a3,64(sp)
		conv->width_value = width;
    4bcc:	04a12223          	sw	a0,68(sp)
		conv->unsupported |= ((conv->width_value < 0)
    4bd0:	00175713          	srli	a4,a4,0x1
    4bd4:	00177713          	andi	a4,a4,1
				      || (width != (size_t)conv->width_value));
    4bd8:	01f55513          	srli	a0,a0,0x1f
		conv->unsupported |= ((conv->width_value < 0)
    4bdc:	00a76733          	or	a4,a4,a0
    4be0:	00171713          	slli	a4,a4,0x1
    4be4:	f8076713          	ori	a4,a4,-128
    4be8:	07d6f693          	andi	a3,a3,125
    4bec:	00d76733          	or	a4,a4,a3
    4bf0:	04e10023          	sb	a4,64(sp)
    4bf4:	ea1ff06f          	j	4a94 <cbvprintf+0x12c>
	size_t prec = extract_decimal(&sp);
    4bf8:	01410513          	addi	a0,sp,20
    4bfc:	b41ff0ef          	jal	ra,473c <extract_decimal>
	conv->unsupported |= ((conv->prec_value < 0)
    4c00:	04012783          	lw	a5,64(sp)
    4c04:	04015703          	lhu	a4,64(sp)
	conv->prec_value = prec;
    4c08:	04a12423          	sw	a0,72(sp)
	conv->unsupported |= ((conv->prec_value < 0)
    4c0c:	0017d793          	srli	a5,a5,0x1
    4c10:	0017f793          	andi	a5,a5,1
			      || (prec != (size_t)conv->prec_value));
    4c14:	01f55513          	srli	a0,a0,0x1f
	conv->unsupported |= ((conv->prec_value < 0)
    4c18:	00a7e7b3          	or	a5,a5,a0
    4c1c:	00179793          	slli	a5,a5,0x1
    4c20:	ffd77713          	andi	a4,a4,-3
    4c24:	00f767b3          	or	a5,a4,a5
    4c28:	04f11023          	sh	a5,64(sp)
	return sp;
    4c2c:	01412783          	lw	a5,20(sp)
    4c30:	eb1ff06f          	j	4ae0 <cbvprintf+0x178>
	switch (*sp) {
    4c34:	07400693          	li	a3,116
    4c38:	04015703          	lhu	a4,64(sp)
    4c3c:	10d60e63          	beq	a2,a3,4d58 <cbvprintf+0x3f0>
    4c40:	07a00693          	li	a3,122
    4c44:	ecd614e3          	bne	a2,a3,4b0c <cbvprintf+0x1a4>
		conv->length_mod = LENGTH_Z;
    4c48:	ffff87b7          	lui	a5,0xffff8
    4c4c:	7ff78793          	addi	a5,a5,2047 # ffff87ff <CONFIG_SYSTEM_WORKQUEUE_PRIORITY+0xffff8800>
    4c50:	00e7f7b3          	and	a5,a5,a4
    4c54:	00003737          	lui	a4,0x3
		conv->unsupported = true;
    4c58:	00e7e7b3          	or	a5,a5,a4
    4c5c:	04f11023          	sh	a5,64(sp)
		break;
    4c60:	0300006f          	j	4c90 <cbvprintf+0x328>
		if (*++sp == 'h') {
    4c64:	04015503          	lhu	a0,64(sp)
    4c68:	0017c803          	lbu	a6,1(a5)
    4c6c:	ffff86b7          	lui	a3,0xffff8
    4c70:	7ff68713          	addi	a4,a3,2047 # ffff87ff <CONFIG_SYSTEM_WORKQUEUE_PRIORITY+0xffff8800>
			conv->length_mod = LENGTH_HH;
    4c74:	00a77733          	and	a4,a4,a0
		if (*++sp == 'h') {
    4c78:	08c81463          	bne	a6,a2,4d00 <cbvprintf+0x398>
			conv->length_mod = LENGTH_HH;
    4c7c:	000016b7          	lui	a3,0x1
    4c80:	80068693          	addi	a3,a3,-2048 # 800 <CONFIG_ISR_STACK_SIZE>
			conv->length_mod = LENGTH_LL;
    4c84:	00d76733          	or	a4,a4,a3
    4c88:	04e11023          	sh	a4,64(sp)
			++sp;
    4c8c:	00278593          	addi	a1,a5,2
	conv->specifier = *sp++;
    4c90:	0005c703          	lbu	a4,0(a1)
	switch (conv->specifier) {
    4c94:	07800793          	li	a5,120
	conv->specifier = *sp++;
    4c98:	00158a13          	addi	s4,a1,1
    4c9c:	04e101a3          	sb	a4,67(sp)
	switch (conv->specifier) {
    4ca0:	1ae7ee63          	bltu	a5,a4,4e5c <cbvprintf+0x4f4>
    4ca4:	05700793          	li	a5,87
    4ca8:	0ee7e063          	bltu	a5,a4,4d88 <cbvprintf+0x420>
    4cac:	04100793          	li	a5,65
    4cb0:	00f70a63          	beq	a4,a5,4cc4 <cbvprintf+0x35c>
    4cb4:	fbb70713          	addi	a4,a4,-69 # 2fbb <__subsf3+0x2bf>
    4cb8:	0ff77713          	andi	a4,a4,255
    4cbc:	00200793          	li	a5,2
    4cc0:	18e7ee63          	bltu	a5,a4,4e5c <cbvprintf+0x4f4>
		conv->specifier_cat = SPECIFIER_FP;
    4cc4:	04214783          	lbu	a5,66(sp)
    4cc8:	ff87f793          	andi	a5,a5,-8
    4ccc:	0047e793          	ori	a5,a5,4
    4cd0:	04f10123          	sb	a5,66(sp)
			unsupported = true;
    4cd4:	00100793          	li	a5,1
	conv->unsupported |= unsupported;
    4cd8:	04012703          	lw	a4,64(sp)
    4cdc:	00175713          	srli	a4,a4,0x1
    4ce0:	00177713          	andi	a4,a4,1
    4ce4:	00e7e7b3          	or	a5,a5,a4
    4ce8:	04015703          	lhu	a4,64(sp)
    4cec:	00179793          	slli	a5,a5,0x1
    4cf0:	ffd77713          	andi	a4,a4,-3
    4cf4:	00f767b3          	or	a5,a4,a5
    4cf8:	04f11023          	sh	a5,64(sp)
	return sp;
    4cfc:	e35ff06f          	j	4b30 <cbvprintf+0x1c8>
			conv->length_mod = LENGTH_H;
    4d00:	000017b7          	lui	a5,0x1
			conv->length_mod = LENGTH_L;
    4d04:	00f76733          	or	a4,a4,a5
    4d08:	04e11023          	sh	a4,64(sp)
    4d0c:	f85ff06f          	j	4c90 <cbvprintf+0x328>
		if (*++sp == 'l') {
    4d10:	04015503          	lhu	a0,64(sp)
    4d14:	0017c803          	lbu	a6,1(a5) # 1001 <__adddf3+0x48d>
    4d18:	ffff86b7          	lui	a3,0xffff8
    4d1c:	7ff68713          	addi	a4,a3,2047 # ffff87ff <CONFIG_SYSTEM_WORKQUEUE_PRIORITY+0xffff8800>
			conv->length_mod = LENGTH_LL;
    4d20:	00a77733          	and	a4,a4,a0
		if (*++sp == 'l') {
    4d24:	00c81663          	bne	a6,a2,4d30 <cbvprintf+0x3c8>
			conv->length_mod = LENGTH_LL;
    4d28:	000026b7          	lui	a3,0x2
    4d2c:	f59ff06f          	j	4c84 <cbvprintf+0x31c>
			conv->length_mod = LENGTH_L;
    4d30:	000027b7          	lui	a5,0x2
    4d34:	80078793          	addi	a5,a5,-2048 # 1800 <__divdf3+0x4b4>
    4d38:	fcdff06f          	j	4d04 <cbvprintf+0x39c>
		conv->length_mod = LENGTH_J;
    4d3c:	04015783          	lhu	a5,64(sp)
    4d40:	ffff8737          	lui	a4,0xffff8
    4d44:	7ff70713          	addi	a4,a4,2047 # ffff87ff <CONFIG_SYSTEM_WORKQUEUE_PRIORITY+0xffff8800>
    4d48:	00e7f7b3          	and	a5,a5,a4
    4d4c:	00003737          	lui	a4,0x3
		conv->length_mod = LENGTH_T;
    4d50:	80070713          	addi	a4,a4,-2048 # 2800 <__floatunsidf+0x20>
    4d54:	f05ff06f          	j	4c58 <cbvprintf+0x2f0>
    4d58:	ffff87b7          	lui	a5,0xffff8
    4d5c:	7ff78793          	addi	a5,a5,2047 # ffff87ff <CONFIG_SYSTEM_WORKQUEUE_PRIORITY+0xffff8800>
    4d60:	00e7f7b3          	and	a5,a5,a4
    4d64:	00004737          	lui	a4,0x4
    4d68:	fe9ff06f          	j	4d50 <cbvprintf+0x3e8>
		conv->unsupported = true;
    4d6c:	04015783          	lhu	a5,64(sp)
    4d70:	ffff8737          	lui	a4,0xffff8
    4d74:	7fd70713          	addi	a4,a4,2045 # ffff87fd <CONFIG_SYSTEM_WORKQUEUE_PRIORITY+0xffff87fe>
    4d78:	00e7f7b3          	and	a5,a5,a4
    4d7c:	00004737          	lui	a4,0x4
    4d80:	00270713          	addi	a4,a4,2 # 4002 <main+0xca>
    4d84:	ed5ff06f          	j	4c58 <cbvprintf+0x2f0>
	switch (conv->specifier) {
    4d88:	fa870793          	addi	a5,a4,-88
    4d8c:	0ff7f793          	andi	a5,a5,255
    4d90:	02000693          	li	a3,32
    4d94:	0cf6e463          	bltu	a3,a5,4e5c <cbvprintf+0x4f4>
    4d98:	00412683          	lw	a3,4(sp)
    4d9c:	00279793          	slli	a5,a5,0x2
    4da0:	00d787b3          	add	a5,a5,a3
    4da4:	0007a783          	lw	a5,0(a5)
    4da8:	00078067          	jr	a5
		conv->specifier_cat = SPECIFIER_SINT;
    4dac:	04214783          	lbu	a5,66(sp)
    4db0:	ff87f793          	andi	a5,a5,-8
    4db4:	0017e793          	ori	a5,a5,1
		if (conv->length_mod == LENGTH_UPPER_L) {
    4db8:	04015683          	lhu	a3,64(sp)
		conv->specifier_cat = SPECIFIER_UINT;
    4dbc:	04f10123          	sb	a5,66(sp)
		if (conv->length_mod == LENGTH_UPPER_L) {
    4dc0:	000087b7          	lui	a5,0x8
    4dc4:	80078793          	addi	a5,a5,-2048 # 7800 <__ieee754_exp+0x74>
    4dc8:	00f6f7b3          	and	a5,a3,a5
    4dcc:	01079793          	slli	a5,a5,0x10
    4dd0:	0107d793          	srli	a5,a5,0x10
    4dd4:	00004637          	lui	a2,0x4
    4dd8:	00c79663          	bne	a5,a2,4de4 <cbvprintf+0x47c>
			conv->invalid = true;
    4ddc:	0016e693          	ori	a3,a3,1
    4de0:	04d11023          	sh	a3,64(sp)
		if (conv->specifier == 'c') {
    4de4:	06300693          	li	a3,99
	bool unsupported = false;
    4de8:	00000793          	li	a5,0
		if (conv->specifier == 'c') {
    4dec:	eed716e3          	bne	a4,a3,4cd8 <cbvprintf+0x370>
		if (conv->length_mod != LENGTH_NONE) {
    4df0:	04015703          	lhu	a4,64(sp)
    4df4:	000087b7          	lui	a5,0x8
    4df8:	80078793          	addi	a5,a5,-2048 # 7800 <__ieee754_exp+0x74>
    4dfc:	00e7f7b3          	and	a5,a5,a4
    4e00:	00f037b3          	snez	a5,a5
    4e04:	ed5ff06f          	j	4cd8 <cbvprintf+0x370>
		conv->specifier_cat = SPECIFIER_UINT;
    4e08:	04214783          	lbu	a5,66(sp)
    4e0c:	ff87f793          	andi	a5,a5,-8
    4e10:	0027e793          	ori	a5,a5,2
    4e14:	fa5ff06f          	j	4db8 <cbvprintf+0x450>
		conv->specifier_cat = SPECIFIER_PTR;
    4e18:	04214783          	lbu	a5,66(sp)
		if (conv->length_mod == LENGTH_UPPER_L) {
    4e1c:	04015703          	lhu	a4,64(sp)
		conv->specifier_cat = SPECIFIER_PTR;
    4e20:	ff87f793          	andi	a5,a5,-8
    4e24:	0037e793          	ori	a5,a5,3
    4e28:	04f10123          	sb	a5,66(sp)
		if (conv->length_mod == LENGTH_UPPER_L) {
    4e2c:	000087b7          	lui	a5,0x8
    4e30:	80078793          	addi	a5,a5,-2048 # 7800 <__ieee754_exp+0x74>
    4e34:	00e7f7b3          	and	a5,a5,a4
    4e38:	ffffc737          	lui	a4,0xffffc
    4e3c:	00e787b3          	add	a5,a5,a4
    4e40:	0017b793          	seqz	a5,a5
    4e44:	e95ff06f          	j	4cd8 <cbvprintf+0x370>
		conv->specifier_cat = SPECIFIER_PTR;
    4e48:	04214783          	lbu	a5,66(sp)
    4e4c:	ff87f793          	andi	a5,a5,-8
    4e50:	0037e793          	ori	a5,a5,3
    4e54:	04f10123          	sb	a5,66(sp)
    4e58:	f99ff06f          	j	4df0 <cbvprintf+0x488>
		conv->invalid = true;
    4e5c:	04015783          	lhu	a5,64(sp)
    4e60:	0017e793          	ori	a5,a5,1
    4e64:	04f11023          	sh	a5,64(sp)
	bool unsupported = false;
    4e68:	00000793          	li	a5,0
		break;
    4e6c:	e6dff06f          	j	4cd8 <cbvprintf+0x370>
		} else if (conv->width_present) {
    4e70:	0807f793          	andi	a5,a5,128
    4e74:	00078863          	beqz	a5,4e84 <cbvprintf+0x51c>
			width = conv->width_value;
    4e78:	04412483          	lw	s1,68(sp)
    4e7c:	00040693          	mv	a3,s0
    4e80:	cd5ff06f          	j	4b54 <cbvprintf+0x1ec>
    4e84:	00040693          	mv	a3,s0
		int width = -1;
    4e88:	fff00493          	li	s1,-1
    4e8c:	cc9ff06f          	j	4b54 <cbvprintf+0x1ec>
		} else if (conv->prec_present) {
    4e90:	20077713          	andi	a4,a4,512
    4e94:	0a070063          	beqz	a4,4f34 <cbvprintf+0x5cc>
			precision = conv->prec_value;
    4e98:	04812a83          	lw	s5,72(sp)
    4e9c:	00068413          	mv	s0,a3
			= (enum specifier_cat_enum)conv->specifier_cat;
    4ea0:	04012583          	lw	a1,64(sp)
		conv->pad0_value = 0;
    4ea4:	04012223          	sw	zero,68(sp)
		conv->pad0_pre_exp = 0;
    4ea8:	04012423          	sw	zero,72(sp)
			= (enum specifier_cat_enum)conv->specifier_cat;
    4eac:	0105d693          	srli	a3,a1,0x10
			= (enum length_mod_enum)conv->length_mod;
    4eb0:	00b5d713          	srli	a4,a1,0xb
		enum specifier_cat_enum specifier_cat
    4eb4:	0076f693          	andi	a3,a3,7
		if (specifier_cat == SPECIFIER_SINT) {
    4eb8:	00100613          	li	a2,1
			= (enum length_mod_enum)conv->length_mod;
    4ebc:	00f77713          	andi	a4,a4,15
		if (specifier_cat == SPECIFIER_SINT) {
    4ec0:	0cc69863          	bne	a3,a2,4f90 <cbvprintf+0x628>
			switch (length_mod) {
    4ec4:	00500613          	li	a2,5
    4ec8:	08c70863          	beq	a4,a2,4f58 <cbvprintf+0x5f0>
    4ecc:	00e66a63          	bltu	a2,a4,4ee0 <cbvprintf+0x578>
    4ed0:	00300693          	li	a3,3
    4ed4:	06d70463          	beq	a4,a3,4f3c <cbvprintf+0x5d4>
    4ed8:	00400693          	li	a3,4
    4edc:	06d70e63          	beq	a4,a3,4f58 <cbvprintf+0x5f0>
					(sint_value_type)va_arg(ap, ptrdiff_t);
    4ee0:	00042683          	lw	a3,0(s0)
    4ee4:	00440413          	addi	s0,s0,4
    4ee8:	02d12823          	sw	a3,48(sp)
    4eec:	41f6d693          	srai	a3,a3,0x1f
    4ef0:	02d12a23          	sw	a3,52(sp)
			if (length_mod == LENGTH_HH) {
    4ef4:	00100693          	li	a3,1
    4ef8:	06d71e63          	bne	a4,a3,4f74 <cbvprintf+0x60c>
				value->uint = (unsigned char)value->uint;
    4efc:	03014683          	lbu	a3,48(sp)
				value->uint = (unsigned short)value->uint;
    4f00:	02d12823          	sw	a3,48(sp)
    4f04:	02012a23          	sw	zero,52(sp)
		if (conv->invalid || conv->unsupported) {
    4f08:	0035f593          	andi	a1,a1,3
    4f0c:	14058863          	beqz	a1,505c <cbvprintf+0x6f4>
			OUTS(sp, fp);
    4f10:	000a0693          	mv	a3,s4
    4f14:	000c8613          	mv	a2,s9
    4f18:	00098593          	mv	a1,s3
    4f1c:	00090513          	mv	a0,s2
    4f20:	9d1ff0ef          	jal	ra,48f0 <outs>
    4f24:	44054e63          	bltz	a0,5380 <cbvprintf+0xa18>
    4f28:	00ad8db3          	add	s11,s11,a0
			OUTS(bps, bpe);
    4f2c:	000a0c93          	mv	s9,s4
    4f30:	aadff06f          	j	49dc <cbvprintf+0x74>
    4f34:	00068413          	mv	s0,a3
    4f38:	c3dff06f          	j	4b74 <cbvprintf+0x20c>
					value->sint = va_arg(ap, long);
    4f3c:	00042683          	lw	a3,0(s0)
				value->sint = va_arg(ap, int);
    4f40:	00440513          	addi	a0,s0,4
					value->sint = va_arg(ap, long);
    4f44:	02d12823          	sw	a3,48(sp)
    4f48:	41f6d693          	srai	a3,a3,0x1f
				value->sint =
    4f4c:	02d12a23          	sw	a3,52(sp)
					(uint_value_type)va_arg(ap, size_t);
    4f50:	00050413          	mv	s0,a0
    4f54:	fb5ff06f          	j	4f08 <cbvprintf+0x5a0>
					(sint_value_type)va_arg(ap, long long);
    4f58:	00740413          	addi	s0,s0,7
    4f5c:	ff847413          	andi	s0,s0,-8
				value->sint =
    4f60:	00042603          	lw	a2,0(s0)
    4f64:	00442683          	lw	a3,4(s0)
					(sint_value_type)va_arg(ap, long long);
    4f68:	00840513          	addi	a0,s0,8
				value->sint =
    4f6c:	02c12823          	sw	a2,48(sp)
    4f70:	fddff06f          	j	4f4c <cbvprintf+0x5e4>
			} else if (length_mod == LENGTH_H) {
    4f74:	00200693          	li	a3,2
    4f78:	f8d718e3          	bne	a4,a3,4f08 <cbvprintf+0x5a0>
				value->sint = (short)value->sint;
    4f7c:	03011683          	lh	a3,48(sp)
    4f80:	02d12823          	sw	a3,48(sp)
    4f84:	41f6d693          	srai	a3,a3,0x1f
				value->dbl = va_arg(ap, double);
    4f88:	02d12a23          	sw	a3,52(sp)
    4f8c:	f7dff06f          	j	4f08 <cbvprintf+0x5a0>
		} else if (specifier_cat == SPECIFIER_UINT) {
    4f90:	00200513          	li	a0,2
    4f94:	04a69e63          	bne	a3,a0,4ff0 <cbvprintf+0x688>
			switch (length_mod) {
    4f98:	00500693          	li	a3,5
    4f9c:	fad70ee3          	beq	a4,a3,4f58 <cbvprintf+0x5f0>
    4fa0:	00e6ea63          	bltu	a3,a4,4fb4 <cbvprintf+0x64c>
    4fa4:	00300693          	li	a3,3
    4fa8:	02d70a63          	beq	a4,a3,4fdc <cbvprintf+0x674>
    4fac:	00400693          	li	a3,4
    4fb0:	fad704e3          	beq	a4,a3,4f58 <cbvprintf+0x5f0>
					(uint_value_type)va_arg(ap, size_t);
    4fb4:	00042683          	lw	a3,0(s0)
    4fb8:	02012a23          	sw	zero,52(sp)
    4fbc:	00440413          	addi	s0,s0,4
    4fc0:	02d12823          	sw	a3,48(sp)
			if (length_mod == LENGTH_HH) {
    4fc4:	00100693          	li	a3,1
    4fc8:	f2d70ae3          	beq	a4,a3,4efc <cbvprintf+0x594>
			} else if (length_mod == LENGTH_H) {
    4fcc:	00200693          	li	a3,2
    4fd0:	f2d71ce3          	bne	a4,a3,4f08 <cbvprintf+0x5a0>
				value->uint = (unsigned short)value->uint;
    4fd4:	03015683          	lhu	a3,48(sp)
    4fd8:	f29ff06f          	j	4f00 <cbvprintf+0x598>
					value->uint = va_arg(ap, unsigned long);
    4fdc:	00042683          	lw	a3,0(s0)
    4fe0:	00440513          	addi	a0,s0,4
    4fe4:	02012a23          	sw	zero,52(sp)
    4fe8:	02d12823          	sw	a3,48(sp)
				break;
    4fec:	f65ff06f          	j	4f50 <cbvprintf+0x5e8>
		} else if (specifier_cat == SPECIFIER_FP) {
    4ff0:	00400613          	li	a2,4
    4ff4:	04c69a63          	bne	a3,a2,5048 <cbvprintf+0x6e0>
			if (length_mod == LENGTH_UPPER_L) {
    4ff8:	00800693          	li	a3,8
    4ffc:	02d71863          	bne	a4,a3,502c <cbvprintf+0x6c4>
				value->ldbl = va_arg(ap, long double);
    5000:	00042683          	lw	a3,0(s0)
    5004:	0006a803          	lw	a6,0(a3) # 2000 <CONFIG_SRAM_SIZE>
    5008:	0046a503          	lw	a0,4(a3)
    500c:	0086a603          	lw	a2,8(a3)
    5010:	00c6a683          	lw	a3,12(a3)
    5014:	03012823          	sw	a6,48(sp)
    5018:	02a12a23          	sw	a0,52(sp)
    501c:	02c12c23          	sw	a2,56(sp)
    5020:	02d12e23          	sw	a3,60(sp)
			value->ptr = va_arg(ap, void *);
    5024:	00440413          	addi	s0,s0,4
    5028:	ee1ff06f          	j	4f08 <cbvprintf+0x5a0>
				value->dbl = va_arg(ap, double);
    502c:	00740693          	addi	a3,s0,7
    5030:	ff86f693          	andi	a3,a3,-8
    5034:	0006a603          	lw	a2,0(a3)
    5038:	00868413          	addi	s0,a3,8
    503c:	0046a683          	lw	a3,4(a3)
    5040:	02c12823          	sw	a2,48(sp)
    5044:	f45ff06f          	j	4f88 <cbvprintf+0x620>
		} else if (specifier_cat == SPECIFIER_PTR) {
    5048:	00300613          	li	a2,3
    504c:	eac69ee3          	bne	a3,a2,4f08 <cbvprintf+0x5a0>
			value->ptr = va_arg(ap, void *);
    5050:	00042683          	lw	a3,0(s0)
    5054:	02d12823          	sw	a3,48(sp)
    5058:	fcdff06f          	j	5024 <cbvprintf+0x6bc>
		switch (conv->specifier) {
    505c:	04314683          	lbu	a3,67(sp)
    5060:	07800613          	li	a2,120
    5064:	ecd664e3          	bltu	a2,a3,4f2c <cbvprintf+0x5c4>
    5068:	06200613          	li	a2,98
    506c:	00d66e63          	bltu	a2,a3,5088 <cbvprintf+0x720>
    5070:	02500713          	li	a4,37
    5074:	02e68c63          	beq	a3,a4,50ac <cbvprintf+0x744>
    5078:	05800713          	li	a4,88
    507c:	eae698e3          	bne	a3,a4,4f2c <cbvprintf+0x5c4>
    5080:	00000b13          	li	s6,0
    5084:	1fc0006f          	j	5280 <cbvprintf+0x918>
    5088:	f9d68693          	addi	a3,a3,-99
    508c:	0ff6f693          	andi	a3,a3,255
    5090:	01500613          	li	a2,21
    5094:	e8d66ce3          	bltu	a2,a3,4f2c <cbvprintf+0x5c4>
    5098:	00812783          	lw	a5,8(sp)
    509c:	00269693          	slli	a3,a3,0x2
    50a0:	00f686b3          	add	a3,a3,a5
    50a4:	0006a683          	lw	a3,0(a3)
    50a8:	00068067          	jr	a3
			OUTC('%');
    50ac:	00098593          	mv	a1,s3
    50b0:	02500513          	li	a0,37
    50b4:	94dff06f          	j	4a00 <cbvprintf+0x98>
			bps = (const char *)value->ptr;
    50b8:	03012c83          	lw	s9,48(sp)
			if (precision >= 0) {
    50bc:	160ac063          	bltz	s5,521c <cbvprintf+0x8b4>
				len = strnlen(bps, precision);
    50c0:	000a8593          	mv	a1,s5
    50c4:	000c8513          	mv	a0,s9
    50c8:	561030ef          	jal	ra,8e28 <strnlen>
			bpe = bps + len;
    50cc:	00ac8d33          	add	s10,s9,a0
		char sign = 0;
    50d0:	00000b13          	li	s6,0
		if (bps == NULL) {
    50d4:	e40c8ce3          	beqz	s9,4f2c <cbvprintf+0x5c4>
		size_t nj_len = (bpe - bps);
    50d8:	419d07b3          	sub	a5,s10,s9
		if (sign != 0) {
    50dc:	000b0463          	beqz	s6,50e4 <cbvprintf+0x77c>
			nj_len += 1U;
    50e0:	00178793          	addi	a5,a5,1
		if (conv->altform_0c) {
    50e4:	04214703          	lbu	a4,66(sp)
    50e8:	01077693          	andi	a3,a4,16
    50ec:	26068663          	beqz	a3,5358 <cbvprintf+0x9f0>
			nj_len += 2U;
    50f0:	00278793          	addi	a5,a5,2
		nj_len += conv->pad0_value;
    50f4:	04412683          	lw	a3,68(sp)
		if (conv->pad_fp) {
    50f8:	04077713          	andi	a4,a4,64
		nj_len += conv->pad0_value;
    50fc:	00d787b3          	add	a5,a5,a3
		if (conv->pad_fp) {
    5100:	00070663          	beqz	a4,510c <cbvprintf+0x7a4>
			nj_len += conv->pad0_pre_exp;
    5104:	04812703          	lw	a4,72(sp)
    5108:	00e787b3          	add	a5,a5,a4
		if (width > 0) {
    510c:	04905c63          	blez	s1,5164 <cbvprintf+0x7fc>
			width -= (int)nj_len;
    5110:	40f484b3          	sub	s1,s1,a5
			if (!conv->flag_dash) {
    5114:	04012783          	lw	a5,64(sp)
    5118:	0027d793          	srli	a5,a5,0x2
    511c:	0017f793          	andi	a5,a5,1
    5120:	04079263          	bnez	a5,5164 <cbvprintf+0x7fc>
				if (conv->flag_zero) {
    5124:	04015783          	lhu	a5,64(sp)
    5128:	0407f793          	andi	a5,a5,64
    512c:	28078863          	beqz	a5,53bc <cbvprintf+0xa54>
					if (sign != 0) {
    5130:	280b0a63          	beqz	s6,53c4 <cbvprintf+0xa5c>
						OUTC(sign);
    5134:	00098593          	mv	a1,s3
    5138:	000b0513          	mv	a0,s6
    513c:	000900e7          	jalr	s2
    5140:	24054063          	bltz	a0,5380 <cbvprintf+0xa18>
    5144:	001d8d93          	addi	s11,s11,1
					pad = '0';
    5148:	03000793          	li	a5,48
						sign = 0;
    514c:	00000b13          	li	s6,0
    5150:	01b48ab3          	add	s5,s1,s11
    5154:	00048713          	mv	a4,s1
    5158:	409a8db3          	sub	s11,s5,s1
				while (width-- > 0) {
    515c:	fff48493          	addi	s1,s1,-1
    5160:	20e04463          	bgtz	a4,5368 <cbvprintf+0xa00>
		if (sign != 0) {
    5164:	000b0c63          	beqz	s6,517c <cbvprintf+0x814>
			OUTC(sign);
    5168:	00098593          	mv	a1,s3
    516c:	000b0513          	mv	a0,s6
    5170:	000900e7          	jalr	s2
    5174:	20054663          	bltz	a0,5380 <cbvprintf+0xa18>
    5178:	001d8d93          	addi	s11,s11,1
			if (conv->altform_0c | conv->altform_0) {
    517c:	04012783          	lw	a5,64(sp)
    5180:	0147d713          	srli	a4,a5,0x14
    5184:	00177713          	andi	a4,a4,1
    5188:	00071863          	bnez	a4,5198 <cbvprintf+0x830>
    518c:	0137d793          	srli	a5,a5,0x13
    5190:	0017f793          	andi	a5,a5,1
    5194:	00078c63          	beqz	a5,51ac <cbvprintf+0x844>
				OUTC('0');
    5198:	00098593          	mv	a1,s3
    519c:	03000513          	li	a0,48
    51a0:	000900e7          	jalr	s2
    51a4:	1c054e63          	bltz	a0,5380 <cbvprintf+0xa18>
    51a8:	001d8d93          	addi	s11,s11,1
			if (conv->altform_0c) {
    51ac:	04214783          	lbu	a5,66(sp)
    51b0:	0107f793          	andi	a5,a5,16
    51b4:	00078c63          	beqz	a5,51cc <cbvprintf+0x864>
				OUTC(conv->specifier);
    51b8:	04314503          	lbu	a0,67(sp)
    51bc:	00098593          	mv	a1,s3
    51c0:	000900e7          	jalr	s2
    51c4:	1a054e63          	bltz	a0,5380 <cbvprintf+0xa18>
    51c8:	001d8d93          	addi	s11,s11,1
			while (pad_len-- > 0) {
    51cc:	04412783          	lw	a5,68(sp)
    51d0:	01b78ab3          	add	s5,a5,s11
    51d4:	41ba8733          	sub	a4,s5,s11
    51d8:	1ee04a63          	bgtz	a4,53cc <cbvprintf+0xa64>
			OUTS(bps, bpe);
    51dc:	000d0693          	mv	a3,s10
    51e0:	000c8613          	mv	a2,s9
    51e4:	00098593          	mv	a1,s3
    51e8:	00090513          	mv	a0,s2
    51ec:	f04ff0ef          	jal	ra,48f0 <outs>
    51f0:	18054863          	bltz	a0,5380 <cbvprintf+0xa18>
    51f4:	01b50db3          	add	s11,a0,s11
		while (width > 0) {
    51f8:	01b484b3          	add	s1,s1,s11
    51fc:	41b487b3          	sub	a5,s1,s11
    5200:	d2f056e3          	blez	a5,4f2c <cbvprintf+0x5c4>
			OUTC(' ');
    5204:	00098593          	mv	a1,s3
    5208:	02000513          	li	a0,32
    520c:	000900e7          	jalr	s2
    5210:	16054863          	bltz	a0,5380 <cbvprintf+0xa18>
    5214:	001d8d93          	addi	s11,s11,1
			--width;
    5218:	fe5ff06f          	j	51fc <cbvprintf+0x894>
				len = strlen(bps);
    521c:	000c8513          	mv	a0,s9
    5220:	3ed030ef          	jal	ra,8e0c <strlen>
    5224:	ea9ff06f          	j	50cc <cbvprintf+0x764>
			buf[0] = CHAR_IS_SIGNED ? value->sint : value->uint;
    5228:	03012783          	lw	a5,48(sp)
			bpe = buf + 1;
    522c:	01910d13          	addi	s10,sp,25
			bps = buf;
    5230:	01810c93          	addi	s9,sp,24
			buf[0] = CHAR_IS_SIGNED ? value->sint : value->uint;
    5234:	00f10c23          	sb	a5,24(sp)
			break;
    5238:	00000b13          	li	s6,0
    523c:	e9dff06f          	j	50d8 <cbvprintf+0x770>
			if (conv->flag_plus) {
    5240:	04015703          	lhu	a4,64(sp)
				sign = '+';
    5244:	02b00b13          	li	s6,43
			if (conv->flag_plus) {
    5248:	00877693          	andi	a3,a4,8
    524c:	00069663          	bnez	a3,5258 <cbvprintf+0x8f0>
				sign = ' ';
    5250:	00171b13          	slli	s6,a4,0x1
    5254:	020b7b13          	andi	s6,s6,32
			sint = value->sint;
    5258:	03412703          	lw	a4,52(sp)
    525c:	03012683          	lw	a3,48(sp)
			if (sint < 0) {
    5260:	02075063          	bgez	a4,5280 <cbvprintf+0x918>
				value->uint = (uint_value_type)-sint;
    5264:	40d00633          	neg	a2,a3
    5268:	40e00733          	neg	a4,a4
    526c:	00d036b3          	snez	a3,a3
    5270:	40d70733          	sub	a4,a4,a3
    5274:	02c12823          	sw	a2,48(sp)
    5278:	02e12a23          	sw	a4,52(sp)
				sign = '-';
    527c:	02d00b13          	li	s6,45
			bps = encode_uint(value->uint, conv, buf, bpe);
    5280:	03012503          	lw	a0,48(sp)
    5284:	03412583          	lw	a1,52(sp)
    5288:	02e10713          	addi	a4,sp,46
    528c:	01810693          	addi	a3,sp,24
    5290:	04010613          	addi	a2,sp,64
    5294:	cf0ff0ef          	jal	ra,4784 <encode_uint>
    5298:	00050c93          	mv	s9,a0
			if (precision >= 0) {
    529c:	02e10d13          	addi	s10,sp,46
    52a0:	e20acae3          	bltz	s5,50d4 <cbvprintf+0x76c>
				conv->flag_zero = false;
    52a4:	04015683          	lhu	a3,64(sp)
				size_t len = bpe - bps;
    52a8:	419d0733          	sub	a4,s10,s9
				conv->flag_zero = false;
    52ac:	fbf6f693          	andi	a3,a3,-65
    52b0:	04d11023          	sh	a3,64(sp)
				if (len < (size_t)precision) {
    52b4:	e35770e3          	bgeu	a4,s5,50d4 <cbvprintf+0x76c>
					conv->pad0_value = precision - (int)len;
    52b8:	40ea87b3          	sub	a5,s5,a4
    52bc:	04f12223          	sw	a5,68(sp)
    52c0:	e15ff06f          	j	50d4 <cbvprintf+0x76c>
			if (value->ptr != NULL) {
    52c4:	03012503          	lw	a0,48(sp)
    52c8:	08050063          	beqz	a0,5348 <cbvprintf+0x9e0>
				bps = encode_uint((uintptr_t)value->ptr, conv,
    52cc:	02e10713          	addi	a4,sp,46
    52d0:	01810693          	addi	a3,sp,24
    52d4:	04010613          	addi	a2,sp,64
    52d8:	00000593          	li	a1,0
    52dc:	ca8ff0ef          	jal	ra,4784 <encode_uint>
				conv->altform_0c = true;
    52e0:	04215703          	lhu	a4,66(sp)
    52e4:	000086b7          	lui	a3,0x8
    52e8:	81068693          	addi	a3,a3,-2032 # 7810 <__ieee754_exp+0x84>
    52ec:	0ef77713          	andi	a4,a4,239
    52f0:	00d76733          	or	a4,a4,a3
				bps = encode_uint((uintptr_t)value->ptr, conv,
    52f4:	00050c93          	mv	s9,a0
				conv->altform_0c = true;
    52f8:	04e11123          	sh	a4,66(sp)
		char sign = 0;
    52fc:	00000b13          	li	s6,0
				goto prec_int_pad0;
    5300:	f9dff06f          	j	529c <cbvprintf+0x934>
	switch ((enum length_mod_enum)conv->length_mod) {
    5304:	00700693          	li	a3,7
				store_count(conv, value->ptr, count);
    5308:	03012783          	lw	a5,48(sp)
	switch ((enum length_mod_enum)conv->length_mod) {
    530c:	c2e6e0e3          	bltu	a3,a4,4f2c <cbvprintf+0x5c4>
    5310:	00271713          	slli	a4,a4,0x2
    5314:	01770733          	add	a4,a4,s7
    5318:	00072703          	lw	a4,0(a4) # ffffc000 <CONFIG_SYSTEM_WORKQUEUE_PRIORITY+0xffffc001>
    531c:	00070067          	jr	a4
		*(signed char *)dp = (signed char)count;
    5320:	01b78023          	sb	s11,0(a5)
		break;
    5324:	c09ff06f          	j	4f2c <cbvprintf+0x5c4>
		*(short *)dp = (short)count;
    5328:	01b79023          	sh	s11,0(a5)
		break;
    532c:	c01ff06f          	j	4f2c <cbvprintf+0x5c4>
		*(intmax_t *)dp = (intmax_t)count;
    5330:	41fdd713          	srai	a4,s11,0x1f
    5334:	01b7a023          	sw	s11,0(a5)
    5338:	00e7a223          	sw	a4,4(a5)
		break;
    533c:	bf1ff06f          	j	4f2c <cbvprintf+0x5c4>
		*(ptrdiff_t *)dp = (ptrdiff_t)count;
    5340:	01b7a023          	sw	s11,0(a5)
		break;
    5344:	be9ff06f          	j	4f2c <cbvprintf+0x5c4>
			bps = "(nil)";
    5348:	0000dcb7          	lui	s9,0xd
			bpe = bps + 5;
    534c:	000c0d13          	mv	s10,s8
			bps = "(nil)";
    5350:	bb4c8c93          	addi	s9,s9,-1100 # cbb4 <__mprec_tens+0x20c>
    5354:	ee5ff06f          	j	5238 <cbvprintf+0x8d0>
		} else if (conv->altform_0) {
    5358:	00877693          	andi	a3,a4,8
    535c:	d8068ce3          	beqz	a3,50f4 <cbvprintf+0x78c>
			nj_len += 1U;
    5360:	00178793          	addi	a5,a5,1
    5364:	d91ff06f          	j	50f4 <cbvprintf+0x78c>
					OUTC(pad);
    5368:	00078513          	mv	a0,a5
    536c:	00098593          	mv	a1,s3
    5370:	00f12623          	sw	a5,12(sp)
    5374:	000900e7          	jalr	s2
    5378:	00c12783          	lw	a5,12(sp)
    537c:	dc055ce3          	bgez	a0,5154 <cbvprintf+0x7ec>
#undef OUTS
#undef OUTC
}
    5380:	08c12083          	lw	ra,140(sp)
    5384:	08812403          	lw	s0,136(sp)
    5388:	08412483          	lw	s1,132(sp)
    538c:	08012903          	lw	s2,128(sp)
    5390:	07c12983          	lw	s3,124(sp)
    5394:	07812a03          	lw	s4,120(sp)
    5398:	07412a83          	lw	s5,116(sp)
    539c:	07012b03          	lw	s6,112(sp)
    53a0:	06c12b83          	lw	s7,108(sp)
    53a4:	06812c03          	lw	s8,104(sp)
    53a8:	06412c83          	lw	s9,100(sp)
    53ac:	06012d03          	lw	s10,96(sp)
    53b0:	05c12d83          	lw	s11,92(sp)
    53b4:	09010113          	addi	sp,sp,144
    53b8:	00008067          	ret
				char pad = ' ';
    53bc:	02000793          	li	a5,32
    53c0:	d91ff06f          	j	5150 <cbvprintf+0x7e8>
					pad = '0';
    53c4:	03000793          	li	a5,48
    53c8:	d89ff06f          	j	5150 <cbvprintf+0x7e8>
				OUTC('0');
    53cc:	00098593          	mv	a1,s3
    53d0:	03000513          	li	a0,48
    53d4:	000900e7          	jalr	s2
    53d8:	fa0544e3          	bltz	a0,5380 <cbvprintf+0xa18>
    53dc:	001d8d93          	addi	s11,s11,1
    53e0:	df5ff06f          	j	51d4 <cbvprintf+0x86c>

000053e4 <_ConfigAbsSyms>:
GEN_ABSOLUTE_SYM_KCONFIG(CONFIG_OUTPUT_DISASSEMBLY, 1);
GEN_ABSOLUTE_SYM_KCONFIG(CONFIG_OUTPUT_PRINT_MEMORY_USAGE, 1);
GEN_ABSOLUTE_SYM_KCONFIG(CONFIG_BUILD_OUTPUT_BIN, 1);
GEN_ABSOLUTE_SYM_KCONFIG(CONFIG_COMPAT_INCLUDES, 1);

GEN_ABS_SYM_END
    53e4:	00008067          	ret

000053e8 <soc_interrupt_init>:
static ALWAYS_INLINE unsigned int arch_irq_lock(void)
{
	unsigned int key;
	ulong_t mstatus;

	__asm__ volatile ("csrrc %0, mstatus, %1"
    53e8:	00800793          	li	a5,8
    53ec:	3007b7f3          	csrrc	a5,mstatus,a5
void soc_interrupt_init(void)
{
	/* ensure that all interrupts are disabled */
	(void)irq_lock();

	__asm__ volatile ("csrwi mie, 0\n"
    53f0:	30405073          	csrwi	mie,0
    53f4:	34405073          	csrwi	mip,0
			  "csrwi mip, 0\n");
}
    53f8:	00008067          	ret

000053fc <fix_baud_rate>:
	*(volatile uint16_t *)addr = data;
}

static ALWAYS_INLINE uint32_t sys_read32(mem_addr_t addr)
{
	return *(volatile uint32_t *)addr;
    53fc:	800017b7          	lui	a5,0x80001
    5400:	03c7a783          	lw	a5,60(a5) # 8000103c <CONFIG_SYSTEM_WORKQUEUE_PRIORITY+0x8000103d>

	/*
	 * calculate baud rate divisor. a variant of
	 * (uint32_t)(dev_cfg->sys_clk_freq / (16.0 * baud_rate) + 0.5)
	 */
	divisor = ((sys_clk_freq + (baud_rate << 3))
    5404:	000e1737          	lui	a4,0xe1
	return *(volatile uint8_t *)addr;
    5408:	800026b7          	lui	a3,0x80002
    540c:	00e787b3          	add	a5,a5,a4
		   / baud_rate) >> 4;
    5410:	0001c737          	lui	a4,0x1c
    5414:	20070713          	addi	a4,a4,512 # 1c200 <W1+0xcae0>
    5418:	02e7d7b3          	divu	a5,a5,a4
    541c:	00c6c703          	lbu	a4,12(a3) # 8000200c <CONFIG_SYSTEM_WORKQUEUE_PRIORITY+0x8000200d>
	sys_write8((divisor >> 8) & 0xff, REG_BRDH);

	sys_write8(lcr_cache, REG_LCR);

	return 0;
}
    5420:	00000513          	li	a0,0
    5424:	0ff77613          	andi	a2,a4,255
	sys_write8(lcr_cache | LCR_DLAB, REG_LCR);
    5428:	f8076713          	ori	a4,a4,-128
    542c:	0ff77713          	andi	a4,a4,255
	*(volatile uint8_t *)addr = data;
    5430:	00e68623          	sb	a4,12(a3)
	divisor = ((sys_clk_freq + (baud_rate << 3))
    5434:	0047d713          	srli	a4,a5,0x4
	sys_write8( divisor       & 0xff, REG_BRDL);
    5438:	0ff77713          	andi	a4,a4,255
	sys_write8((divisor >> 8) & 0xff, REG_BRDH);
    543c:	00c7d793          	srli	a5,a5,0xc
    5440:	00e68023          	sb	a4,0(a3)
    5444:	0ff7f793          	andi	a5,a5,255
    5448:	00f68223          	sb	a5,4(a3)
    544c:	00c68623          	sb	a2,12(a3)
}
    5450:	00008067          	ret

00005454 <arch_cpu_idle>:
 */
static ALWAYS_INLINE void arch_irq_unlock(unsigned int key)
{
	ulong_t mstatus;

	__asm__ volatile ("csrrs %0, mstatus, %1"
    5454:	00800793          	li	a5,8
    5458:	3007a7f3          	csrrs	a5,mstatus,a5
 */

void __weak arch_cpu_idle(void)
{
	irq_unlock(MSTATUS_IEN);
}
    545c:	00008067          	ret

00005460 <z_riscv_fatal_error>:
 #define NO_REG "                "
#endif

FUNC_NORETURN void z_riscv_fatal_error(unsigned int reason,
				       const z_arch_esf_t *esf)
{
    5460:	ff010113          	addi	sp,sp,-16
    5464:	00112623          	sw	ra,12(sp)
		LOG_ERR("   mepc: " PR_REG, esf->mepc);
		LOG_ERR("mstatus: " PR_REG, esf->mstatus);
		LOG_ERR("");
	}

	z_fatal_error(reason, esf);
    5468:	415000ef          	jal	ra,607c <z_fatal_error>

0000546c <_Fault>:
		return "unknown";
	}
}

void _Fault(z_arch_esf_t *esf)
{
    546c:	ff010113          	addi	sp,sp,-16
    5470:	00112623          	sw	ra,12(sp)
    5474:	00050593          	mv	a1,a0
		}
	}
#endif /* CONFIG_USERSPACE */
	ulong_t mcause;

	__asm__ volatile("csrr %0, mcause" : "=r" (mcause));
    5478:	342027f3          	csrr	a5,mcause

#ifndef CONFIG_SOC_OPENISA_RV32M1_RISCV32
	ulong_t mtval;
	__asm__ volatile("csrr %0, mtval" : "=r" (mtval));
    547c:	343027f3          	csrr	a5,mtval
	z_fatal_error(reason, esf);
    5480:	00000513          	li	a0,0
    5484:	3f9000ef          	jal	ra,607c <z_fatal_error>

00005488 <z_irq_spurious>:
#include <kernel_internal.h>
#include <logging/log.h>
LOG_MODULE_DECLARE(os, CONFIG_KERNEL_LOG_LEVEL);

FUNC_NORETURN void z_irq_spurious(const void *unused)
{
    5488:	ff010113          	addi	sp,sp,-16
    548c:	00112623          	sw	ra,12(sp)
	ulong_t mcause;

	ARG_UNUSED(unused);

	__asm__ volatile("csrr %0, mcause" : "=r" (mcause));
    5490:	342027f3          	csrr	a5,mcause
	if (mcause == RISCV_MACHINE_EXT_IRQ) {
		LOG_ERR("PLIC interrupt line causing the IRQ: %d",
			riscv_plic_get_irq());
	}
#endif
	z_riscv_fatal_error(K_ERR_SPURIOUS_IRQ, NULL);
    5494:	00000593          	li	a1,0
    5498:	00100513          	li	a0,1
    549c:	fc5ff0ef          	jal	ra,5460 <z_riscv_fatal_error>

000054a0 <_PrepC>:
 *
 * @return N/A
 */

void _PrepC(void)
{
    54a0:	ff010113          	addi	sp,sp,-16
    54a4:	00112623          	sw	ra,12(sp)
	z_bss_zero();
    54a8:	509000ef          	jal	ra,61b0 <z_bss_zero>
#ifdef CONFIG_XIP
	z_data_copy();
#endif
#if defined(CONFIG_RISCV_SOC_INTERRUPT_INIT)
	soc_interrupt_init();
    54ac:	f3dff0ef          	jal	ra,53e8 <soc_interrupt_init>
#endif
#ifdef CONFIG_PMP_STACK_GUARD
	z_riscv_configure_interrupt_stack_guard();
#endif
	z_cstart();
    54b0:	521000ef          	jal	ra,61d0 <z_cstart>

000054b4 <__initialize>:
SECTION_FUNC(TEXT, __initialize)
	/*
	 * This will boot master core, just halt other cores.
	 * Note: need to be updated for complete SMP support
	 */
	csrr a0, mhartid
    54b4:	f1402573          	csrr	a0,mhartid
	beqz a0, boot_master_core
    54b8:	00050663          	beqz	a0,54c4 <boot_master_core>

000054bc <loop_slave_core>:

loop_slave_core:
	wfi
    54bc:	10500073          	wfi
	j loop_slave_core
    54c0:	ffdff06f          	j	54bc <loop_slave_core>

000054c4 <boot_master_core>:

	/*
	 * Initially, setup stack pointer to
	 * z_interrupt_stacks + CONFIG_ISR_STACK_SIZE
	 */
	la sp, z_interrupt_stacks
    54c4:	0000a117          	auipc	sp,0xa
    54c8:	a5c10113          	addi	sp,sp,-1444 # ef20 <z_interrupt_stacks>
	li t0, CONFIG_ISR_STACK_SIZE
    54cc:	000012b7          	lui	t0,0x1
    54d0:	80028293          	addi	t0,t0,-2048 # 800 <CONFIG_ISR_STACK_SIZE>
	add sp, sp, t0
    54d4:	00510133          	add	sp,sp,t0

	csrw mscratch, sp
    54d8:	34011073          	csrw	mscratch,sp

	/*
	 * Jump into C domain. _PrepC zeroes BSS, copies rw data into RAM,
	 * and then enters kernel z_cstart
	 */
	call _PrepC
    54dc:	fc5ff0ef          	jal	ra,54a0 <_PrepC>

000054e0 <z_thread_entry_wrapper>:
	 * in registers a0, a1, a2 and a3. These registers are used as arguments
	 * to function z_thread_entry. Hence, just call z_thread_entry with
	 * return address set to 0 to indicate a non-returning function call.
	 */

	jal x0, z_thread_entry
    54e0:	a38ff06f          	j	4718 <z_thread_entry>

000054e4 <arch_new_thread>:
#ifdef CONFIG_RISCV_SOC_CONTEXT_SAVE
	const struct soc_esf soc_esf_init = {SOC_ESF_INIT};
#endif

	/* Initial stack frame for thread */
	stack_init = (struct __esf *)Z_STACK_PTR_ALIGN(
    54e4:	fb460613          	addi	a2,a2,-76 # 3fb4 <main+0x7c>
 * @param ptr Proposed stack pointer address
 * @return Properly aligned stack pointer address
 */
static inline char *z_stack_ptr_align(char *ptr)
{
	return (char *)ROUND_DOWN(ptr, ARCH_STACK_PTR_ALIGN);
    54e8:	ff067613          	andi	a2,a2,-16
				);

	/* Setup the initial stack frame */
	stack_init->a0 = (ulong_t)entry;
	stack_init->a1 = (ulong_t)p1;
	stack_init->a2 = (ulong_t)p2;
    54ec:	02f62623          	sw	a5,44(a2)
	 *    restored following the MSTATUS value set within the thread stack;
	 * 2) the core will jump to z_thread_entry_wrapper, as the program
	 *    counter will be restored following the MEPC value set within the
	 *    thread stack.
	 */
	stack_init->mstatus = MSTATUS_DEF_RESTORE;
    54f0:	000027b7          	lui	a5,0x2
    54f4:	88078793          	addi	a5,a5,-1920 # 1880 <__divdf3+0x534>
    54f8:	04f62423          	sw	a5,72(a2)
#elif defined(CONFIG_FPU)
	/* Unshared FP mode: enable FPU of each thread. */
	stack_init->mstatus |= MSTATUS_FS_INIT;
#endif

	stack_init->mepc = (ulong_t)z_thread_entry_wrapper;
    54fc:	000057b7          	lui	a5,0x5
    5500:	4e078793          	addi	a5,a5,1248 # 54e0 <z_thread_entry_wrapper>
	stack_init->a0 = (ulong_t)entry;
    5504:	02d62223          	sw	a3,36(a2)
	stack_init->a1 = (ulong_t)p1;
    5508:	02e62423          	sw	a4,40(a2)
	stack_init->a3 = (ulong_t)p3;
    550c:	03062823          	sw	a6,48(a2)
	stack_init->mepc = (ulong_t)z_thread_entry_wrapper;
    5510:	04f62223          	sw	a5,68(a2)

#ifdef CONFIG_RISCV_SOC_CONTEXT_SAVE
	stack_init->soc_context = soc_esf_init;
#endif

	thread->callee_saved.sp = (ulong_t)stack_init;
    5514:	02c52823          	sw	a2,48(a0)
}
    5518:	00008067          	ret

0000551c <malloc_prepare>:
		 "memory space available for newlib heap is less than the "
		 "minimum required size specified by "
		 "CONFIG_NEWLIB_LIBC_MIN_REQUIRED_HEAP_SIZE");

	return 0;
}
    551c:	00000513          	li	a0,0
    5520:	00008067          	ret

00005524 <_stdout_hook_default>:
static int _stdout_hook_default(int c)
{
	(void)(c);  /* Prevent warning about unused argument */

	return EOF;
}
    5524:	fff00513          	li	a0,-1
    5528:	00008067          	ret

0000552c <_stdin_hook_default>:
}

static unsigned char _stdin_hook_default(void)
{
	return 0;
}
    552c:	00000513          	li	a0,0
    5530:	00008067          	ret

00005534 <__stdout_hook_install>:
	_stdout_hook = hook;
    5534:	000827b7          	lui	a5,0x82
    5538:	d8a7ae23          	sw	a0,-612(a5) # 81d9c <_stdout_hook>
}
    553c:	00008067          	ret

00005540 <z_impl_zephyr_read_stdin>:
{
	_stdin_hook = hook;
}

int z_impl_zephyr_read_stdin(char *buf, int nbytes)
{
    5540:	fe010113          	addi	sp,sp,-32
    5544:	00812c23          	sw	s0,24(sp)
    5548:	00912a23          	sw	s1,20(sp)
    554c:	01212823          	sw	s2,16(sp)
    5550:	01312623          	sw	s3,12(sp)
    5554:	01412423          	sw	s4,8(sp)
    5558:	01512223          	sw	s5,4(sp)
    555c:	00112e23          	sw	ra,28(sp)
    5560:	00050913          	mv	s2,a0
    5564:	00058493          	mv	s1,a1
	int i = 0;

	for (i = 0; i < nbytes; i++) {
    5568:	00000413          	li	s0,0
		*(buf + i) = _stdin_hook();
    556c:	000829b7          	lui	s3,0x82
		if ((*(buf + i) == '\n') || (*(buf + i) == '\r')) {
    5570:	00a00a13          	li	s4,10
    5574:	00d00a93          	li	s5,13
	for (i = 0; i < nbytes; i++) {
    5578:	02945063          	bge	s0,s1,5598 <z_impl_zephyr_read_stdin+0x58>
		*(buf + i) = _stdin_hook();
    557c:	d989a783          	lw	a5,-616(s3) # 81d98 <_stdin_hook>
    5580:	000780e7          	jalr	a5
    5584:	008907b3          	add	a5,s2,s0
    5588:	00a78023          	sb	a0,0(a5)
	for (i = 0; i < nbytes; i++) {
    558c:	00140413          	addi	s0,s0,1
		if ((*(buf + i) == '\n') || (*(buf + i) == '\r')) {
    5590:	01450463          	beq	a0,s4,5598 <z_impl_zephyr_read_stdin+0x58>
    5594:	ff5512e3          	bne	a0,s5,5578 <z_impl_zephyr_read_stdin+0x38>
			i++;
			break;
		}
	}
	return i;
}
    5598:	01c12083          	lw	ra,28(sp)
    559c:	00040513          	mv	a0,s0
    55a0:	01812403          	lw	s0,24(sp)
    55a4:	01412483          	lw	s1,20(sp)
    55a8:	01012903          	lw	s2,16(sp)
    55ac:	00c12983          	lw	s3,12(sp)
    55b0:	00812a03          	lw	s4,8(sp)
    55b4:	00412a83          	lw	s5,4(sp)
    55b8:	02010113          	addi	sp,sp,32
    55bc:	00008067          	ret

000055c0 <z_impl_zephyr_write_stdout>:
}
#include <syscalls/zephyr_read_stdin_mrsh.c>
#endif

int z_impl_zephyr_write_stdout(const void *buffer, int nbytes)
{
    55c0:	fe010113          	addi	sp,sp,-32
    55c4:	00812c23          	sw	s0,24(sp)
    55c8:	00912a23          	sw	s1,20(sp)
    55cc:	01212823          	sw	s2,16(sp)
    55d0:	01512223          	sw	s5,4(sp)
    55d4:	01612023          	sw	s6,0(sp)
    55d8:	00112e23          	sw	ra,28(sp)
    55dc:	01312623          	sw	s3,12(sp)
    55e0:	01412423          	sw	s4,8(sp)
    55e4:	00050913          	mv	s2,a0
    55e8:	00058413          	mv	s0,a1
	const char *buf = buffer;
	int i;

	for (i = 0; i < nbytes; i++) {
    55ec:	00000493          	li	s1,0
		if (*(buf + i) == '\n') {
    55f0:	00a00a93          	li	s5,10
    55f4:	00082b37          	lui	s6,0x82
	for (i = 0; i < nbytes; i++) {
    55f8:	0284c863          	blt	s1,s0,5628 <z_impl_zephyr_write_stdout+0x68>
			_stdout_hook('\r');
		}
		_stdout_hook(*(buf + i));
	}
	return nbytes;
}
    55fc:	01c12083          	lw	ra,28(sp)
    5600:	00040513          	mv	a0,s0
    5604:	01812403          	lw	s0,24(sp)
    5608:	01412483          	lw	s1,20(sp)
    560c:	01012903          	lw	s2,16(sp)
    5610:	00c12983          	lw	s3,12(sp)
    5614:	00812a03          	lw	s4,8(sp)
    5618:	00412a83          	lw	s5,4(sp)
    561c:	00012b03          	lw	s6,0(sp)
    5620:	02010113          	addi	sp,sp,32
    5624:	00008067          	ret
		if (*(buf + i) == '\n') {
    5628:	009909b3          	add	s3,s2,s1
    562c:	0009c783          	lbu	a5,0(s3)
    5630:	d9cb0a13          	addi	s4,s6,-612 # 81d9c <_stdout_hook>
    5634:	01579863          	bne	a5,s5,5644 <z_impl_zephyr_write_stdout+0x84>
			_stdout_hook('\r');
    5638:	000a2783          	lw	a5,0(s4)
    563c:	00d00513          	li	a0,13
    5640:	000780e7          	jalr	a5
		_stdout_hook(*(buf + i));
    5644:	000a2783          	lw	a5,0(s4)
    5648:	0009c503          	lbu	a0,0(s3)
	for (i = 0; i < nbytes; i++) {
    564c:	00148493          	addi	s1,s1,1
		_stdout_hook(*(buf + i));
    5650:	000780e7          	jalr	a5
	for (i = 0; i < nbytes; i++) {
    5654:	fa5ff06f          	j	55f8 <z_impl_zephyr_write_stdout+0x38>

00005658 <_read>:
#include <syscalls/zephyr_write_stdout_mrsh.c>
#endif

#ifndef CONFIG_POSIX_API
int _read(int fd, char *buf, int nbytes)
{
    5658:	00058513          	mv	a0,a1
    565c:	00060593          	mv	a1,a2
		/* coverity[OVERRUN] */
		return (int) arch_syscall_invoke2(*(uintptr_t *)&buf, *(uintptr_t *)&nbytes, K_SYSCALL_ZEPHYR_READ_STDIN);
	}
#endif
	compiler_barrier();
	return z_impl_zephyr_read_stdin(buf, nbytes);
    5660:	ee1ff06f          	j	5540 <z_impl_zephyr_read_stdin>

00005664 <_write>:
	return zephyr_read_stdin(buf, nbytes);
}
__weak FUNC_ALIAS(_read, read, int);

int _write(int fd, const void *buf, int nbytes)
{
    5664:	00058513          	mv	a0,a1
    5668:	00060593          	mv	a1,a2
		/* coverity[OVERRUN] */
		return (int) arch_syscall_invoke2(*(uintptr_t *)&buf, *(uintptr_t *)&nbytes, K_SYSCALL_ZEPHYR_WRITE_STDOUT);
	}
#endif
	compiler_barrier();
	return z_impl_zephyr_write_stdout(buf, nbytes);
    566c:	f55ff06f          	j	55c0 <z_impl_zephyr_write_stdout>

00005670 <_close>:
    5670:	fff00513          	li	a0,-1
    5674:	00008067          	ret

00005678 <_lseek>:
__weak FUNC_ALIAS(_close, close, int);

int _lseek(int file, int ptr, int dir)
{
	return 0;
}
    5678:	00000513          	li	a0,0
    567c:	00008067          	ret

00005680 <_isatty>:
#endif

int _isatty(int file)
{
	return file <= 2;
}
    5680:	00352513          	slti	a0,a0,3
    5684:	00008067          	ret

00005688 <_kill>:
__weak FUNC_ALIAS(_isatty, isatty, int);

int _kill(int i, int j)
{
	return 0;
}
    5688:	00000513          	li	a0,0
    568c:	00008067          	ret

00005690 <_getpid>:
__weak FUNC_ALIAS(_kill, kill, int);

int _getpid(void)
{
	return 0;
}
    5690:	00000513          	li	a0,0
    5694:	00008067          	ret

00005698 <_fstat>:
__weak FUNC_ALIAS(_getpid, getpid, int);

int _fstat(int file, struct stat *st)
{
	st->st_mode = S_IFCHR;
    5698:	000027b7          	lui	a5,0x2
    569c:	00f5a223          	sw	a5,4(a1)
	return 0;
}
    56a0:	00000513          	li	a0,0
    56a4:	00008067          	ret

000056a8 <_exit>:
__weak FUNC_ALIAS(_fstat, fstat, int);

__weak void _exit(int status)
{
    56a8:	ff010113          	addi	sp,sp,-16
    56ac:	00112623          	sw	ra,12(sp)
    56b0:	0000d537          	lui	a0,0xd
    56b4:	00500593          	li	a1,5
    56b8:	ccc50513          	addi	a0,a0,-820 # cccc <dts_ord_9_cfg+0xc>
    56bc:	f05ff0ef          	jal	ra,55c0 <z_impl_zephyr_write_stdout>
	_write(1, "exit\n", 5);
	while (1) {
    56c0:	0000006f          	j	56c0 <_exit+0x18>

000056c4 <_sbrk>:

void *_sbrk(intptr_t count)
{
	void *ret, *ptr;

	ptr = ((char *)HEAP_BASE) + heap_sz;
    56c4:	0000d737          	lui	a4,0xd
    56c8:	13870713          	addi	a4,a4,312 # d138 <heap_sz>
    56cc:	00072783          	lw	a5,0(a4)

	if ((heap_sz + count) < MAX_HEAP_SIZE) {
    56d0:	00800637          	lui	a2,0x800
    56d4:	00f506b3          	add	a3,a0,a5
    56d8:	00082537          	lui	a0,0x82
    56dc:	e1850513          	addi	a0,a0,-488 # 81e18 <__data_region_end>
    56e0:	40a60633          	sub	a2,a2,a0
    56e4:	00c6f863          	bgeu	a3,a2,56f4 <_sbrk+0x30>
	ptr = ((char *)HEAP_BASE) + heap_sz;
    56e8:	00a78533          	add	a0,a5,a0
		heap_sz += count;
    56ec:	00d72023          	sw	a3,0(a4)
		ret = ptr;
    56f0:	00008067          	ret
	} else {
		ret = (void *)-1;
    56f4:	fff00513          	li	a0,-1
	}

	return ret;
}
    56f8:	00008067          	ret

000056fc <__retarget_lock_init_recursive>:
	k_sem_init((struct k_sem *)*lock, 1, 1);
}

/* Create a new dynamic recursive lock */
void __retarget_lock_init_recursive(_LOCK_T *lock)
{
    56fc:	ff010113          	addi	sp,sp,-16
    5700:	00812423          	sw	s0,8(sp)
    5704:	00050413          	mv	s0,a0
	__ASSERT_NO_MSG(lock != NULL);

	/* Allocate mutex object */
#ifndef CONFIG_USERSPACE
	*lock = malloc(sizeof(struct k_mutex));
    5708:	01400513          	li	a0,20
{
    570c:	00112623          	sw	ra,12(sp)
	*lock = malloc(sizeof(struct k_mutex));
    5710:	4d8020ef          	jal	ra,7be8 <malloc>
    5714:	00a42023          	sw	a0,0(s0)
	*lock = k_object_alloc(K_OBJ_MUTEX);
#endif /* !CONFIG_USERSPACE */
	__ASSERT(*lock != NULL, "recursive lock allocation failed");

	k_mutex_init((struct k_mutex *)*lock);
}
    5718:	00812403          	lw	s0,8(sp)
    571c:	00c12083          	lw	ra,12(sp)
    5720:	01010113          	addi	sp,sp,16
	return z_impl_k_mutex_init(mutex);
    5724:	5e10006f          	j	6504 <z_impl_k_mutex_init>

00005728 <__retarget_lock_acquire_recursive>:
	return z_impl_k_mutex_lock(mutex, timeout);
    5728:	fff00593          	li	a1,-1
    572c:	fff00613          	li	a2,-1
    5730:	5ed0006f          	j	651c <z_impl_k_mutex_lock>

00005734 <__retarget_lock_release_recursive>:
	return z_impl_k_mutex_unlock(mutex);
    5734:	7490006f          	j	667c <z_impl_k_mutex_unlock>

00005738 <__errno>:
		/* coverity[OVERRUN] */
		return (int *) arch_syscall_invoke0(K_SYSCALL_Z_ERRNO);
	}
#endif
	compiler_barrier();
	return z_impl_z_errno();
    5738:	11d0006f          	j	6054 <z_impl_z_errno>

0000573c <swerv_pic_init>:
	return *(volatile uint32_t *)(DT_INST_REG_ADDR(0) + reg);
}

static void swerv_pic_write(uint32_t reg, uint32_t val)
{
	*(volatile uint32_t *)(DT_INST_REG_ADDR(0) + reg) = val;
    573c:	f00c37b7          	lui	a5,0xf00c3
    5740:	0007a023          	sw	zero,0(a5) # f00c3000 <CONFIG_SYSTEM_WORKQUEUE_PRIORITY+0xf00c3001>
    5744:	f00c27b7          	lui	a5,0xf00c2
    5748:	00478713          	addi	a4,a5,4 # f00c2004 <CONFIG_SYSTEM_WORKQUEUE_PRIORITY+0xf00c2005>

	/* Init priority order to 0, 0=lowest to 15=highest */
	swerv_pic_write(SWERV_PIC_mpiccfg, 0);

	/* Ensure that all interrupts are disabled initially */
	for (i = 1; i < SWERV_PIC_MAX_ID; i++) {
    574c:	12c78793          	addi	a5,a5,300
	*(volatile uint32_t *)(DT_INST_REG_ADDR(0) + reg) = val;
    5750:	00072023          	sw	zero,0(a4)
	for (i = 1; i < SWERV_PIC_MAX_ID; i++) {
    5754:	00470713          	addi	a4,a4,4
    5758:	fef71ce3          	bne	a4,a5,5750 <swerv_pic_init+0x14>
    575c:	f00c07b7          	lui	a5,0xf00c0
    5760:	00478713          	addi	a4,a5,4 # f00c0004 <CONFIG_SYSTEM_WORKQUEUE_PRIORITY+0xf00c0005>
	*(volatile uint32_t *)(DT_INST_REG_ADDR(0) + reg) = val;
    5764:	00f00693          	li	a3,15
		swerv_pic_write(SWERV_PIC_meie(i), 0);
	}

	/* Set priority of each interrupt line to 0 initially */
	for (i = 1; i < SWERV_PIC_MAX_ID; i++) {
    5768:	12c78793          	addi	a5,a5,300
	*(volatile uint32_t *)(DT_INST_REG_ADDR(0) + reg) = val;
    576c:	00d72023          	sw	a3,0(a4)
	for (i = 1; i < SWERV_PIC_MAX_ID; i++) {
    5770:	00470713          	addi	a4,a4,4
    5774:	fef71ce3          	bne	a4,a5,576c <swerv_pic_init+0x30>
    5778:	f00c47b7          	lui	a5,0xf00c4
    577c:	00478713          	addi	a4,a5,4 # f00c4004 <CONFIG_SYSTEM_WORKQUEUE_PRIORITY+0xf00c4005>
		swerv_pic_write(SWERV_PIC_meipl(i), 15);
	}

	/* Set property of each interrupt line to level-triggered/high */
	for (i = 1; i < SWERV_PIC_MAX_ID; i++) {
    5780:	12c78793          	addi	a5,a5,300
	*(volatile uint32_t *)(DT_INST_REG_ADDR(0) + reg) = val;
    5784:	00072023          	sw	zero,0(a4)
	for (i = 1; i < SWERV_PIC_MAX_ID; i++) {
    5788:	00470713          	addi	a4,a4,4
    578c:	fef71ce3          	bne	a4,a5,5784 <swerv_pic_init+0x48>
    5790:	f00c57b7          	lui	a5,0xf00c5
    5794:	00478713          	addi	a4,a5,4 # f00c5004 <CONFIG_SYSTEM_WORKQUEUE_PRIORITY+0xf00c5005>
		swerv_pic_write(SWERV_PIC_meigwctrl(i), (0<<1)|(0<<0));
	}

	/* clear pending of each interrupt line */
	for (i = 1; i < SWERV_PIC_MAX_ID; i++) {
    5798:	12c78793          	addi	a5,a5,300
	*(volatile uint32_t *)(DT_INST_REG_ADDR(0) + reg) = val;
    579c:	00072023          	sw	zero,0(a4)
	for (i = 1; i < SWERV_PIC_MAX_ID; i++) {
    57a0:	00470713          	addi	a4,a4,4
    57a4:	fef71ce3          	bne	a4,a5,579c <swerv_pic_init+0x60>
		swerv_pic_write(SWERV_PIC_meigwclr(i), 0);
	}

	/* No interrupts masked */
	__asm__ swerv_pic_writecsr(meipt, 0);
    57a8:	bc905073          	csrwi	0xbc9,0
	__asm__ swerv_pic_writecsr(meicidpl, 0);
    57ac:	bcb05073          	csrwi	0xbcb,0
	__asm__ swerv_pic_writecsr(meicurpl, 0);
    57b0:	bcc05073          	csrwi	0xbcc,0

	/*
	 * CSR mie register is updated using atomic instruction csrrs
	 * (atomic read and set bits in CSR register)
	 */
	__asm__ volatile ("csrrs %0, mie, %1\n"
    57b4:	000017b7          	lui	a5,0x1
    57b8:	80078793          	addi	a5,a5,-2048 # 800 <CONFIG_ISR_STACK_SIZE>
    57bc:	3047a7f3          	csrrs	a5,mie,a5
}
    57c0:	00000513          	li	a0,0
    57c4:	00008067          	ret

000057c8 <swerv_pic_irq_handler>:
{
    57c8:	ff010113          	addi	sp,sp,-16
    57cc:	00112623          	sw	ra,12(sp)
    57d0:	00812423          	sw	s0,8(sp)
	__asm__ swerv_pic_writecsr(meicpct, 0);
    57d4:	bca05073          	csrwi	0xbca,0
	__asm__ swerv_pic_readcsr(meihap, tmp);
    57d8:	fc802473          	csrr	s0,0xfc8
	irq = (tmp >> 2) & 0xff;
    57dc:	00245413          	srli	s0,s0,0x2
    57e0:	0ff47413          	andi	s0,s0,255
	save_irq = irq;
    57e4:	0000d7b7          	lui	a5,0xd
    57e8:	1287ae23          	sw	s0,316(a5) # d13c <save_irq>
	if (irq == 0U || irq >= 64) {
    57ec:	fff40713          	addi	a4,s0,-1
    57f0:	03e00793          	li	a5,62
    57f4:	00e7f663          	bgeu	a5,a4,5800 <swerv_pic_irq_handler+0x38>
		z_irq_spurious(NULL);
    57f8:	00000513          	li	a0,0
    57fc:	c8dff0ef          	jal	ra,5488 <z_irq_spurious>
	irq += RISCV_MAX_GENERIC_IRQ;
    5800:	00b40713          	addi	a4,s0,11
	if (ite->isr)
    5804:	0000c7b7          	lui	a5,0xc
    5808:	00371713          	slli	a4,a4,0x3
    580c:	4ac78793          	addi	a5,a5,1196 # c4ac <_sw_isr_table>
    5810:	00e787b3          	add	a5,a5,a4
    5814:	0047a703          	lw	a4,4(a5)
    5818:	00070663          	beqz	a4,5824 <swerv_pic_irq_handler+0x5c>
		ite->isr(ite->arg);
    581c:	0007a503          	lw	a0,0(a5)
    5820:	000700e7          	jalr	a4
	swerv_pic_write(SWERV_PIC_meigwclr(irq), 0);
    5824:	000017b7          	lui	a5,0x1
    5828:	40b78793          	addi	a5,a5,1035 # 140b <__divdf3+0xbf>
    582c:	00f40433          	add	s0,s0,a5
    5830:	00241413          	slli	s0,s0,0x2
	*(volatile uint32_t *)(DT_INST_REG_ADDR(0) + reg) = val;
    5834:	f00c07b7          	lui	a5,0xf00c0
    5838:	00f40433          	add	s0,s0,a5
}
    583c:	00c12083          	lw	ra,12(sp)
	*(volatile uint32_t *)(DT_INST_REG_ADDR(0) + reg) = val;
    5840:	00042023          	sw	zero,0(s0)
}
    5844:	00812403          	lw	s0,8(sp)
    5848:	01010113          	addi	sp,sp,16
    584c:	00008067          	ret

00005850 <swerv_pic_irq_enable>:
	if ((irq >= SWERV_PIC_MAX_ID) || (irq < RISCV_MAX_GENERIC_IRQ)) {
    5850:	ff550713          	addi	a4,a0,-11
    5854:	03f00793          	li	a5,63
    5858:	02e7e663          	bltu	a5,a4,5884 <swerv_pic_irq_enable+0x34>
	__asm__ volatile ("csrrc %0, mstatus, %1"
    585c:	00800793          	li	a5,8
    5860:	3007b7f3          	csrrc	a5,mstatus,a5
	swerv_pic_write(SWERV_PIC_meie(irq - RISCV_MAX_GENERIC_IRQ), 1);
    5864:	7f550513          	addi	a0,a0,2037
	*(volatile uint32_t *)(DT_INST_REG_ADDR(0) + reg) = val;
    5868:	f00c0737          	lui	a4,0xf00c0
	swerv_pic_write(SWERV_PIC_meie(irq - RISCV_MAX_GENERIC_IRQ), 1);
    586c:	00251513          	slli	a0,a0,0x2
	*(volatile uint32_t *)(DT_INST_REG_ADDR(0) + reg) = val;
    5870:	00e50533          	add	a0,a0,a4
    5874:	00100713          	li	a4,1
    5878:	00e52023          	sw	a4,0(a0)
	key = (mstatus & MSTATUS_IEN);
    587c:	0087f793          	andi	a5,a5,8
	__asm__ volatile ("csrrs %0, mstatus, %1"
    5880:	3007a7f3          	csrrs	a5,mstatus,a5
}
    5884:	00008067          	ret

00005888 <arch_irq_enable>:
	if (irq > RISCV_MAX_GENERIC_IRQ) {
    5888:	00b00793          	li	a5,11
    588c:	00a7f463          	bgeu	a5,a0,5894 <arch_irq_enable+0xc>
		swerv_pic_irq_enable(irq);
    5890:	fc1ff06f          	j	5850 <swerv_pic_irq_enable>
			  : "=r" (mie)
			  : "r" (1 << irq));
    5894:	00100793          	li	a5,1
    5898:	00a79533          	sll	a0,a5,a0
	__asm__ volatile ("csrrs %0, mie, %1\n"
    589c:	30452573          	csrrs	a0,mie,a0
}
    58a0:	00008067          	ret

000058a4 <uart_console_init>:
{

	ARG_UNUSED(arg);

	/* Claim console device */
	uart_console_dev = DEVICE_DT_GET(DT_CHOSEN(zephyr_console));
    58a4:	0000c537          	lui	a0,0xc
{
    58a8:	ff010113          	addi	sp,sp,-16
	uart_console_dev = DEVICE_DT_GET(DT_CHOSEN(zephyr_console));
    58ac:	46450713          	addi	a4,a0,1124 # c464 <__device_dts_ord_11>
    58b0:	0000d7b7          	lui	a5,0xd
{
    58b4:	00112623          	sw	ra,12(sp)
    58b8:	00812423          	sw	s0,8(sp)
	uart_console_dev = DEVICE_DT_GET(DT_CHOSEN(zephyr_console));
    58bc:	14e7a023          	sw	a4,320(a5) # d140 <uart_console_dev>
 *
 * @return a non-positive integer as documented in device_usable_check().
 */
static inline int z_device_usable_check(const struct device *dev)
{
	return z_device_ready(dev) ? 0 : -ENODEV;
    58c0:	46450513          	addi	a0,a0,1124
    58c4:	76c000ef          	jal	ra,6030 <z_device_ready>
    58c8:	fed00793          	li	a5,-19
    58cc:	00050e63          	beqz	a0,58e8 <uart_console_init+0x44>
	__stdout_hook_install(console_out);
    58d0:	00006437          	lui	s0,0x6
    58d4:	8fc40513          	addi	a0,s0,-1796 # 58fc <console_out>
    58d8:	c5dff0ef          	jal	ra,5534 <__stdout_hook_install>
	__printk_hook_install(console_out);
    58dc:	8fc40513          	addi	a0,s0,-1796
    58e0:	d3dfe0ef          	jal	ra,461c <__printk_hook_install>
		return -ENODEV;
	}

	uart_console_hook_install();

	return 0;
    58e4:	00000793          	li	a5,0
}
    58e8:	00c12083          	lw	ra,12(sp)
    58ec:	00812403          	lw	s0,8(sp)
    58f0:	00078513          	mv	a0,a5
    58f4:	01010113          	addi	sp,sp,16
    58f8:	00008067          	ret

000058fc <console_out>:
{
    58fc:	ff010113          	addi	sp,sp,-16
    5900:	00812423          	sw	s0,8(sp)
    5904:	00912223          	sw	s1,4(sp)
    5908:	00112623          	sw	ra,12(sp)
    590c:	0000d4b7          	lui	s1,0xd
	if ('\n' == c) {
    5910:	00a00793          	li	a5,10
{
    5914:	00050413          	mv	s0,a0
    5918:	14048493          	addi	s1,s1,320 # d140 <uart_console_dev>
	if ('\n' == c) {
    591c:	00f51c63          	bne	a0,a5,5934 <console_out+0x38>
		uart_poll_out(uart_console_dev, '\r');
    5920:	0004a503          	lw	a0,0(s1)
						unsigned char out_char)
{
	const struct uart_driver_api *api =
		(const struct uart_driver_api *)dev->api;

	api->poll_out(dev, out_char);
    5924:	00852783          	lw	a5,8(a0)
    5928:	00d00593          	li	a1,13
    592c:	0047a783          	lw	a5,4(a5)
    5930:	000780e7          	jalr	a5
	uart_poll_out(uart_console_dev, c);
    5934:	0004a503          	lw	a0,0(s1)
    5938:	00852783          	lw	a5,8(a0)
    593c:	0ff47593          	andi	a1,s0,255
    5940:	0047a783          	lw	a5,4(a5)
    5944:	000780e7          	jalr	a5
}
    5948:	00c12083          	lw	ra,12(sp)
    594c:	00040513          	mv	a0,s0
    5950:	00812403          	lw	s0,8(sp)
    5954:	00412483          	lw	s1,4(sp)
    5958:	01010113          	addi	sp,sp,16
    595c:	00008067          	ret

00005960 <gpio_mmio32_config>:

static int gpio_mmio32_config(const struct device *dev,
			      gpio_pin_t pin, gpio_flags_t flags)
{
	struct gpio_mmio32_context *context = dev->data;
	const struct gpio_mmio32_config *config = context->config;
    5960:	01052783          	lw	a5,16(a0)
    5964:	0047a683          	lw	a3,4(a5)

	if ((config->mask & (1 << pin)) == 0) {
    5968:	00100793          	li	a5,1
    596c:	00b795b3          	sll	a1,a5,a1
    5970:	0086a783          	lw	a5,8(a3)
    5974:	00f5f7b3          	and	a5,a1,a5
    5978:	06078c63          	beqz	a5,59f0 <gpio_mmio32_config+0x90>
		return -EINVAL; /* Pin not in our validity mask */
	}

	if (flags & ~(GPIO_INPUT | GPIO_OUTPUT |
    597c:	fffff7b7          	lui	a5,0xfffff
    5980:	0fe78793          	addi	a5,a5,254 # fffff0fe <CONFIG_SYSTEM_WORKQUEUE_PRIORITY+0xfffff0ff>
    5984:	00f677b3          	and	a5,a2,a5
		      GPIO_OUTPUT_INIT_LOW | GPIO_OUTPUT_INIT_HIGH |
		      GPIO_ACTIVE_LOW)) {
		/* We ignore direction and fake polarity, rest is unsupported */
		return -ENOTSUP;
    5988:	f7a00513          	li	a0,-134
	if (flags & ~(GPIO_INPUT | GPIO_OUTPUT |
    598c:	06079463          	bnez	a5,59f4 <gpio_mmio32_config+0x94>
	}

	if ((flags & GPIO_OUTPUT) != 0) {
    5990:	20067793          	andi	a5,a2,512
			*reg = (*reg & (config->mask & ~(1 << pin)));
		}
		irq_unlock(key);
	}

	return 0;
    5994:	00000513          	li	a0,0
	if ((flags & GPIO_OUTPUT) != 0) {
    5998:	04078e63          	beqz	a5,59f4 <gpio_mmio32_config+0x94>
		volatile uint32_t *reg = config->reg;
    599c:	0046a703          	lw	a4,4(a3)
	__asm__ volatile ("csrrc %0, mstatus, %1"
    59a0:	00800793          	li	a5,8
    59a4:	3007b7f3          	csrrc	a5,mstatus,a5
		if ((flags & GPIO_OUTPUT_INIT_HIGH) != 0) {
    59a8:	00b65513          	srli	a0,a2,0xb
    59ac:	00157513          	andi	a0,a0,1
	key = (mstatus & MSTATUS_IEN);
    59b0:	0087f793          	andi	a5,a5,8
    59b4:	00050e63          	beqz	a0,59d0 <gpio_mmio32_config+0x70>
			*reg = (*reg | (1 << pin));
    59b8:	00072683          	lw	a3,0(a4) # f00c0000 <CONFIG_SYSTEM_WORKQUEUE_PRIORITY+0xf00c0001>
    59bc:	00d5e5b3          	or	a1,a1,a3
			*reg = (*reg & (config->mask & ~(1 << pin)));
    59c0:	00b72023          	sw	a1,0(a4)
	__asm__ volatile ("csrrs %0, mstatus, %1"
    59c4:	3007a7f3          	csrrs	a5,mstatus,a5
	return 0;
    59c8:	00000513          	li	a0,0
			  : "=r" (mstatus)
			  : "r" (key & MSTATUS_IEN)
			  : "memory");
}
    59cc:	00008067          	ret
		} else if ((flags & GPIO_OUTPUT_INIT_LOW) != 0) {
    59d0:	40067613          	andi	a2,a2,1024
    59d4:	fe0608e3          	beqz	a2,59c4 <gpio_mmio32_config+0x64>
			*reg = (*reg & (config->mask & ~(1 << pin)));
    59d8:	0086a683          	lw	a3,8(a3)
    59dc:	00072603          	lw	a2,0(a4)
    59e0:	fff5c593          	not	a1,a1
    59e4:	00d5f5b3          	and	a1,a1,a3
    59e8:	00c5f5b3          	and	a1,a1,a2
    59ec:	fd5ff06f          	j	59c0 <gpio_mmio32_config+0x60>
		return -EINVAL; /* Pin not in our validity mask */
    59f0:	fea00513          	li	a0,-22
}
    59f4:	00008067          	ret

000059f8 <gpio_mmio32_port_get_raw>:

static int gpio_mmio32_port_get_raw(const struct device *dev, uint32_t *value)
{
	struct gpio_mmio32_context *context = dev->data;
	const struct gpio_mmio32_config *config = context->config;
    59f8:	01052783          	lw	a5,16(a0)

	*value = *config->reg & config->mask;

	return 0;
}
    59fc:	00000513          	li	a0,0
	const struct gpio_mmio32_config *config = context->config;
    5a00:	0047a703          	lw	a4,4(a5)
	*value = *config->reg & config->mask;
    5a04:	00472783          	lw	a5,4(a4)
    5a08:	0007a683          	lw	a3,0(a5)
    5a0c:	00872783          	lw	a5,8(a4)
    5a10:	00d7f7b3          	and	a5,a5,a3
    5a14:	00f5a023          	sw	a5,0(a1)
}
    5a18:	00008067          	ret

00005a1c <gpio_mmio32_port_set_masked_raw>:
static int gpio_mmio32_port_set_masked_raw(const struct device *dev,
					   uint32_t mask,
					   uint32_t value)
{
	struct gpio_mmio32_context *context = dev->data;
	const struct gpio_mmio32_config *config = context->config;
    5a1c:	01052783          	lw	a5,16(a0)
    5a20:	0047a783          	lw	a5,4(a5)
	volatile uint32_t *reg = config->reg;
    5a24:	0047a703          	lw	a4,4(a5)
	unsigned int key;

	mask &= config->mask;
    5a28:	0087a783          	lw	a5,8(a5)
    5a2c:	00f5f5b3          	and	a1,a1,a5
	__asm__ volatile ("csrrc %0, mstatus, %1"
    5a30:	00800793          	li	a5,8
    5a34:	3007b7f3          	csrrc	a5,mstatus,a5
	value &= mask;

	/* Update pin state atomically */
	key = irq_lock();
	*reg = (*reg & ~mask) | value;
    5a38:	00072683          	lw	a3,0(a4)
	key = (mstatus & MSTATUS_IEN);
    5a3c:	0087f793          	andi	a5,a5,8
    5a40:	00c6c633          	xor	a2,a3,a2
    5a44:	00b67633          	and	a2,a2,a1
    5a48:	00d64633          	xor	a2,a2,a3
    5a4c:	00c72023          	sw	a2,0(a4)
	__asm__ volatile ("csrrs %0, mstatus, %1"
    5a50:	3007a7f3          	csrrs	a5,mstatus,a5
	irq_unlock(key);

	return 0;
}
    5a54:	00000513          	li	a0,0
    5a58:	00008067          	ret

00005a5c <gpio_mmio32_port_set_bits_raw>:

static int gpio_mmio32_port_set_bits_raw(const struct device *dev,
					 uint32_t mask)
{
	struct gpio_mmio32_context *context = dev->data;
	const struct gpio_mmio32_config *config = context->config;
    5a5c:	01052783          	lw	a5,16(a0)
    5a60:	0047a783          	lw	a5,4(a5)
	volatile uint32_t *reg = config->reg;
	unsigned int key;

	mask &= config->mask;
    5a64:	0087a703          	lw	a4,8(a5)
	volatile uint32_t *reg = config->reg;
    5a68:	0047a683          	lw	a3,4(a5)
	__asm__ volatile ("csrrc %0, mstatus, %1"
    5a6c:	00800793          	li	a5,8
	mask &= config->mask;
    5a70:	00e5f733          	and	a4,a1,a4
    5a74:	3007b7f3          	csrrc	a5,mstatus,a5

	/* Update pin state atomically */
	key = irq_lock();
	*reg = (*reg | mask);
    5a78:	0006a583          	lw	a1,0(a3)
	key = (mstatus & MSTATUS_IEN);
    5a7c:	0087f793          	andi	a5,a5,8
    5a80:	00e5e5b3          	or	a1,a1,a4
    5a84:	00b6a023          	sw	a1,0(a3)
	__asm__ volatile ("csrrs %0, mstatus, %1"
    5a88:	3007a7f3          	csrrs	a5,mstatus,a5
	irq_unlock(key);

	return 0;
}
    5a8c:	00000513          	li	a0,0
    5a90:	00008067          	ret

00005a94 <gpio_mmio32_port_clear_bits_raw>:

static int gpio_mmio32_port_clear_bits_raw(const struct device *dev,
					   uint32_t mask)
{
	struct gpio_mmio32_context *context = dev->data;
	const struct gpio_mmio32_config *config = context->config;
    5a94:	01052783          	lw	a5,16(a0)
    5a98:	0047a783          	lw	a5,4(a5)
	volatile uint32_t *reg = config->reg;
    5a9c:	0047a703          	lw	a4,4(a5)
	unsigned int key;

	mask &= config->mask;
    5aa0:	0087a783          	lw	a5,8(a5)
    5aa4:	00f5f5b3          	and	a1,a1,a5
	__asm__ volatile ("csrrc %0, mstatus, %1"
    5aa8:	00800793          	li	a5,8
    5aac:	3007b7f3          	csrrc	a5,mstatus,a5

	/* Update pin state atomically */
	key = irq_lock();
	*reg = (*reg & ~mask);
    5ab0:	00072683          	lw	a3,0(a4)
    5ab4:	fff5c593          	not	a1,a1
	key = (mstatus & MSTATUS_IEN);
    5ab8:	0087f793          	andi	a5,a5,8
    5abc:	00d5f5b3          	and	a1,a1,a3
    5ac0:	00b72023          	sw	a1,0(a4)
	__asm__ volatile ("csrrs %0, mstatus, %1"
    5ac4:	3007a7f3          	csrrs	a5,mstatus,a5
	irq_unlock(key);

	return 0;
}
    5ac8:	00000513          	li	a0,0
    5acc:	00008067          	ret

00005ad0 <gpio_mmio32_port_toggle_bits>:

static int gpio_mmio32_port_toggle_bits(const struct device *dev,
					uint32_t mask)
{
	struct gpio_mmio32_context *context = dev->data;
	const struct gpio_mmio32_config *config = context->config;
    5ad0:	01052783          	lw	a5,16(a0)
    5ad4:	0047a783          	lw	a5,4(a5)
	volatile uint32_t *reg = config->reg;
	unsigned int key;

	mask &= config->mask;
    5ad8:	0087a703          	lw	a4,8(a5)
	volatile uint32_t *reg = config->reg;
    5adc:	0047a683          	lw	a3,4(a5)
	__asm__ volatile ("csrrc %0, mstatus, %1"
    5ae0:	00800793          	li	a5,8
	mask &= config->mask;
    5ae4:	00e5f733          	and	a4,a1,a4
    5ae8:	3007b7f3          	csrrc	a5,mstatus,a5

	/* Update pin state atomically */
	key = irq_lock();
	*reg = (*reg ^ mask);
    5aec:	0006a583          	lw	a1,0(a3)
	key = (mstatus & MSTATUS_IEN);
    5af0:	0087f793          	andi	a5,a5,8
    5af4:	00e5c5b3          	xor	a1,a1,a4
    5af8:	00b6a023          	sw	a1,0(a3)
	__asm__ volatile ("csrrs %0, mstatus, %1"
    5afc:	3007a7f3          	csrrs	a5,mstatus,a5
	irq_unlock(key);

	return 0;
}
    5b00:	00000513          	li	a0,0
    5b04:	00008067          	ret

00005b08 <gpio_mmio32_pin_interrupt_configure>:
static int gpio_mmio32_pin_interrupt_configure(const struct device *dev,
					       gpio_pin_t pin,
					       enum gpio_int_mode mode,
					       enum gpio_int_trig trig)
{
	if (mode != GPIO_INT_MODE_DISABLED) {
    5b08:	000027b7          	lui	a5,0x2
		return -ENOTSUP;
	}

	return 0;
    5b0c:	00000513          	li	a0,0
	if (mode != GPIO_INT_MODE_DISABLED) {
    5b10:	00f60463          	beq	a2,a5,5b18 <gpio_mmio32_pin_interrupt_configure+0x10>
		return -ENOTSUP;
    5b14:	f7a00513          	li	a0,-134
}
    5b18:	00008067          	ret

00005b1c <gpio_mmio32_init>:
int gpio_mmio32_init(const struct device *dev)
{
	struct gpio_mmio32_context *context = dev->data;
	const struct gpio_mmio32_config *config = dev->config;

	context->config = config;
    5b1c:	01052783          	lw	a5,16(a0)
    5b20:	00452703          	lw	a4,4(a0)

	return 0;
}
    5b24:	00000513          	li	a0,0
	context->config = config;
    5b28:	00e7a223          	sw	a4,4(a5) # 2004 <CONFIG_SRAM_SIZE+0x4>
}
    5b2c:	00008067          	ret

00005b30 <gpio_veerwolf_init>:
/* Driver functions */

static int gpio_veerwolf_init(const struct device *dev)
{
	return 0;
}
    5b30:	00000513          	li	a0,0
    5b34:	00008067          	ret

00005b38 <gpio_veerwolf_configure>:

static int gpio_veerwolf_configure(const struct device *dev,
				gpio_pin_t pin, gpio_flags_t flags)
{
	return 0;
}
    5b38:	00000513          	li	a0,0
    5b3c:	00008067          	ret

00005b40 <gpio_veerwolf_port_get_raw>:

static int gpio_veerwolf_port_get_raw(const struct device *dev,
				   gpio_port_value_t *value)
{
	mem_addr_t addr = DEV_GPIO_ADDR(dev);
    5b40:	00452783          	lw	a5,4(a0)

	*value = sys_read32(addr);
	return 0;
}
    5b44:	00000513          	li	a0,0
	mem_addr_t addr = DEV_GPIO_ADDR(dev);
    5b48:	0007a783          	lw	a5,0(a5)
	return *(volatile uint32_t *)addr;
    5b4c:	0007a783          	lw	a5,0(a5)
	*value = sys_read32(addr);
    5b50:	00f5a023          	sw	a5,0(a1)
}
    5b54:	00008067          	ret

00005b58 <gpio_veerwolf_port_set_masked_raw>:

static int gpio_veerwolf_port_set_masked_raw(const struct device *dev,
					  gpio_port_pins_t mask,
					  gpio_port_value_t value)
{
	mem_addr_t addr = DEV_GPIO_ADDR(dev);
    5b58:	00452783          	lw	a5,4(a0)
	port_val = sys_read32(addr);
	port_val = (port_val & ~mask) | (value & mask);
	sys_write32(port_val, addr);

	return 0;
}
    5b5c:	00000513          	li	a0,0
	mem_addr_t addr = DEV_GPIO_ADDR(dev);
    5b60:	0007a783          	lw	a5,0(a5)
    5b64:	0007a703          	lw	a4,0(a5)
	port_val = (port_val & ~mask) | (value & mask);
    5b68:	00e64633          	xor	a2,a2,a4
    5b6c:	00b67633          	and	a2,a2,a1
    5b70:	00e64633          	xor	a2,a2,a4
}

static ALWAYS_INLINE void sys_write32(uint32_t data, mem_addr_t addr)
{
	*(volatile uint32_t *)addr = data;
    5b74:	00c7a023          	sw	a2,0(a5)
}
    5b78:	00008067          	ret

00005b7c <gpio_veerwolf_port_set_bits_raw>:

static int gpio_veerwolf_port_set_bits_raw(const struct device *dev,
					gpio_port_pins_t pins)
{
	mem_addr_t addr = DEV_GPIO_ADDR(dev);
    5b7c:	00452783          	lw	a5,4(a0)

	port_val = sys_read32(addr) | pins;
	sys_write32(port_val, addr);

	return 0;
}
    5b80:	00000513          	li	a0,0
	mem_addr_t addr = DEV_GPIO_ADDR(dev);
    5b84:	0007a783          	lw	a5,0(a5)
	return *(volatile uint32_t *)addr;
    5b88:	0007a703          	lw	a4,0(a5)
	port_val = sys_read32(addr) | pins;
    5b8c:	00e5e5b3          	or	a1,a1,a4
	*(volatile uint32_t *)addr = data;
    5b90:	00b7a023          	sw	a1,0(a5)
}
    5b94:	00008067          	ret

00005b98 <gpio_veerwolf_port_clear_bits_raw>:

static int gpio_veerwolf_port_clear_bits_raw(const struct device *dev,
					  gpio_port_pins_t pins)
{
	mem_addr_t addr = DEV_GPIO_ADDR(dev);
    5b98:	00452783          	lw	a5,4(a0)
	uint32_t port_val;

	port_val = sys_read32(addr) & ~pins;
    5b9c:	fff5c593          	not	a1,a1
	sys_write32(port_val, addr);

	return 0;
}
    5ba0:	00000513          	li	a0,0
	mem_addr_t addr = DEV_GPIO_ADDR(dev);
    5ba4:	0007a783          	lw	a5,0(a5)
	return *(volatile uint32_t *)addr;
    5ba8:	0007a703          	lw	a4,0(a5)
	port_val = sys_read32(addr) & ~pins;
    5bac:	00e5f5b3          	and	a1,a1,a4
	*(volatile uint32_t *)addr = data;
    5bb0:	00b7a023          	sw	a1,0(a5)
}
    5bb4:	00008067          	ret

00005bb8 <gpio_veerwolf_port_toggle_bits>:

static int gpio_veerwolf_port_toggle_bits(const struct device *dev,
				       gpio_port_pins_t pins)
{
	mem_addr_t addr = DEV_GPIO_ADDR(dev);
    5bb8:	00452783          	lw	a5,4(a0)

	port_val = sys_read32(addr) ^ pins;
	sys_write32(port_val, addr);

	return 0;
}
    5bbc:	00000513          	li	a0,0
	mem_addr_t addr = DEV_GPIO_ADDR(dev);
    5bc0:	0007a783          	lw	a5,0(a5)
	return *(volatile uint32_t *)addr;
    5bc4:	0007a703          	lw	a4,0(a5)
	port_val = sys_read32(addr) ^ pins;
    5bc8:	00e5c5b3          	xor	a1,a1,a4
	*(volatile uint32_t *)addr = data;
    5bcc:	00b7a023          	sw	a1,0(a5)
}
    5bd0:	00008067          	ret

00005bd4 <gpio_veerwolf_pin_interrupt_configure>:
					      enum gpio_int_mode mode,
					      enum gpio_int_trig trig)
{
	int ret = 0;

	if (mode != GPIO_INT_MODE_DISABLED) {
    5bd4:	000027b7          	lui	a5,0x2
	int ret = 0;
    5bd8:	00000513          	li	a0,0
	if (mode != GPIO_INT_MODE_DISABLED) {
    5bdc:	00f60463          	beq	a2,a5,5be4 <gpio_veerwolf_pin_interrupt_configure+0x10>
		ret = -ENOTSUP;
    5be0:	f7a00513          	li	a0,-134
	}
	return ret;
}
    5be4:	00008067          	ret

00005be8 <uart_ns16550_configure>:
}

static int uart_ns16550_configure(const struct device *dev,
				  const struct uart_config *cfg)
{
	struct uart_ns16550_dev_data * const dev_data = DEV_DATA(dev);
    5be8:	01052883          	lw	a7,16(a0)
{
    5bec:	00050793          	mv	a5,a0
	__asm__ volatile ("csrrc %0, mstatus, %1"
    5bf0:	00800693          	li	a3,8
    5bf4:	3006b6f3          	csrrc	a3,mstatus,a3
		OUTWORD(PCP(dev), pcp & ~PCP_UPDATE);
		OUTWORD(PCP(dev), pcp | PCP_UPDATE);
	}
#endif

	set_baud_rate(dev, cfg->baudrate);
    5bf8:	0005a503          	lw	a0,0(a1)
	key = (mstatus & MSTATUS_IEN);
    5bfc:	0086f693          	andi	a3,a3,8
	if ((baud_rate != 0U) && (dev_cfg->sys_clk_freq != 0U)) {
    5c00:	06050863          	beqz	a0,5c70 <uart_ns16550_configure+0x88>
	const struct uart_ns16550_device_config * const dev_cfg = DEV_CFG(dev);
    5c04:	0047a603          	lw	a2,4(a5) # 2004 <CONFIG_SRAM_SIZE+0x4>
	if ((baud_rate != 0U) && (dev_cfg->sys_clk_freq != 0U)) {
    5c08:	00462803          	lw	a6,4(a2) # 800004 <CONFIG_HEAP_MEM_POOL_SIZE+0x700004>
    5c0c:	06080263          	beqz	a6,5c70 <uart_ns16550_configure+0x88>
		divisor = ((dev_cfg->sys_clk_freq + (baud_rate << 3))
    5c10:	00351713          	slli	a4,a0,0x3
    5c14:	01070733          	add	a4,a4,a6
					/ baud_rate) >> 4;
    5c18:	02a75733          	divu	a4,a4,a0
		lcr_cache = INBYTE(LCR(dev));
    5c1c:	00062803          	lw	a6,0(a2)
	struct uart_ns16550_dev_data * const dev_data = DEV_DATA(dev);
    5c20:	0107a303          	lw	t1,16(a5)
	return *(volatile uint8_t *)addr;
    5c24:	00c84603          	lbu	a2,12(a6)
    5c28:	0ff67e13          	andi	t3,a2,255
		OUTBYTE(LCR(dev), LCR_DLAB | lcr_cache);
    5c2c:	f8066613          	ori	a2,a2,-128
    5c30:	0ff67613          	andi	a2,a2,255
	*(volatile uint8_t *)addr = data;
    5c34:	00c80623          	sb	a2,12(a6)
	return DEVICE_MMIO_GET(dev);
    5c38:	0047a803          	lw	a6,4(a5)
    5c3c:	00082803          	lw	a6,0(a6)
		divisor = ((dev_cfg->sys_clk_freq + (baud_rate << 3))
    5c40:	00475613          	srli	a2,a4,0x4
		OUTBYTE(BRDL(dev), (unsigned char)(divisor & 0xff));
    5c44:	0ff67613          	andi	a2,a2,255
    5c48:	00c80023          	sb	a2,0(a6)
	return DEVICE_MMIO_GET(dev);
    5c4c:	0047a603          	lw	a2,4(a5)
		OUTBYTE(BRDH(dev), (unsigned char)((divisor >> 8) & 0xff));
    5c50:	00c75713          	srli	a4,a4,0xc
    5c54:	0ff77713          	andi	a4,a4,255
    5c58:	00062603          	lw	a2,0(a2)
    5c5c:	00e60223          	sb	a4,4(a2)
	return DEVICE_MMIO_GET(dev);
    5c60:	0047a703          	lw	a4,4(a5)
		OUTBYTE(LCR(dev), lcr_cache);
    5c64:	00072703          	lw	a4,0(a4)
    5c68:	01c70623          	sb	t3,12(a4)
		dev_data->uart_config.baudrate = baud_rate;
    5c6c:	00a32023          	sw	a0,0(t1)

	/* Local structure to hold temporary values to pass to OUTBYTE() */
	struct uart_config uart_cfg;

	switch (cfg->data_bits) {
    5c70:	0065c603          	lbu	a2,6(a1)
    5c74:	00300713          	li	a4,3
		break;
	case UART_CFG_DATA_BITS_8:
		uart_cfg.data_bits = LCR_CS8;
		break;
	default:
		ret = -ENOTSUP;
    5c78:	f7a00513          	li	a0,-134
    5c7c:	08c76663          	bltu	a4,a2,5d08 <uart_ns16550_configure+0x120>
		goto out;
	}

	switch (cfg->stop_bits) {
    5c80:	0055c803          	lbu	a6,5(a1)
    5c84:	00100513          	li	a0,1
    5c88:	08a80463          	beq	a6,a0,5d10 <uart_ns16550_configure+0x128>
    5c8c:	f7a00513          	li	a0,-134
    5c90:	06e81c63          	bne	a6,a4,5d08 <uart_ns16550_configure+0x120>
    5c94:	00400813          	li	a6,4
	default:
		ret = -ENOTSUP;
		goto out;
	}

	switch (cfg->parity) {
    5c98:	0045c703          	lbu	a4,4(a1)
    5c9c:	00070a63          	beqz	a4,5cb0 <uart_ns16550_configure+0xc8>
    5ca0:	00200313          	li	t1,2
    5ca4:	f7a00513          	li	a0,-134
    5ca8:	06671063          	bne	a4,t1,5d08 <uart_ns16550_configure+0x120>
    5cac:	01000713          	li	a4,16
	default:
		ret = -ENOTSUP;
		goto out;
	}

	dev_data->uart_config = *cfg;
    5cb0:	0005a503          	lw	a0,0(a1)

	/* data bits, stop bits, parity, clear DLAB */
	OUTBYTE(LCR(dev),
    5cb4:	01066633          	or	a2,a2,a6
    5cb8:	00c76733          	or	a4,a4,a2
	return DEVICE_MMIO_GET(dev);
    5cbc:	0047a603          	lw	a2,4(a5)
	dev_data->uart_config = *cfg;
    5cc0:	00a8a023          	sw	a0,0(a7) # 80000 <digit7+0x920>
    5cc4:	0045a583          	lw	a1,4(a1)
	OUTBYTE(LCR(dev),
    5cc8:	00062603          	lw	a2,0(a2)
	int ret = 0;
    5ccc:	00000513          	li	a0,0
	dev_data->uart_config = *cfg;
    5cd0:	00b8a223          	sw	a1,4(a7)
    5cd4:	00e60623          	sb	a4,12(a2)
	return DEVICE_MMIO_GET(dev);
    5cd8:	0047a703          	lw	a4,4(a5)
    5cdc:	00b00613          	li	a2,11
	if (cfg->flow_ctrl == UART_CFG_FLOW_CTRL_RTS_CTS) {
		mdc |= MCR_AFCE;
	}
#endif

	OUTBYTE(MDC(dev), mdc);
    5ce0:	00072703          	lw	a4,0(a4)
    5ce4:	00c70823          	sb	a2,16(a4)
	return DEVICE_MMIO_GET(dev);
    5ce8:	0047a703          	lw	a4,4(a5)
    5cec:	f8700613          	li	a2,-121
	/*
	 * Program FIFO: enabled, mode 0 (set for compatibility with quark),
	 * generate the interrupt at 8th byte
	 * Clear TX and RX FIFO
	 */
	OUTBYTE(FCR(dev),
    5cf0:	00072703          	lw	a4,0(a4)
    5cf4:	00c70423          	sb	a2,8(a4)
	return DEVICE_MMIO_GET(dev);
    5cf8:	0047a783          	lw	a5,4(a5)
    5cfc:	0007a783          	lw	a5,0(a5)
	return *(volatile uint8_t *)addr;
    5d00:	0007c703          	lbu	a4,0(a5)
	*(volatile uint8_t *)addr = data;
    5d04:	00078223          	sb	zero,4(a5)
	__asm__ volatile ("csrrs %0, mstatus, %1"
    5d08:	3006a6f3          	csrrs	a3,mstatus,a3
	OUTBYTE(IER(dev), 0x00);

out:
	k_spin_unlock(&dev_data->lock, key);
	return ret;
};
    5d0c:	00008067          	ret
		uart_cfg.stop_bits = LCR_1_STB;
    5d10:	00000813          	li	a6,0
    5d14:	f85ff06f          	j	5c98 <uart_ns16550_configure+0xb0>

00005d18 <uart_ns16550_config_get>:

#ifdef CONFIG_UART_USE_RUNTIME_CONFIGURE
static int uart_ns16550_config_get(const struct device *dev,
				   struct uart_config *cfg)
{
	struct uart_ns16550_dev_data *data = DEV_DATA(dev);
    5d18:	01052783          	lw	a5,16(a0)
	cfg->stop_bits = data->uart_config.stop_bits;
	cfg->data_bits = data->uart_config.data_bits;
	cfg->flow_ctrl = data->uart_config.flow_ctrl;

	return 0;
}
    5d1c:	00000513          	li	a0,0
	cfg->baudrate = data->uart_config.baudrate;
    5d20:	0007a703          	lw	a4,0(a5)
    5d24:	00e5a023          	sw	a4,0(a1)
	cfg->parity = data->uart_config.parity;
    5d28:	0047c703          	lbu	a4,4(a5)
    5d2c:	00e58223          	sb	a4,4(a1)
	cfg->stop_bits = data->uart_config.stop_bits;
    5d30:	0057c703          	lbu	a4,5(a5)
    5d34:	00e582a3          	sb	a4,5(a1)
	cfg->data_bits = data->uart_config.data_bits;
    5d38:	0067c703          	lbu	a4,6(a5)
    5d3c:	00e58323          	sb	a4,6(a1)
	cfg->flow_ctrl = data->uart_config.flow_ctrl;
    5d40:	0077c783          	lbu	a5,7(a5)
    5d44:	00f583a3          	sb	a5,7(a1)
}
    5d48:	00008067          	ret

00005d4c <uart_ns16550_init>:
 */
static int uart_ns16550_init(const struct device *dev)
{
	int ret;

	ret = uart_ns16550_configure(dev, &DEV_DATA(dev)->uart_config);
    5d4c:	01052583          	lw	a1,16(a0)
    5d50:	e99ff06f          	j	5be8 <uart_ns16550_configure>

00005d54 <uart_ns16550_poll_in>:
	__asm__ volatile ("csrrc %0, mstatus, %1"
    5d54:	00800793          	li	a5,8
    5d58:	3007b7f3          	csrrc	a5,mstatus,a5
	return DEVICE_MMIO_GET(dev);
    5d5c:	00452703          	lw	a4,4(a0)
	key = (mstatus & MSTATUS_IEN);
    5d60:	0087f793          	andi	a5,a5,8
 *
 * @return 0 if a character arrived, -1 if the input buffer if empty.
 */
static int uart_ns16550_poll_in(const struct device *dev, unsigned char *c)
{
	int ret = -1;
    5d64:	fff00513          	li	a0,-1
	return DEVICE_MMIO_GET(dev);
    5d68:	00072683          	lw	a3,0(a4)
	return *(volatile uint8_t *)addr;
    5d6c:	0146c703          	lbu	a4,20(a3)
	k_spinlock_key_t key = k_spin_lock(&DEV_DATA(dev)->lock);

	if ((INBYTE(LSR(dev)) & LSR_RXRDY) != 0) {
    5d70:	00177713          	andi	a4,a4,1
    5d74:	00070863          	beqz	a4,5d84 <uart_ns16550_poll_in+0x30>
    5d78:	0006c703          	lbu	a4,0(a3)
		/* got a character */
		*c = INBYTE(RDR(dev));
		ret = 0;
    5d7c:	00000513          	li	a0,0
		*c = INBYTE(RDR(dev));
    5d80:	00e58023          	sb	a4,0(a1)
	__asm__ volatile ("csrrs %0, mstatus, %1"
    5d84:	3007a7f3          	csrrs	a5,mstatus,a5
	}

	k_spin_unlock(&DEV_DATA(dev)->lock, key);

	return ret;
}
    5d88:	00008067          	ret

00005d8c <uart_ns16550_poll_out>:
	__asm__ volatile ("csrrc %0, mstatus, %1"
    5d8c:	00800793          	li	a5,8
    5d90:	3007b7f3          	csrrc	a5,mstatus,a5
	return DEVICE_MMIO_GET(dev);
    5d94:	00452703          	lw	a4,4(a0)
	key = (mstatus & MSTATUS_IEN);
    5d98:	0087f793          	andi	a5,a5,8
    5d9c:	00072683          	lw	a3,0(a4)
static void uart_ns16550_poll_out(const struct device *dev,
					   unsigned char c)
{
	k_spinlock_key_t key = k_spin_lock(&DEV_DATA(dev)->lock);

	while ((INBYTE(LSR(dev)) & LSR_THRE) == 0) {
    5da0:	01468613          	addi	a2,a3,20
    5da4:	00064703          	lbu	a4,0(a2)
    5da8:	02077713          	andi	a4,a4,32
    5dac:	fe070ce3          	beqz	a4,5da4 <uart_ns16550_poll_out+0x18>
	*(volatile uint8_t *)addr = data;
    5db0:	00b68023          	sb	a1,0(a3)
	__asm__ volatile ("csrrs %0, mstatus, %1"
    5db4:	3007a7f3          	csrrs	a5,mstatus,a5
	}

	OUTBYTE(THR(dev), c);

	k_spin_unlock(&DEV_DATA(dev)->lock, key);
}
    5db8:	00008067          	ret

00005dbc <uart_ns16550_err_check>:
	__asm__ volatile ("csrrc %0, mstatus, %1"
    5dbc:	00800793          	li	a5,8
    5dc0:	3007b7f3          	csrrc	a5,mstatus,a5
	return DEVICE_MMIO_GET(dev);
    5dc4:	00452703          	lw	a4,4(a0)
	key = (mstatus & MSTATUS_IEN);
    5dc8:	0087f793          	andi	a5,a5,8
 * UART_BREAK if an error was detected, 0 otherwise.
 */
static int uart_ns16550_err_check(const struct device *dev)
{
	k_spinlock_key_t key = k_spin_lock(&DEV_DATA(dev)->lock);
	int check = (INBYTE(LSR(dev)) & LSR_EOB_MASK);
    5dcc:	00072703          	lw	a4,0(a4)
	return *(volatile uint8_t *)addr;
    5dd0:	01474503          	lbu	a0,20(a4)
    5dd4:	0ff57513          	andi	a0,a0,255
	__asm__ volatile ("csrrs %0, mstatus, %1"
    5dd8:	3007a7f3          	csrrs	a5,mstatus,a5
    5ddc:	01e57513          	andi	a0,a0,30

	k_spin_unlock(&DEV_DATA(dev)->lock, key);

	return check >> 1;
}
    5de0:	00155513          	srli	a0,a0,0x1
    5de4:	00008067          	ret

00005de8 <mtime>:
	volatile uint32_t *r = (uint32_t *)RISCV_MTIME_BASE;
	uint32_t lo, hi;

	/* Likewise, must guard against rollover when reading */
	do {
		hi = r[1];
    5de8:	800017b7          	lui	a5,0x80001
    5dec:	0247a703          	lw	a4,36(a5) # 80001024 <CONFIG_SYSTEM_WORKQUEUE_PRIORITY+0x80001025>
		lo = r[0];
    5df0:	0207a503          	lw	a0,32(a5)
	} while (r[1] != hi);
    5df4:	0247a583          	lw	a1,36(a5)
    5df8:	fee59ae3          	bne	a1,a4,5dec <mtime+0x4>

	return (((uint64_t)hi) << 32) | lo;
#endif
}
    5dfc:	00008067          	ret

00005e00 <timer_isr>:

static void timer_isr(const void *arg)
{
    5e00:	fe010113          	addi	sp,sp,-32
    5e04:	01312623          	sw	s3,12(sp)
    5e08:	00112e23          	sw	ra,28(sp)
    5e0c:	00812c23          	sw	s0,24(sp)
    5e10:	00912a23          	sw	s1,20(sp)
    5e14:	01212823          	sw	s2,16(sp)
    5e18:	01412423          	sw	s4,8(sp)
    5e1c:	01512223          	sw	s5,4(sp)
	__asm__ volatile ("csrrc %0, mstatus, %1"
    5e20:	00800993          	li	s3,8
    5e24:	3009b9f3          	csrrc	s3,mstatus,s3
	ARG_UNUSED(arg);

	k_spinlock_key_t key = k_spin_lock(&lock);
	uint64_t now = mtime();
    5e28:	fc1ff0ef          	jal	ra,5de8 <mtime>
	key = (mstatus & MSTATUS_IEN);
    5e2c:	0089f993          	andi	s3,s3,8
    5e30:	00050a13          	mv	s4,a0
    5e34:	00058913          	mv	s2,a1
	uint32_t dticks = (uint32_t)((now - last_count) / CYC_PER_TICK);

	last_count = now;
    5e38:	0000d437          	lui	s0,0xd
    5e3c:	11040413          	addi	s0,s0,272 # d110 <last_count>
    5e40:	00a42023          	sw	a0,0(s0)
    5e44:	00b42223          	sw	a1,4(s0)
	return z_clock_hw_cycles_per_sec;
    5e48:	00082ab7          	lui	s5,0x82

	if (!TICKLESS) {
		uint64_t next = last_count + CYC_PER_TICK;
    5e4c:	db0aa503          	lw	a0,-592(s5) # 81db0 <z_clock_hw_cycles_per_sec>
    5e50:	00000693          	li	a3,0
    5e54:	06400613          	li	a2,100
    5e58:	41f55593          	srai	a1,a0,0x1f
    5e5c:	ce0fa0ef          	jal	ra,33c <__udivdi3>
    5e60:	00042483          	lw	s1,0(s0)
    5e64:	00442783          	lw	a5,4(s0)
    5e68:	009504b3          	add	s1,a0,s1
    5e6c:	00a4b433          	sltu	s0,s1,a0
    5e70:	00f40433          	add	s0,s0,a5

		if ((int64_t)(next - now) < MIN_DELAY) {
    5e74:	41448a33          	sub	s4,s1,s4
    5e78:	0144b5b3          	sltu	a1,s1,s4
    5e7c:	41240933          	sub	s2,s0,s2
    5e80:	40b90933          	sub	s2,s2,a1
		uint64_t next = last_count + CYC_PER_TICK;
    5e84:	00048793          	mv	a5,s1
    5e88:	00040693          	mv	a3,s0
		if ((int64_t)(next - now) < MIN_DELAY) {
    5e8c:	03204863          	bgtz	s2,5ebc <timer_isr+0xbc>
    5e90:	00091663          	bnez	s2,5e9c <timer_isr+0x9c>
    5e94:	3e700713          	li	a4,999
    5e98:	03476263          	bltu	a4,s4,5ebc <timer_isr+0xbc>
			next += CYC_PER_TICK;
    5e9c:	db0aa503          	lw	a0,-592(s5)
    5ea0:	00000693          	li	a3,0
    5ea4:	06400613          	li	a2,100
    5ea8:	41f55593          	srai	a1,a0,0x1f
    5eac:	c90fa0ef          	jal	ra,33c <__udivdi3>
    5eb0:	00a487b3          	add	a5,s1,a0
    5eb4:	0097b4b3          	sltu	s1,a5,s1
    5eb8:	008486b3          	add	a3,s1,s0
	r[1] = 0xffffffff;
    5ebc:	80001737          	lui	a4,0x80001
    5ec0:	fff00613          	li	a2,-1
    5ec4:	02c72623          	sw	a2,44(a4) # 8000102c <CONFIG_SYSTEM_WORKQUEUE_PRIORITY+0x8000102d>
	r[0] = (uint32_t)time;
    5ec8:	02f72423          	sw	a5,40(a4)
	r[1] = (uint32_t)(time >> 32);
    5ecc:	02d72623          	sw	a3,44(a4)
	__asm__ volatile ("csrrs %0, mstatus, %1"
    5ed0:	3009a9f3          	csrrs	s3,mstatus,s3
		set_mtimecmp(next);
	}

	k_spin_unlock(&lock, key);
	sys_clock_announce(IS_ENABLED(CONFIG_TICKLESS_KERNEL) ? dticks : 1);
}
    5ed4:	01812403          	lw	s0,24(sp)
    5ed8:	01c12083          	lw	ra,28(sp)
    5edc:	01412483          	lw	s1,20(sp)
    5ee0:	01012903          	lw	s2,16(sp)
    5ee4:	00c12983          	lw	s3,12(sp)
    5ee8:	00812a03          	lw	s4,8(sp)
    5eec:	00412a83          	lw	s5,4(sp)
	sys_clock_announce(IS_ENABLED(CONFIG_TICKLESS_KERNEL) ? dticks : 1);
    5ef0:	00100513          	li	a0,1
}
    5ef4:	02010113          	addi	sp,sp,32
	sys_clock_announce(IS_ENABLED(CONFIG_TICKLESS_KERNEL) ? dticks : 1);
    5ef8:	6100106f          	j	7508 <sys_clock_announce>

00005efc <sys_clock_driver_init>:

int sys_clock_driver_init(const struct device *dev)
{
    5efc:	ff010113          	addi	sp,sp,-16
    5f00:	00812423          	sw	s0,8(sp)
	ARG_UNUSED(dev);

	IRQ_CONNECT(RISCV_MACHINE_TIMER_IRQ, 0, timer_isr, NULL, 0);
	last_count = mtime();
    5f04:	0000d437          	lui	s0,0xd
{
    5f08:	00112623          	sw	ra,12(sp)
	last_count = mtime();
    5f0c:	11040413          	addi	s0,s0,272 # d110 <last_count>
    5f10:	ed9ff0ef          	jal	ra,5de8 <mtime>
    5f14:	00a42023          	sw	a0,0(s0)
    5f18:	00b42223          	sw	a1,4(s0)
    5f1c:	000827b7          	lui	a5,0x82
	set_mtimecmp(last_count + CYC_PER_TICK);
    5f20:	db07a503          	lw	a0,-592(a5) # 81db0 <z_clock_hw_cycles_per_sec>
    5f24:	06400613          	li	a2,100
    5f28:	00000693          	li	a3,0
    5f2c:	41f55593          	srai	a1,a0,0x1f
    5f30:	c0cfa0ef          	jal	ra,33c <__udivdi3>
    5f34:	00042783          	lw	a5,0(s0)
    5f38:	00442703          	lw	a4,4(s0)
	r[1] = 0xffffffff;
    5f3c:	fff00693          	li	a3,-1
	set_mtimecmp(last_count + CYC_PER_TICK);
    5f40:	00f507b3          	add	a5,a0,a5
    5f44:	00a7b533          	sltu	a0,a5,a0
    5f48:	00e50533          	add	a0,a0,a4
	r[1] = 0xffffffff;
    5f4c:	80001737          	lui	a4,0x80001
    5f50:	02d72623          	sw	a3,44(a4) # 8000102c <CONFIG_SYSTEM_WORKQUEUE_PRIORITY+0x8000102d>
	r[0] = (uint32_t)time;
    5f54:	02f72423          	sw	a5,40(a4)
	r[1] = (uint32_t)(time >> 32);
    5f58:	02a72623          	sw	a0,44(a4)
	irq_enable(RISCV_MACHINE_TIMER_IRQ);
    5f5c:	00700513          	li	a0,7
    5f60:	929ff0ef          	jal	ra,5888 <arch_irq_enable>
	return 0;
}
    5f64:	00c12083          	lw	ra,12(sp)
    5f68:	00812403          	lw	s0,8(sp)
    5f6c:	00000513          	li	a0,0
    5f70:	01010113          	addi	sp,sp,16
    5f74:	00008067          	ret

00005f78 <sys_clock_set_timeout>:
	}

	set_mtimecmp(cyc + last_count);
	k_spin_unlock(&lock, key);
#endif
}
    5f78:	00008067          	ret

00005f7c <sys_clock_elapsed>:
	k_spinlock_key_t key = k_spin_lock(&lock);
	uint32_t ret = ((uint32_t)mtime() - (uint32_t)last_count) / CYC_PER_TICK;

	k_spin_unlock(&lock, key);
	return ret;
}
    5f7c:	00000513          	li	a0,0
    5f80:	00008067          	ret

00005f84 <z_device_state_init>:

	while (dev < __device_end) {
		z_object_init(dev);
		++dev;
	}
}
    5f84:	00008067          	ret

00005f88 <z_sys_init_run_level>:
		/* End marker */
		__init_end,
	};
	const struct init_entry *entry;

	for (entry = levels[level]; entry < levels[level+1]; entry++) {
    5f88:	00251713          	slli	a4,a0,0x2
    5f8c:	0000d7b7          	lui	a5,0xd
    5f90:	00150513          	addi	a0,a0,1
    5f94:	d5878793          	addi	a5,a5,-680 # cd58 <levels.0>
    5f98:	00251513          	slli	a0,a0,0x2
{
    5f9c:	fe010113          	addi	sp,sp,-32
	for (entry = levels[level]; entry < levels[level+1]; entry++) {
    5fa0:	00e78733          	add	a4,a5,a4
    5fa4:	00a78533          	add	a0,a5,a0
{
    5fa8:	00812c23          	sw	s0,24(sp)
    5fac:	01212823          	sw	s2,16(sp)
	for (entry = levels[level]; entry < levels[level+1]; entry++) {
    5fb0:	00072403          	lw	s0,0(a4)
    5fb4:	00052903          	lw	s2,0(a0)
{
    5fb8:	01312623          	sw	s3,12(sp)
    5fbc:	00112e23          	sw	ra,28(sp)
    5fc0:	00912a23          	sw	s1,20(sp)
					rc = -rc;
				}
				if (rc > UINT8_MAX) {
					rc = UINT8_MAX;
				}
				dev->state->init_res = rc;
    5fc4:	0ff00993          	li	s3,255
	for (entry = levels[level]; entry < levels[level+1]; entry++) {
    5fc8:	03246063          	bltu	s0,s2,5fe8 <z_sys_init_run_level+0x60>
			}
			dev->state->initialized = true;
		}
	}
}
    5fcc:	01c12083          	lw	ra,28(sp)
    5fd0:	01812403          	lw	s0,24(sp)
    5fd4:	01412483          	lw	s1,20(sp)
    5fd8:	01012903          	lw	s2,16(sp)
    5fdc:	00c12983          	lw	s3,12(sp)
    5fe0:	02010113          	addi	sp,sp,32
    5fe4:	00008067          	ret
		const struct device *dev = entry->dev;
    5fe8:	00442483          	lw	s1,4(s0)
		int rc = entry->init(dev);
    5fec:	00042783          	lw	a5,0(s0)
    5ff0:	00048513          	mv	a0,s1
    5ff4:	000780e7          	jalr	a5
		if (dev != NULL) {
    5ff8:	02048863          	beqz	s1,6028 <z_sys_init_run_level+0xa0>
				dev->state->init_res = rc;
    5ffc:	00c4a783          	lw	a5,12(s1)
			if (rc != 0) {
    6000:	00050e63          	beqz	a0,601c <z_sys_init_run_level+0x94>
				if (rc < 0) {
    6004:	41f55713          	srai	a4,a0,0x1f
    6008:	00a74533          	xor	a0,a4,a0
    600c:	40e50533          	sub	a0,a0,a4
				dev->state->init_res = rc;
    6010:	00a9d463          	bge	s3,a0,6018 <z_sys_init_run_level+0x90>
    6014:	0ff00513          	li	a0,255
    6018:	00a78023          	sb	a0,0(a5)
			dev->state->initialized = true;
    601c:	0007d703          	lhu	a4,0(a5)
    6020:	10076713          	ori	a4,a4,256
    6024:	00e79023          	sh	a4,0(a5)
	for (entry = levels[level]; entry < levels[level+1]; entry++) {
    6028:	00840413          	addi	s0,s0,8
    602c:	f9dff06f          	j	5fc8 <z_sys_init_run_level+0x40>

00006030 <z_device_ready>:
{
	/*
	 * if an invalid device pointer is passed as argument, this call
	 * reports the `device` as not ready for usage.
	 */
	if (dev == NULL) {
    6030:	00050e63          	beqz	a0,604c <z_device_ready+0x1c>
		return false;
	}

	return dev->state->initialized && (dev->state->init_res == 0U);
    6034:	00c52783          	lw	a5,12(a0)
    6038:	0007a503          	lw	a0,0(a5)
    603c:	1ff57513          	andi	a0,a0,511
    6040:	f0050513          	addi	a0,a0,-256
    6044:	00153513          	seqz	a0,a0
    6048:	00008067          	ret
		return false;
    604c:	00000513          	li	a0,0
}
    6050:	00008067          	ret

00006054 <z_impl_z_errno>:
#include <syscalls/z_errno_mrsh.c>

#else
int *z_impl_z_errno(void)
{
	return &_current->errno_var;
    6054:	0000d7b7          	lui	a5,0xd
    6058:	5047a503          	lw	a0,1284(a5) # d504 <_kernel+0x8>
}
    605c:	07050513          	addi	a0,a0,112
    6060:	00008067          	ret

00006064 <arch_system_halt>:
	__asm__ volatile ("csrrc %0, mstatus, %1"
    6064:	00800793          	li	a5,8
    6068:	3007b7f3          	csrrc	a5,mstatus,a5
	/* TODO: What's the best way to totally halt the system if SMP
	 * is enabled?
	 */

	(void)arch_irq_lock();
	for (;;) {
    606c:	0000006f          	j	606c <arch_system_halt+0x8>

00006070 <k_sys_fatal_error_handler>:
/* LCOV_EXCL_STOP */

/* LCOV_EXCL_START */
__weak void k_sys_fatal_error_handler(unsigned int reason,
				      const z_arch_esf_t *esf)
{
    6070:	ff010113          	addi	sp,sp,-16
    6074:	00112623          	sw	ra,12(sp)
	ARG_UNUSED(esf);

	LOG_PANIC();
	LOG_ERR("Halting system");
	arch_system_halt(reason);
    6078:	fedff0ef          	jal	ra,6064 <arch_system_halt>

0000607c <z_fatal_error>:
	return 0;
#endif
}

void z_fatal_error(unsigned int reason, const z_arch_esf_t *esf)
{
    607c:	fe010113          	addi	sp,sp,-32
    6080:	00812c23          	sw	s0,24(sp)
    6084:	01212823          	sw	s2,16(sp)
    6088:	00112e23          	sw	ra,28(sp)
    608c:	00912a23          	sw	s1,20(sp)
    6090:	00050913          	mv	s2,a0
    6094:	00b12623          	sw	a1,12(sp)
    6098:	00800413          	li	s0,8
    609c:	30043473          	csrrc	s0,mstatus,s0
	return z_impl_z_current_get();
    60a0:	018010ef          	jal	ra,70b8 <z_impl_z_current_get>
	LOG_ERR("Current thread: %p (%s)", thread,
		log_strdup(thread_name_get(thread)));

	coredump(reason, esf, thread);

	k_sys_fatal_error_handler(reason, esf);
    60a4:	00c12583          	lw	a1,12(sp)
    60a8:	00050493          	mv	s1,a0
    60ac:	00090513          	mv	a0,s2
    60b0:	fc1ff0ef          	jal	ra,6070 <k_sys_fatal_error_handler>
	key = (mstatus & MSTATUS_IEN);
    60b4:	00847413          	andi	s0,s0,8
	__asm__ volatile ("csrrs %0, mstatus, %1"
    60b8:	30042473          	csrrs	s0,mstatus,s0
	arch_irq_unlock(key);

	if (IS_ENABLED(CONFIG_MULTITHREADING)) {
		k_thread_abort(thread);
	}
}
    60bc:	01812403          	lw	s0,24(sp)
    60c0:	01c12083          	lw	ra,28(sp)
    60c4:	01012903          	lw	s2,16(sp)
	z_impl_k_thread_abort(thread);
    60c8:	00048513          	mv	a0,s1
    60cc:	01412483          	lw	s1,20(sp)
    60d0:	02010113          	addi	sp,sp,32
    60d4:	0e40106f          	j	71b8 <z_impl_k_thread_abort>

000060d8 <init_idle_thread>:
#else
	char *tname = NULL;
#endif /* CONFIG_THREAD_NAME */

	z_setup_new_thread(thread, stack,
			  CONFIG_IDLE_STACK_SIZE, idle, &_kernel.cpus[i],
    60d8:	01800693          	li	a3,24
    60dc:	02d506b3          	mul	a3,a0,a3
{
    60e0:	fe010113          	addi	sp,sp,-32
    60e4:	00812c23          	sw	s0,24(sp)
	z_setup_new_thread(thread, stack,
    60e8:	0000d737          	lui	a4,0xd
	struct k_thread *thread = &z_idle_threads[i];
    60ec:	0000d437          	lui	s0,0xd
	k_thread_stack_t *stack = z_idle_stacks[i];
    60f0:	00951313          	slli	t1,a0,0x9
	struct k_thread *thread = &z_idle_threads[i];
    60f4:	3e840413          	addi	s0,s0,1000 # d3e8 <z_idle_threads>
    60f8:	00751513          	slli	a0,a0,0x7
	z_setup_new_thread(thread, stack,
    60fc:	4fc70713          	addi	a4,a4,1276 # d4fc <_kernel>
    6100:	0000f5b7          	lui	a1,0xf
	struct k_thread *thread = &z_idle_threads[i];
    6104:	00a40433          	add	s0,s0,a0
	z_setup_new_thread(thread, stack,
    6108:	00100793          	li	a5,1
    610c:	00d70733          	add	a4,a4,a3
    6110:	d2058593          	addi	a1,a1,-736 # ed20 <z_idle_stacks>
    6114:	000066b7          	lui	a3,0x6
    6118:	00f12023          	sw	a5,0(sp)
    611c:	00012223          	sw	zero,4(sp)
    6120:	00000793          	li	a5,0
    6124:	00040513          	mv	a0,s0
    6128:	00f00893          	li	a7,15
    612c:	00000813          	li	a6,0
    6130:	4d468693          	addi	a3,a3,1236 # 64d4 <idle>
    6134:	20000613          	li	a2,512
    6138:	006585b3          	add	a1,a1,t1
{
    613c:	00112e23          	sw	ra,28(sp)
	z_setup_new_thread(thread, stack,
    6140:	174000ef          	jal	ra,62b4 <z_setup_new_thread>
	SYS_PORT_TRACING_FUNC(k_thread, sched_resume, thread);
}

static inline void z_mark_thread_as_started(struct k_thread *thread)
{
	thread->base.thread_state &= ~_THREAD_PRESTART;
    6144:	00d44783          	lbu	a5,13(s0)
	z_mark_thread_as_started(thread);

#ifdef CONFIG_SMP
	thread->base.is_idle = 1U;
#endif
}
    6148:	01c12083          	lw	ra,28(sp)
    614c:	ffb7f793          	andi	a5,a5,-5
    6150:	00f406a3          	sb	a5,13(s0)
    6154:	01812403          	lw	s0,24(sp)
    6158:	02010113          	addi	sp,sp,32
    615c:	00008067          	ret

00006160 <bg_thread_main>:
{
    6160:	ff010113          	addi	sp,sp,-16
	z_sys_post_kernel = true;
    6164:	0000d7b7          	lui	a5,0xd
    6168:	00100713          	li	a4,1
	z_sys_init_run_level(_SYS_INIT_LEVEL_POST_KERNEL);
    616c:	00200513          	li	a0,2
{
    6170:	00112623          	sw	ra,12(sp)
	z_sys_post_kernel = true;
    6174:	16e78023          	sb	a4,352(a5) # d160 <z_sys_post_kernel>
	z_sys_init_run_level(_SYS_INIT_LEVEL_POST_KERNEL);
    6178:	e11ff0ef          	jal	ra,5f88 <z_sys_init_run_level>
	boot_banner();
    617c:	51c010ef          	jal	ra,7698 <boot_banner>
	z_sys_init_run_level(_SYS_INIT_LEVEL_APPLICATION);
    6180:	00300513          	li	a0,3
    6184:	e05ff0ef          	jal	ra,5f88 <z_sys_init_run_level>
	z_init_static_threads();
    6188:	234000ef          	jal	ra,63bc <z_init_static_threads>
	main();
    618c:	dadfd0ef          	jal	ra,3f38 <main>
	z_main_thread.base.user_options &= ~K_ESSENTIAL;
    6190:	0000d7b7          	lui	a5,0xd
    6194:	46878793          	addi	a5,a5,1128 # d468 <z_main_thread>
    6198:	00c7c703          	lbu	a4,12(a5)
    619c:	ffe77713          	andi	a4,a4,-2
    61a0:	00e78623          	sb	a4,12(a5)
} /* LCOV_EXCL_LINE ... because we just dumped final coverage data */
    61a4:	00c12083          	lw	ra,12(sp)
    61a8:	01010113          	addi	sp,sp,16
    61ac:	00008067          	ret

000061b0 <z_bss_zero>:
	(void)memset(__bss_start, 0, __bss_end - __bss_start);
    61b0:	0000d537          	lui	a0,0xd

__BEGIN_DECLS
__ssp_bos_icheck3_restrict(memcpy, void *, const void *)
__ssp_bos_icheck3(memmove, void *, const void *)
__ssp_bos_icheck3_restrict(mempcpy, void *, const void *)
__ssp_bos_icheck3(memset, void *, int)
    61b4:	0000d7b7          	lui	a5,0xd
    61b8:	11050613          	addi	a2,a0,272 # d110 <last_count>
    61bc:	52078793          	addi	a5,a5,1312 # d520 <sched_spinlock>
    61c0:	40c78633          	sub	a2,a5,a2
    61c4:	00000593          	li	a1,0
    61c8:	11050513          	addi	a0,a0,272
    61cc:	b28fd06f          	j	34f4 <memset>

000061d0 <z_cstart>:
 *
 * @return Does not return
 */
__boot_func
FUNC_NORETURN void z_cstart(void)
{
    61d0:	f6010113          	addi	sp,sp,-160
    61d4:	08812c23          	sw	s0,152(sp)
{
	dummy_thread->base.thread_state = _THREAD_DUMMY;
#ifdef CONFIG_SCHED_CPU_MASK
	dummy_thread->base.cpu_mask = -1;
#endif
	dummy_thread->base.user_options = K_ESSENTIAL;
    61d8:	10100793          	li	a5,257
#endif
#ifdef CONFIG_USERSPACE
	dummy_thread->mem_domain_info.mem_domain = &k_mem_domain_default;
#endif

	_current_cpu->current = dummy_thread;
    61dc:	0000d437          	lui	s0,0xd
    61e0:	4fc40413          	addi	s0,s0,1276 # d4fc <_kernel>
	dummy_thread->base.user_options = K_ESSENTIAL;
    61e4:	00f11e23          	sh	a5,28(sp)
	_current_cpu->current = dummy_thread;
    61e8:	01010793          	addi	a5,sp,16
    61ec:	08112e23          	sw	ra,156(sp)
    61f0:	00f42423          	sw	a5,8(s0)
    61f4:	08912a23          	sw	s1,148(sp)
    61f8:	09212823          	sw	s2,144(sp)
	struct k_thread dummy_thread;

	z_dummy_thread_init(&dummy_thread);
#endif
	/* do any necessary initialization of static devices */
	z_device_state_init();
    61fc:	d89ff0ef          	jal	ra,5f84 <z_device_state_init>

	/* perform basic hardware initialization */
	z_sys_init_run_level(_SYS_INIT_LEVEL_PRE_KERNEL_1);
    6200:	00000513          	li	a0,0
    6204:	d85ff0ef          	jal	ra,5f88 <z_sys_init_run_level>
	z_sys_init_run_level(_SYS_INIT_LEVEL_PRE_KERNEL_2);
    6208:	00100513          	li	a0,1
    620c:	d7dff0ef          	jal	ra,5f88 <z_sys_init_run_level>
	z_sched_init();
    6210:	681000ef          	jal	ra,7090 <z_sched_init>
	stack_ptr = z_setup_new_thread(&z_main_thread, z_main_stack,
    6214:	0000d7b7          	lui	a5,0xd
    6218:	d6c78793          	addi	a5,a5,-660 # cd6c <levels.0+0x14>
	_kernel.ready_q.cache = &z_main_thread;
    621c:	0000d4b7          	lui	s1,0xd
	stack_ptr = z_setup_new_thread(&z_main_thread, z_main_stack,
    6220:	00f12223          	sw	a5,4(sp)
    6224:	000066b7          	lui	a3,0x6
    6228:	00100793          	li	a5,1
    622c:	0000f5b7          	lui	a1,0xf
	_kernel.ready_q.cache = &z_main_thread;
    6230:	46848913          	addi	s2,s1,1128 # d468 <z_main_thread>
	stack_ptr = z_setup_new_thread(&z_main_thread, z_main_stack,
    6234:	00000893          	li	a7,0
    6238:	00000813          	li	a6,0
    623c:	00000713          	li	a4,0
    6240:	16068693          	addi	a3,a3,352 # 6160 <bg_thread_main>
    6244:	40000613          	li	a2,1024
    6248:	92058593          	addi	a1,a1,-1760 # e920 <z_main_stack>
    624c:	00f12023          	sw	a5,0(sp)
    6250:	46848513          	addi	a0,s1,1128
    6254:	00000793          	li	a5,0
	_kernel.ready_q.cache = &z_main_thread;
    6258:	01242c23          	sw	s2,24(s0)
	stack_ptr = z_setup_new_thread(&z_main_thread, z_main_stack,
    625c:	058000ef          	jal	ra,62b4 <z_setup_new_thread>
    6260:	00d94783          	lbu	a5,13(s2)
	z_ready_thread(&z_main_thread);
    6264:	46848513          	addi	a0,s1,1128
    6268:	ffb7f793          	andi	a5,a5,-5
    626c:	00f906a3          	sb	a5,13(s2)
    6270:	1dd000ef          	jal	ra,6c4c <z_ready_thread>
		init_idle_thread(i);
    6274:	00000513          	li	a0,0
    6278:	e61ff0ef          	jal	ra,60d8 <init_idle_thread>
		_kernel.cpus[i].idle_thread = &z_idle_threads[i];
    627c:	0000d7b7          	lui	a5,0xd
    6280:	3e878793          	addi	a5,a5,1000 # d3e8 <z_idle_threads>
    6284:	00f42623          	sw	a5,12(s0)
		_kernel.cpus[i].irq_stack =
    6288:	0000f7b7          	lui	a5,0xf
    628c:	72078793          	addi	a5,a5,1824 # f720 <W1>
		_kernel.cpus[i].id = i;
    6290:	00040a23          	sb	zero,20(s0)
		_kernel.cpus[i].irq_stack =
    6294:	00f42223          	sw	a5,4(s0)
	__asm__ volatile ("csrrc %0, mstatus, %1"
    6298:	00800513          	li	a0,8
    629c:	30053573          	csrrc	a0,mstatus,a0
	ret = arch_swap(key);
    62a0:	00857513          	andi	a0,a0,8
    62a4:	828fa0ef          	jal	ra,2cc <arch_swap>

000062a8 <z_impl_k_thread_name_set>:

	SYS_PORT_TRACING_OBJ_FUNC(k_thread, name_set, thread, -ENOSYS);

	return -ENOSYS;
#endif /* CONFIG_THREAD_NAME */
}
    62a8:	fa800513          	li	a0,-88
    62ac:	00008067          	ret

000062b0 <z_impl_k_thread_start>:

void z_impl_k_thread_start(struct k_thread *thread)
{
	SYS_PORT_TRACING_OBJ_FUNC(k_thread, start, thread);

	z_sched_start(thread);
    62b0:	1cd0006f          	j	6c7c <z_sched_start>

000062b4 <z_setup_new_thread>:
char *z_setup_new_thread(struct k_thread *new_thread,
			 k_thread_stack_t *stack, size_t stack_size,
			 k_thread_entry_t entry,
			 void *p1, void *p2, void *p3,
			 int prio, uint32_t options, const char *name)
{
    62b4:	ff010113          	addi	sp,sp,-16
    62b8:	00812423          	sw	s0,8(sp)
    62bc:	00912223          	sw	s1,4(sp)
    62c0:	00112623          	sw	ra,12(sp)
	SYS_DLIST_FOR_EACH_CONTAINER(&((wq)->waitq), thread_ptr, \
				     base.qnode_dlist)

static inline void z_waitq_init(_wait_q_t *w)
{
	sys_dlist_init(&w->waitq);
    62c4:	06850313          	addi	t1,a0,104
 * @return N/A
 */

static inline void sys_dlist_init(sys_dlist_t *list)
{
	list->head = (sys_dnode_t *)list;
    62c8:	06652423          	sw	t1,104(a0)
	list->tail = (sys_dnode_t *)list;
    62cc:	06652623          	sw	t1,108(a0)
void z_init_thread_base(struct _thread_base *thread_base, int priority,
		       uint32_t initial_state, unsigned int options)
{
	/* k_q_node is initialized upon first insertion in a list */
	thread_base->pended_on = NULL;
	thread_base->user_options = (uint8_t)options;
    62d0:	01012303          	lw	t1,16(sp)
		stack_obj_size = Z_KERNEL_STACK_SIZE_ADJUST(stack_size);
    62d4:	00f60613          	addi	a2,a2,15
    62d8:	ff067613          	andi	a2,a2,-16
	stack_ptr = (char *)stack + stack_obj_size;
    62dc:	00c584b3          	add	s1,a1,a2
	thread_base->user_options = (uint8_t)options;
    62e0:	00650623          	sb	t1,12(a0)
	thread_base->thread_state = (uint8_t)initial_state;
    62e4:	00400313          	li	t1,4
	thread_base->pended_on = NULL;
    62e8:	00052423          	sw	zero,8(a0)
	thread_base->thread_state = (uint8_t)initial_state;
    62ec:	006506a3          	sb	t1,13(a0)

	thread_base->prio = priority;
    62f0:	01150723          	sb	a7,14(a0)

	thread_base->sched_locked = 0U;
    62f4:	000507a3          	sb	zero,15(a0)
 * @return N/A
 */

static inline void sys_dnode_init(sys_dnode_t *node)
{
	node->next = NULL;
    62f8:	00052c23          	sw	zero,24(a0)
	node->prev = NULL;
    62fc:	00052e23          	sw	zero,28(a0)
	arch_new_thread(new_thread, stack, stack_ptr, entry, p1, p2, p3);
    6300:	00048613          	mv	a2,s1
{
    6304:	00050413          	mv	s0,a0
	arch_new_thread(new_thread, stack, stack_ptr, entry, p1, p2, p3);
    6308:	9dcff0ef          	jal	ra,54e4 <arch_new_thread>
	new_thread->resource_pool = _current->resource_pool;
    630c:	0000d7b7          	lui	a5,0xd
    6310:	5047a783          	lw	a5,1284(a5) # d504 <_kernel+0x8>
}
    6314:	00c12083          	lw	ra,12(sp)
	new_thread->init_data = NULL;
    6318:	06042223          	sw	zero,100(s0)
	new_thread->resource_pool = _current->resource_pool;
    631c:	0747a783          	lw	a5,116(a5)
}
    6320:	00048513          	mv	a0,s1
    6324:	00412483          	lw	s1,4(sp)
	new_thread->resource_pool = _current->resource_pool;
    6328:	06f42a23          	sw	a5,116(s0)
}
    632c:	00812403          	lw	s0,8(sp)
    6330:	01010113          	addi	sp,sp,16
    6334:	00008067          	ret

00006338 <z_impl_k_thread_create>:
{
    6338:	fe010113          	addi	sp,sp,-32
	z_setup_new_thread(new_thread, stack, stack_size, entry, p1, p2, p3,
    633c:	02012303          	lw	t1,32(sp)
{
    6340:	01212823          	sw	s2,16(sp)
	z_setup_new_thread(new_thread, stack, stack_size, entry, p1, p2, p3,
    6344:	00012223          	sw	zero,4(sp)
{
    6348:	02812903          	lw	s2,40(sp)
	z_setup_new_thread(new_thread, stack, stack_size, entry, p1, p2, p3,
    634c:	00612023          	sw	t1,0(sp)
{
    6350:	00812c23          	sw	s0,24(sp)
    6354:	00912a23          	sw	s1,20(sp)
    6358:	00112e23          	sw	ra,28(sp)
    635c:	02c12483          	lw	s1,44(sp)
    6360:	00050413          	mv	s0,a0
	z_setup_new_thread(new_thread, stack, stack_size, entry, p1, p2, p3,
    6364:	f51ff0ef          	jal	ra,62b4 <z_setup_new_thread>
	if (!K_TIMEOUT_EQ(delay, K_FOREVER)) {
    6368:	fff00693          	li	a3,-1
    636c:	00d91463          	bne	s2,a3,6374 <z_impl_k_thread_create+0x3c>
    6370:	01248a63          	beq	s1,s2,6384 <z_impl_k_thread_create+0x4c>
	if (K_TIMEOUT_EQ(delay, K_NO_WAIT)) {
    6374:	0124e7b3          	or	a5,s1,s2
    6378:	02079463          	bnez	a5,63a0 <z_impl_k_thread_create+0x68>
	z_sched_start(thread);
    637c:	00040513          	mv	a0,s0
    6380:	0fd000ef          	jal	ra,6c7c <z_sched_start>
}
    6384:	01c12083          	lw	ra,28(sp)
    6388:	00040513          	mv	a0,s0
    638c:	01812403          	lw	s0,24(sp)
    6390:	01412483          	lw	s1,20(sp)
    6394:	01012903          	lw	s2,16(sp)
    6398:	02010113          	addi	sp,sp,32
    639c:	00008067          	ret

extern void z_thread_timeout(struct _timeout *timeout);

static inline void z_add_thread_timeout(struct k_thread *thread, k_timeout_t ticks)
{
	z_add_timeout(&thread->base.timeout, z_thread_timeout, ticks);
    63a0:	000075b7          	lui	a1,0x7
    63a4:	00090613          	mv	a2,s2
    63a8:	00048693          	mv	a3,s1
    63ac:	ccc58593          	addi	a1,a1,-820 # 6ccc <z_thread_timeout>
    63b0:	01840513          	addi	a0,s0,24
    63b4:	709000ef          	jal	ra,72bc <z_add_timeout>
    63b8:	fcdff06f          	j	6384 <z_impl_k_thread_create+0x4c>

000063bc <z_init_static_threads>:
{
    63bc:	fd010113          	addi	sp,sp,-48
	_FOREACH_STATIC_THREAD(thread_data) {
    63c0:	000827b7          	lui	a5,0x82
{
    63c4:	03212023          	sw	s2,32(sp)
	_FOREACH_STATIC_THREAD(thread_data) {
    63c8:	00082937          	lui	s2,0x82
{
    63cc:	02812423          	sw	s0,40(sp)
    63d0:	02912223          	sw	s1,36(sp)
    63d4:	02112623          	sw	ra,44(sp)
    63d8:	01312e23          	sw	s3,28(sp)
    63dc:	01412c23          	sw	s4,24(sp)
    63e0:	01512a23          	sw	s5,20(sp)
	_FOREACH_STATIC_THREAD(thread_data) {
    63e4:	dcc78413          	addi	s0,a5,-564 # 81dcc <__lock___malloc_recursive_mutex>
    63e8:	dcc78493          	addi	s1,a5,-564
    63ec:	dcc90913          	addi	s2,s2,-564 # 81dcc <__lock___malloc_recursive_mutex>
    63f0:	05246063          	bltu	s0,s2,6430 <z_init_static_threads+0x74>
	k_sched_lock();
    63f4:	598000ef          	jal	ra,698c <k_sched_lock>
	_FOREACH_STATIC_THREAD(thread_data) {
    63f8:	00048413          	mv	s0,s1
		if (thread_data->init_delay != K_TICKS_FOREVER) {
    63fc:	fff00993          	li	s3,-1
		t += off;
    6400:	00900a13          	li	s4,9
    6404:	00007ab7          	lui	s5,0x7
	_FOREACH_STATIC_THREAD(thread_data) {
    6408:	07246663          	bltu	s0,s2,6474 <z_init_static_threads+0xb8>
}
    640c:	02812403          	lw	s0,40(sp)
    6410:	02c12083          	lw	ra,44(sp)
    6414:	02412483          	lw	s1,36(sp)
    6418:	02012903          	lw	s2,32(sp)
    641c:	01c12983          	lw	s3,28(sp)
    6420:	01812a03          	lw	s4,24(sp)
    6424:	01412a83          	lw	s5,20(sp)
    6428:	03010113          	addi	sp,sp,48
	k_sched_unlock();
    642c:	3cd0006f          	j	6ff8 <k_sched_unlock>
		z_setup_new_thread(
    6430:	02c42783          	lw	a5,44(s0)
    6434:	00f12223          	sw	a5,4(sp)
    6438:	02042783          	lw	a5,32(s0)
    643c:	00f12023          	sw	a5,0(sp)
    6440:	01442783          	lw	a5,20(s0)
    6444:	01c42883          	lw	a7,28(s0)
    6448:	01842803          	lw	a6,24(s0)
    644c:	01042703          	lw	a4,16(s0)
    6450:	00c42683          	lw	a3,12(s0)
    6454:	00842603          	lw	a2,8(s0)
    6458:	00442583          	lw	a1,4(s0)
    645c:	00042503          	lw	a0,0(s0)
    6460:	e55ff0ef          	jal	ra,62b4 <z_setup_new_thread>
		thread_data->init_thread->init_data = thread_data;
    6464:	00042783          	lw	a5,0(s0)
    6468:	0687a223          	sw	s0,100(a5)
	_FOREACH_STATIC_THREAD(thread_data) {
    646c:	03040413          	addi	s0,s0,48
    6470:	f81ff06f          	j	63f0 <z_init_static_threads+0x34>
		if (thread_data->init_delay != K_TICKS_FOREVER) {
    6474:	02442783          	lw	a5,36(s0)
    6478:	03378863          	beq	a5,s3,64a8 <z_init_static_threads+0xec>
			schedule_new_thread(thread_data->init_thread,
    647c:	00042483          	lw	s1,0(s0)
					    K_MSEC(thread_data->init_delay));
    6480:	0007d463          	bgez	a5,6488 <z_init_static_threads+0xcc>
    6484:	00000793          	li	a5,0
    6488:	00978513          	addi	a0,a5,9
    648c:	41f7d593          	srai	a1,a5,0x1f
    6490:	00f537b3          	sltu	a5,a0,a5
    6494:	00b785b3          	add	a1,a5,a1
	if (K_TIMEOUT_EQ(delay, K_NO_WAIT)) {
    6498:	01451c63          	bne	a0,s4,64b0 <z_init_static_threads+0xf4>
    649c:	00059a63          	bnez	a1,64b0 <z_init_static_threads+0xf4>
	z_sched_start(thread);
    64a0:	00048513          	mv	a0,s1
    64a4:	7d8000ef          	jal	ra,6c7c <z_sched_start>
	_FOREACH_STATIC_THREAD(thread_data) {
    64a8:	03040413          	addi	s0,s0,48
    64ac:	f5dff06f          	j	6408 <z_init_static_threads+0x4c>
			return t / ((uint64_t)from_hz / to_hz);
    64b0:	00a00613          	li	a2,10
    64b4:	00000693          	li	a3,0
    64b8:	e85f90ef          	jal	ra,33c <__udivdi3>
    64bc:	00050613          	mv	a2,a0
    64c0:	00058693          	mv	a3,a1
    64c4:	01848513          	addi	a0,s1,24
    64c8:	ccca8593          	addi	a1,s5,-820 # 6ccc <z_thread_timeout>
    64cc:	5f1000ef          	jal	ra,72bc <z_add_timeout>
    64d0:	fd9ff06f          	j	64a8 <z_init_static_threads+0xec>

000064d4 <idle>:
#endif	/* CONFIG_PM */
	sys_clock_idle_exit();
}

void idle(void *unused1, void *unused2, void *unused3)
{
    64d4:	ff010113          	addi	sp,sp,-16
    64d8:	00812423          	sw	s0,8(sp)
    64dc:	00112623          	sw	ra,12(sp)
    64e0:	00800413          	li	s0,8
    64e4:	300437f3          	csrrc	a5,mstatus,s0
 *
 * @return N/A
 */
static inline void k_cpu_idle(void)
{
	arch_cpu_idle();
    64e8:	f6dfe0ef          	jal	ra,5454 <arch_cpu_idle>
    64ec:	ff9ff06f          	j	64e4 <idle+0x10>

000064f0 <adjust_owner_prio.isra.0>:
	return new_prio;
}

static bool adjust_owner_prio(struct k_mutex *mutex, int32_t new_prio)
{
	if (mutex->owner->base.prio != new_prio) {
    64f0:	00e50783          	lb	a5,14(a0)
    64f4:	00b78463          	beq	a5,a1,64fc <adjust_owner_prio.isra.0+0xc>
		LOG_DBG("%p (ready (y/n): %c) prio changed to %d (was %d)",
			mutex->owner, z_is_thread_ready(mutex->owner) ?
			'y' : 'n',
			new_prio, mutex->owner->base.prio);

		return z_set_prio(mutex->owner, new_prio);
    64f8:	1cd0006f          	j	6ec4 <z_set_prio>
	}
	return false;
}
    64fc:	00000513          	li	a0,0
    6500:	00008067          	ret

00006504 <z_impl_k_mutex_init>:
	mutex->owner = NULL;
    6504:	00052423          	sw	zero,8(a0)
	mutex->lock_count = 0U;
    6508:	00052623          	sw	zero,12(a0)
	list->head = (sys_dnode_t *)list;
    650c:	00a52023          	sw	a0,0(a0)
	list->tail = (sys_dnode_t *)list;
    6510:	00a52223          	sw	a0,4(a0)
}
    6514:	00000513          	li	a0,0
    6518:	00008067          	ret

0000651c <z_impl_k_mutex_lock>:

int z_impl_k_mutex_lock(struct k_mutex *mutex, k_timeout_t timeout)
{
    651c:	fd010113          	addi	sp,sp,-48
    6520:	02812423          	sw	s0,40(sp)
    6524:	02912223          	sw	s1,36(sp)
    6528:	02112623          	sw	ra,44(sp)
    652c:	03212023          	sw	s2,32(sp)
    6530:	01312e23          	sw	s3,28(sp)
    6534:	00050413          	mv	s0,a0
    6538:	00060713          	mv	a4,a2
    653c:	00800493          	li	s1,8
    6540:	3004b4f3          	csrrc	s1,mstatus,s1

	SYS_PORT_TRACING_OBJ_FUNC_ENTER(k_mutex, lock, mutex, timeout);

	key = k_spin_lock(&lock);

	if (likely((mutex->lock_count == 0U) || (mutex->owner == _current))) {
    6544:	00c52603          	lw	a2,12(a0)
    6548:	0000d7b7          	lui	a5,0xd
	key = (mstatus & MSTATUS_IEN);
    654c:	0084f493          	andi	s1,s1,8
    6550:	4fc78793          	addi	a5,a5,1276 # d4fc <_kernel>
    6554:	02060463          	beqz	a2,657c <z_impl_k_mutex_lock+0x60>
    6558:	00058693          	mv	a3,a1
    655c:	00852503          	lw	a0,8(a0)
    6560:	0087a583          	lw	a1,8(a5)
    6564:	04b50c63          	beq	a0,a1,65bc <z_impl_k_mutex_lock+0xa0>
		SYS_PORT_TRACING_OBJ_FUNC_EXIT(k_mutex, lock, mutex, timeout, 0);

		return 0;
	}

	if (unlikely(K_TIMEOUT_EQ(timeout, K_NO_WAIT))) {
    6568:	00e6e7b3          	or	a5,a3,a4
    656c:	04079c63          	bnez	a5,65c4 <z_impl_k_mutex_lock+0xa8>
	__asm__ volatile ("csrrs %0, mstatus, %1"
    6570:	3004a4f3          	csrrs	s1,mstatus,s1
		k_spin_unlock(&lock, key);

		SYS_PORT_TRACING_OBJ_FUNC_EXIT(k_mutex, lock, mutex, timeout, -EBUSY);

		return -EBUSY;
    6574:	ff000513          	li	a0,-16
    6578:	0280006f          	j	65a0 <z_impl_k_mutex_lock+0x84>
					_current->base.prio :
    657c:	0087a703          	lw	a4,8(a5)
    6580:	00e70703          	lb	a4,14(a4)
		mutex->owner = _current;
    6584:	0087a783          	lw	a5,8(a5)
		mutex->lock_count++;
    6588:	00160613          	addi	a2,a2,1
		mutex->owner_orig_prio = (mutex->lock_count == 0U) ?
    658c:	00e42823          	sw	a4,16(s0)
		mutex->lock_count++;
    6590:	00c42623          	sw	a2,12(s0)
		mutex->owner = _current;
    6594:	00f42423          	sw	a5,8(s0)
    6598:	3004a4f3          	csrrs	s1,mstatus,s1
		return 0;
    659c:	00000513          	li	a0,0
	}

	SYS_PORT_TRACING_OBJ_FUNC_EXIT(k_mutex, lock, mutex, timeout, -EAGAIN);

	return -EAGAIN;
}
    65a0:	02c12083          	lw	ra,44(sp)
    65a4:	02812403          	lw	s0,40(sp)
    65a8:	02412483          	lw	s1,36(sp)
    65ac:	02012903          	lw	s2,32(sp)
    65b0:	01c12983          	lw	s3,28(sp)
    65b4:	03010113          	addi	sp,sp,48
    65b8:	00008067          	ret
					_current->base.prio :
    65bc:	01042703          	lw	a4,16(s0)
    65c0:	fc5ff06f          	j	6584 <z_impl_k_mutex_lock+0x68>
	new_prio = new_prio_for_inheritance(_current->base.prio,
    65c4:	00e50783          	lb	a5,14(a0)
    65c8:	00e58583          	lb	a1,14(a1)
    65cc:	00b7d463          	bge	a5,a1,65d4 <z_impl_k_mutex_lock+0xb8>
    65d0:	00078593          	mv	a1,a5
    65d4:	f8100613          	li	a2,-127
    65d8:	00c5d463          	bge	a1,a2,65e0 <z_impl_k_mutex_lock+0xc4>
    65dc:	f8100593          	li	a1,-127
	bool resched = false;
    65e0:	00000993          	li	s3,0
	if (z_is_prio_higher(new_prio, mutex->owner->base.prio)) {
    65e4:	00f5de63          	bge	a1,a5,6600 <z_impl_k_mutex_lock+0xe4>
    65e8:	00e12623          	sw	a4,12(sp)
    65ec:	00d12423          	sw	a3,8(sp)
		resched = adjust_owner_prio(mutex, new_prio);
    65f0:	f01ff0ef          	jal	ra,64f0 <adjust_owner_prio.isra.0>
    65f4:	00c12703          	lw	a4,12(sp)
    65f8:	00812683          	lw	a3,8(sp)
    65fc:	00050993          	mv	s3,a0
	int got_mutex = z_pend_curr(&lock, key, &mutex->wait_q, timeout);
    6600:	0000d937          	lui	s2,0xd
    6604:	00040613          	mv	a2,s0
    6608:	00048593          	mv	a1,s1
    660c:	52090513          	addi	a0,s2,1312 # d520 <sched_spinlock>
    6610:	071000ef          	jal	ra,6e80 <z_pend_curr>
	if (got_mutex == 0) {
    6614:	f80506e3          	beqz	a0,65a0 <z_impl_k_mutex_lock+0x84>
	__asm__ volatile ("csrrc %0, mstatus, %1"
    6618:	00800493          	li	s1,8
    661c:	3004b4f3          	csrrc	s1,mstatus,s1
	if (likely(mutex->owner != NULL)) {
    6620:	00842503          	lw	a0,8(s0)
	key = (mstatus & MSTATUS_IEN);
    6624:	0084f493          	andi	s1,s1,8
    6628:	02050a63          	beqz	a0,665c <z_impl_k_mutex_lock+0x140>
 * @return true if empty, false otherwise
 */

static inline bool sys_dlist_is_empty(sys_dlist_t *list)
{
	return list->head == list;
    662c:	00042783          	lw	a5,0(s0)
			new_prio_for_inheritance(waiter->base.prio, mutex->owner_orig_prio) :
    6630:	01042583          	lw	a1,16(s0)
 * @return a pointer to the head element, NULL if list is empty
 */

static inline sys_dnode_t *sys_dlist_peek_head(sys_dlist_t *list)
{
	return sys_dlist_is_empty(list) ? NULL : list->head;
    6634:	02f40063          	beq	s0,a5,6654 <z_impl_k_mutex_lock+0x138>
    6638:	00078e63          	beqz	a5,6654 <z_impl_k_mutex_lock+0x138>
    663c:	00e78783          	lb	a5,14(a5)
    6640:	00b7d463          	bge	a5,a1,6648 <z_impl_k_mutex_lock+0x12c>
    6644:	00078593          	mv	a1,a5
    6648:	f8100793          	li	a5,-127
    664c:	00f5d463          	bge	a1,a5,6654 <z_impl_k_mutex_lock+0x138>
    6650:	f8100593          	li	a1,-127
		resched = adjust_owner_prio(mutex, new_prio) || resched;
    6654:	e9dff0ef          	jal	ra,64f0 <adjust_owner_prio.isra.0>
    6658:	00051463          	bnez	a0,6660 <z_impl_k_mutex_lock+0x144>
	if (resched) {
    665c:	00098c63          	beqz	s3,6674 <z_impl_k_mutex_lock+0x158>
		z_reschedule(&lock, key);
    6660:	00048593          	mv	a1,s1
    6664:	52090513          	addi	a0,s2,1312
    6668:	2c0000ef          	jal	ra,6928 <z_reschedule>
	return -EAGAIN;
    666c:	ff500513          	li	a0,-11
    6670:	f31ff06f          	j	65a0 <z_impl_k_mutex_lock+0x84>
	__asm__ volatile ("csrrs %0, mstatus, %1"
    6674:	3004a4f3          	csrrs	s1,mstatus,s1
    6678:	ff5ff06f          	j	666c <z_impl_k_mutex_lock+0x150>

0000667c <z_impl_k_mutex_unlock>:

	__ASSERT(!arch_is_in_isr(), "mutexes cannot be used inside ISRs");

	SYS_PORT_TRACING_OBJ_FUNC_ENTER(k_mutex, unlock, mutex);

	CHECKIF(mutex->owner == NULL) {
    667c:	00852783          	lw	a5,8(a0)
    6680:	0a078e63          	beqz	a5,673c <z_impl_k_mutex_unlock+0xc0>
		return -EINVAL;
	}
	/*
	 * The current thread does not own the mutex.
	 */
	CHECKIF(mutex->owner != _current) {
    6684:	0000d737          	lui	a4,0xd
    6688:	50472703          	lw	a4,1284(a4) # d504 <_kernel+0x8>
{
    668c:	ff010113          	addi	sp,sp,-16
    6690:	00812423          	sw	s0,8(sp)
    6694:	00112623          	sw	ra,12(sp)
    6698:	00912223          	sw	s1,4(sp)
    669c:	00050413          	mv	s0,a0
		SYS_PORT_TRACING_OBJ_FUNC_EXIT(k_mutex, unlock, mutex, -EPERM);

		return -EPERM;
    66a0:	fff00513          	li	a0,-1
	CHECKIF(mutex->owner != _current) {
    66a4:	02e79663          	bne	a5,a4,66d0 <z_impl_k_mutex_unlock+0x54>
static inline void z_sched_lock(void)
{
	__ASSERT(!arch_is_in_isr(), "");
	__ASSERT(_current->base.sched_locked != 1U, "");

	--_current->base.sched_locked;
    66a8:	00f7c703          	lbu	a4,15(a5)
    66ac:	fff70713          	addi	a4,a4,-1
    66b0:	00e787a3          	sb	a4,15(a5)

	/*
	 * If we are the owner and count is greater than 1, then decrement
	 * the count and return and keep current thread as the owner.
	 */
	if (mutex->lock_count > 1U) {
    66b4:	00c42783          	lw	a5,12(s0)
    66b8:	00100713          	li	a4,1
    66bc:	02f77463          	bgeu	a4,a5,66e4 <z_impl_k_mutex_unlock+0x68>
		mutex->lock_count--;
    66c0:	fff78793          	addi	a5,a5,-1
    66c4:	00f42623          	sw	a5,12(s0)


k_mutex_unlock_return:
	SYS_PORT_TRACING_OBJ_FUNC_EXIT(k_mutex, unlock, mutex, 0);

	k_sched_unlock();
    66c8:	131000ef          	jal	ra,6ff8 <k_sched_unlock>

	return 0;
    66cc:	00000513          	li	a0,0
}
    66d0:	00c12083          	lw	ra,12(sp)
    66d4:	00812403          	lw	s0,8(sp)
    66d8:	00412483          	lw	s1,4(sp)
    66dc:	01010113          	addi	sp,sp,16
    66e0:	00008067          	ret
	__asm__ volatile ("csrrc %0, mstatus, %1"
    66e4:	00800493          	li	s1,8
    66e8:	3004b4f3          	csrrc	s1,mstatus,s1
	adjust_owner_prio(mutex, mutex->owner_orig_prio);
    66ec:	01042583          	lw	a1,16(s0)
    66f0:	00842503          	lw	a0,8(s0)
	key = (mstatus & MSTATUS_IEN);
    66f4:	0084f493          	andi	s1,s1,8
    66f8:	df9ff0ef          	jal	ra,64f0 <adjust_owner_prio.isra.0>
	new_owner = z_unpend_first_thread(&mutex->wait_q);
    66fc:	00040513          	mv	a0,s0
    6700:	141000ef          	jal	ra,7040 <z_unpend_first_thread>
	mutex->owner = new_owner;
    6704:	00a42423          	sw	a0,8(s0)
	if (new_owner != NULL) {
    6708:	02050463          	beqz	a0,6730 <z_impl_k_mutex_unlock+0xb4>
		mutex->owner_orig_prio = new_owner->base.prio;
    670c:	00e50703          	lb	a4,14(a0)
    6710:	00e42823          	sw	a4,16(s0)
}

static ALWAYS_INLINE void
arch_thread_return_value_set(struct k_thread *thread, unsigned int value)
{
	thread->arch.swap_return_value = value;
    6714:	06052c23          	sw	zero,120(a0)
		z_ready_thread(new_owner);
    6718:	534000ef          	jal	ra,6c4c <z_ready_thread>
		z_reschedule(&lock, key);
    671c:	0000d537          	lui	a0,0xd
    6720:	00048593          	mv	a1,s1
    6724:	52050513          	addi	a0,a0,1312 # d520 <sched_spinlock>
    6728:	200000ef          	jal	ra,6928 <z_reschedule>
    672c:	f9dff06f          	j	66c8 <z_impl_k_mutex_unlock+0x4c>
		mutex->lock_count = 0U;
    6730:	00042623          	sw	zero,12(s0)
	__asm__ volatile ("csrrs %0, mstatus, %1"
    6734:	3004a4f3          	csrrs	s1,mstatus,s1
    6738:	f91ff06f          	j	66c8 <z_impl_k_mutex_unlock+0x4c>
		return -EINVAL;
    673c:	fea00513          	li	a0,-22
}
    6740:	00008067          	ret

00006744 <z_impl_k_sem_give>:
	ARG_UNUSED(sem);
#endif
}

void z_impl_k_sem_give(struct k_sem *sem)
{
    6744:	ff010113          	addi	sp,sp,-16
    6748:	00812423          	sw	s0,8(sp)
    674c:	00912223          	sw	s1,4(sp)
    6750:	00112623          	sw	ra,12(sp)
    6754:	00050493          	mv	s1,a0
	__asm__ volatile ("csrrc %0, mstatus, %1"
    6758:	00800413          	li	s0,8
    675c:	30043473          	csrrc	s0,mstatus,s0
	key = (mstatus & MSTATUS_IEN);
    6760:	00847413          	andi	s0,s0,8
	k_spinlock_key_t key = k_spin_lock(&lock);
	struct k_thread *thread;

	SYS_PORT_TRACING_OBJ_FUNC_ENTER(k_sem, give, sem);

	thread = z_unpend_first_thread(&sem->wait_q);
    6764:	0dd000ef          	jal	ra,7040 <z_unpend_first_thread>

	if (thread != NULL) {
    6768:	02050663          	beqz	a0,6794 <z_impl_k_sem_give+0x50>
    676c:	06052c23          	sw	zero,120(a0)
		arch_thread_return_value_set(thread, 0);
		z_ready_thread(thread);
    6770:	4dc000ef          	jal	ra,6c4c <z_ready_thread>
	} else {
		sem->count += (sem->count != sem->limit) ? 1U : 0U;
		handle_poll_events(sem);
	}

	z_reschedule(&lock, key);
    6774:	00040593          	mv	a1,s0

	SYS_PORT_TRACING_OBJ_FUNC_EXIT(k_sem, give, sem);
}
    6778:	00812403          	lw	s0,8(sp)
    677c:	00c12083          	lw	ra,12(sp)
    6780:	00412483          	lw	s1,4(sp)
	z_reschedule(&lock, key);
    6784:	0000d537          	lui	a0,0xd
    6788:	52050513          	addi	a0,a0,1312 # d520 <sched_spinlock>
}
    678c:	01010113          	addi	sp,sp,16
	z_reschedule(&lock, key);
    6790:	1980006f          	j	6928 <z_reschedule>
		sem->count += (sem->count != sem->limit) ? 1U : 0U;
    6794:	0084a703          	lw	a4,8(s1)
    6798:	00c4a783          	lw	a5,12(s1)
    679c:	40e787b3          	sub	a5,a5,a4
    67a0:	00f037b3          	snez	a5,a5
    67a4:	00e787b3          	add	a5,a5,a4
    67a8:	00f4a423          	sw	a5,8(s1)
}
    67ac:	fc9ff06f          	j	6774 <z_impl_k_sem_give+0x30>

000067b0 <z_impl_k_sem_take>:
}
#include <syscalls/k_sem_give_mrsh.c>
#endif

int z_impl_k_sem_take(struct k_sem *sem, k_timeout_t timeout)
{
    67b0:	00058693          	mv	a3,a1
    67b4:	00060713          	mv	a4,a2
	__asm__ volatile ("csrrc %0, mstatus, %1"
    67b8:	00800793          	li	a5,8
    67bc:	3007b7f3          	csrrc	a5,mstatus,a5
	key = (mstatus & MSTATUS_IEN);
    67c0:	0087f593          	andi	a1,a5,8

	k_spinlock_key_t key = k_spin_lock(&lock);

	SYS_PORT_TRACING_OBJ_FUNC_ENTER(k_sem, take, sem, timeout);

	if (likely(sem->count > 0U)) {
    67c4:	00852783          	lw	a5,8(a0)
    67c8:	00078c63          	beqz	a5,67e0 <z_impl_k_sem_take+0x30>
		sem->count--;
    67cc:	fff78793          	addi	a5,a5,-1
    67d0:	00f52423          	sw	a5,8(a0)
	__asm__ volatile ("csrrs %0, mstatus, %1"
    67d4:	3005a5f3          	csrrs	a1,mstatus,a1
		k_spin_unlock(&lock, key);
		ret = 0;
    67d8:	00000513          	li	a0,0
		goto out;
    67dc:	00008067          	ret
	}

	if (K_TIMEOUT_EQ(timeout, K_NO_WAIT)) {
    67e0:	00c6e7b3          	or	a5,a3,a2
    67e4:	00079863          	bnez	a5,67f4 <z_impl_k_sem_take+0x44>
    67e8:	3005a5f3          	csrrs	a1,mstatus,a1
		k_spin_unlock(&lock, key);
		ret = -EBUSY;
    67ec:	ff000513          	li	a0,-16

out:
	SYS_PORT_TRACING_OBJ_FUNC_EXIT(k_sem, take, sem, timeout, ret);

	return ret;
}
    67f0:	00008067          	ret
	ret = z_pend_curr(&lock, key, &sem->wait_q, timeout);
    67f4:	00050613          	mv	a2,a0
    67f8:	0000d537          	lui	a0,0xd
    67fc:	52050513          	addi	a0,a0,1312 # d520 <sched_spinlock>
    6800:	6800006f          	j	6e80 <z_pend_curr>

00006804 <sys_dlist_remove>:
 * @return N/A
 */

static inline void sys_dlist_remove(sys_dnode_t *node)
{
	sys_dnode_t *const prev = node->prev;
    6804:	00452703          	lw	a4,4(a0)
	sys_dnode_t *const next = node->next;
    6808:	00052783          	lw	a5,0(a0)

	prev->next = next;
    680c:	00f72023          	sw	a5,0(a4)
	next->prev = prev;
    6810:	00e7a223          	sw	a4,4(a5)
	node->next = NULL;
    6814:	00052023          	sw	zero,0(a0)
	node->prev = NULL;
    6818:	00052223          	sw	zero,4(a0)
	sys_dnode_init(node);
}
    681c:	00008067          	ret

00006820 <unpend_thread_no_timeout>:
		pend_locked(thread, wait_q, timeout);
	}
}

static inline void unpend_thread_no_timeout(struct k_thread *thread)
{
    6820:	ff010113          	addi	sp,sp,-16
    6824:	00812423          	sw	s0,8(sp)
    6828:	00112623          	sw	ra,12(sp)
    682c:	00050413          	mv	s0,a0

void z_priq_dumb_remove(sys_dlist_t *pq, struct k_thread *thread)
{
	__ASSERT_NO_MSG(!z_is_idle_thread_object(thread));

	sys_dlist_remove(&thread->base.qnode_dlist);
    6830:	fd5ff0ef          	jal	ra,6804 <sys_dlist_remove>
	thread->base.thread_state &= ~_THREAD_PENDING;
    6834:	00d44783          	lbu	a5,13(s0)
}
    6838:	00c12083          	lw	ra,12(sp)
	thread->base.pended_on = NULL;
    683c:	00042423          	sw	zero,8(s0)
    6840:	ffd7f793          	andi	a5,a5,-3
    6844:	00f406a3          	sb	a5,13(s0)
}
    6848:	00812403          	lw	s0,8(sp)
    684c:	01010113          	addi	sp,sp,16
    6850:	00008067          	ret

00006854 <z_reset_time_slice>:
{
    6854:	ff010113          	addi	sp,sp,-16
    6858:	00812423          	sw	s0,8(sp)
	if (slice_time != 0) {
    685c:	0000d437          	lui	s0,0xd
    6860:	14c40413          	addi	s0,s0,332 # d14c <slice_time>
    6864:	00042783          	lw	a5,0(s0)
{
    6868:	00112623          	sw	ra,12(sp)
	if (slice_time != 0) {
    686c:	02078863          	beqz	a5,689c <z_reset_time_slice+0x48>
		_current_cpu->slice_ticks = slice_time + sys_clock_elapsed();
    6870:	f0cff0ef          	jal	ra,5f7c <sys_clock_elapsed>
    6874:	00050793          	mv	a5,a0
    6878:	00042503          	lw	a0,0(s0)
}
    687c:	00812403          	lw	s0,8(sp)
    6880:	00c12083          	lw	ra,12(sp)
		_current_cpu->slice_ticks = slice_time + sys_clock_elapsed();
    6884:	00f507b3          	add	a5,a0,a5
    6888:	0000d737          	lui	a4,0xd
    688c:	50f72623          	sw	a5,1292(a4) # d50c <_kernel+0x10>
		z_set_timeout_expiry(slice_time, false);
    6890:	00000593          	li	a1,0
}
    6894:	01010113          	addi	sp,sp,16
		z_set_timeout_expiry(slice_time, false);
    6898:	4190006f          	j	74b0 <z_set_timeout_expiry>
}
    689c:	00c12083          	lw	ra,12(sp)
    68a0:	00812403          	lw	s0,8(sp)
    68a4:	01010113          	addi	sp,sp,16
    68a8:	00008067          	ret

000068ac <k_sched_time_slice_set>:
{
    68ac:	ff010113          	addi	sp,sp,-16
    68b0:	00812423          	sw	s0,8(sp)
    68b4:	00912223          	sw	s1,4(sp)
    68b8:	00112623          	sw	ra,12(sp)
    68bc:	00050793          	mv	a5,a0
    68c0:	00058493          	mv	s1,a1
	__asm__ volatile ("csrrc %0, mstatus, %1"
    68c4:	00800413          	li	s0,8
    68c8:	30043473          	csrrc	s0,mstatus,s0
		_current_cpu->slice_ticks = 0;
    68cc:	0000d737          	lui	a4,0xd
		t += off;
    68d0:	00950513          	addi	a0,a0,9
    68d4:	50072623          	sw	zero,1292(a4) # d50c <_kernel+0x10>
	key = (mstatus & MSTATUS_IEN);
    68d8:	00847413          	andi	s0,s0,8
    68dc:	00f535b3          	sltu	a1,a0,a5
		if (result32 && (t < BIT64(32))) {
    68e0:	02f56c63          	bltu	a0,a5,6918 <k_sched_time_slice_set+0x6c>
			return ((uint32_t)t) / (from_hz / to_hz);
    68e4:	00a00793          	li	a5,10
    68e8:	02f55533          	divu	a0,a0,a5
		slice_time = k_ms_to_ticks_ceil32(slice);
    68ec:	0000d7b7          	lui	a5,0xd
    68f0:	14a7a623          	sw	a0,332(a5) # d14c <slice_time>
		slice_max_prio = prio;
    68f4:	0000d7b7          	lui	a5,0xd
    68f8:	1497a423          	sw	s1,328(a5) # d148 <slice_max_prio>
		z_reset_time_slice();
    68fc:	f59ff0ef          	jal	ra,6854 <z_reset_time_slice>
	__asm__ volatile ("csrrs %0, mstatus, %1"
    6900:	30042473          	csrrs	s0,mstatus,s0
}
    6904:	00c12083          	lw	ra,12(sp)
    6908:	00812403          	lw	s0,8(sp)
    690c:	00412483          	lw	s1,4(sp)
    6910:	01010113          	addi	sp,sp,16
    6914:	00008067          	ret
			return t / ((uint64_t)from_hz / to_hz);
    6918:	00a00613          	li	a2,10
    691c:	00000693          	li	a3,0
    6920:	a1df90ef          	jal	ra,33c <__udivdi3>
    6924:	fc9ff06f          	j	68ec <k_sched_time_slice_set+0x40>

00006928 <z_reschedule>:
	 * have the single bit set).  But there is a mask applied to
	 * the argument in arch_irq_unlock() that has me worried
	 * that something elseswhere might try to set a bit?  Do it
	 * the safe way for now.
	 */
	return (key & MSTATUS_IEN) == MSTATUS_IEN;
    6928:	0085f713          	andi	a4,a1,8
{
    692c:	00058513          	mv	a0,a1
	return arch_irq_unlocked(key) && !arch_is_in_isr();
    6930:	02070263          	beqz	a4,6954 <z_reschedule+0x2c>
FUNC_NORETURN void z_riscv_fatal_error(unsigned int reason,
				       const z_arch_esf_t *esf);

static inline bool arch_is_in_isr(void)
{
	return _kernel.cpus[0].nested != 0U;
    6934:	0000d7b7          	lui	a5,0xd
    6938:	4fc78793          	addi	a5,a5,1276 # d4fc <_kernel>
	if (resched(key.key) && need_swap()) {
    693c:	0007a683          	lw	a3,0(a5)
    6940:	00069a63          	bnez	a3,6954 <z_reschedule+0x2c>
    6944:	0187a683          	lw	a3,24(a5)
    6948:	0087a783          	lw	a5,8(a5)
    694c:	00f68463          	beq	a3,a5,6954 <z_reschedule+0x2c>
    6950:	97df906f          	j	2cc <arch_swap>
	__asm__ volatile ("csrrs %0, mstatus, %1"
    6954:	30072773          	csrrs	a4,mstatus,a4
}
    6958:	00008067          	ret

0000695c <z_reschedule_irqlock>:
	return (key & MSTATUS_IEN) == MSTATUS_IEN;
    695c:	00857793          	andi	a5,a0,8
	return arch_irq_unlocked(key) && !arch_is_in_isr();
    6960:	00078a63          	beqz	a5,6974 <z_reschedule_irqlock+0x18>
	if (resched(key)) {
    6964:	0000d737          	lui	a4,0xd
    6968:	4fc72703          	lw	a4,1276(a4) # d4fc <_kernel>
    696c:	00071463          	bnez	a4,6974 <z_reschedule_irqlock+0x18>
    6970:	95df906f          	j	2cc <arch_swap>
	__asm__ volatile ("csrrs %0, mstatus, %1"
    6974:	3007a7f3          	csrrs	a5,mstatus,a5
}
    6978:	00008067          	ret

0000697c <z_reschedule_unlocked>:
	__asm__ volatile ("csrrc %0, mstatus, %1"
    697c:	00800513          	li	a0,8
    6980:	30053573          	csrrc	a0,mstatus,a0
	(void) z_reschedule_irqlock(arch_irq_lock());
    6984:	00857513          	andi	a0,a0,8
    6988:	fd5ff06f          	j	695c <z_reschedule_irqlock>

0000698c <k_sched_lock>:
    698c:	00800793          	li	a5,8
    6990:	3007b7f3          	csrrc	a5,mstatus,a5
	--_current->base.sched_locked;
    6994:	0000d737          	lui	a4,0xd
    6998:	50472683          	lw	a3,1284(a4) # d504 <_kernel+0x8>
    699c:	00f6c703          	lbu	a4,15(a3)
    69a0:	fff70713          	addi	a4,a4,-1
    69a4:	00e687a3          	sb	a4,15(a3)
	key = (mstatus & MSTATUS_IEN);
    69a8:	0087f793          	andi	a5,a5,8
	__asm__ volatile ("csrrs %0, mstatus, %1"
    69ac:	3007a7f3          	csrrs	a5,mstatus,a5
}
    69b0:	00008067          	ret

000069b4 <z_priq_dumb_best>:
}

struct k_thread *z_priq_dumb_best(sys_dlist_t *pq)
{
    69b4:	00050793          	mv	a5,a0
	return list->head == list;
    69b8:	00052503          	lw	a0,0(a0)
	return sys_dlist_is_empty(list) ? NULL : list->head;
    69bc:	00a79463          	bne	a5,a0,69c4 <z_priq_dumb_best+0x10>
	struct k_thread *thread = NULL;
    69c0:	00000513          	li	a0,0

	if (n != NULL) {
		thread = CONTAINER_OF(n, struct k_thread, base.qnode_dlist);
	}
	return thread;
}
    69c4:	00008067          	ret

000069c8 <update_cache>:
{
    69c8:	ff010113          	addi	sp,sp,-16
    69cc:	01212023          	sw	s2,0(sp)
    69d0:	00050913          	mv	s2,a0
	thread = _priq_run_best(&_kernel.ready_q.runq);
    69d4:	0000d537          	lui	a0,0xd
    69d8:	51850513          	addi	a0,a0,1304 # d518 <_kernel+0x1c>
{
    69dc:	00812423          	sw	s0,8(sp)
    69e0:	00912223          	sw	s1,4(sp)
    69e4:	00112623          	sw	ra,12(sp)
    69e8:	0000d437          	lui	s0,0xd
	thread = _priq_run_best(&_kernel.ready_q.runq);
    69ec:	fc9ff0ef          	jal	ra,69b4 <z_priq_dumb_best>
	return (thread != NULL) ? thread : _current_cpu->idle_thread;
    69f0:	4fc40413          	addi	s0,s0,1276 # d4fc <_kernel>
    69f4:	00050493          	mv	s1,a0
    69f8:	00051463          	bnez	a0,6a00 <update_cache+0x38>
    69fc:	00c42483          	lw	s1,12(s0)
	if (z_is_thread_prevented_from_running(_current)) {
    6a00:	00842783          	lw	a5,8(s0)
	if (preempt_ok != 0) {
    6a04:	02091c63          	bnez	s2,6a3c <update_cache+0x74>
	if (z_is_thread_prevented_from_running(_current)) {
    6a08:	00d7c703          	lbu	a4,13(a5)
    6a0c:	01f77713          	andi	a4,a4,31
    6a10:	02071663          	bnez	a4,6a3c <update_cache+0x74>
	if (is_preempt(_current) || is_metairq(thread)) {
    6a14:	00e7d683          	lhu	a3,14(a5)
    6a18:	07f00713          	li	a4,127
    6a1c:	02d77063          	bgeu	a4,a3,6a3c <update_cache+0x74>
		_kernel.ready_q.cache = _current;
    6a20:	00f42c23          	sw	a5,24(s0)
}
    6a24:	00c12083          	lw	ra,12(sp)
    6a28:	00812403          	lw	s0,8(sp)
    6a2c:	00412483          	lw	s1,4(sp)
    6a30:	00012903          	lw	s2,0(sp)
    6a34:	01010113          	addi	sp,sp,16
    6a38:	00008067          	ret
		if (thread != _current) {
    6a3c:	00f48463          	beq	s1,a5,6a44 <update_cache+0x7c>
			z_reset_time_slice();
    6a40:	e15ff0ef          	jal	ra,6854 <z_reset_time_slice>
		_kernel.ready_q.cache = thread;
    6a44:	00942c23          	sw	s1,24(s0)
}
    6a48:	fddff06f          	j	6a24 <update_cache+0x5c>

00006a4c <move_thread_to_end_of_prio_q>:
{
    6a4c:	ff010113          	addi	sp,sp,-16
    6a50:	00812423          	sw	s0,8(sp)
    6a54:	00112623          	sw	ra,12(sp)
	return (thread->base.thread_state & state) != 0U;
    6a58:	00d54783          	lbu	a5,13(a0)
    6a5c:	00050413          	mv	s0,a0
	if (z_is_thread_queued(thread)) {
    6a60:	01879713          	slli	a4,a5,0x18
    6a64:	41875713          	srai	a4,a4,0x18
    6a68:	00075863          	bgez	a4,6a78 <move_thread_to_end_of_prio_q+0x2c>
	thread->base.thread_state &= ~_THREAD_QUEUED;
    6a6c:	07f7f793          	andi	a5,a5,127
    6a70:	00f506a3          	sb	a5,13(a0)
	sys_dlist_remove(&thread->base.qnode_dlist);
    6a74:	d91ff0ef          	jal	ra,6804 <sys_dlist_remove>
	thread->base.thread_state |= _THREAD_QUEUED;
    6a78:	00d44783          	lbu	a5,13(s0)
	return list->head == list;
    6a7c:	0000d737          	lui	a4,0xd
    6a80:	4fc70693          	addi	a3,a4,1276 # d4fc <_kernel>
    6a84:	f807e793          	ori	a5,a5,-128
    6a88:	00f406a3          	sb	a5,13(s0)
    6a8c:	01c6a783          	lw	a5,28(a3)
	return (node == list->tail) ? NULL : node->next;
    6a90:	0206a583          	lw	a1,32(a3)
    6a94:	0000d6b7          	lui	a3,0xd
    6a98:	51868693          	addi	a3,a3,1304 # d518 <_kernel+0x1c>
    6a9c:	4fc70713          	addi	a4,a4,1276
	return sys_dlist_is_empty(list) ? NULL : list->head;
    6aa0:	04d78c63          	beq	a5,a3,6af8 <move_thread_to_end_of_prio_q+0xac>
	SYS_DLIST_FOR_EACH_CONTAINER(pq, t, base.qnode_dlist) {
    6aa4:	04078a63          	beqz	a5,6af8 <move_thread_to_end_of_prio_q+0xac>
	int32_t b1 = thread_1->base.prio;
    6aa8:	00e40503          	lb	a0,14(s0)
	int32_t b2 = thread_2->base.prio;
    6aac:	00e78603          	lb	a2,14(a5)
	if (b1 != b2) {
    6ab0:	02c50e63          	beq	a0,a2,6aec <move_thread_to_end_of_prio_q+0xa0>
		return b2 - b1;
    6ab4:	40a60633          	sub	a2,a2,a0
		if (z_sched_prio_cmp(thread, t) > 0) {
    6ab8:	02c05a63          	blez	a2,6aec <move_thread_to_end_of_prio_q+0xa0>
	sys_dnode_t *const prev = successor->prev;
    6abc:	0047a683          	lw	a3,4(a5)
	node->next = successor;
    6ac0:	00f42023          	sw	a5,0(s0)
	node->prev = prev;
    6ac4:	00d42223          	sw	a3,4(s0)
	prev->next = node;
    6ac8:	0086a023          	sw	s0,0(a3)
	successor->prev = node;
    6acc:	0087a223          	sw	s0,4(a5)
	update_cache(thread == _current);
    6ad0:	00872503          	lw	a0,8(a4)
}
    6ad4:	00c12083          	lw	ra,12(sp)
	update_cache(thread == _current);
    6ad8:	40850533          	sub	a0,a0,s0
}
    6adc:	00812403          	lw	s0,8(sp)
	update_cache(thread == _current);
    6ae0:	00153513          	seqz	a0,a0
}
    6ae4:	01010113          	addi	sp,sp,16
	update_cache(thread == _current);
    6ae8:	ee1ff06f          	j	69c8 <update_cache>
	return (node == list->tail) ? NULL : node->next;
    6aec:	00b78663          	beq	a5,a1,6af8 <move_thread_to_end_of_prio_q+0xac>
    6af0:	0007a783          	lw	a5,0(a5)
	SYS_DLIST_FOR_EACH_CONTAINER(pq, t, base.qnode_dlist) {
    6af4:	fa079ce3          	bnez	a5,6aac <move_thread_to_end_of_prio_q+0x60>
	node->next = list;
    6af8:	00d42023          	sw	a3,0(s0)
	node->prev = tail;
    6afc:	00b42223          	sw	a1,4(s0)
	tail->next = node;
    6b00:	0085a023          	sw	s0,0(a1)
	list->tail = node;
    6b04:	02872023          	sw	s0,32(a4)
}
    6b08:	fc9ff06f          	j	6ad0 <move_thread_to_end_of_prio_q+0x84>

00006b0c <z_time_slice>:
{
    6b0c:	ff010113          	addi	sp,sp,-16
    6b10:	00812423          	sw	s0,8(sp)
    6b14:	00112623          	sw	ra,12(sp)
	__asm__ volatile ("csrrc %0, mstatus, %1"
    6b18:	00800413          	li	s0,8
    6b1c:	30043473          	csrrc	s0,mstatus,s0
	if (slice_time && sliceable(_current)) {
    6b20:	0000d7b7          	lui	a5,0xd
    6b24:	14c7a703          	lw	a4,332(a5) # d14c <slice_time>
    6b28:	0000d7b7          	lui	a5,0xd
	key = (mstatus & MSTATUS_IEN);
    6b2c:	00847413          	andi	s0,s0,8
    6b30:	4fc78793          	addi	a5,a5,1276 # d4fc <_kernel>
    6b34:	06070863          	beqz	a4,6ba4 <z_time_slice+0x98>
    6b38:	00050693          	mv	a3,a0
    6b3c:	0087a503          	lw	a0,8(a5)
		&& !z_is_idle_thread_object(thread);
    6b40:	07f00713          	li	a4,127
    6b44:	00e55603          	lhu	a2,14(a0)
    6b48:	04c76e63          	bltu	a4,a2,6ba4 <z_time_slice+0x98>
		&& !z_is_thread_prevented_from_running(thread)
    6b4c:	00d54703          	lbu	a4,13(a0)
    6b50:	01f77713          	andi	a4,a4,31
    6b54:	04071863          	bnez	a4,6ba4 <z_time_slice+0x98>
		&& !z_is_prio_higher(thread->base.prio, slice_max_prio)
    6b58:	0000d737          	lui	a4,0xd
    6b5c:	00e50603          	lb	a2,14(a0)
    6b60:	14872703          	lw	a4,328(a4) # d148 <slice_max_prio>
    6b64:	04e64063          	blt	a2,a4,6ba4 <z_time_slice+0x98>
		&& !z_is_idle_thread_object(thread);
    6b68:	0000d737          	lui	a4,0xd
    6b6c:	3e870713          	addi	a4,a4,1000 # d3e8 <z_idle_threads>
    6b70:	02e50a63          	beq	a0,a4,6ba4 <z_time_slice+0x98>
		if (ticks >= _current_cpu->slice_ticks) {
    6b74:	0107a703          	lw	a4,16(a5)
    6b78:	02e6c063          	blt	a3,a4,6b98 <z_time_slice+0x8c>
			move_thread_to_end_of_prio_q(_current);
    6b7c:	ed1ff0ef          	jal	ra,6a4c <move_thread_to_end_of_prio_q>
			z_reset_time_slice();
    6b80:	cd5ff0ef          	jal	ra,6854 <z_reset_time_slice>
	__asm__ volatile ("csrrs %0, mstatus, %1"
    6b84:	30042473          	csrrs	s0,mstatus,s0
}
    6b88:	00c12083          	lw	ra,12(sp)
    6b8c:	00812403          	lw	s0,8(sp)
    6b90:	01010113          	addi	sp,sp,16
    6b94:	00008067          	ret
			_current_cpu->slice_ticks -= ticks;
    6b98:	40d70733          	sub	a4,a4,a3
    6b9c:	00e7a823          	sw	a4,16(a5)
    6ba0:	fe5ff06f          	j	6b84 <z_time_slice+0x78>
		_current_cpu->slice_ticks = 0;
    6ba4:	0007a823          	sw	zero,16(a5)
    6ba8:	fddff06f          	j	6b84 <z_time_slice+0x78>

00006bac <ready_thread>:
    6bac:	00d54783          	lbu	a5,13(a0)
	if (!z_is_thread_queued(thread) && z_is_thread_ready(thread)) {
    6bb0:	01879713          	slli	a4,a5,0x18
    6bb4:	41875713          	srai	a4,a4,0x18
    6bb8:	08074863          	bltz	a4,6c48 <ready_thread+0x9c>
	return !((z_is_thread_prevented_from_running(thread)) != 0U ||
    6bbc:	01f7f713          	andi	a4,a5,31
    6bc0:	08071463          	bnez	a4,6c48 <ready_thread+0x9c>
    6bc4:	01852703          	lw	a4,24(a0)
    6bc8:	08071063          	bnez	a4,6c48 <ready_thread+0x9c>
	thread->base.thread_state |= _THREAD_QUEUED;
    6bcc:	f807e793          	ori	a5,a5,-128
	return list->head == list;
    6bd0:	0000d737          	lui	a4,0xd
    6bd4:	4fc70693          	addi	a3,a4,1276 # d4fc <_kernel>
    6bd8:	00f506a3          	sb	a5,13(a0)
    6bdc:	01c6a783          	lw	a5,28(a3)
	return (node == list->tail) ? NULL : node->next;
    6be0:	0206a583          	lw	a1,32(a3)
    6be4:	0000d6b7          	lui	a3,0xd
    6be8:	51868693          	addi	a3,a3,1304 # d518 <_kernel+0x1c>
    6bec:	4fc70713          	addi	a4,a4,1276
	return sys_dlist_is_empty(list) ? NULL : list->head;
    6bf0:	04d78263          	beq	a5,a3,6c34 <ready_thread+0x88>
	SYS_DLIST_FOR_EACH_CONTAINER(pq, t, base.qnode_dlist) {
    6bf4:	04078063          	beqz	a5,6c34 <ready_thread+0x88>
	int32_t b1 = thread_1->base.prio;
    6bf8:	00e50803          	lb	a6,14(a0)
	int32_t b2 = thread_2->base.prio;
    6bfc:	00e78603          	lb	a2,14(a5)
	if (b1 != b2) {
    6c00:	02c80463          	beq	a6,a2,6c28 <ready_thread+0x7c>
		return b2 - b1;
    6c04:	41060633          	sub	a2,a2,a6
		if (z_sched_prio_cmp(thread, t) > 0) {
    6c08:	02c05063          	blez	a2,6c28 <ready_thread+0x7c>
	sys_dnode_t *const prev = successor->prev;
    6c0c:	0047a703          	lw	a4,4(a5)
	node->next = successor;
    6c10:	00f52023          	sw	a5,0(a0)
	node->prev = prev;
    6c14:	00e52223          	sw	a4,4(a0)
	prev->next = node;
    6c18:	00a72023          	sw	a0,0(a4)
	successor->prev = node;
    6c1c:	00a7a223          	sw	a0,4(a5)
		update_cache(0);
    6c20:	00000513          	li	a0,0
    6c24:	da5ff06f          	j	69c8 <update_cache>
	return (node == list->tail) ? NULL : node->next;
    6c28:	00b78663          	beq	a5,a1,6c34 <ready_thread+0x88>
    6c2c:	0007a783          	lw	a5,0(a5)
	SYS_DLIST_FOR_EACH_CONTAINER(pq, t, base.qnode_dlist) {
    6c30:	fc0796e3          	bnez	a5,6bfc <ready_thread+0x50>
	node->next = list;
    6c34:	00d52023          	sw	a3,0(a0)
	node->prev = tail;
    6c38:	00b52223          	sw	a1,4(a0)
	tail->next = node;
    6c3c:	00a5a023          	sw	a0,0(a1)
	list->tail = node;
    6c40:	02a72023          	sw	a0,32(a4)
}
    6c44:	fddff06f          	j	6c20 <ready_thread+0x74>
}
    6c48:	00008067          	ret

00006c4c <z_ready_thread>:
{
    6c4c:	ff010113          	addi	sp,sp,-16
    6c50:	00812423          	sw	s0,8(sp)
    6c54:	00112623          	sw	ra,12(sp)
	__asm__ volatile ("csrrc %0, mstatus, %1"
    6c58:	00800413          	li	s0,8
    6c5c:	30043473          	csrrc	s0,mstatus,s0
			ready_thread(thread);
    6c60:	f4dff0ef          	jal	ra,6bac <ready_thread>
	key = (mstatus & MSTATUS_IEN);
    6c64:	00847413          	andi	s0,s0,8
	__asm__ volatile ("csrrs %0, mstatus, %1"
    6c68:	30042473          	csrrs	s0,mstatus,s0
}
    6c6c:	00c12083          	lw	ra,12(sp)
    6c70:	00812403          	lw	s0,8(sp)
    6c74:	01010113          	addi	sp,sp,16
    6c78:	00008067          	ret

00006c7c <z_sched_start>:
	__asm__ volatile ("csrrc %0, mstatus, %1"
    6c7c:	00800593          	li	a1,8
    6c80:	3005b5f3          	csrrc	a1,mstatus,a1
	return (thread->base.thread_state & _THREAD_PRESTART) == 0U;
    6c84:	00d54703          	lbu	a4,13(a0)
	key = (mstatus & MSTATUS_IEN);
    6c88:	0085f593          	andi	a1,a1,8
	if (z_has_thread_started(thread)) {
    6c8c:	00477693          	andi	a3,a4,4
    6c90:	00069663          	bnez	a3,6c9c <z_sched_start+0x20>
	__asm__ volatile ("csrrs %0, mstatus, %1"
    6c94:	3005a5f3          	csrrs	a1,mstatus,a1
		return;
    6c98:	00008067          	ret
{
    6c9c:	fe010113          	addi	sp,sp,-32
    6ca0:	00112e23          	sw	ra,28(sp)
	thread->base.thread_state &= ~_THREAD_PRESTART;
    6ca4:	ffb77713          	andi	a4,a4,-5
    6ca8:	00e506a3          	sb	a4,13(a0)
    6cac:	00b12623          	sw	a1,12(sp)
	ready_thread(thread);
    6cb0:	efdff0ef          	jal	ra,6bac <ready_thread>
	z_reschedule(&sched_spinlock, key);
    6cb4:	00c12583          	lw	a1,12(sp)
}
    6cb8:	01c12083          	lw	ra,28(sp)
	z_reschedule(&sched_spinlock, key);
    6cbc:	0000d537          	lui	a0,0xd
    6cc0:	52050513          	addi	a0,a0,1312 # d520 <sched_spinlock>
}
    6cc4:	02010113          	addi	sp,sp,32
	z_reschedule(&sched_spinlock, key);
    6cc8:	c61ff06f          	j	6928 <z_reschedule>

00006ccc <z_thread_timeout>:
{
    6ccc:	fe010113          	addi	sp,sp,-32
    6cd0:	00912a23          	sw	s1,20(sp)
    6cd4:	00112e23          	sw	ra,28(sp)
    6cd8:	00812c23          	sw	s0,24(sp)
	__asm__ volatile ("csrrc %0, mstatus, %1"
    6cdc:	00800493          	li	s1,8
    6ce0:	3004b4f3          	csrrc	s1,mstatus,s1
		if (!killed) {
    6ce4:	ff554783          	lbu	a5,-11(a0)
	key = (mstatus & MSTATUS_IEN);
    6ce8:	0084f493          	andi	s1,s1,8
    6cec:	0287f793          	andi	a5,a5,40
    6cf0:	02079863          	bnez	a5,6d20 <z_thread_timeout+0x54>
    6cf4:	00050413          	mv	s0,a0
			if (thread->base.pended_on != NULL) {
    6cf8:	ff042783          	lw	a5,-16(s0)
	struct k_thread *thread = CONTAINER_OF(timeout,
    6cfc:	fe850513          	addi	a0,a0,-24
			if (thread->base.pended_on != NULL) {
    6d00:	00078863          	beqz	a5,6d10 <z_thread_timeout+0x44>
				unpend_thread_no_timeout(thread);
    6d04:	00a12623          	sw	a0,12(sp)
    6d08:	b19ff0ef          	jal	ra,6820 <unpend_thread_no_timeout>
    6d0c:	00c12503          	lw	a0,12(sp)
	thread->base.thread_state &= ~_THREAD_SUSPENDED;
    6d10:	ff544783          	lbu	a5,-11(s0)
    6d14:	feb7f793          	andi	a5,a5,-21
    6d18:	fef40aa3          	sb	a5,-11(s0)
			ready_thread(thread);
    6d1c:	e91ff0ef          	jal	ra,6bac <ready_thread>
	__asm__ volatile ("csrrs %0, mstatus, %1"
    6d20:	3004a4f3          	csrrs	s1,mstatus,s1
}
    6d24:	01c12083          	lw	ra,28(sp)
    6d28:	01812403          	lw	s0,24(sp)
    6d2c:	01412483          	lw	s1,20(sp)
    6d30:	02010113          	addi	sp,sp,32
    6d34:	00008067          	ret

00006d38 <unready_thread>:
{
    6d38:	ff010113          	addi	sp,sp,-16
    6d3c:	00812423          	sw	s0,8(sp)
    6d40:	00112623          	sw	ra,12(sp)
	return (thread->base.thread_state & state) != 0U;
    6d44:	00d54783          	lbu	a5,13(a0)
    6d48:	00050413          	mv	s0,a0
	if (z_is_thread_queued(thread)) {
    6d4c:	01879713          	slli	a4,a5,0x18
    6d50:	41875713          	srai	a4,a4,0x18
    6d54:	00075863          	bgez	a4,6d64 <unready_thread+0x2c>
	thread->base.thread_state &= ~_THREAD_QUEUED;
    6d58:	07f7f793          	andi	a5,a5,127
    6d5c:	00f506a3          	sb	a5,13(a0)
	sys_dlist_remove(&thread->base.qnode_dlist);
    6d60:	aa5ff0ef          	jal	ra,6804 <sys_dlist_remove>
	update_cache(thread == _current);
    6d64:	0000d7b7          	lui	a5,0xd
    6d68:	5047a503          	lw	a0,1284(a5) # d504 <_kernel+0x8>
}
    6d6c:	00c12083          	lw	ra,12(sp)
	update_cache(thread == _current);
    6d70:	40850533          	sub	a0,a0,s0
}
    6d74:	00812403          	lw	s0,8(sp)
	update_cache(thread == _current);
    6d78:	00153513          	seqz	a0,a0
}
    6d7c:	01010113          	addi	sp,sp,16
	update_cache(thread == _current);
    6d80:	c49ff06f          	j	69c8 <update_cache>

00006d84 <add_to_waitq_locked>:
{
    6d84:	ff010113          	addi	sp,sp,-16
    6d88:	00812423          	sw	s0,8(sp)
    6d8c:	00912223          	sw	s1,4(sp)
    6d90:	00050413          	mv	s0,a0
    6d94:	00112623          	sw	ra,12(sp)
    6d98:	00058493          	mv	s1,a1
	unready_thread(thread);
    6d9c:	f9dff0ef          	jal	ra,6d38 <unready_thread>
	thread->base.thread_state |= _THREAD_PENDING;
    6da0:	00d44783          	lbu	a5,13(s0)
    6da4:	0027e793          	ori	a5,a5,2
    6da8:	00f406a3          	sb	a5,13(s0)
	if (wait_q != NULL) {
    6dac:	02048e63          	beqz	s1,6de8 <add_to_waitq_locked+0x64>
	return list->head == list;
    6db0:	0004a783          	lw	a5,0(s1)
		thread->base.pended_on = wait_q;
    6db4:	00942423          	sw	s1,8(s0)
	return sys_dlist_is_empty(list) ? NULL : list->head;
    6db8:	04f48a63          	beq	s1,a5,6e0c <add_to_waitq_locked+0x88>
	SYS_DLIST_FOR_EACH_CONTAINER(pq, t, base.qnode_dlist) {
    6dbc:	04078863          	beqz	a5,6e0c <add_to_waitq_locked+0x88>
	int32_t b1 = thread_1->base.prio;
    6dc0:	00e40683          	lb	a3,14(s0)
	int32_t b2 = thread_2->base.prio;
    6dc4:	00e78703          	lb	a4,14(a5)
	if (b1 != b2) {
    6dc8:	02e68a63          	beq	a3,a4,6dfc <add_to_waitq_locked+0x78>
		return b2 - b1;
    6dcc:	40d70733          	sub	a4,a4,a3
		if (z_sched_prio_cmp(thread, t) > 0) {
    6dd0:	02e05663          	blez	a4,6dfc <add_to_waitq_locked+0x78>
	sys_dnode_t *const prev = successor->prev;
    6dd4:	0047a703          	lw	a4,4(a5)
	node->next = successor;
    6dd8:	00f42023          	sw	a5,0(s0)
	node->prev = prev;
    6ddc:	00e42223          	sw	a4,4(s0)
	prev->next = node;
    6de0:	00872023          	sw	s0,0(a4)
	successor->prev = node;
    6de4:	0087a223          	sw	s0,4(a5)
}
    6de8:	00c12083          	lw	ra,12(sp)
    6dec:	00812403          	lw	s0,8(sp)
    6df0:	00412483          	lw	s1,4(sp)
    6df4:	01010113          	addi	sp,sp,16
    6df8:	00008067          	ret
	return (node == list->tail) ? NULL : node->next;
    6dfc:	0044a703          	lw	a4,4(s1)
    6e00:	00e78663          	beq	a5,a4,6e0c <add_to_waitq_locked+0x88>
    6e04:	0007a783          	lw	a5,0(a5)
	SYS_DLIST_FOR_EACH_CONTAINER(pq, t, base.qnode_dlist) {
    6e08:	fa079ee3          	bnez	a5,6dc4 <add_to_waitq_locked+0x40>
	sys_dnode_t *const tail = list->tail;
    6e0c:	0044a783          	lw	a5,4(s1)
	node->next = list;
    6e10:	00942023          	sw	s1,0(s0)
	node->prev = tail;
    6e14:	00f42223          	sw	a5,4(s0)
	tail->next = node;
    6e18:	0087a023          	sw	s0,0(a5)
	list->tail = node;
    6e1c:	0084a223          	sw	s0,4(s1)
}
    6e20:	fc9ff06f          	j	6de8 <add_to_waitq_locked+0x64>

00006e24 <pend_locked>:
{
    6e24:	fe010113          	addi	sp,sp,-32
    6e28:	00812c23          	sw	s0,24(sp)
    6e2c:	00c12623          	sw	a2,12(sp)
    6e30:	00d12423          	sw	a3,8(sp)
    6e34:	00112e23          	sw	ra,28(sp)
    6e38:	00050413          	mv	s0,a0
	add_to_waitq_locked(thread, wait_q);
    6e3c:	f49ff0ef          	jal	ra,6d84 <add_to_waitq_locked>
	add_thread_timeout(thread, timeout);
    6e40:	00c12603          	lw	a2,12(sp)
	if (!K_TIMEOUT_EQ(timeout, K_FOREVER)) {
    6e44:	fff00593          	li	a1,-1
    6e48:	00812683          	lw	a3,8(sp)
    6e4c:	00b61463          	bne	a2,a1,6e54 <pend_locked+0x30>
    6e50:	02c68063          	beq	a3,a2,6e70 <pend_locked+0x4c>
    6e54:	01840513          	addi	a0,s0,24
}
    6e58:	01812403          	lw	s0,24(sp)
    6e5c:	01c12083          	lw	ra,28(sp)
    6e60:	000075b7          	lui	a1,0x7
    6e64:	ccc58593          	addi	a1,a1,-820 # 6ccc <z_thread_timeout>
    6e68:	02010113          	addi	sp,sp,32
    6e6c:	4500006f          	j	72bc <z_add_timeout>
    6e70:	01c12083          	lw	ra,28(sp)
    6e74:	01812403          	lw	s0,24(sp)
    6e78:	02010113          	addi	sp,sp,32
    6e7c:	00008067          	ret

00006e80 <z_pend_curr>:
{
    6e80:	ff010113          	addi	sp,sp,-16
    6e84:	00812423          	sw	s0,8(sp)
    6e88:	00112623          	sw	ra,12(sp)
    6e8c:	00058413          	mv	s0,a1
	__asm__ volatile ("csrrc %0, mstatus, %1"
    6e90:	00800793          	li	a5,8
    6e94:	00060593          	mv	a1,a2
    6e98:	00068613          	mv	a2,a3
    6e9c:	00070693          	mv	a3,a4
    6ea0:	3007b7f3          	csrrc	a5,mstatus,a5
	pend_locked(_current, wait_q, timeout);
    6ea4:	0000d7b7          	lui	a5,0xd
    6ea8:	5047a503          	lw	a0,1284(a5) # d504 <_kernel+0x8>
    6eac:	f79ff0ef          	jal	ra,6e24 <pend_locked>
    6eb0:	00040513          	mv	a0,s0
}
    6eb4:	00812403          	lw	s0,8(sp)
    6eb8:	00c12083          	lw	ra,12(sp)
    6ebc:	01010113          	addi	sp,sp,16
    6ec0:	c0cf906f          	j	2cc <arch_swap>

00006ec4 <z_set_prio>:
{
    6ec4:	ff010113          	addi	sp,sp,-16
    6ec8:	00812423          	sw	s0,8(sp)
    6ecc:	01212023          	sw	s2,0(sp)
    6ed0:	00112623          	sw	ra,12(sp)
    6ed4:	00912223          	sw	s1,4(sp)
    6ed8:	00050413          	mv	s0,a0
    6edc:	00800913          	li	s2,8
    6ee0:	30093973          	csrrc	s2,mstatus,s2
	uint8_t state = thread->base.thread_state;
    6ee4:	00d54783          	lbu	a5,13(a0)
				thread->base.prio = prio;
    6ee8:	01859493          	slli	s1,a1,0x18
	key = (mstatus & MSTATUS_IEN);
    6eec:	00897913          	andi	s2,s2,8
	return !((z_is_thread_prevented_from_running(thread)) != 0U ||
    6ef0:	01f7f713          	andi	a4,a5,31
    6ef4:	4184d493          	srai	s1,s1,0x18
    6ef8:	0a071e63          	bnez	a4,6fb4 <z_set_prio+0xf0>
		if (need_sched) {
    6efc:	01852703          	lw	a4,24(a0)
    6f00:	0a071a63          	bnez	a4,6fb4 <z_set_prio+0xf0>
	thread->base.thread_state &= ~_THREAD_QUEUED;
    6f04:	07f7f793          	andi	a5,a5,127
    6f08:	00f506a3          	sb	a5,13(a0)
	sys_dlist_remove(&thread->base.qnode_dlist);
    6f0c:	8f9ff0ef          	jal	ra,6804 <sys_dlist_remove>
	thread->base.thread_state |= _THREAD_QUEUED;
    6f10:	00d44783          	lbu	a5,13(s0)
	return list->head == list;
    6f14:	0000d737          	lui	a4,0xd
    6f18:	0000d6b7          	lui	a3,0xd
    6f1c:	f807e793          	ori	a5,a5,-128
    6f20:	00f406a3          	sb	a5,13(s0)
    6f24:	4fc70793          	addi	a5,a4,1276 # d4fc <_kernel>
    6f28:	01c7a783          	lw	a5,28(a5)
				thread->base.prio = prio;
    6f2c:	00940723          	sb	s1,14(s0)
    6f30:	51868693          	addi	a3,a3,1304 # d518 <_kernel+0x1c>
    6f34:	4fc70713          	addi	a4,a4,1276
	return sys_dlist_is_empty(list) ? NULL : list->head;
    6f38:	06d78263          	beq	a5,a3,6f9c <z_set_prio+0xd8>
	SYS_DLIST_FOR_EACH_CONTAINER(pq, t, base.qnode_dlist) {
    6f3c:	06078063          	beqz	a5,6f9c <z_set_prio+0xd8>
	return (node == list->tail) ? NULL : node->next;
    6f40:	02072583          	lw	a1,32(a4)
	int32_t b2 = thread_2->base.prio;
    6f44:	00e78603          	lb	a2,14(a5)
	if (b1 != b2) {
    6f48:	04c48463          	beq	s1,a2,6f90 <z_set_prio+0xcc>
		return b2 - b1;
    6f4c:	40960633          	sub	a2,a2,s1
		if (z_sched_prio_cmp(thread, t) > 0) {
    6f50:	04c05063          	blez	a2,6f90 <z_set_prio+0xcc>
	sys_dnode_t *const prev = successor->prev;
    6f54:	0047a703          	lw	a4,4(a5)
	node->next = successor;
    6f58:	00f42023          	sw	a5,0(s0)
	node->prev = prev;
    6f5c:	00e42223          	sw	a4,4(s0)
	prev->next = node;
    6f60:	00872023          	sw	s0,0(a4)
	successor->prev = node;
    6f64:	0087a223          	sw	s0,4(a5)
			update_cache(1);
    6f68:	00100513          	li	a0,1
    6f6c:	a5dff0ef          	jal	ra,69c8 <update_cache>
    6f70:	00100513          	li	a0,1
	__asm__ volatile ("csrrs %0, mstatus, %1"
    6f74:	30092973          	csrrs	s2,mstatus,s2
}
    6f78:	00c12083          	lw	ra,12(sp)
    6f7c:	00812403          	lw	s0,8(sp)
    6f80:	00412483          	lw	s1,4(sp)
    6f84:	00012903          	lw	s2,0(sp)
    6f88:	01010113          	addi	sp,sp,16
    6f8c:	00008067          	ret
	return (node == list->tail) ? NULL : node->next;
    6f90:	00b78663          	beq	a5,a1,6f9c <z_set_prio+0xd8>
    6f94:	0007a783          	lw	a5,0(a5)
	SYS_DLIST_FOR_EACH_CONTAINER(pq, t, base.qnode_dlist) {
    6f98:	fa0796e3          	bnez	a5,6f44 <z_set_prio+0x80>
	sys_dnode_t *const tail = list->tail;
    6f9c:	02072783          	lw	a5,32(a4)
	node->next = list;
    6fa0:	00d42023          	sw	a3,0(s0)
	node->prev = tail;
    6fa4:	00f42223          	sw	a5,4(s0)
	tail->next = node;
    6fa8:	0087a023          	sw	s0,0(a5)
	list->tail = node;
    6fac:	02872023          	sw	s0,32(a4)
}
    6fb0:	fb9ff06f          	j	6f68 <z_set_prio+0xa4>
			thread->base.prio = prio;
    6fb4:	00940723          	sb	s1,14(s0)
    6fb8:	00000513          	li	a0,0
    6fbc:	fb9ff06f          	j	6f74 <z_set_prio+0xb0>

00006fc0 <z_thread_priority_set>:
{
    6fc0:	ff010113          	addi	sp,sp,-16
    6fc4:	00112623          	sw	ra,12(sp)
	bool need_sched = z_set_prio(thread, prio);
    6fc8:	efdff0ef          	jal	ra,6ec4 <z_set_prio>
	if (need_sched && _current->base.sched_locked == 0U) {
    6fcc:	02050063          	beqz	a0,6fec <z_thread_priority_set+0x2c>
    6fd0:	0000d7b7          	lui	a5,0xd
    6fd4:	5047a783          	lw	a5,1284(a5) # d504 <_kernel+0x8>
    6fd8:	00f7c783          	lbu	a5,15(a5)
    6fdc:	00079863          	bnez	a5,6fec <z_thread_priority_set+0x2c>
}
    6fe0:	00c12083          	lw	ra,12(sp)
    6fe4:	01010113          	addi	sp,sp,16
		z_reschedule_unlocked();
    6fe8:	995ff06f          	j	697c <z_reschedule_unlocked>
}
    6fec:	00c12083          	lw	ra,12(sp)
    6ff0:	01010113          	addi	sp,sp,16
    6ff4:	00008067          	ret

00006ff8 <k_sched_unlock>:
{
    6ff8:	ff010113          	addi	sp,sp,-16
    6ffc:	00812423          	sw	s0,8(sp)
    7000:	00112623          	sw	ra,12(sp)
	__asm__ volatile ("csrrc %0, mstatus, %1"
    7004:	00800413          	li	s0,8
    7008:	30043473          	csrrc	s0,mstatus,s0
		++_current->base.sched_locked;
    700c:	0000d7b7          	lui	a5,0xd
    7010:	5047a703          	lw	a4,1284(a5) # d504 <_kernel+0x8>
		update_cache(0);
    7014:	00000513          	li	a0,0
	key = (mstatus & MSTATUS_IEN);
    7018:	00847413          	andi	s0,s0,8
		++_current->base.sched_locked;
    701c:	00f74783          	lbu	a5,15(a4)
    7020:	00178793          	addi	a5,a5,1
    7024:	00f707a3          	sb	a5,15(a4)
		update_cache(0);
    7028:	9a1ff0ef          	jal	ra,69c8 <update_cache>
	__asm__ volatile ("csrrs %0, mstatus, %1"
    702c:	30042473          	csrrs	s0,mstatus,s0
}
    7030:	00812403          	lw	s0,8(sp)
    7034:	00c12083          	lw	ra,12(sp)
    7038:	01010113          	addi	sp,sp,16
	z_reschedule_unlocked();
    703c:	941ff06f          	j	697c <z_reschedule_unlocked>

00007040 <z_unpend_first_thread>:
{
    7040:	ff010113          	addi	sp,sp,-16
    7044:	00812423          	sw	s0,8(sp)
    7048:	00112623          	sw	ra,12(sp)
    704c:	00912223          	sw	s1,4(sp)
	__asm__ volatile ("csrrc %0, mstatus, %1"
    7050:	00800413          	li	s0,8
    7054:	30043473          	csrrc	s0,mstatus,s0
		thread = _priq_wait_best(&wait_q->waitq);
    7058:	95dff0ef          	jal	ra,69b4 <z_priq_dumb_best>
	key = (mstatus & MSTATUS_IEN);
    705c:	00847413          	andi	s0,s0,8
    7060:	00050493          	mv	s1,a0
		if (thread != NULL) {
    7064:	00050863          	beqz	a0,7074 <z_unpend_first_thread+0x34>
			unpend_thread_no_timeout(thread);
    7068:	fb8ff0ef          	jal	ra,6820 <unpend_thread_no_timeout>
}

static inline int z_abort_thread_timeout(struct k_thread *thread)
{
	return z_abort_timeout(&thread->base.timeout);
    706c:	01848513          	addi	a0,s1,24
    7070:	3fc000ef          	jal	ra,746c <z_abort_timeout>
	__asm__ volatile ("csrrs %0, mstatus, %1"
    7074:	30042473          	csrrs	s0,mstatus,s0
}
    7078:	00c12083          	lw	ra,12(sp)
    707c:	00812403          	lw	s0,8(sp)
    7080:	00048513          	mv	a0,s1
    7084:	00412483          	lw	s1,4(sp)
    7088:	01010113          	addi	sp,sp,16
    708c:	00008067          	ret

00007090 <z_sched_init>:
	list->head = (sys_dnode_t *)list;
    7090:	0000d7b7          	lui	a5,0xd
    7094:	0000d737          	lui	a4,0xd
    7098:	4fc78793          	addi	a5,a5,1276 # d4fc <_kernel>
    709c:	51870713          	addi	a4,a4,1304 # d518 <_kernel+0x1c>
    70a0:	00e7ae23          	sw	a4,28(a5)
	list->tail = (sys_dnode_t *)list;
    70a4:	02e7a023          	sw	a4,32(a5)
		sys_dlist_init(&_kernel.ready_q.runq.queues[i]);
	}
#endif

#ifdef CONFIG_TIMESLICING
	k_sched_time_slice_set(CONFIG_TIMESLICE_SIZE,
    70a8:	00000593          	li	a1,0
    70ac:	00000513          	li	a0,0
    70b0:	ffcff06f          	j	68ac <k_sched_time_slice_set>

000070b4 <z_impl_k_thread_priority_set>:
	Z_ASSERT_VALID_PRIO(prio, NULL);
	__ASSERT(!arch_is_in_isr(), "");

	struct k_thread *th = (struct k_thread *)thread;

	z_thread_priority_set(th, prio);
    70b4:	f0dff06f          	j	6fc0 <z_thread_priority_set>

000070b8 <z_impl_z_current_get>:

#ifdef CONFIG_SMP
	arch_irq_unlock(k);
#endif
	return ret;
}
    70b8:	0000d7b7          	lui	a5,0xd
    70bc:	5047a503          	lw	a0,1284(a5) # d504 <_kernel+0x8>
    70c0:	00008067          	ret

000070c4 <z_thread_abort>:
#endif
	}
}

void z_thread_abort(struct k_thread *thread)
{
    70c4:	fe010113          	addi	sp,sp,-32
    70c8:	00912a23          	sw	s1,20(sp)
    70cc:	00112e23          	sw	ra,28(sp)
    70d0:	00812c23          	sw	s0,24(sp)
    70d4:	01212823          	sw	s2,16(sp)
    70d8:	01312623          	sw	s3,12(sp)
	__asm__ volatile ("csrrc %0, mstatus, %1"
    70dc:	00800493          	li	s1,8
    70e0:	3004b4f3          	csrrc	s1,mstatus,s1
	k_spinlock_key_t key = k_spin_lock(&sched_spinlock);

	if ((thread->base.thread_state & _THREAD_DEAD) != 0U) {
    70e4:	00d54783          	lbu	a5,13(a0)
	key = (mstatus & MSTATUS_IEN);
    70e8:	0084f493          	andi	s1,s1,8
    70ec:	0087f713          	andi	a4,a5,8
    70f0:	02070263          	beqz	a4,7114 <z_thread_abort+0x50>
	__asm__ volatile ("csrrs %0, mstatus, %1"
    70f4:	3004a4f3          	csrrs	s1,mstatus,s1
	if (thread == _current && !arch_is_in_isr()) {
		z_swap(&sched_spinlock, key);
		__ASSERT(false, "aborted _current back from dead");
	}
	k_spin_unlock(&sched_spinlock, key);
}
    70f8:	01c12083          	lw	ra,28(sp)
    70fc:	01812403          	lw	s0,24(sp)
    7100:	01412483          	lw	s1,20(sp)
    7104:	01012903          	lw	s2,16(sp)
    7108:	00c12983          	lw	s3,12(sp)
    710c:	02010113          	addi	sp,sp,32
    7110:	00008067          	ret
		thread->base.thread_state &= ~_THREAD_ABORTING;
    7114:	fdf7f713          	andi	a4,a5,-33
    7118:	00876713          	ori	a4,a4,8
		if (z_is_thread_queued(thread)) {
    711c:	01871693          	slli	a3,a4,0x18
    7120:	4186d693          	srai	a3,a3,0x18
    7124:	00050413          	mv	s0,a0
    7128:	0406ce63          	bltz	a3,7184 <z_thread_abort+0xc0>
		thread->base.thread_state &= ~_THREAD_ABORTING;
    712c:	00e506a3          	sb	a4,13(a0)
		if (thread->base.pended_on != NULL) {
    7130:	00842783          	lw	a5,8(s0)
    7134:	00078663          	beqz	a5,7140 <z_thread_abort+0x7c>
			unpend_thread_no_timeout(thread);
    7138:	00040513          	mv	a0,s0
    713c:	ee4ff0ef          	jal	ra,6820 <unpend_thread_no_timeout>
    7140:	01840513          	addi	a0,s0,24
    7144:	328000ef          	jal	ra,746c <z_abort_timeout>
}

static inline struct k_thread *z_waitq_head(_wait_q_t *w)
{
	return (struct k_thread *)sys_dlist_peek_head(&w->waitq);
    7148:	06840993          	addi	s3,s0,104
	return list->head == list;
    714c:	06842903          	lw	s2,104(s0)
	return sys_dlist_is_empty(list) ? NULL : list->head;
    7150:	01390463          	beq	s2,s3,7158 <z_thread_abort+0x94>
	while ((thread = z_waitq_head(wait_q)) != NULL) {
    7154:	04091263          	bnez	s2,7198 <z_thread_abort+0xd4>
		update_cache(1);
    7158:	00100513          	li	a0,1
    715c:	86dff0ef          	jal	ra,69c8 <update_cache>
	if (thread == _current && !arch_is_in_isr()) {
    7160:	0000d7b7          	lui	a5,0xd
    7164:	4fc78793          	addi	a5,a5,1276 # d4fc <_kernel>
    7168:	0087a703          	lw	a4,8(a5)
    716c:	f88714e3          	bne	a4,s0,70f4 <z_thread_abort+0x30>
    7170:	0007a783          	lw	a5,0(a5)
    7174:	f80790e3          	bnez	a5,70f4 <z_thread_abort+0x30>
    7178:	00048513          	mv	a0,s1
    717c:	950f90ef          	jal	ra,2cc <arch_swap>
	return ret;
    7180:	f75ff06f          	j	70f4 <z_thread_abort+0x30>
	thread->base.thread_state &= ~_THREAD_QUEUED;
    7184:	05f7f793          	andi	a5,a5,95
    7188:	0087e793          	ori	a5,a5,8
    718c:	00f506a3          	sb	a5,13(a0)
	sys_dlist_remove(&thread->base.qnode_dlist);
    7190:	e74ff0ef          	jal	ra,6804 <sys_dlist_remove>
}
    7194:	f9dff06f          	j	7130 <z_thread_abort+0x6c>
		unpend_thread_no_timeout(thread);
    7198:	00090513          	mv	a0,s2
    719c:	e84ff0ef          	jal	ra,6820 <unpend_thread_no_timeout>
    71a0:	01890513          	addi	a0,s2,24
    71a4:	2c8000ef          	jal	ra,746c <z_abort_timeout>
		ready_thread(thread);
    71a8:	00090513          	mv	a0,s2
	thread->arch.swap_return_value = value;
    71ac:	06092c23          	sw	zero,120(s2)
    71b0:	9fdff0ef          	jal	ra,6bac <ready_thread>
    71b4:	f99ff06f          	j	714c <z_thread_abort+0x88>

000071b8 <z_impl_k_thread_abort>:
#if !defined(CONFIG_ARCH_HAS_THREAD_ABORT)
void z_impl_k_thread_abort(struct k_thread *thread)
{
	SYS_PORT_TRACING_OBJ_FUNC_ENTER(k_thread, abort, thread);

	z_thread_abort(thread);
    71b8:	f0dff06f          	j	70c4 <z_thread_abort>

000071bc <elapsed>:
	sys_dlist_remove(&t->node);
}

static int32_t elapsed(void)
{
	return announce_remaining == 0 ? sys_clock_elapsed() : 0U;
    71bc:	0000d7b7          	lui	a5,0xd
    71c0:	1507a783          	lw	a5,336(a5) # d150 <announce_remaining>
    71c4:	00079463          	bnez	a5,71cc <elapsed+0x10>
    71c8:	db5fe06f          	j	5f7c <sys_clock_elapsed>
}
    71cc:	00000513          	li	a0,0
    71d0:	00008067          	ret

000071d4 <next_timeout>:
	return list->head == list;
    71d4:	000827b7          	lui	a5,0x82

static int32_t next_timeout(void)
{
    71d8:	ff010113          	addi	sp,sp,-16
    71dc:	da878793          	addi	a5,a5,-600 # 81da8 <timeout_list>
    71e0:	00812423          	sw	s0,8(sp)
    71e4:	0007a403          	lw	s0,0(a5)
    71e8:	00112623          	sw	ra,12(sp)
	return sys_dlist_is_empty(list) ? NULL : list->head;
    71ec:	00f41463          	bne	s0,a5,71f4 <next_timeout+0x20>
    71f0:	00000413          	li	s0,0
	struct _timeout *to = first();
	int32_t ticks_elapsed = elapsed();
    71f4:	fc9ff0ef          	jal	ra,71bc <elapsed>
	int32_t ret = to == NULL ? MAX_WAIT
    71f8:	02040c63          	beqz	s0,7230 <next_timeout+0x5c>
		: CLAMP(to->dticks - ticks_elapsed, 0, MAX_WAIT);
    71fc:	01042703          	lw	a4,16(s0)
    7200:	01442783          	lw	a5,20(s0)
    7204:	41f55693          	srai	a3,a0,0x1f
    7208:	40a70533          	sub	a0,a4,a0
    720c:	00a73733          	sltu	a4,a4,a0
    7210:	40d787b3          	sub	a5,a5,a3
    7214:	40e787b3          	sub	a5,a5,a4
	int32_t ret = to == NULL ? MAX_WAIT
    7218:	00f04663          	bgtz	a5,7224 <next_timeout+0x50>
    721c:	04079063          	bnez	a5,725c <next_timeout+0x88>
    7220:	02050e63          	beqz	a0,725c <next_timeout+0x88>
		: CLAMP(to->dticks - ticks_elapsed, 0, MAX_WAIT);
    7224:	00f04663          	bgtz	a5,7230 <next_timeout+0x5c>
    7228:	00079863          	bnez	a5,7238 <next_timeout+0x64>
    722c:	00055663          	bgez	a0,7238 <next_timeout+0x64>
	int32_t ret = to == NULL ? MAX_WAIT
    7230:	80000537          	lui	a0,0x80000
    7234:	fff54513          	not	a0,a0

#ifdef CONFIG_TIMESLICING
	if (_current_cpu->slice_ticks && _current_cpu->slice_ticks < ret) {
    7238:	0000d7b7          	lui	a5,0xd
    723c:	50c7a783          	lw	a5,1292(a5) # d50c <_kernel+0x10>
    7240:	00078663          	beqz	a5,724c <next_timeout+0x78>
    7244:	00a7d463          	bge	a5,a0,724c <next_timeout+0x78>
    7248:	00078513          	mv	a0,a5
		ret = _current_cpu->slice_ticks;
	}
#endif
	return ret;
}
    724c:	00c12083          	lw	ra,12(sp)
    7250:	00812403          	lw	s0,8(sp)
    7254:	01010113          	addi	sp,sp,16
    7258:	00008067          	ret
	int32_t ret = to == NULL ? MAX_WAIT
    725c:	00000513          	li	a0,0
    7260:	fd9ff06f          	j	7238 <next_timeout+0x64>

00007264 <remove_timeout>:
	return (node == list->tail) ? NULL : node->next;
    7264:	00052783          	lw	a5,0(a0) # 80000000 <CONFIG_SYSTEM_WORKQUEUE_PRIORITY+0x80000001>
	return (node != NULL) ? sys_dlist_peek_next_no_check(list, node) : NULL;
    7268:	02050e63          	beqz	a0,72a4 <remove_timeout+0x40>
	return (node == list->tail) ? NULL : node->next;
    726c:	00082737          	lui	a4,0x82
    7270:	dac72703          	lw	a4,-596(a4) # 81dac <timeout_list+0x4>
    7274:	02e50863          	beq	a0,a4,72a4 <remove_timeout+0x40>
	if (next(t) != NULL) {
    7278:	02078663          	beqz	a5,72a4 <remove_timeout+0x40>
		next(t)->dticks += t->dticks;
    727c:	0107a703          	lw	a4,16(a5)
    7280:	01052683          	lw	a3,16(a0)
    7284:	01452583          	lw	a1,20(a0)
    7288:	0147a603          	lw	a2,20(a5)
    728c:	00d706b3          	add	a3,a4,a3
    7290:	00e6b733          	sltu	a4,a3,a4
    7294:	00b60633          	add	a2,a2,a1
    7298:	00c70733          	add	a4,a4,a2
    729c:	00d7a823          	sw	a3,16(a5)
    72a0:	00e7aa23          	sw	a4,20(a5)
	sys_dnode_t *const prev = node->prev;
    72a4:	00452703          	lw	a4,4(a0)
	prev->next = next;
    72a8:	00f72023          	sw	a5,0(a4)
	next->prev = prev;
    72ac:	00e7a223          	sw	a4,4(a5)
	node->next = NULL;
    72b0:	00052023          	sw	zero,0(a0)
	node->prev = NULL;
    72b4:	00052223          	sw	zero,4(a0)
}
    72b8:	00008067          	ret

000072bc <z_add_timeout>:

void z_add_timeout(struct _timeout *to, _timeout_func_t fn,
		   k_timeout_t timeout)
{
    72bc:	fe010113          	addi	sp,sp,-32
    72c0:	00812c23          	sw	s0,24(sp)
    72c4:	00912a23          	sw	s1,20(sp)
    72c8:	01312623          	sw	s3,12(sp)
    72cc:	00112e23          	sw	ra,28(sp)
    72d0:	00068993          	mv	s3,a3
    72d4:	01212823          	sw	s2,16(sp)
	if (K_TIMEOUT_EQ(timeout, K_FOREVER)) {
    72d8:	fff00693          	li	a3,-1
{
    72dc:	00050413          	mv	s0,a0
    72e0:	00060493          	mv	s1,a2
	if (K_TIMEOUT_EQ(timeout, K_FOREVER)) {
    72e4:	00d61463          	bne	a2,a3,72ec <z_add_timeout+0x30>
    72e8:	16c98463          	beq	s3,a2,7450 <z_add_timeout+0x194>
#ifdef CONFIG_KERNEL_COHERENCE
	__ASSERT_NO_MSG(arch_mem_coherent(to));
#endif

	__ASSERT(!sys_dnode_is_linked(&to->node), "");
	to->fn = fn;
    72ec:	00b42423          	sw	a1,8(s0)
	__asm__ volatile ("csrrc %0, mstatus, %1"
    72f0:	00800913          	li	s2,8
    72f4:	30093973          	csrrc	s2,mstatus,s2

	LOCKED(&timeout_lock) {
		struct _timeout *t;

		if (IS_ENABLED(CONFIG_TIMEOUT_64BIT) &&
		    Z_TICK_ABS(timeout.ticks) >= 0) {
    72f8:	ffe00693          	li	a3,-2
    72fc:	409687b3          	sub	a5,a3,s1
    7300:	00f6b733          	sltu	a4,a3,a5
    7304:	fff9c793          	not	a5,s3
    7308:	40e787b3          	sub	a5,a5,a4
	key = (mstatus & MSTATUS_IEN);
    730c:	00897913          	andi	s2,s2,8
		if (IS_ENABLED(CONFIG_TIMEOUT_64BIT) &&
    7310:	0607ce63          	bltz	a5,738c <z_add_timeout+0xd0>
			k_ticks_t ticks = Z_TICK_ABS(timeout.ticks) - curr_tick;
    7314:	0000d7b7          	lui	a5,0xd
    7318:	11878793          	addi	a5,a5,280 # d118 <curr_tick>
    731c:	0007a703          	lw	a4,0(a5)
    7320:	0047a783          	lw	a5,4(a5)
    7324:	40e68733          	sub	a4,a3,a4
    7328:	00e6b6b3          	sltu	a3,a3,a4
    732c:	fff7c793          	not	a5,a5
    7330:	40d787b3          	sub	a5,a5,a3
    7334:	409704b3          	sub	s1,a4,s1
    7338:	00973733          	sltu	a4,a4,s1
    733c:	413786b3          	sub	a3,a5,s3

			to->dticks = MAX(1, ticks);
    7340:	40e686b3          	sub	a3,a3,a4
    7344:	00d04a63          	bgtz	a3,7358 <z_add_timeout+0x9c>
    7348:	00069463          	bnez	a3,7350 <z_add_timeout+0x94>
    734c:	00049663          	bnez	s1,7358 <z_add_timeout+0x9c>
    7350:	00100493          	li	s1,1
    7354:	00000693          	li	a3,0
    7358:	00942823          	sw	s1,16(s0)
	return list->head == list;
    735c:	00082637          	lui	a2,0x82
    7360:	da860713          	addi	a4,a2,-600 # 81da8 <timeout_list>
    7364:	00072783          	lw	a5,0(a4)
		} else {
			to->dticks = timeout.ticks + 1 + elapsed();
    7368:	00d42a23          	sw	a3,20(s0)
    736c:	da860613          	addi	a2,a2,-600
	sys_dnode_t *const tail = list->tail;
    7370:	00472803          	lw	a6,4(a4)
	return sys_dlist_is_empty(list) ? NULL : list->head;
    7374:	06c79263          	bne	a5,a2,73d8 <z_add_timeout+0x11c>
	node->next = list;
    7378:	00c42023          	sw	a2,0(s0)
	node->prev = tail;
    737c:	01042223          	sw	a6,4(s0)
	tail->next = node;
    7380:	00882023          	sw	s0,0(a6)
	list->tail = node;
    7384:	00862223          	sw	s0,4(a2)
}
    7388:	09c0006f          	j	7424 <z_add_timeout+0x168>
    738c:	e31ff0ef          	jal	ra,71bc <elapsed>
    7390:	00148793          	addi	a5,s1,1
    7394:	0097b4b3          	sltu	s1,a5,s1
    7398:	013486b3          	add	a3,s1,s3
    739c:	41f55493          	srai	s1,a0,0x1f
    73a0:	00a78533          	add	a0,a5,a0
    73a4:	00f537b3          	sltu	a5,a0,a5
    73a8:	009686b3          	add	a3,a3,s1
    73ac:	00d786b3          	add	a3,a5,a3
    73b0:	00a42823          	sw	a0,16(s0)
    73b4:	fa9ff06f          	j	735c <z_add_timeout+0xa0>
			if (t->dticks > to->dticks) {
				t->dticks -= to->dticks;
				sys_dlist_insert(&t->node, &to->node);
				break;
			}
			to->dticks -= t->dticks;
    73b8:	40e68733          	sub	a4,a3,a4
    73bc:	00e6b6b3          	sltu	a3,a3,a4
    73c0:	40a585b3          	sub	a1,a1,a0
    73c4:	40d586b3          	sub	a3,a1,a3
    73c8:	00e42823          	sw	a4,16(s0)
    73cc:	00d42a23          	sw	a3,20(s0)
	return (node == list->tail) ? NULL : node->next;
    73d0:	faf804e3          	beq	a6,a5,7378 <z_add_timeout+0xbc>
    73d4:	0007a783          	lw	a5,0(a5)
		for (t = first(); t != NULL; t = next(t)) {
    73d8:	fa0780e3          	beqz	a5,7378 <z_add_timeout+0xbc>
			if (t->dticks > to->dticks) {
    73dc:	0147a503          	lw	a0,20(a5)
    73e0:	01442583          	lw	a1,20(s0)
    73e4:	0107a703          	lw	a4,16(a5)
    73e8:	01042683          	lw	a3,16(s0)
    73ec:	00a5c663          	blt	a1,a0,73f8 <z_add_timeout+0x13c>
    73f0:	fcb514e3          	bne	a0,a1,73b8 <z_add_timeout+0xfc>
    73f4:	fce6f2e3          	bgeu	a3,a4,73b8 <z_add_timeout+0xfc>
				t->dticks -= to->dticks;
    73f8:	40d706b3          	sub	a3,a4,a3
    73fc:	00d73733          	sltu	a4,a4,a3
    7400:	40b505b3          	sub	a1,a0,a1
    7404:	40e58733          	sub	a4,a1,a4
    7408:	00e7aa23          	sw	a4,20(a5)
	sys_dnode_t *const prev = successor->prev;
    740c:	0047a703          	lw	a4,4(a5)
    7410:	00d7a823          	sw	a3,16(a5)
	node->next = successor;
    7414:	00f42023          	sw	a5,0(s0)
	node->prev = prev;
    7418:	00e42223          	sw	a4,4(s0)
	prev->next = node;
    741c:	00872023          	sw	s0,0(a4)
	successor->prev = node;
    7420:	0087a223          	sw	s0,4(a5)
	return list->head == list;
    7424:	00062783          	lw	a5,0(a2)
	return sys_dlist_is_empty(list) ? NULL : list->head;
    7428:	02c78263          	beq	a5,a2,744c <z_add_timeout+0x190>

		if (t == NULL) {
			sys_dlist_append(&timeout_list, &to->node);
		}

		if (to == first()) {
    742c:	02f41063          	bne	s0,a5,744c <z_add_timeout+0x190>
			 * last announcement, and slice_ticks is based
			 * on that. It means that the time remaining for
			 * the next announcement can be less than
			 * slice_ticks.
			 */
			int32_t next_time = next_timeout();
    7430:	da5ff0ef          	jal	ra,71d4 <next_timeout>

			if (next_time == 0 ||
    7434:	00050863          	beqz	a0,7444 <z_add_timeout+0x188>
			    _current_cpu->slice_ticks != next_time) {
    7438:	0000d7b7          	lui	a5,0xd
			if (next_time == 0 ||
    743c:	50c7a783          	lw	a5,1292(a5) # d50c <_kernel+0x10>
    7440:	00a78663          	beq	a5,a0,744c <z_add_timeout+0x190>
				sys_clock_set_timeout(next_time, false);
    7444:	00000593          	li	a1,0
    7448:	b31fe0ef          	jal	ra,5f78 <sys_clock_set_timeout>
	__asm__ volatile ("csrrs %0, mstatus, %1"
    744c:	30092973          	csrrs	s2,mstatus,s2
#else
			sys_clock_set_timeout(next_timeout(), false);
#endif	/* CONFIG_TIMESLICING */
		}
	}
}
    7450:	01c12083          	lw	ra,28(sp)
    7454:	01812403          	lw	s0,24(sp)
    7458:	01412483          	lw	s1,20(sp)
    745c:	01012903          	lw	s2,16(sp)
    7460:	00c12983          	lw	s3,12(sp)
    7464:	02010113          	addi	sp,sp,32
    7468:	00008067          	ret

0000746c <z_abort_timeout>:

int z_abort_timeout(struct _timeout *to)
{
    746c:	ff010113          	addi	sp,sp,-16
    7470:	00812423          	sw	s0,8(sp)
    7474:	00112623          	sw	ra,12(sp)
	__asm__ volatile ("csrrc %0, mstatus, %1"
    7478:	00800413          	li	s0,8
    747c:	30043473          	csrrc	s0,mstatus,s0
	int ret = -EINVAL;

	LOCKED(&timeout_lock) {
		if (sys_dnode_is_linked(&to->node)) {
    7480:	00052783          	lw	a5,0(a0)
	key = (mstatus & MSTATUS_IEN);
    7484:	00847413          	andi	s0,s0,8
    7488:	02078063          	beqz	a5,74a8 <z_abort_timeout+0x3c>
			remove_timeout(to);
    748c:	dd9ff0ef          	jal	ra,7264 <remove_timeout>
			ret = 0;
    7490:	00000513          	li	a0,0
	__asm__ volatile ("csrrs %0, mstatus, %1"
    7494:	30042473          	csrrs	s0,mstatus,s0
		}
	}

	return ret;
}
    7498:	00c12083          	lw	ra,12(sp)
    749c:	00812403          	lw	s0,8(sp)
    74a0:	01010113          	addi	sp,sp,16
    74a4:	00008067          	ret
	int ret = -EINVAL;
    74a8:	fea00513          	li	a0,-22
    74ac:	fe9ff06f          	j	7494 <z_abort_timeout+0x28>

000074b0 <z_set_timeout_expiry>:
	}
	return ret;
}

void z_set_timeout_expiry(int32_t ticks, bool is_idle)
{
    74b0:	fe010113          	addi	sp,sp,-32
    74b4:	00812c23          	sw	s0,24(sp)
    74b8:	00912a23          	sw	s1,20(sp)
    74bc:	00112e23          	sw	ra,28(sp)
    74c0:	00050493          	mv	s1,a0
    74c4:	00b12623          	sw	a1,12(sp)
	__asm__ volatile ("csrrc %0, mstatus, %1"
    74c8:	00800413          	li	s0,8
    74cc:	30043473          	csrrc	s0,mstatus,s0
	LOCKED(&timeout_lock) {
		int next_to = next_timeout();
    74d0:	d05ff0ef          	jal	ra,71d4 <next_timeout>
		 * SMP can't use this optimization though: we don't
		 * know when context switches happen until interrupt
		 * exit and so can't get the timeslicing clamp folded
		 * in.
		 */
		if (!imminent && (sooner || IS_ENABLED(CONFIG_SMP))) {
    74d4:	00100793          	li	a5,1
	key = (mstatus & MSTATUS_IEN);
    74d8:	00847413          	andi	s0,s0,8
    74dc:	00a7da63          	bge	a5,a0,74f0 <z_set_timeout_expiry+0x40>
    74e0:	00c12583          	lw	a1,12(sp)
    74e4:	00954663          	blt	a0,s1,74f0 <z_set_timeout_expiry+0x40>
			sys_clock_set_timeout(MIN(ticks, next_to), is_idle);
    74e8:	00048513          	mv	a0,s1
    74ec:	a8dfe0ef          	jal	ra,5f78 <sys_clock_set_timeout>
	__asm__ volatile ("csrrs %0, mstatus, %1"
    74f0:	30042473          	csrrs	s0,mstatus,s0
		}
	}
}
    74f4:	01c12083          	lw	ra,28(sp)
    74f8:	01812403          	lw	s0,24(sp)
    74fc:	01412483          	lw	s1,20(sp)
    7500:	02010113          	addi	sp,sp,32
    7504:	00008067          	ret

00007508 <sys_clock_announce>:

void sys_clock_announce(int32_t ticks)
{
    7508:	fd010113          	addi	sp,sp,-48
    750c:	02812423          	sw	s0,40(sp)
    7510:	02912223          	sw	s1,36(sp)
    7514:	02112623          	sw	ra,44(sp)
    7518:	03212023          	sw	s2,32(sp)
    751c:	01312e23          	sw	s3,28(sp)
    7520:	01412c23          	sw	s4,24(sp)
    7524:	00050493          	mv	s1,a0
	__asm__ volatile ("csrrc %0, mstatus, %1"
    7528:	00800413          	li	s0,8
#ifdef CONFIG_TIMESLICING
	z_time_slice(ticks);
    752c:	de0ff0ef          	jal	ra,6b0c <z_time_slice>
    7530:	30043473          	csrrc	s0,mstatus,s0
#endif

	k_spinlock_key_t key = k_spin_lock(&timeout_lock);

	announce_remaining = ticks;
    7534:	0000d937          	lui	s2,0xd
    7538:	14992823          	sw	s1,336(s2) # d150 <announce_remaining>
	return list->head == list;
    753c:	000829b7          	lui	s3,0x82

	while (first() != NULL && first()->dticks <= announce_remaining) {
		struct _timeout *t = first();
		int dt = t->dticks;

		curr_tick += dt;
    7540:	0000d4b7          	lui	s1,0xd
	key = (mstatus & MSTATUS_IEN);
    7544:	00847413          	andi	s0,s0,8
	while (first() != NULL && first()->dticks <= announce_remaining) {
    7548:	15090913          	addi	s2,s2,336
    754c:	da898993          	addi	s3,s3,-600 # 81da8 <timeout_list>
		curr_tick += dt;
    7550:	11848493          	addi	s1,s1,280 # d118 <curr_tick>
	__asm__ volatile ("csrrc %0, mstatus, %1"
    7554:	00800a13          	li	s4,8
	while (first() != NULL && first()->dticks <= announce_remaining) {
    7558:	00092783          	lw	a5,0(s2)
    755c:	0009a503          	lw	a0,0(s3)
		curr_tick += dt;
    7560:	0004a683          	lw	a3,0(s1)
    7564:	0044a883          	lw	a7,4(s1)
    7568:	41f7d593          	srai	a1,a5,0x1f
	return sys_dlist_is_empty(list) ? NULL : list->head;
    756c:	03350a63          	beq	a0,s3,75a0 <sys_clock_announce+0x98>
	while (first() != NULL && first()->dticks <= announce_remaining) {
    7570:	02050863          	beqz	a0,75a0 <sys_clock_announce+0x98>
    7574:	01452603          	lw	a2,20(a0)
    7578:	01052703          	lw	a4,16(a0)
    757c:	00c5c663          	blt	a1,a2,7588 <sys_clock_announce+0x80>
    7580:	06b61663          	bne	a2,a1,75ec <sys_clock_announce+0xe4>
    7584:	06e7f463          	bgeu	a5,a4,75ec <sys_clock_announce+0xe4>
		t->fn(t);
		key = k_spin_lock(&timeout_lock);
	}

	if (first() != NULL) {
		first()->dticks -= announce_remaining;
    7588:	40f70833          	sub	a6,a4,a5
    758c:	01073733          	sltu	a4,a4,a6
    7590:	40b60633          	sub	a2,a2,a1
    7594:	40e60733          	sub	a4,a2,a4
    7598:	01052823          	sw	a6,16(a0)
    759c:	00e52a23          	sw	a4,20(a0)
	}

	curr_tick += announce_remaining;
    75a0:	00d786b3          	add	a3,a5,a3
    75a4:	011585b3          	add	a1,a1,a7
    75a8:	00f6b7b3          	sltu	a5,a3,a5
    75ac:	00b787b3          	add	a5,a5,a1
    75b0:	00d4a023          	sw	a3,0(s1)
    75b4:	00f4a223          	sw	a5,4(s1)
	announce_remaining = 0;
    75b8:	00092023          	sw	zero,0(s2)

	sys_clock_set_timeout(next_timeout(), false);
    75bc:	c19ff0ef          	jal	ra,71d4 <next_timeout>
    75c0:	00000593          	li	a1,0
    75c4:	9b5fe0ef          	jal	ra,5f78 <sys_clock_set_timeout>
	__asm__ volatile ("csrrs %0, mstatus, %1"
    75c8:	30042473          	csrrs	s0,mstatus,s0

	k_spin_unlock(&timeout_lock, key);
}
    75cc:	02c12083          	lw	ra,44(sp)
    75d0:	02812403          	lw	s0,40(sp)
    75d4:	02412483          	lw	s1,36(sp)
    75d8:	02012903          	lw	s2,32(sp)
    75dc:	01c12983          	lw	s3,28(sp)
    75e0:	01812a03          	lw	s4,24(sp)
    75e4:	03010113          	addi	sp,sp,48
    75e8:	00008067          	ret
		curr_tick += dt;
    75ec:	00d706b3          	add	a3,a4,a3
		announce_remaining -= dt;
    75f0:	40e787b3          	sub	a5,a5,a4
		curr_tick += dt;
    75f4:	41f75593          	srai	a1,a4,0x1f
    75f8:	00e6b633          	sltu	a2,a3,a4
    75fc:	011585b3          	add	a1,a1,a7
		announce_remaining -= dt;
    7600:	00f92023          	sw	a5,0(s2)
		t->dticks = 0;
    7604:	00000813          	li	a6,0
    7608:	00000793          	li	a5,0
		curr_tick += dt;
    760c:	00b605b3          	add	a1,a2,a1
		t->dticks = 0;
    7610:	00f52823          	sw	a5,16(a0)
    7614:	01052a23          	sw	a6,20(a0)
		curr_tick += dt;
    7618:	00d4a023          	sw	a3,0(s1)
    761c:	00b4a223          	sw	a1,4(s1)
		remove_timeout(t);
    7620:	00a12623          	sw	a0,12(sp)
    7624:	c41ff0ef          	jal	ra,7264 <remove_timeout>
    7628:	30042473          	csrrs	s0,mstatus,s0
		t->fn(t);
    762c:	00c12503          	lw	a0,12(sp)
    7630:	00852783          	lw	a5,8(a0)
    7634:	000780e7          	jalr	a5
	__asm__ volatile ("csrrc %0, mstatus, %1"
    7638:	300a3473          	csrrc	s0,mstatus,s4
	key = (mstatus & MSTATUS_IEN);
    763c:	00847413          	andi	s0,s0,8
#endif

#ifdef CONFIG_SPIN_VALIDATE
	z_spin_lock_set_owner(l);
#endif
	return k;
    7640:	f19ff06f          	j	7558 <sys_clock_announce+0x50>

00007644 <sys_clock_tick_get>:

int64_t sys_clock_tick_get(void)
{
    7644:	ff010113          	addi	sp,sp,-16
    7648:	00812423          	sw	s0,8(sp)
    764c:	00112623          	sw	ra,12(sp)
	__asm__ volatile ("csrrc %0, mstatus, %1"
    7650:	00800413          	li	s0,8
    7654:	30043473          	csrrc	s0,mstatus,s0
	uint64_t t = 0U;

	LOCKED(&timeout_lock) {
		t = curr_tick + sys_clock_elapsed();
    7658:	925fe0ef          	jal	ra,5f7c <sys_clock_elapsed>
    765c:	0000d737          	lui	a4,0xd
    7660:	11870713          	addi	a4,a4,280 # d118 <curr_tick>
    7664:	00050793          	mv	a5,a0
    7668:	00072503          	lw	a0,0(a4)
    766c:	00472583          	lw	a1,4(a4)
	key = (mstatus & MSTATUS_IEN);
    7670:	00847413          	andi	s0,s0,8
    7674:	00a78533          	add	a0,a5,a0
    7678:	00f537b3          	sltu	a5,a0,a5
    767c:	00b785b3          	add	a1,a5,a1
	__asm__ volatile ("csrrs %0, mstatus, %1"
    7680:	30042473          	csrrs	s0,mstatus,s0
	}
	return t;
}
    7684:	00c12083          	lw	ra,12(sp)
    7688:	00812403          	lw	s0,8(sp)
    768c:	01010113          	addi	sp,sp,16
    7690:	00008067          	ret

00007694 <z_impl_k_uptime_ticks>:
#endif
}

int64_t z_impl_k_uptime_ticks(void)
{
	return sys_clock_tick_get();
    7694:	fb1ff06f          	j	7644 <sys_clock_tick_get>

00007698 <boot_banner>:
		k_busy_wait(CONFIG_BOOT_DELAY * USEC_PER_MSEC);
	}

#if defined(CONFIG_BOOT_BANNER)
#ifdef BUILD_VERSION
	printk("*** Booting Zephyr OS build %s %s ***\n",
    7698:	0000d637          	lui	a2,0xd
    769c:	0000d5b7          	lui	a1,0xd
    76a0:	0000d537          	lui	a0,0xd
    76a4:	b1860613          	addi	a2,a2,-1256 # cb18 <__mprec_tens+0x170>
    76a8:	d7458593          	addi	a1,a1,-652 # cd74 <levels.0+0x1c>
    76ac:	d7c50513          	addi	a0,a0,-644 # cd7c <levels.0+0x24>
    76b0:	fa9fc06f          	j	4658 <printk>

000076b4 <exp>:
    76b4:	fe010113          	addi	sp,sp,-32
    76b8:	00812c23          	sw	s0,24(sp)
    76bc:	00912a23          	sw	s1,20(sp)
    76c0:	01212823          	sw	s2,16(sp)
    76c4:	01312623          	sw	s3,12(sp)
    76c8:	00112e23          	sw	ra,28(sp)
    76cc:	00050993          	mv	s3,a0
    76d0:	00058913          	mv	s2,a1
    76d4:	0b8000ef          	jal	ra,778c <__ieee754_exp>
    76d8:	000827b7          	lui	a5,0x82
    76dc:	db47a703          	lw	a4,-588(a5) # 81db4 <__fdlib_version>
    76e0:	fff00793          	li	a5,-1
    76e4:	00050493          	mv	s1,a0
    76e8:	00058413          	mv	s0,a1
    76ec:	04f70463          	beq	a4,a5,7734 <exp+0x80>
    76f0:	00098513          	mv	a0,s3
    76f4:	00090593          	mv	a1,s2
    76f8:	4d8000ef          	jal	ra,7bd0 <finite>
    76fc:	02050c63          	beqz	a0,7734 <exp+0x80>
    7700:	0000c7b7          	lui	a5,0xc
    7704:	6d07a603          	lw	a2,1744(a5) # c6d0 <__device_handles_end+0xc>
    7708:	6d47a683          	lw	a3,1748(a5)
    770c:	00098513          	mv	a0,s3
    7710:	00090593          	mv	a1,s2
    7714:	e89fb0ef          	jal	ra,359c <__gedf2>
    7718:	04a05063          	blez	a0,7758 <exp+0xa4>
    771c:	81cfe0ef          	jal	ra,5738 <__errno>
    7720:	02200793          	li	a5,34
    7724:	00f52023          	sw	a5,0(a0)
    7728:	0000c7b7          	lui	a5,0xc
    772c:	6c87a483          	lw	s1,1736(a5) # c6c8 <__device_handles_end+0x4>
    7730:	6cc7a403          	lw	s0,1740(a5)
    7734:	01c12083          	lw	ra,28(sp)
    7738:	00040593          	mv	a1,s0
    773c:	01812403          	lw	s0,24(sp)
    7740:	01012903          	lw	s2,16(sp)
    7744:	00c12983          	lw	s3,12(sp)
    7748:	00048513          	mv	a0,s1
    774c:	01412483          	lw	s1,20(sp)
    7750:	02010113          	addi	sp,sp,32
    7754:	00008067          	ret
    7758:	0000c7b7          	lui	a5,0xc
    775c:	6d87a603          	lw	a2,1752(a5) # c6d8 <__device_handles_end+0x14>
    7760:	6dc7a683          	lw	a3,1756(a5)
    7764:	00098513          	mv	a0,s3
    7768:	00090593          	mv	a1,s2
    776c:	f15fb0ef          	jal	ra,3680 <__ledf2>
    7770:	fc0552e3          	bgez	a0,7734 <exp+0x80>
    7774:	fc5fd0ef          	jal	ra,5738 <__errno>
    7778:	02200793          	li	a5,34
    777c:	00f52023          	sw	a5,0(a0)
    7780:	00000493          	li	s1,0
    7784:	00000413          	li	s0,0
    7788:	fadff06f          	j	7734 <exp+0x80>

0000778c <__ieee754_exp>:
    778c:	fc010113          	addi	sp,sp,-64
    7790:	00159793          	slli	a5,a1,0x1
    7794:	408636b7          	lui	a3,0x40863
    7798:	02812c23          	sw	s0,56(sp)
    779c:	02912a23          	sw	s1,52(sp)
    77a0:	03512223          	sw	s5,36(sp)
    77a4:	02112e23          	sw	ra,60(sp)
    77a8:	03212823          	sw	s2,48(sp)
    77ac:	03312623          	sw	s3,44(sp)
    77b0:	03412423          	sw	s4,40(sp)
    77b4:	03612023          	sw	s6,32(sp)
    77b8:	01712e23          	sw	s7,28(sp)
    77bc:	01812c23          	sw	s8,24(sp)
    77c0:	01912a23          	sw	s9,20(sp)
    77c4:	01a12823          	sw	s10,16(sp)
    77c8:	01b12623          	sw	s11,12(sp)
    77cc:	0017d793          	srli	a5,a5,0x1
    77d0:	e4168693          	addi	a3,a3,-447 # 40862e41 <CONFIG_SYS_CLOCK_HW_CYCLES_PER_SEC+0x3d8b3dc1>
    77d4:	00050493          	mv	s1,a0
    77d8:	00058413          	mv	s0,a1
    77dc:	01f5da93          	srli	s5,a1,0x1f
    77e0:	0cf6fa63          	bgeu	a3,a5,78b4 <__ieee754_exp+0x128>
    77e4:	7ff006b7          	lui	a3,0x7ff00
    77e8:	06d7ea63          	bltu	a5,a3,785c <__ieee754_exp+0xd0>
    77ec:	00c59793          	slli	a5,a1,0xc
    77f0:	00c7d793          	srli	a5,a5,0xc
    77f4:	00a7e7b3          	or	a5,a5,a0
    77f8:	00078e63          	beqz	a5,7814 <__ieee754_exp+0x88>
    77fc:	00050613          	mv	a2,a0
    7800:	00058693          	mv	a3,a1
    7804:	b70f90ef          	jal	ra,b74 <__adddf3>
    7808:	00050493          	mv	s1,a0
    780c:	00058413          	mv	s0,a1
    7810:	0080006f          	j	7818 <__ieee754_exp+0x8c>
    7814:	080a9a63          	bnez	s5,78a8 <__ieee754_exp+0x11c>
    7818:	03c12083          	lw	ra,60(sp)
    781c:	00040593          	mv	a1,s0
    7820:	03812403          	lw	s0,56(sp)
    7824:	03012903          	lw	s2,48(sp)
    7828:	02c12983          	lw	s3,44(sp)
    782c:	02812a03          	lw	s4,40(sp)
    7830:	02412a83          	lw	s5,36(sp)
    7834:	02012b03          	lw	s6,32(sp)
    7838:	01c12b83          	lw	s7,28(sp)
    783c:	01812c03          	lw	s8,24(sp)
    7840:	01412c83          	lw	s9,20(sp)
    7844:	01012d03          	lw	s10,16(sp)
    7848:	00c12d83          	lw	s11,12(sp)
    784c:	00048513          	mv	a0,s1
    7850:	03412483          	lw	s1,52(sp)
    7854:	04010113          	addi	sp,sp,64
    7858:	00008067          	ret
    785c:	0000c7b7          	lui	a5,0xc
    7860:	6d07a603          	lw	a2,1744(a5) # c6d0 <__device_handles_end+0xc>
    7864:	6d47a683          	lw	a3,1748(a5)
    7868:	d35fb0ef          	jal	ra,359c <__gedf2>
    786c:	02a05063          	blez	a0,788c <__ieee754_exp+0x100>
    7870:	0000c7b7          	lui	a5,0xc
    7874:	6e07a603          	lw	a2,1760(a5) # c6e0 <__device_handles_end+0x1c>
    7878:	6e47a683          	lw	a3,1764(a5)
    787c:	00060513          	mv	a0,a2
    7880:	00068593          	mv	a1,a3
    7884:	9a8fa0ef          	jal	ra,1a2c <__muldf3>
    7888:	f81ff06f          	j	7808 <__ieee754_exp+0x7c>
    788c:	0000c7b7          	lui	a5,0xc
    7890:	6d87a603          	lw	a2,1752(a5) # c6d8 <__device_handles_end+0x14>
    7894:	6dc7a683          	lw	a3,1756(a5)
    7898:	00048513          	mv	a0,s1
    789c:	00040593          	mv	a1,s0
    78a0:	de1fb0ef          	jal	ra,3680 <__ledf2>
    78a4:	1a055a63          	bgez	a0,7a58 <__ieee754_exp+0x2cc>
    78a8:	00000493          	li	s1,0
    78ac:	00000413          	li	s0,0
    78b0:	f69ff06f          	j	7818 <__ieee754_exp+0x8c>
    78b4:	3fd63737          	lui	a4,0x3fd63
    78b8:	e4270713          	addi	a4,a4,-446 # 3fd62e42 <CONFIG_SYS_CLOCK_HW_CYCLES_PER_SEC+0x3cdb3dc2>
    78bc:	22f77a63          	bgeu	a4,a5,7af0 <__ieee754_exp+0x364>
    78c0:	3ff0a737          	lui	a4,0x3ff0a
    78c4:	2b170713          	addi	a4,a4,689 # 3ff0a2b1 <CONFIG_SYS_CLOCK_HW_CYCLES_PER_SEC+0x3cf5b231>
    78c8:	18f76863          	bltu	a4,a5,7a58 <__ieee754_exp+0x2cc>
    78cc:	0000d737          	lui	a4,0xd
    78d0:	003a9413          	slli	s0,s5,0x3
    78d4:	96070713          	addi	a4,a4,-1696 # c960 <ln2HI>
    78d8:	00870733          	add	a4,a4,s0
    78dc:	00072603          	lw	a2,0(a4)
    78e0:	00472683          	lw	a3,4(a4)
    78e4:	00100913          	li	s2,1
    78e8:	41590933          	sub	s2,s2,s5
    78ec:	f08fa0ef          	jal	ra,1ff4 <__subdf3>
    78f0:	0000d7b7          	lui	a5,0xd
    78f4:	97078793          	addi	a5,a5,-1680 # c970 <ln2LO>
    78f8:	008787b3          	add	a5,a5,s0
    78fc:	0007ab83          	lw	s7,0(a5)
    7900:	0047ab03          	lw	s6,4(a5)
    7904:	00050a13          	mv	s4,a0
    7908:	00058993          	mv	s3,a1
    790c:	41590933          	sub	s2,s2,s5
    7910:	000b8613          	mv	a2,s7
    7914:	000b0693          	mv	a3,s6
    7918:	000a0513          	mv	a0,s4
    791c:	00098593          	mv	a1,s3
    7920:	ed4fa0ef          	jal	ra,1ff4 <__subdf3>
    7924:	00050493          	mv	s1,a0
    7928:	00058413          	mv	s0,a1
    792c:	00048613          	mv	a2,s1
    7930:	00040693          	mv	a3,s0
    7934:	00048513          	mv	a0,s1
    7938:	00040593          	mv	a1,s0
    793c:	8f0fa0ef          	jal	ra,1a2c <__muldf3>
    7940:	0000c7b7          	lui	a5,0xc
    7944:	7087a603          	lw	a2,1800(a5) # c708 <__device_handles_end+0x44>
    7948:	70c7a683          	lw	a3,1804(a5)
    794c:	00050c13          	mv	s8,a0
    7950:	00058a93          	mv	s5,a1
    7954:	8d8fa0ef          	jal	ra,1a2c <__muldf3>
    7958:	0000c7b7          	lui	a5,0xc
    795c:	7107a603          	lw	a2,1808(a5) # c710 <__device_handles_end+0x4c>
    7960:	7147a683          	lw	a3,1812(a5)
    7964:	0000cdb7          	lui	s11,0xc
    7968:	e8cfa0ef          	jal	ra,1ff4 <__subdf3>
    796c:	000c0613          	mv	a2,s8
    7970:	000a8693          	mv	a3,s5
    7974:	8b8fa0ef          	jal	ra,1a2c <__muldf3>
    7978:	0000c7b7          	lui	a5,0xc
    797c:	7187a603          	lw	a2,1816(a5) # c718 <__device_handles_end+0x54>
    7980:	71c7a683          	lw	a3,1820(a5)
    7984:	9f0f90ef          	jal	ra,b74 <__adddf3>
    7988:	000c0613          	mv	a2,s8
    798c:	000a8693          	mv	a3,s5
    7990:	89cfa0ef          	jal	ra,1a2c <__muldf3>
    7994:	0000c7b7          	lui	a5,0xc
    7998:	7207a603          	lw	a2,1824(a5) # c720 <__device_handles_end+0x5c>
    799c:	7247a683          	lw	a3,1828(a5)
    79a0:	e54fa0ef          	jal	ra,1ff4 <__subdf3>
    79a4:	000c0613          	mv	a2,s8
    79a8:	000a8693          	mv	a3,s5
    79ac:	880fa0ef          	jal	ra,1a2c <__muldf3>
    79b0:	0000c7b7          	lui	a5,0xc
    79b4:	7287a603          	lw	a2,1832(a5) # c728 <__device_handles_end+0x64>
    79b8:	72c7a683          	lw	a3,1836(a5)
    79bc:	9b8f90ef          	jal	ra,b74 <__adddf3>
    79c0:	000c0613          	mv	a2,s8
    79c4:	000a8693          	mv	a3,s5
    79c8:	864fa0ef          	jal	ra,1a2c <__muldf3>
    79cc:	00050613          	mv	a2,a0
    79d0:	00058693          	mv	a3,a1
    79d4:	00048513          	mv	a0,s1
    79d8:	00040593          	mv	a1,s0
    79dc:	e18fa0ef          	jal	ra,1ff4 <__subdf3>
    79e0:	00050613          	mv	a2,a0
    79e4:	00058693          	mv	a3,a1
    79e8:	00050c13          	mv	s8,a0
    79ec:	00058a93          	mv	s5,a1
    79f0:	00048513          	mv	a0,s1
    79f4:	00040593          	mv	a1,s0
    79f8:	834fa0ef          	jal	ra,1a2c <__muldf3>
    79fc:	00050d13          	mv	s10,a0
    7a00:	00058c93          	mv	s9,a1
    7a04:	0000c7b7          	lui	a5,0xc
    7a08:	12091c63          	bnez	s2,7b40 <__ieee754_exp+0x3b4>
    7a0c:	7307a603          	lw	a2,1840(a5) # c730 <__device_handles_end+0x6c>
    7a10:	7347a683          	lw	a3,1844(a5)
    7a14:	000c0513          	mv	a0,s8
    7a18:	000a8593          	mv	a1,s5
    7a1c:	dd8fa0ef          	jal	ra,1ff4 <__subdf3>
    7a20:	00050613          	mv	a2,a0
    7a24:	00058693          	mv	a3,a1
    7a28:	000d0513          	mv	a0,s10
    7a2c:	000c8593          	mv	a1,s9
    7a30:	91df90ef          	jal	ra,134c <__divdf3>
    7a34:	00048613          	mv	a2,s1
    7a38:	00040693          	mv	a3,s0
    7a3c:	db8fa0ef          	jal	ra,1ff4 <__subdf3>
    7a40:	00050613          	mv	a2,a0
    7a44:	00058693          	mv	a3,a1
    7a48:	700da503          	lw	a0,1792(s11) # c700 <__device_handles_end+0x3c>
    7a4c:	704da583          	lw	a1,1796(s11)
    7a50:	da4fa0ef          	jal	ra,1ff4 <__subdf3>
    7a54:	db5ff06f          	j	7808 <__ieee754_exp+0x7c>
    7a58:	0000c7b7          	lui	a5,0xc
    7a5c:	6e87a603          	lw	a2,1768(a5) # c6e8 <__device_handles_end+0x24>
    7a60:	6ec7a683          	lw	a3,1772(a5)
    7a64:	003a9913          	slli	s2,s5,0x3
    7a68:	0000dab7          	lui	s5,0xd
    7a6c:	950a8a93          	addi	s5,s5,-1712 # c950 <halF>
    7a70:	00048513          	mv	a0,s1
    7a74:	00040593          	mv	a1,s0
    7a78:	012a8933          	add	s2,s5,s2
    7a7c:	fb1f90ef          	jal	ra,1a2c <__muldf3>
    7a80:	00092603          	lw	a2,0(s2)
    7a84:	00492683          	lw	a3,4(s2)
    7a88:	8ecf90ef          	jal	ra,b74 <__adddf3>
    7a8c:	d25fb0ef          	jal	ra,37b0 <__fixdfsi>
    7a90:	00050913          	mv	s2,a0
    7a94:	d9dfb0ef          	jal	ra,3830 <__floatsidf>
    7a98:	0000c7b7          	lui	a5,0xc
    7a9c:	6f07a603          	lw	a2,1776(a5) # c6f0 <__device_handles_end+0x2c>
    7aa0:	6f47a683          	lw	a3,1780(a5)
    7aa4:	00050b13          	mv	s6,a0
    7aa8:	00058a93          	mv	s5,a1
    7aac:	f81f90ef          	jal	ra,1a2c <__muldf3>
    7ab0:	00050613          	mv	a2,a0
    7ab4:	00058693          	mv	a3,a1
    7ab8:	00048513          	mv	a0,s1
    7abc:	00040593          	mv	a1,s0
    7ac0:	d34fa0ef          	jal	ra,1ff4 <__subdf3>
    7ac4:	0000c7b7          	lui	a5,0xc
    7ac8:	6f87a603          	lw	a2,1784(a5) # c6f8 <__device_handles_end+0x34>
    7acc:	6fc7a683          	lw	a3,1788(a5)
    7ad0:	00050a13          	mv	s4,a0
    7ad4:	00058993          	mv	s3,a1
    7ad8:	000b0513          	mv	a0,s6
    7adc:	000a8593          	mv	a1,s5
    7ae0:	f4df90ef          	jal	ra,1a2c <__muldf3>
    7ae4:	00050b93          	mv	s7,a0
    7ae8:	00058b13          	mv	s6,a1
    7aec:	e25ff06f          	j	7910 <__ieee754_exp+0x184>
    7af0:	3e300737          	lui	a4,0x3e300
    7af4:	04e7f263          	bgeu	a5,a4,7b38 <__ieee754_exp+0x3ac>
    7af8:	0000c7b7          	lui	a5,0xc
    7afc:	6e07a603          	lw	a2,1760(a5) # c6e0 <__device_handles_end+0x1c>
    7b00:	6e47a683          	lw	a3,1764(a5)
    7b04:	870f90ef          	jal	ra,b74 <__adddf3>
    7b08:	0000c7b7          	lui	a5,0xc
    7b0c:	7007ac03          	lw	s8,1792(a5) # c700 <__device_handles_end+0x3c>
    7b10:	7047ac83          	lw	s9,1796(a5)
    7b14:	000c0613          	mv	a2,s8
    7b18:	000c8693          	mv	a3,s9
    7b1c:	a81fb0ef          	jal	ra,359c <__gedf2>
    7b20:	00a05c63          	blez	a0,7b38 <__ieee754_exp+0x3ac>
    7b24:	000c0613          	mv	a2,s8
    7b28:	000c8693          	mv	a3,s9
    7b2c:	00048513          	mv	a0,s1
    7b30:	00040593          	mv	a1,s0
    7b34:	cd1ff06f          	j	7804 <__ieee754_exp+0x78>
    7b38:	00000913          	li	s2,0
    7b3c:	df1ff06f          	j	792c <__ieee754_exp+0x1a0>
    7b40:	7307a503          	lw	a0,1840(a5)
    7b44:	7347a583          	lw	a1,1844(a5)
    7b48:	000c0613          	mv	a2,s8
    7b4c:	000a8693          	mv	a3,s5
    7b50:	ca4fa0ef          	jal	ra,1ff4 <__subdf3>
    7b54:	00050613          	mv	a2,a0
    7b58:	00058693          	mv	a3,a1
    7b5c:	000d0513          	mv	a0,s10
    7b60:	000c8593          	mv	a1,s9
    7b64:	fe8f90ef          	jal	ra,134c <__divdf3>
    7b68:	00050613          	mv	a2,a0
    7b6c:	00058693          	mv	a3,a1
    7b70:	000b8513          	mv	a0,s7
    7b74:	000b0593          	mv	a1,s6
    7b78:	c7cfa0ef          	jal	ra,1ff4 <__subdf3>
    7b7c:	000a0613          	mv	a2,s4
    7b80:	00098693          	mv	a3,s3
    7b84:	c70fa0ef          	jal	ra,1ff4 <__subdf3>
    7b88:	00058693          	mv	a3,a1
    7b8c:	00050613          	mv	a2,a0
    7b90:	704da583          	lw	a1,1796(s11)
    7b94:	700da503          	lw	a0,1792(s11)
    7b98:	c5cfa0ef          	jal	ra,1ff4 <__subdf3>
    7b9c:	c0300693          	li	a3,-1021
    7ba0:	00d94863          	blt	s2,a3,7bb0 <__ieee754_exp+0x424>
    7ba4:	01491913          	slli	s2,s2,0x14
    7ba8:	00b905b3          	add	a1,s2,a1
    7bac:	c5dff06f          	j	7808 <__ieee754_exp+0x7c>
    7bb0:	3e890913          	addi	s2,s2,1000
    7bb4:	01491913          	slli	s2,s2,0x14
    7bb8:	0000c7b7          	lui	a5,0xc
    7bbc:	00b90833          	add	a6,s2,a1
    7bc0:	7387a603          	lw	a2,1848(a5) # c738 <__device_handles_end+0x74>
    7bc4:	73c7a683          	lw	a3,1852(a5)
    7bc8:	00080593          	mv	a1,a6
    7bcc:	cb9ff06f          	j	7884 <__ieee754_exp+0xf8>

00007bd0 <finite>:
    7bd0:	00159513          	slli	a0,a1,0x1
    7bd4:	00155513          	srli	a0,a0,0x1
    7bd8:	801005b7          	lui	a1,0x80100
    7bdc:	00b50533          	add	a0,a0,a1
    7be0:	01f55513          	srli	a0,a0,0x1f
    7be4:	00008067          	ret

00007be8 <malloc>:
    7be8:	000827b7          	lui	a5,0x82
    7bec:	00050593          	mv	a1,a0
    7bf0:	db87a503          	lw	a0,-584(a5) # 81db8 <_impure_ptr>
    7bf4:	1080006f          	j	7cfc <_malloc_r>

00007bf8 <_free_r>:
    7bf8:	10058063          	beqz	a1,7cf8 <_free_r+0x100>
    7bfc:	ffc5a783          	lw	a5,-4(a1) # 800ffffc <CONFIG_SYSTEM_WORKQUEUE_PRIORITY+0x800ffffd>
    7c00:	fe010113          	addi	sp,sp,-32
    7c04:	00812c23          	sw	s0,24(sp)
    7c08:	00112e23          	sw	ra,28(sp)
    7c0c:	ffc58413          	addi	s0,a1,-4
    7c10:	0007d463          	bgez	a5,7c18 <_free_r+0x20>
    7c14:	00f40433          	add	s0,s0,a5
    7c18:	00a12623          	sw	a0,12(sp)
    7c1c:	19d020ef          	jal	ra,a5b8 <__malloc_lock>
    7c20:	0000d737          	lui	a4,0xd
    7c24:	15472783          	lw	a5,340(a4) # d154 <__malloc_free_list>
    7c28:	00c12503          	lw	a0,12(sp)
    7c2c:	00070613          	mv	a2,a4
    7c30:	00079e63          	bnez	a5,7c4c <_free_r+0x54>
    7c34:	00042223          	sw	zero,4(s0)
    7c38:	14872a23          	sw	s0,340(a4)
    7c3c:	01812403          	lw	s0,24(sp)
    7c40:	01c12083          	lw	ra,28(sp)
    7c44:	02010113          	addi	sp,sp,32
    7c48:	17d0206f          	j	a5c4 <__malloc_unlock>
    7c4c:	02f47663          	bgeu	s0,a5,7c78 <_free_r+0x80>
    7c50:	00042683          	lw	a3,0(s0)
    7c54:	00d40733          	add	a4,s0,a3
    7c58:	00e79a63          	bne	a5,a4,7c6c <_free_r+0x74>
    7c5c:	0007a703          	lw	a4,0(a5)
    7c60:	0047a783          	lw	a5,4(a5)
    7c64:	00d70733          	add	a4,a4,a3
    7c68:	00e42023          	sw	a4,0(s0)
    7c6c:	00f42223          	sw	a5,4(s0)
    7c70:	14862a23          	sw	s0,340(a2)
    7c74:	fc9ff06f          	j	7c3c <_free_r+0x44>
    7c78:	00078713          	mv	a4,a5
    7c7c:	0047a783          	lw	a5,4(a5)
    7c80:	00078463          	beqz	a5,7c88 <_free_r+0x90>
    7c84:	fef47ae3          	bgeu	s0,a5,7c78 <_free_r+0x80>
    7c88:	00072683          	lw	a3,0(a4)
    7c8c:	00d70633          	add	a2,a4,a3
    7c90:	02861863          	bne	a2,s0,7cc0 <_free_r+0xc8>
    7c94:	00042603          	lw	a2,0(s0)
    7c98:	00c686b3          	add	a3,a3,a2
    7c9c:	00d72023          	sw	a3,0(a4)
    7ca0:	00d70633          	add	a2,a4,a3
    7ca4:	f8c79ce3          	bne	a5,a2,7c3c <_free_r+0x44>
    7ca8:	0007a603          	lw	a2,0(a5)
    7cac:	0047a783          	lw	a5,4(a5)
    7cb0:	00d606b3          	add	a3,a2,a3
    7cb4:	00d72023          	sw	a3,0(a4)
    7cb8:	00f72223          	sw	a5,4(a4)
    7cbc:	f81ff06f          	j	7c3c <_free_r+0x44>
    7cc0:	00c47863          	bgeu	s0,a2,7cd0 <_free_r+0xd8>
    7cc4:	00c00793          	li	a5,12
    7cc8:	00f52023          	sw	a5,0(a0)
    7ccc:	f71ff06f          	j	7c3c <_free_r+0x44>
    7cd0:	00042603          	lw	a2,0(s0)
    7cd4:	00c406b3          	add	a3,s0,a2
    7cd8:	00d79a63          	bne	a5,a3,7cec <_free_r+0xf4>
    7cdc:	0007a683          	lw	a3,0(a5)
    7ce0:	0047a783          	lw	a5,4(a5)
    7ce4:	00c686b3          	add	a3,a3,a2
    7ce8:	00d42023          	sw	a3,0(s0)
    7cec:	00f42223          	sw	a5,4(s0)
    7cf0:	00872223          	sw	s0,4(a4)
    7cf4:	f49ff06f          	j	7c3c <_free_r+0x44>
    7cf8:	00008067          	ret

00007cfc <_malloc_r>:
    7cfc:	fe010113          	addi	sp,sp,-32
    7d00:	00912a23          	sw	s1,20(sp)
    7d04:	00358493          	addi	s1,a1,3
    7d08:	ffc4f493          	andi	s1,s1,-4
    7d0c:	01212823          	sw	s2,16(sp)
    7d10:	00112e23          	sw	ra,28(sp)
    7d14:	00812c23          	sw	s0,24(sp)
    7d18:	01312623          	sw	s3,12(sp)
    7d1c:	00848493          	addi	s1,s1,8
    7d20:	00c00793          	li	a5,12
    7d24:	00050913          	mv	s2,a0
    7d28:	06f4f863          	bgeu	s1,a5,7d98 <_malloc_r+0x9c>
    7d2c:	00c00493          	li	s1,12
    7d30:	06b4e663          	bltu	s1,a1,7d9c <_malloc_r+0xa0>
    7d34:	00090513          	mv	a0,s2
    7d38:	081020ef          	jal	ra,a5b8 <__malloc_lock>
    7d3c:	0000d7b7          	lui	a5,0xd
    7d40:	1547a703          	lw	a4,340(a5) # d154 <__malloc_free_list>
    7d44:	15478693          	addi	a3,a5,340
    7d48:	00070413          	mv	s0,a4
    7d4c:	06041c63          	bnez	s0,7dc4 <_malloc_r+0xc8>
    7d50:	0000d437          	lui	s0,0xd
    7d54:	15840413          	addi	s0,s0,344 # d158 <__malloc_sbrk_start>
    7d58:	00042783          	lw	a5,0(s0)
    7d5c:	00079a63          	bnez	a5,7d70 <_malloc_r+0x74>
    7d60:	00000593          	li	a1,0
    7d64:	00090513          	mv	a0,s2
    7d68:	058010ef          	jal	ra,8dc0 <_sbrk_r>
    7d6c:	00a42023          	sw	a0,0(s0)
    7d70:	00048593          	mv	a1,s1
    7d74:	00090513          	mv	a0,s2
    7d78:	048010ef          	jal	ra,8dc0 <_sbrk_r>
    7d7c:	fff00993          	li	s3,-1
    7d80:	0b351a63          	bne	a0,s3,7e34 <_malloc_r+0x138>
    7d84:	00c00793          	li	a5,12
    7d88:	00f92023          	sw	a5,0(s2)
    7d8c:	00090513          	mv	a0,s2
    7d90:	035020ef          	jal	ra,a5c4 <__malloc_unlock>
    7d94:	0100006f          	j	7da4 <_malloc_r+0xa8>
    7d98:	f804dce3          	bgez	s1,7d30 <_malloc_r+0x34>
    7d9c:	00c00793          	li	a5,12
    7da0:	00f92023          	sw	a5,0(s2)
    7da4:	00000513          	li	a0,0
    7da8:	01c12083          	lw	ra,28(sp)
    7dac:	01812403          	lw	s0,24(sp)
    7db0:	01412483          	lw	s1,20(sp)
    7db4:	01012903          	lw	s2,16(sp)
    7db8:	00c12983          	lw	s3,12(sp)
    7dbc:	02010113          	addi	sp,sp,32
    7dc0:	00008067          	ret
    7dc4:	00042783          	lw	a5,0(s0)
    7dc8:	409787b3          	sub	a5,a5,s1
    7dcc:	0407ce63          	bltz	a5,7e28 <_malloc_r+0x12c>
    7dd0:	00b00613          	li	a2,11
    7dd4:	00f67a63          	bgeu	a2,a5,7de8 <_malloc_r+0xec>
    7dd8:	00f42023          	sw	a5,0(s0)
    7ddc:	00f40433          	add	s0,s0,a5
    7de0:	00942023          	sw	s1,0(s0)
    7de4:	0100006f          	j	7df4 <_malloc_r+0xf8>
    7de8:	00442783          	lw	a5,4(s0)
    7dec:	02871a63          	bne	a4,s0,7e20 <_malloc_r+0x124>
    7df0:	00f6a023          	sw	a5,0(a3) # 7ff00000 <CONFIG_SYS_CLOCK_HW_CYCLES_PER_SEC+0x7cf50f80>
    7df4:	00090513          	mv	a0,s2
    7df8:	7cc020ef          	jal	ra,a5c4 <__malloc_unlock>
    7dfc:	00b40513          	addi	a0,s0,11
    7e00:	00440793          	addi	a5,s0,4
    7e04:	ff857513          	andi	a0,a0,-8
    7e08:	40f50733          	sub	a4,a0,a5
    7e0c:	f8f50ee3          	beq	a0,a5,7da8 <_malloc_r+0xac>
    7e10:	00e40433          	add	s0,s0,a4
    7e14:	40a787b3          	sub	a5,a5,a0
    7e18:	00f42023          	sw	a5,0(s0)
    7e1c:	f8dff06f          	j	7da8 <_malloc_r+0xac>
    7e20:	00f72223          	sw	a5,4(a4)
    7e24:	fd1ff06f          	j	7df4 <_malloc_r+0xf8>
    7e28:	00040713          	mv	a4,s0
    7e2c:	00442403          	lw	s0,4(s0)
    7e30:	f1dff06f          	j	7d4c <_malloc_r+0x50>
    7e34:	00350413          	addi	s0,a0,3
    7e38:	ffc47413          	andi	s0,s0,-4
    7e3c:	fa8502e3          	beq	a0,s0,7de0 <_malloc_r+0xe4>
    7e40:	40a405b3          	sub	a1,s0,a0
    7e44:	00090513          	mv	a0,s2
    7e48:	779000ef          	jal	ra,8dc0 <_sbrk_r>
    7e4c:	f9351ae3          	bne	a0,s3,7de0 <_malloc_r+0xe4>
    7e50:	f35ff06f          	j	7d84 <_malloc_r+0x88>

00007e54 <__cvt>:
    7e54:	fd010113          	addi	sp,sp,-48
    7e58:	02812423          	sw	s0,40(sp)
    7e5c:	03212023          	sw	s2,32(sp)
    7e60:	01412c23          	sw	s4,24(sp)
    7e64:	01512a23          	sw	s5,20(sp)
    7e68:	01612823          	sw	s6,16(sp)
    7e6c:	02112623          	sw	ra,44(sp)
    7e70:	02912223          	sw	s1,36(sp)
    7e74:	01312e23          	sw	s3,28(sp)
    7e78:	00070b13          	mv	s6,a4
    7e7c:	00058a13          	mv	s4,a1
    7e80:	00060413          	mv	s0,a2
    7e84:	00068913          	mv	s2,a3
    7e88:	00080a93          	mv	s5,a6
    7e8c:	00000713          	li	a4,0
    7e90:	00065863          	bgez	a2,7ea0 <__cvt+0x4c>
    7e94:	80000737          	lui	a4,0x80000
    7e98:	00c74433          	xor	s0,a4,a2
    7e9c:	02d00713          	li	a4,45
    7ea0:	00e78023          	sb	a4,0(a5)
    7ea4:	fdf8f493          	andi	s1,a7,-33
    7ea8:	04600793          	li	a5,70
    7eac:	00300693          	li	a3,3
    7eb0:	00f48a63          	beq	s1,a5,7ec4 <__cvt+0x70>
    7eb4:	04500793          	li	a5,69
    7eb8:	00200693          	li	a3,2
    7ebc:	00f49463          	bne	s1,a5,7ec4 <__cvt+0x70>
    7ec0:	00190913          	addi	s2,s2,1
    7ec4:	000a8793          	mv	a5,s5
    7ec8:	00c10893          	addi	a7,sp,12
    7ecc:	00810813          	addi	a6,sp,8
    7ed0:	00090713          	mv	a4,s2
    7ed4:	000a0593          	mv	a1,s4
    7ed8:	00040613          	mv	a2,s0
    7edc:	13c010ef          	jal	ra,9018 <_dtoa_r>
    7ee0:	04700793          	li	a5,71
    7ee4:	00050993          	mv	s3,a0
    7ee8:	00f49663          	bne	s1,a5,7ef4 <__cvt+0xa0>
    7eec:	001b7613          	andi	a2,s6,1
    7ef0:	06060863          	beqz	a2,7f60 <__cvt+0x10c>
    7ef4:	04600793          	li	a5,70
    7ef8:	01298b33          	add	s6,s3,s2
    7efc:	02f49e63          	bne	s1,a5,7f38 <__cvt+0xe4>
    7f00:	0009c703          	lbu	a4,0(s3)
    7f04:	03000793          	li	a5,48
    7f08:	02f71463          	bne	a4,a5,7f30 <__cvt+0xdc>
    7f0c:	00000613          	li	a2,0
    7f10:	00000693          	li	a3,0
    7f14:	000a0513          	mv	a0,s4
    7f18:	00040593          	mv	a1,s0
    7f1c:	df4fb0ef          	jal	ra,3510 <__eqdf2>
    7f20:	00050863          	beqz	a0,7f30 <__cvt+0xdc>
    7f24:	00100613          	li	a2,1
    7f28:	412606b3          	sub	a3,a2,s2
    7f2c:	00daa023          	sw	a3,0(s5)
    7f30:	000aa783          	lw	a5,0(s5)
    7f34:	00fb0b33          	add	s6,s6,a5
    7f38:	00000613          	li	a2,0
    7f3c:	00000693          	li	a3,0
    7f40:	000a0513          	mv	a0,s4
    7f44:	00040593          	mv	a1,s0
    7f48:	dc8fb0ef          	jal	ra,3510 <__eqdf2>
    7f4c:	00051463          	bnez	a0,7f54 <__cvt+0x100>
    7f50:	01612623          	sw	s6,12(sp)
    7f54:	03000713          	li	a4,48
    7f58:	00c12783          	lw	a5,12(sp)
    7f5c:	0567e063          	bltu	a5,s6,7f9c <__cvt+0x148>
    7f60:	00c12783          	lw	a5,12(sp)
    7f64:	03012703          	lw	a4,48(sp)
    7f68:	02c12083          	lw	ra,44(sp)
    7f6c:	02812403          	lw	s0,40(sp)
    7f70:	413787b3          	sub	a5,a5,s3
    7f74:	00f72023          	sw	a5,0(a4) # 80000000 <CONFIG_SYSTEM_WORKQUEUE_PRIORITY+0x80000001>
    7f78:	02412483          	lw	s1,36(sp)
    7f7c:	02012903          	lw	s2,32(sp)
    7f80:	01812a03          	lw	s4,24(sp)
    7f84:	01412a83          	lw	s5,20(sp)
    7f88:	01012b03          	lw	s6,16(sp)
    7f8c:	00098513          	mv	a0,s3
    7f90:	01c12983          	lw	s3,28(sp)
    7f94:	03010113          	addi	sp,sp,48
    7f98:	00008067          	ret
    7f9c:	00178693          	addi	a3,a5,1
    7fa0:	00d12623          	sw	a3,12(sp)
    7fa4:	00e78023          	sb	a4,0(a5)
    7fa8:	fb1ff06f          	j	7f58 <__cvt+0x104>

00007fac <__exponent>:
    7fac:	00c50023          	sb	a2,0(a0)
    7fb0:	00250793          	addi	a5,a0,2
    7fb4:	02b00713          	li	a4,43
    7fb8:	0005d663          	bgez	a1,7fc4 <__exponent+0x18>
    7fbc:	40b005b3          	neg	a1,a1
    7fc0:	02d00713          	li	a4,45
    7fc4:	00e500a3          	sb	a4,1(a0)
    7fc8:	00900713          	li	a4,9
    7fcc:	08b75263          	bge	a4,a1,8050 <__exponent+0xa4>
    7fd0:	ff010113          	addi	sp,sp,-16
    7fd4:	00f10713          	addi	a4,sp,15
    7fd8:	00070813          	mv	a6,a4
    7fdc:	00a00893          	li	a7,10
    7fe0:	06300313          	li	t1,99
    7fe4:	0315e633          	rem	a2,a1,a7
    7fe8:	00070693          	mv	a3,a4
    7fec:	fff70713          	addi	a4,a4,-1
    7ff0:	03060613          	addi	a2,a2,48
    7ff4:	fec68fa3          	sb	a2,-1(a3)
    7ff8:	00058613          	mv	a2,a1
    7ffc:	0315c5b3          	div	a1,a1,a7
    8000:	fec342e3          	blt	t1,a2,7fe4 <__exponent+0x38>
    8004:	ffe68893          	addi	a7,a3,-2
    8008:	03058593          	addi	a1,a1,48
    800c:	feb70fa3          	sb	a1,-1(a4)
    8010:	00078613          	mv	a2,a5
    8014:	00088713          	mv	a4,a7
    8018:	03076263          	bltu	a4,a6,803c <__exponent+0x90>
    801c:	00000713          	li	a4,0
    8020:	01186663          	bltu	a6,a7,802c <__exponent+0x80>
    8024:	01110713          	addi	a4,sp,17
    8028:	40d70733          	sub	a4,a4,a3
    802c:	00e787b3          	add	a5,a5,a4
    8030:	40a78533          	sub	a0,a5,a0
    8034:	01010113          	addi	sp,sp,16
    8038:	00008067          	ret
    803c:	00074583          	lbu	a1,0(a4)
    8040:	00170713          	addi	a4,a4,1
    8044:	00160613          	addi	a2,a2,1
    8048:	feb60fa3          	sb	a1,-1(a2)
    804c:	fcdff06f          	j	8018 <__exponent+0x6c>
    8050:	03000793          	li	a5,48
    8054:	00f50123          	sb	a5,2(a0)
    8058:	03058593          	addi	a1,a1,48
    805c:	00450793          	addi	a5,a0,4
    8060:	00b501a3          	sb	a1,3(a0)
    8064:	40a78533          	sub	a0,a5,a0
    8068:	00008067          	ret

0000806c <_printf_float>:
    806c:	f8010113          	addi	sp,sp,-128
    8070:	06112e23          	sw	ra,124(sp)
    8074:	06812c23          	sw	s0,120(sp)
    8078:	06912a23          	sw	s1,116(sp)
    807c:	00058413          	mv	s0,a1
    8080:	07212823          	sw	s2,112(sp)
    8084:	07312623          	sw	s3,108(sp)
    8088:	07412423          	sw	s4,104(sp)
    808c:	07512223          	sw	s5,100(sp)
    8090:	00070a13          	mv	s4,a4
    8094:	07612023          	sw	s6,96(sp)
    8098:	05712e23          	sw	s7,92(sp)
    809c:	05812c23          	sw	s8,88(sp)
    80a0:	00060913          	mv	s2,a2
    80a4:	00068993          	mv	s3,a3
    80a8:	05912a23          	sw	s9,84(sp)
    80ac:	05a12823          	sw	s10,80(sp)
    80b0:	05b12623          	sw	s11,76(sp)
    80b4:	00050493          	mv	s1,a0
    80b8:	4d0020ef          	jal	ra,a588 <_localeconv_r>
    80bc:	00052c03          	lw	s8,0(a0)
    80c0:	000c0513          	mv	a0,s8
    80c4:	549000ef          	jal	ra,8e0c <strlen>
    80c8:	00042b03          	lw	s6,0(s0)
    80cc:	02012c23          	sw	zero,56(sp)
    80d0:	01844a83          	lbu	s5,24(s0)
    80d4:	100b7713          	andi	a4,s6,256
    80d8:	000a2783          	lw	a5,0(s4)
    80dc:	00050b93          	mv	s7,a0
    80e0:	12070c63          	beqz	a4,8218 <_printf_float+0x1ac>
    80e4:	00478713          	addi	a4,a5,4
    80e8:	00ea2023          	sw	a4,0(s4)
    80ec:	0007a783          	lw	a5,0(a5)
    80f0:	02010513          	addi	a0,sp,32
    80f4:	0007a703          	lw	a4,0(a5)
    80f8:	02e12023          	sw	a4,32(sp)
    80fc:	0047a703          	lw	a4,4(a5)
    8100:	02e12223          	sw	a4,36(sp)
    8104:	0087a703          	lw	a4,8(a5)
    8108:	02e12423          	sw	a4,40(sp)
    810c:	00c7a783          	lw	a5,12(a5)
    8110:	02f12623          	sw	a5,44(sp)
    8114:	fc4fb0ef          	jal	ra,38d8 <__trunctfdf2>
    8118:	04a42423          	sw	a0,72(s0)
    811c:	04b42623          	sw	a1,76(s0)
    8120:	04c42a03          	lw	s4,76(s0)
    8124:	0000c737          	lui	a4,0xc
    8128:	04842c83          	lw	s9,72(s0)
    812c:	74072d03          	lw	s10,1856(a4) # c740 <__device_handles_end+0x7c>
    8130:	74472d83          	lw	s11,1860(a4)
    8134:	001a1793          	slli	a5,s4,0x1
    8138:	0017d793          	srli	a5,a5,0x1
    813c:	000d0613          	mv	a2,s10
    8140:	000d8693          	mv	a3,s11
    8144:	000c8513          	mv	a0,s9
    8148:	00078593          	mv	a1,a5
    814c:	00f12e23          	sw	a5,28(sp)
    8150:	e14fb0ef          	jal	ra,3764 <__unorddf2>
    8154:	0e051463          	bnez	a0,823c <_printf_float+0x1d0>
    8158:	01c12783          	lw	a5,28(sp)
    815c:	000d0613          	mv	a2,s10
    8160:	000d8693          	mv	a3,s11
    8164:	000c8513          	mv	a0,s9
    8168:	00078593          	mv	a1,a5
    816c:	d14fb0ef          	jal	ra,3680 <__ledf2>
    8170:	0ca05663          	blez	a0,823c <_printf_float+0x1d0>
    8174:	00000613          	li	a2,0
    8178:	00000693          	li	a3,0
    817c:	000c8513          	mv	a0,s9
    8180:	000a0593          	mv	a1,s4
    8184:	cfcfb0ef          	jal	ra,3680 <__ledf2>
    8188:	00055663          	bgez	a0,8194 <_printf_float+0x128>
    818c:	02d00793          	li	a5,45
    8190:	04f401a3          	sb	a5,67(s0)
    8194:	04700793          	li	a5,71
    8198:	0d57fe63          	bgeu	a5,s5,8274 <_printf_float+0x208>
    819c:	0000da37          	lui	s4,0xd
    81a0:	eaca0a13          	addi	s4,s4,-340 # ceac <_ctype_+0x108>
    81a4:	ffbb7b13          	andi	s6,s6,-5
    81a8:	00300793          	li	a5,3
    81ac:	01642023          	sw	s6,0(s0)
    81b0:	00f42823          	sw	a5,16(s0)
    81b4:	00000b13          	li	s6,0
    81b8:	00098713          	mv	a4,s3
    81bc:	00090693          	mv	a3,s2
    81c0:	03c10613          	addi	a2,sp,60
    81c4:	00040593          	mv	a1,s0
    81c8:	00048513          	mv	a0,s1
    81cc:	634000ef          	jal	ra,8800 <_printf_common>
    81d0:	fff00c93          	li	s9,-1
    81d4:	23951a63          	bne	a0,s9,8408 <_printf_float+0x39c>
    81d8:	fff00513          	li	a0,-1
    81dc:	07c12083          	lw	ra,124(sp)
    81e0:	07812403          	lw	s0,120(sp)
    81e4:	07412483          	lw	s1,116(sp)
    81e8:	07012903          	lw	s2,112(sp)
    81ec:	06c12983          	lw	s3,108(sp)
    81f0:	06812a03          	lw	s4,104(sp)
    81f4:	06412a83          	lw	s5,100(sp)
    81f8:	06012b03          	lw	s6,96(sp)
    81fc:	05c12b83          	lw	s7,92(sp)
    8200:	05812c03          	lw	s8,88(sp)
    8204:	05412c83          	lw	s9,84(sp)
    8208:	05012d03          	lw	s10,80(sp)
    820c:	04c12d83          	lw	s11,76(sp)
    8210:	08010113          	addi	sp,sp,128
    8214:	00008067          	ret
    8218:	00778793          	addi	a5,a5,7
    821c:	ff87f793          	andi	a5,a5,-8
    8220:	00878713          	addi	a4,a5,8
    8224:	00ea2023          	sw	a4,0(s4)
    8228:	0007a703          	lw	a4,0(a5)
    822c:	0047a783          	lw	a5,4(a5)
    8230:	04e42423          	sw	a4,72(s0)
    8234:	04f42623          	sw	a5,76(s0)
    8238:	ee9ff06f          	j	8120 <_printf_float+0xb4>
    823c:	000c8613          	mv	a2,s9
    8240:	000a0693          	mv	a3,s4
    8244:	000c8513          	mv	a0,s9
    8248:	000a0593          	mv	a1,s4
    824c:	d18fb0ef          	jal	ra,3764 <__unorddf2>
    8250:	02050e63          	beqz	a0,828c <_printf_float+0x220>
    8254:	000a5663          	bgez	s4,8260 <_printf_float+0x1f4>
    8258:	02d00793          	li	a5,45
    825c:	04f401a3          	sb	a5,67(s0)
    8260:	04700793          	li	a5,71
    8264:	0157fe63          	bgeu	a5,s5,8280 <_printf_float+0x214>
    8268:	0000da37          	lui	s4,0xd
    826c:	eb4a0a13          	addi	s4,s4,-332 # ceb4 <_ctype_+0x110>
    8270:	f35ff06f          	j	81a4 <_printf_float+0x138>
    8274:	0000da37          	lui	s4,0xd
    8278:	ea8a0a13          	addi	s4,s4,-344 # cea8 <_ctype_+0x104>
    827c:	f29ff06f          	j	81a4 <_printf_float+0x138>
    8280:	0000da37          	lui	s4,0xd
    8284:	eb0a0a13          	addi	s4,s4,-336 # ceb0 <_ctype_+0x10c>
    8288:	f1dff06f          	j	81a4 <_printf_float+0x138>
    828c:	00442783          	lw	a5,4(s0)
    8290:	fff00713          	li	a4,-1
    8294:	0dfafd13          	andi	s10,s5,223
    8298:	0ce79263          	bne	a5,a4,835c <_printf_float+0x2f0>
    829c:	00600793          	li	a5,6
    82a0:	00f42223          	sw	a5,4(s0)
    82a4:	00442683          	lw	a3,4(s0)
    82a8:	400b6713          	ori	a4,s6,1024
    82ac:	03810793          	addi	a5,sp,56
    82b0:	00f12023          	sw	a5,0(sp)
    82b4:	000a0613          	mv	a2,s4
    82b8:	03310793          	addi	a5,sp,51
    82bc:	000c8593          	mv	a1,s9
    82c0:	00e42023          	sw	a4,0(s0)
    82c4:	00012223          	sw	zero,4(sp)
    82c8:	000a8893          	mv	a7,s5
    82cc:	03410813          	addi	a6,sp,52
    82d0:	00048513          	mv	a0,s1
    82d4:	b81ff0ef          	jal	ra,7e54 <__cvt>
    82d8:	04700793          	li	a5,71
    82dc:	03412583          	lw	a1,52(sp)
    82e0:	00050a13          	mv	s4,a0
    82e4:	00fd1e63          	bne	s10,a5,8300 <_printf_float+0x294>
    82e8:	ffd00793          	li	a5,-3
    82ec:	00f5c663          	blt	a1,a5,82f8 <_printf_float+0x28c>
    82f0:	00442783          	lw	a5,4(s0)
    82f4:	0cb7dc63          	bge	a5,a1,83cc <_printf_float+0x360>
    82f8:	ffea8a93          	addi	s5,s5,-2
    82fc:	0ffafa93          	andi	s5,s5,255
    8300:	06500793          	li	a5,101
    8304:	0757e663          	bltu	a5,s5,8370 <_printf_float+0x304>
    8308:	fff58593          	addi	a1,a1,-1
    830c:	000a8613          	mv	a2,s5
    8310:	05040513          	addi	a0,s0,80
    8314:	02b12a23          	sw	a1,52(sp)
    8318:	c95ff0ef          	jal	ra,7fac <__exponent>
    831c:	03812703          	lw	a4,56(sp)
    8320:	00100693          	li	a3,1
    8324:	00050b13          	mv	s6,a0
    8328:	00a707b3          	add	a5,a4,a0
    832c:	00f42823          	sw	a5,16(s0)
    8330:	00e6c863          	blt	a3,a4,8340 <_printf_float+0x2d4>
    8334:	00042703          	lw	a4,0(s0)
    8338:	00177713          	andi	a4,a4,1
    833c:	00070663          	beqz	a4,8348 <_printf_float+0x2dc>
    8340:	00178793          	addi	a5,a5,1
    8344:	00f42823          	sw	a5,16(s0)
    8348:	03314783          	lbu	a5,51(sp)
    834c:	e60786e3          	beqz	a5,81b8 <_printf_float+0x14c>
    8350:	02d00793          	li	a5,45
    8354:	04f401a3          	sb	a5,67(s0)
    8358:	e61ff06f          	j	81b8 <_printf_float+0x14c>
    835c:	04700713          	li	a4,71
    8360:	f4ed12e3          	bne	s10,a4,82a4 <_printf_float+0x238>
    8364:	f40790e3          	bnez	a5,82a4 <_printf_float+0x238>
    8368:	00100793          	li	a5,1
    836c:	f35ff06f          	j	82a0 <_printf_float+0x234>
    8370:	06600793          	li	a5,102
    8374:	04fa9e63          	bne	s5,a5,83d0 <_printf_float+0x364>
    8378:	00442783          	lw	a5,4(s0)
    837c:	02b05463          	blez	a1,83a4 <_printf_float+0x338>
    8380:	00b42823          	sw	a1,16(s0)
    8384:	00079863          	bnez	a5,8394 <_printf_float+0x328>
    8388:	00042703          	lw	a4,0(s0)
    838c:	00177713          	andi	a4,a4,1
    8390:	02070863          	beqz	a4,83c0 <_printf_float+0x354>
    8394:	00178793          	addi	a5,a5,1
    8398:	00b787b3          	add	a5,a5,a1
    839c:	00f42823          	sw	a5,16(s0)
    83a0:	0200006f          	j	83c0 <_printf_float+0x354>
    83a4:	00079a63          	bnez	a5,83b8 <_printf_float+0x34c>
    83a8:	00042703          	lw	a4,0(s0)
    83ac:	00100693          	li	a3,1
    83b0:	00177713          	andi	a4,a4,1
    83b4:	00070463          	beqz	a4,83bc <_printf_float+0x350>
    83b8:	00278693          	addi	a3,a5,2
    83bc:	00d42823          	sw	a3,16(s0)
    83c0:	04b42c23          	sw	a1,88(s0)
    83c4:	00000b13          	li	s6,0
    83c8:	f81ff06f          	j	8348 <_printf_float+0x2dc>
    83cc:	06700a93          	li	s5,103
    83d0:	03812783          	lw	a5,56(sp)
    83d4:	00f5ce63          	blt	a1,a5,83f0 <_printf_float+0x384>
    83d8:	00042783          	lw	a5,0(s0)
    83dc:	00b42823          	sw	a1,16(s0)
    83e0:	0017f793          	andi	a5,a5,1
    83e4:	fc078ee3          	beqz	a5,83c0 <_printf_float+0x354>
    83e8:	00158793          	addi	a5,a1,1
    83ec:	fb1ff06f          	j	839c <_printf_float+0x330>
    83f0:	00100713          	li	a4,1
    83f4:	00b04663          	bgtz	a1,8400 <_printf_float+0x394>
    83f8:	00200713          	li	a4,2
    83fc:	40b70733          	sub	a4,a4,a1
    8400:	00e787b3          	add	a5,a5,a4
    8404:	f99ff06f          	j	839c <_printf_float+0x330>
    8408:	00042783          	lw	a5,0(s0)
    840c:	4007f713          	andi	a4,a5,1024
    8410:	02071e63          	bnez	a4,844c <_printf_float+0x3e0>
    8414:	01042683          	lw	a3,16(s0)
    8418:	000a0613          	mv	a2,s4
    841c:	00090593          	mv	a1,s2
    8420:	00048513          	mv	a0,s1
    8424:	000980e7          	jalr	s3
    8428:	db9508e3          	beq	a0,s9,81d8 <_printf_float+0x16c>
    842c:	00042783          	lw	a5,0(s0)
    8430:	0027f793          	andi	a5,a5,2
    8434:	3a079e63          	bnez	a5,87f0 <_printf_float+0x784>
    8438:	03c12783          	lw	a5,60(sp)
    843c:	00c42503          	lw	a0,12(s0)
    8440:	d8f55ee3          	bge	a0,a5,81dc <_printf_float+0x170>
    8444:	00078513          	mv	a0,a5
    8448:	d95ff06f          	j	81dc <_printf_float+0x170>
    844c:	06500713          	li	a4,101
    8450:	29577863          	bgeu	a4,s5,86e0 <_printf_float+0x674>
    8454:	04842503          	lw	a0,72(s0)
    8458:	04c42583          	lw	a1,76(s0)
    845c:	00000613          	li	a2,0
    8460:	00000693          	li	a3,0
    8464:	8acfb0ef          	jal	ra,3510 <__eqdf2>
    8468:	08051663          	bnez	a0,84f4 <_printf_float+0x488>
    846c:	0000d637          	lui	a2,0xd
    8470:	00100693          	li	a3,1
    8474:	d3460613          	addi	a2,a2,-716 # cd34 <gpio_veerwolf_driver_api+0x28>
    8478:	00090593          	mv	a1,s2
    847c:	00048513          	mv	a0,s1
    8480:	000980e7          	jalr	s3
    8484:	d5950ae3          	beq	a0,s9,81d8 <_printf_float+0x16c>
    8488:	03412703          	lw	a4,52(sp)
    848c:	03812783          	lw	a5,56(sp)
    8490:	00f74863          	blt	a4,a5,84a0 <_printf_float+0x434>
    8494:	00042783          	lw	a5,0(s0)
    8498:	0017f793          	andi	a5,a5,1
    849c:	f80788e3          	beqz	a5,842c <_printf_float+0x3c0>
    84a0:	000b8693          	mv	a3,s7
    84a4:	000c0613          	mv	a2,s8
    84a8:	00090593          	mv	a1,s2
    84ac:	00048513          	mv	a0,s1
    84b0:	000980e7          	jalr	s3
    84b4:	fff00793          	li	a5,-1
    84b8:	d2f500e3          	beq	a0,a5,81d8 <_printf_float+0x16c>
    84bc:	00000a13          	li	s4,0
    84c0:	01a40a93          	addi	s5,s0,26
    84c4:	fff00b13          	li	s6,-1
    84c8:	03812783          	lw	a5,56(sp)
    84cc:	fff78793          	addi	a5,a5,-1
    84d0:	f4fa5ee3          	bge	s4,a5,842c <_printf_float+0x3c0>
    84d4:	00100693          	li	a3,1
    84d8:	000a8613          	mv	a2,s5
    84dc:	00090593          	mv	a1,s2
    84e0:	00048513          	mv	a0,s1
    84e4:	000980e7          	jalr	s3
    84e8:	cf6508e3          	beq	a0,s6,81d8 <_printf_float+0x16c>
    84ec:	001a0a13          	addi	s4,s4,1
    84f0:	fd9ff06f          	j	84c8 <_printf_float+0x45c>
    84f4:	03412783          	lw	a5,52(sp)
    84f8:	0af04863          	bgtz	a5,85a8 <_printf_float+0x53c>
    84fc:	0000d637          	lui	a2,0xd
    8500:	00100693          	li	a3,1
    8504:	d3460613          	addi	a2,a2,-716 # cd34 <gpio_veerwolf_driver_api+0x28>
    8508:	00090593          	mv	a1,s2
    850c:	00048513          	mv	a0,s1
    8510:	000980e7          	jalr	s3
    8514:	cd9502e3          	beq	a0,s9,81d8 <_printf_float+0x16c>
    8518:	03412783          	lw	a5,52(sp)
    851c:	03812703          	lw	a4,56(sp)
    8520:	00e7e7b3          	or	a5,a5,a4
    8524:	00079863          	bnez	a5,8534 <_printf_float+0x4c8>
    8528:	00042783          	lw	a5,0(s0)
    852c:	0017f793          	andi	a5,a5,1
    8530:	ee078ee3          	beqz	a5,842c <_printf_float+0x3c0>
    8534:	000b8693          	mv	a3,s7
    8538:	000c0613          	mv	a2,s8
    853c:	00090593          	mv	a1,s2
    8540:	00048513          	mv	a0,s1
    8544:	000980e7          	jalr	s3
    8548:	fff00793          	li	a5,-1
    854c:	c8f506e3          	beq	a0,a5,81d8 <_printf_float+0x16c>
    8550:	00000a93          	li	s5,0
    8554:	01a40b13          	addi	s6,s0,26
    8558:	fff00b93          	li	s7,-1
    855c:	03412783          	lw	a5,52(sp)
    8560:	40f007b3          	neg	a5,a5
    8564:	02fac263          	blt	s5,a5,8588 <_printf_float+0x51c>
    8568:	03812683          	lw	a3,56(sp)
    856c:	000a0613          	mv	a2,s4
    8570:	00090593          	mv	a1,s2
    8574:	00048513          	mv	a0,s1
    8578:	000980e7          	jalr	s3
    857c:	fff00793          	li	a5,-1
    8580:	eaf516e3          	bne	a0,a5,842c <_printf_float+0x3c0>
    8584:	c55ff06f          	j	81d8 <_printf_float+0x16c>
    8588:	00100693          	li	a3,1
    858c:	000b0613          	mv	a2,s6
    8590:	00090593          	mv	a1,s2
    8594:	00048513          	mv	a0,s1
    8598:	000980e7          	jalr	s3
    859c:	c3750ee3          	beq	a0,s7,81d8 <_printf_float+0x16c>
    85a0:	001a8a93          	addi	s5,s5,1
    85a4:	fb9ff06f          	j	855c <_printf_float+0x4f0>
    85a8:	05842783          	lw	a5,88(s0)
    85ac:	03812a83          	lw	s5,56(sp)
    85b0:	0157d463          	bge	a5,s5,85b8 <_printf_float+0x54c>
    85b4:	00078a93          	mv	s5,a5
    85b8:	0b504463          	bgtz	s5,8660 <_printf_float+0x5f4>
    85bc:	00000b13          	li	s6,0
    85c0:	01a40d13          	addi	s10,s0,26
    85c4:	fff00d93          	li	s11,-1
    85c8:	05842c83          	lw	s9,88(s0)
    85cc:	000a8793          	mv	a5,s5
    85d0:	000ad463          	bgez	s5,85d8 <_printf_float+0x56c>
    85d4:	00000793          	li	a5,0
    85d8:	40fc87b3          	sub	a5,s9,a5
    85dc:	0afb4263          	blt	s6,a5,8680 <_printf_float+0x614>
    85e0:	03412703          	lw	a4,52(sp)
    85e4:	03812783          	lw	a5,56(sp)
    85e8:	0af74c63          	blt	a4,a5,86a0 <_printf_float+0x634>
    85ec:	00042783          	lw	a5,0(s0)
    85f0:	0017f793          	andi	a5,a5,1
    85f4:	0a079663          	bnez	a5,86a0 <_printf_float+0x634>
    85f8:	03812a83          	lw	s5,56(sp)
    85fc:	03412703          	lw	a4,52(sp)
    8600:	419a87b3          	sub	a5,s5,s9
    8604:	40ea8ab3          	sub	s5,s5,a4
    8608:	0157d463          	bge	a5,s5,8610 <_printf_float+0x5a4>
    860c:	00078a93          	mv	s5,a5
    8610:	0b504863          	bgtz	s5,86c0 <_printf_float+0x654>
    8614:	00000a13          	li	s4,0
    8618:	01a40b13          	addi	s6,s0,26
    861c:	fff00b93          	li	s7,-1
    8620:	03412703          	lw	a4,52(sp)
    8624:	03812783          	lw	a5,56(sp)
    8628:	40e787b3          	sub	a5,a5,a4
    862c:	000a8713          	mv	a4,s5
    8630:	000ad463          	bgez	s5,8638 <_printf_float+0x5cc>
    8634:	00000713          	li	a4,0
    8638:	40e787b3          	sub	a5,a5,a4
    863c:	defa58e3          	bge	s4,a5,842c <_printf_float+0x3c0>
    8640:	00100693          	li	a3,1
    8644:	000b0613          	mv	a2,s6
    8648:	00090593          	mv	a1,s2
    864c:	00048513          	mv	a0,s1
    8650:	000980e7          	jalr	s3
    8654:	b97502e3          	beq	a0,s7,81d8 <_printf_float+0x16c>
    8658:	001a0a13          	addi	s4,s4,1
    865c:	fc5ff06f          	j	8620 <_printf_float+0x5b4>
    8660:	000a8693          	mv	a3,s5
    8664:	000a0613          	mv	a2,s4
    8668:	00090593          	mv	a1,s2
    866c:	00048513          	mv	a0,s1
    8670:	000980e7          	jalr	s3
    8674:	fff00793          	li	a5,-1
    8678:	f4f512e3          	bne	a0,a5,85bc <_printf_float+0x550>
    867c:	b5dff06f          	j	81d8 <_printf_float+0x16c>
    8680:	00100693          	li	a3,1
    8684:	000d0613          	mv	a2,s10
    8688:	00090593          	mv	a1,s2
    868c:	00048513          	mv	a0,s1
    8690:	000980e7          	jalr	s3
    8694:	b5b502e3          	beq	a0,s11,81d8 <_printf_float+0x16c>
    8698:	001b0b13          	addi	s6,s6,1
    869c:	f2dff06f          	j	85c8 <_printf_float+0x55c>
    86a0:	000b8693          	mv	a3,s7
    86a4:	000c0613          	mv	a2,s8
    86a8:	00090593          	mv	a1,s2
    86ac:	00048513          	mv	a0,s1
    86b0:	000980e7          	jalr	s3
    86b4:	fff00793          	li	a5,-1
    86b8:	f4f510e3          	bne	a0,a5,85f8 <_printf_float+0x58c>
    86bc:	b1dff06f          	j	81d8 <_printf_float+0x16c>
    86c0:	000a8693          	mv	a3,s5
    86c4:	019a0633          	add	a2,s4,s9
    86c8:	00090593          	mv	a1,s2
    86cc:	00048513          	mv	a0,s1
    86d0:	000980e7          	jalr	s3
    86d4:	fff00793          	li	a5,-1
    86d8:	f2f51ee3          	bne	a0,a5,8614 <_printf_float+0x5a8>
    86dc:	afdff06f          	j	81d8 <_printf_float+0x16c>
    86e0:	03812683          	lw	a3,56(sp)
    86e4:	00100713          	li	a4,1
    86e8:	00d74663          	blt	a4,a3,86f4 <_printf_float+0x688>
    86ec:	0017f793          	andi	a5,a5,1
    86f0:	0a078a63          	beqz	a5,87a4 <_printf_float+0x738>
    86f4:	00100693          	li	a3,1
    86f8:	000a0613          	mv	a2,s4
    86fc:	00090593          	mv	a1,s2
    8700:	00048513          	mv	a0,s1
    8704:	000980e7          	jalr	s3
    8708:	fff00a93          	li	s5,-1
    870c:	ad5506e3          	beq	a0,s5,81d8 <_printf_float+0x16c>
    8710:	000b8693          	mv	a3,s7
    8714:	000c0613          	mv	a2,s8
    8718:	00090593          	mv	a1,s2
    871c:	00048513          	mv	a0,s1
    8720:	000980e7          	jalr	s3
    8724:	ab550ae3          	beq	a0,s5,81d8 <_printf_float+0x16c>
    8728:	04842503          	lw	a0,72(s0)
    872c:	04c42583          	lw	a1,76(s0)
    8730:	00000613          	li	a2,0
    8734:	00000693          	li	a3,0
    8738:	dd9fa0ef          	jal	ra,3510 <__eqdf2>
    873c:	04050c63          	beqz	a0,8794 <_printf_float+0x728>
    8740:	03812683          	lw	a3,56(sp)
    8744:	001a0613          	addi	a2,s4,1
    8748:	00090593          	mv	a1,s2
    874c:	fff68693          	addi	a3,a3,-1
    8750:	00048513          	mv	a0,s1
    8754:	000980e7          	jalr	s3
    8758:	a95500e3          	beq	a0,s5,81d8 <_printf_float+0x16c>
    875c:	000b0693          	mv	a3,s6
    8760:	05040613          	addi	a2,s0,80
    8764:	e0dff06f          	j	8570 <_printf_float+0x504>
    8768:	00100693          	li	a3,1
    876c:	000a8613          	mv	a2,s5
    8770:	00090593          	mv	a1,s2
    8774:	00048513          	mv	a0,s1
    8778:	000980e7          	jalr	s3
    877c:	a5750ee3          	beq	a0,s7,81d8 <_printf_float+0x16c>
    8780:	001a0a13          	addi	s4,s4,1
    8784:	03812783          	lw	a5,56(sp)
    8788:	fff78793          	addi	a5,a5,-1
    878c:	fcfa4ee3          	blt	s4,a5,8768 <_printf_float+0x6fc>
    8790:	fcdff06f          	j	875c <_printf_float+0x6f0>
    8794:	00000a13          	li	s4,0
    8798:	01a40a93          	addi	s5,s0,26
    879c:	fff00b93          	li	s7,-1
    87a0:	fe5ff06f          	j	8784 <_printf_float+0x718>
    87a4:	00100693          	li	a3,1
    87a8:	000a0613          	mv	a2,s4
    87ac:	00090593          	mv	a1,s2
    87b0:	00048513          	mv	a0,s1
    87b4:	000980e7          	jalr	s3
    87b8:	fb9512e3          	bne	a0,s9,875c <_printf_float+0x6f0>
    87bc:	a1dff06f          	j	81d8 <_printf_float+0x16c>
    87c0:	00100693          	li	a3,1
    87c4:	000a8613          	mv	a2,s5
    87c8:	00090593          	mv	a1,s2
    87cc:	00048513          	mv	a0,s1
    87d0:	000980e7          	jalr	s3
    87d4:	a16502e3          	beq	a0,s6,81d8 <_printf_float+0x16c>
    87d8:	001a0a13          	addi	s4,s4,1
    87dc:	00c42783          	lw	a5,12(s0)
    87e0:	03c12703          	lw	a4,60(sp)
    87e4:	40e787b3          	sub	a5,a5,a4
    87e8:	fcfa4ce3          	blt	s4,a5,87c0 <_printf_float+0x754>
    87ec:	c4dff06f          	j	8438 <_printf_float+0x3cc>
    87f0:	00000a13          	li	s4,0
    87f4:	01940a93          	addi	s5,s0,25
    87f8:	fff00b13          	li	s6,-1
    87fc:	fe1ff06f          	j	87dc <_printf_float+0x770>

00008800 <_printf_common>:
    8800:	fd010113          	addi	sp,sp,-48
    8804:	01412c23          	sw	s4,24(sp)
    8808:	0105a783          	lw	a5,16(a1)
    880c:	00070a13          	mv	s4,a4
    8810:	0085a703          	lw	a4,8(a1)
    8814:	02812423          	sw	s0,40(sp)
    8818:	02912223          	sw	s1,36(sp)
    881c:	01312e23          	sw	s3,28(sp)
    8820:	01512a23          	sw	s5,20(sp)
    8824:	02112623          	sw	ra,44(sp)
    8828:	03212023          	sw	s2,32(sp)
    882c:	01612823          	sw	s6,16(sp)
    8830:	01712623          	sw	s7,12(sp)
    8834:	00050993          	mv	s3,a0
    8838:	00058413          	mv	s0,a1
    883c:	00060493          	mv	s1,a2
    8840:	00068a93          	mv	s5,a3
    8844:	00e7d463          	bge	a5,a4,884c <_printf_common+0x4c>
    8848:	00070793          	mv	a5,a4
    884c:	00f4a023          	sw	a5,0(s1)
    8850:	04344703          	lbu	a4,67(s0)
    8854:	00070663          	beqz	a4,8860 <_printf_common+0x60>
    8858:	00178793          	addi	a5,a5,1
    885c:	00f4a023          	sw	a5,0(s1)
    8860:	00042783          	lw	a5,0(s0)
    8864:	0207f793          	andi	a5,a5,32
    8868:	00078863          	beqz	a5,8878 <_printf_common+0x78>
    886c:	0004a783          	lw	a5,0(s1)
    8870:	00278793          	addi	a5,a5,2
    8874:	00f4a023          	sw	a5,0(s1)
    8878:	00042903          	lw	s2,0(s0)
    887c:	00697913          	andi	s2,s2,6
    8880:	00091e63          	bnez	s2,889c <_printf_common+0x9c>
    8884:	01940b13          	addi	s6,s0,25
    8888:	fff00b93          	li	s7,-1
    888c:	00c42783          	lw	a5,12(s0)
    8890:	0004a703          	lw	a4,0(s1)
    8894:	40e787b3          	sub	a5,a5,a4
    8898:	08f94263          	blt	s2,a5,891c <_printf_common+0x11c>
    889c:	04344783          	lbu	a5,67(s0)
    88a0:	00f036b3          	snez	a3,a5
    88a4:	00042783          	lw	a5,0(s0)
    88a8:	0207f793          	andi	a5,a5,32
    88ac:	0c079063          	bnez	a5,896c <_printf_common+0x16c>
    88b0:	04340613          	addi	a2,s0,67
    88b4:	000a8593          	mv	a1,s5
    88b8:	00098513          	mv	a0,s3
    88bc:	000a00e7          	jalr	s4
    88c0:	fff00793          	li	a5,-1
    88c4:	06f50863          	beq	a0,a5,8934 <_printf_common+0x134>
    88c8:	00042783          	lw	a5,0(s0)
    88cc:	00400613          	li	a2,4
    88d0:	0004a703          	lw	a4,0(s1)
    88d4:	0067f793          	andi	a5,a5,6
    88d8:	00c42683          	lw	a3,12(s0)
    88dc:	00000493          	li	s1,0
    88e0:	00c79863          	bne	a5,a2,88f0 <_printf_common+0xf0>
    88e4:	40e684b3          	sub	s1,a3,a4
    88e8:	0004d463          	bgez	s1,88f0 <_printf_common+0xf0>
    88ec:	00000493          	li	s1,0
    88f0:	00842783          	lw	a5,8(s0)
    88f4:	01042703          	lw	a4,16(s0)
    88f8:	00f75663          	bge	a4,a5,8904 <_printf_common+0x104>
    88fc:	40e787b3          	sub	a5,a5,a4
    8900:	00f484b3          	add	s1,s1,a5
    8904:	00000913          	li	s2,0
    8908:	01a40413          	addi	s0,s0,26
    890c:	fff00b13          	li	s6,-1
    8910:	09249063          	bne	s1,s2,8990 <_printf_common+0x190>
    8914:	00000513          	li	a0,0
    8918:	0200006f          	j	8938 <_printf_common+0x138>
    891c:	00100693          	li	a3,1
    8920:	000b0613          	mv	a2,s6
    8924:	000a8593          	mv	a1,s5
    8928:	00098513          	mv	a0,s3
    892c:	000a00e7          	jalr	s4
    8930:	03751a63          	bne	a0,s7,8964 <_printf_common+0x164>
    8934:	fff00513          	li	a0,-1
    8938:	02c12083          	lw	ra,44(sp)
    893c:	02812403          	lw	s0,40(sp)
    8940:	02412483          	lw	s1,36(sp)
    8944:	02012903          	lw	s2,32(sp)
    8948:	01c12983          	lw	s3,28(sp)
    894c:	01812a03          	lw	s4,24(sp)
    8950:	01412a83          	lw	s5,20(sp)
    8954:	01012b03          	lw	s6,16(sp)
    8958:	00c12b83          	lw	s7,12(sp)
    895c:	03010113          	addi	sp,sp,48
    8960:	00008067          	ret
    8964:	00190913          	addi	s2,s2,1
    8968:	f25ff06f          	j	888c <_printf_common+0x8c>
    896c:	00d40733          	add	a4,s0,a3
    8970:	03000613          	li	a2,48
    8974:	04c701a3          	sb	a2,67(a4)
    8978:	04544703          	lbu	a4,69(s0)
    897c:	00168793          	addi	a5,a3,1
    8980:	00f407b3          	add	a5,s0,a5
    8984:	00268693          	addi	a3,a3,2
    8988:	04e781a3          	sb	a4,67(a5)
    898c:	f25ff06f          	j	88b0 <_printf_common+0xb0>
    8990:	00100693          	li	a3,1
    8994:	00040613          	mv	a2,s0
    8998:	000a8593          	mv	a1,s5
    899c:	00098513          	mv	a0,s3
    89a0:	000a00e7          	jalr	s4
    89a4:	f96508e3          	beq	a0,s6,8934 <_printf_common+0x134>
    89a8:	00190913          	addi	s2,s2,1
    89ac:	f65ff06f          	j	8910 <_printf_common+0x110>

000089b0 <_printf_i>:
    89b0:	fd010113          	addi	sp,sp,-48
    89b4:	02812423          	sw	s0,40(sp)
    89b8:	02912223          	sw	s1,36(sp)
    89bc:	03212023          	sw	s2,32(sp)
    89c0:	01312e23          	sw	s3,28(sp)
    89c4:	02112623          	sw	ra,44(sp)
    89c8:	01412c23          	sw	s4,24(sp)
    89cc:	01512a23          	sw	s5,20(sp)
    89d0:	01612823          	sw	s6,16(sp)
    89d4:	0185c883          	lbu	a7,24(a1)
    89d8:	07800793          	li	a5,120
    89dc:	00050493          	mv	s1,a0
    89e0:	00058413          	mv	s0,a1
    89e4:	00060913          	mv	s2,a2
    89e8:	00068993          	mv	s3,a3
    89ec:	0117ee63          	bltu	a5,a7,8a08 <_printf_i+0x58>
    89f0:	06200793          	li	a5,98
    89f4:	04358693          	addi	a3,a1,67
    89f8:	0117ee63          	bltu	a5,a7,8a14 <_printf_i+0x64>
    89fc:	28088a63          	beqz	a7,8c90 <_printf_i+0x2e0>
    8a00:	05800793          	li	a5,88
    8a04:	1cf88063          	beq	a7,a5,8bc4 <_printf_i+0x214>
    8a08:	04240a93          	addi	s5,s0,66
    8a0c:	05140123          	sb	a7,66(s0)
    8a10:	0440006f          	j	8a54 <_printf_i+0xa4>
    8a14:	f9d88793          	addi	a5,a7,-99
    8a18:	0ff7f793          	andi	a5,a5,255
    8a1c:	01500613          	li	a2,21
    8a20:	fef664e3          	bltu	a2,a5,8a08 <_printf_i+0x58>
    8a24:	0000d637          	lui	a2,0xd
    8a28:	00279793          	slli	a5,a5,0x2
    8a2c:	ee060613          	addi	a2,a2,-288 # cee0 <_ctype_+0x13c>
    8a30:	00c787b3          	add	a5,a5,a2
    8a34:	0007a783          	lw	a5,0(a5)
    8a38:	00078067          	jr	a5
    8a3c:	00072783          	lw	a5,0(a4)
    8a40:	04258a93          	addi	s5,a1,66
    8a44:	00478693          	addi	a3,a5,4
    8a48:	0007a783          	lw	a5,0(a5)
    8a4c:	00d72023          	sw	a3,0(a4)
    8a50:	04f58123          	sb	a5,66(a1)
    8a54:	00100793          	li	a5,1
    8a58:	2740006f          	j	8ccc <_printf_i+0x31c>
    8a5c:	0005a783          	lw	a5,0(a1)
    8a60:	00072503          	lw	a0,0(a4)
    8a64:	0807f613          	andi	a2,a5,128
    8a68:	00450593          	addi	a1,a0,4
    8a6c:	02060663          	beqz	a2,8a98 <_printf_i+0xe8>
    8a70:	00052783          	lw	a5,0(a0)
    8a74:	00b72023          	sw	a1,0(a4)
    8a78:	0000d837          	lui	a6,0xd
    8a7c:	0007d863          	bgez	a5,8a8c <_printf_i+0xdc>
    8a80:	02d00713          	li	a4,45
    8a84:	40f007b3          	neg	a5,a5
    8a88:	04e401a3          	sb	a4,67(s0)
    8a8c:	eb880813          	addi	a6,a6,-328 # ceb8 <_ctype_+0x114>
    8a90:	00a00713          	li	a4,10
    8a94:	0680006f          	j	8afc <_printf_i+0x14c>
    8a98:	0407f613          	andi	a2,a5,64
    8a9c:	00052783          	lw	a5,0(a0)
    8aa0:	00b72023          	sw	a1,0(a4)
    8aa4:	fc060ae3          	beqz	a2,8a78 <_printf_i+0xc8>
    8aa8:	01079793          	slli	a5,a5,0x10
    8aac:	4107d793          	srai	a5,a5,0x10
    8ab0:	fc9ff06f          	j	8a78 <_printf_i+0xc8>
    8ab4:	0005a603          	lw	a2,0(a1)
    8ab8:	00072783          	lw	a5,0(a4)
    8abc:	08067513          	andi	a0,a2,128
    8ac0:	00478593          	addi	a1,a5,4
    8ac4:	00050863          	beqz	a0,8ad4 <_printf_i+0x124>
    8ac8:	00b72023          	sw	a1,0(a4)
    8acc:	0007a783          	lw	a5,0(a5)
    8ad0:	0140006f          	j	8ae4 <_printf_i+0x134>
    8ad4:	04067613          	andi	a2,a2,64
    8ad8:	00b72023          	sw	a1,0(a4)
    8adc:	fe0608e3          	beqz	a2,8acc <_printf_i+0x11c>
    8ae0:	0007d783          	lhu	a5,0(a5)
    8ae4:	0000d837          	lui	a6,0xd
    8ae8:	06f00713          	li	a4,111
    8aec:	eb880813          	addi	a6,a6,-328 # ceb8 <_ctype_+0x114>
    8af0:	14e88e63          	beq	a7,a4,8c4c <_printf_i+0x29c>
    8af4:	00a00713          	li	a4,10
    8af8:	040401a3          	sb	zero,67(s0)
    8afc:	00442603          	lw	a2,4(s0)
    8b00:	00c42423          	sw	a2,8(s0)
    8b04:	00064863          	bltz	a2,8b14 <_printf_i+0x164>
    8b08:	00042583          	lw	a1,0(s0)
    8b0c:	ffb5f593          	andi	a1,a1,-5
    8b10:	00b42023          	sw	a1,0(s0)
    8b14:	00079663          	bnez	a5,8b20 <_printf_i+0x170>
    8b18:	00068a93          	mv	s5,a3
    8b1c:	02060463          	beqz	a2,8b44 <_printf_i+0x194>
    8b20:	00068a93          	mv	s5,a3
    8b24:	02e7f633          	remu	a2,a5,a4
    8b28:	fffa8a93          	addi	s5,s5,-1
    8b2c:	00c80633          	add	a2,a6,a2
    8b30:	00064603          	lbu	a2,0(a2)
    8b34:	00ca8023          	sb	a2,0(s5)
    8b38:	00078613          	mv	a2,a5
    8b3c:	02e7d7b3          	divu	a5,a5,a4
    8b40:	fee672e3          	bgeu	a2,a4,8b24 <_printf_i+0x174>
    8b44:	00800793          	li	a5,8
    8b48:	02f71463          	bne	a4,a5,8b70 <_printf_i+0x1c0>
    8b4c:	00042783          	lw	a5,0(s0)
    8b50:	0017f793          	andi	a5,a5,1
    8b54:	00078e63          	beqz	a5,8b70 <_printf_i+0x1c0>
    8b58:	00442703          	lw	a4,4(s0)
    8b5c:	01042783          	lw	a5,16(s0)
    8b60:	00e7c863          	blt	a5,a4,8b70 <_printf_i+0x1c0>
    8b64:	03000793          	li	a5,48
    8b68:	fefa8fa3          	sb	a5,-1(s5)
    8b6c:	fffa8a93          	addi	s5,s5,-1
    8b70:	415686b3          	sub	a3,a3,s5
    8b74:	00d42823          	sw	a3,16(s0)
    8b78:	00098713          	mv	a4,s3
    8b7c:	00090693          	mv	a3,s2
    8b80:	00c10613          	addi	a2,sp,12
    8b84:	00040593          	mv	a1,s0
    8b88:	00048513          	mv	a0,s1
    8b8c:	c75ff0ef          	jal	ra,8800 <_printf_common>
    8b90:	fff00a13          	li	s4,-1
    8b94:	15451263          	bne	a0,s4,8cd8 <_printf_i+0x328>
    8b98:	fff00513          	li	a0,-1
    8b9c:	02c12083          	lw	ra,44(sp)
    8ba0:	02812403          	lw	s0,40(sp)
    8ba4:	02412483          	lw	s1,36(sp)
    8ba8:	02012903          	lw	s2,32(sp)
    8bac:	01c12983          	lw	s3,28(sp)
    8bb0:	01812a03          	lw	s4,24(sp)
    8bb4:	01412a83          	lw	s5,20(sp)
    8bb8:	01012b03          	lw	s6,16(sp)
    8bbc:	03010113          	addi	sp,sp,48
    8bc0:	00008067          	ret
    8bc4:	0000d837          	lui	a6,0xd
    8bc8:	051582a3          	sb	a7,69(a1)
    8bcc:	eb880813          	addi	a6,a6,-328 # ceb8 <_ctype_+0x114>
    8bd0:	00042603          	lw	a2,0(s0)
    8bd4:	00072583          	lw	a1,0(a4)
    8bd8:	08067513          	andi	a0,a2,128
    8bdc:	0005a783          	lw	a5,0(a1)
    8be0:	00458593          	addi	a1,a1,4
    8be4:	04050863          	beqz	a0,8c34 <_printf_i+0x284>
    8be8:	00b72023          	sw	a1,0(a4)
    8bec:	00167713          	andi	a4,a2,1
    8bf0:	00070663          	beqz	a4,8bfc <_printf_i+0x24c>
    8bf4:	02066613          	ori	a2,a2,32
    8bf8:	00c42023          	sw	a2,0(s0)
    8bfc:	01000713          	li	a4,16
    8c00:	ee079ce3          	bnez	a5,8af8 <_printf_i+0x148>
    8c04:	00042603          	lw	a2,0(s0)
    8c08:	fdf67613          	andi	a2,a2,-33
    8c0c:	00c42023          	sw	a2,0(s0)
    8c10:	ee9ff06f          	j	8af8 <_printf_i+0x148>
    8c14:	0005a783          	lw	a5,0(a1)
    8c18:	0207e793          	ori	a5,a5,32
    8c1c:	00f5a023          	sw	a5,0(a1)
    8c20:	07800793          	li	a5,120
    8c24:	0000d837          	lui	a6,0xd
    8c28:	04f402a3          	sb	a5,69(s0)
    8c2c:	ecc80813          	addi	a6,a6,-308 # cecc <_ctype_+0x128>
    8c30:	fa1ff06f          	j	8bd0 <_printf_i+0x220>
    8c34:	04067513          	andi	a0,a2,64
    8c38:	00b72023          	sw	a1,0(a4)
    8c3c:	fa0508e3          	beqz	a0,8bec <_printf_i+0x23c>
    8c40:	01079793          	slli	a5,a5,0x10
    8c44:	0107d793          	srli	a5,a5,0x10
    8c48:	fa5ff06f          	j	8bec <_printf_i+0x23c>
    8c4c:	00800713          	li	a4,8
    8c50:	ea9ff06f          	j	8af8 <_printf_i+0x148>
    8c54:	0005a603          	lw	a2,0(a1)
    8c58:	00072783          	lw	a5,0(a4)
    8c5c:	0145a583          	lw	a1,20(a1)
    8c60:	08067813          	andi	a6,a2,128
    8c64:	00478513          	addi	a0,a5,4
    8c68:	00080a63          	beqz	a6,8c7c <_printf_i+0x2cc>
    8c6c:	00a72023          	sw	a0,0(a4)
    8c70:	0007a783          	lw	a5,0(a5)
    8c74:	00b7a023          	sw	a1,0(a5)
    8c78:	0180006f          	j	8c90 <_printf_i+0x2e0>
    8c7c:	00a72023          	sw	a0,0(a4)
    8c80:	04067613          	andi	a2,a2,64
    8c84:	0007a783          	lw	a5,0(a5)
    8c88:	fe0606e3          	beqz	a2,8c74 <_printf_i+0x2c4>
    8c8c:	00b79023          	sh	a1,0(a5)
    8c90:	00042823          	sw	zero,16(s0)
    8c94:	00068a93          	mv	s5,a3
    8c98:	ee1ff06f          	j	8b78 <_printf_i+0x1c8>
    8c9c:	00072783          	lw	a5,0(a4)
    8ca0:	0045a603          	lw	a2,4(a1)
    8ca4:	00000593          	li	a1,0
    8ca8:	00478693          	addi	a3,a5,4
    8cac:	00d72023          	sw	a3,0(a4)
    8cb0:	0007aa83          	lw	s5,0(a5)
    8cb4:	000a8513          	mv	a0,s5
    8cb8:	0dd010ef          	jal	ra,a594 <memchr>
    8cbc:	00050663          	beqz	a0,8cc8 <_printf_i+0x318>
    8cc0:	41550533          	sub	a0,a0,s5
    8cc4:	00a42223          	sw	a0,4(s0)
    8cc8:	00442783          	lw	a5,4(s0)
    8ccc:	00f42823          	sw	a5,16(s0)
    8cd0:	040401a3          	sb	zero,67(s0)
    8cd4:	ea5ff06f          	j	8b78 <_printf_i+0x1c8>
    8cd8:	01042683          	lw	a3,16(s0)
    8cdc:	000a8613          	mv	a2,s5
    8ce0:	00090593          	mv	a1,s2
    8ce4:	00048513          	mv	a0,s1
    8ce8:	000980e7          	jalr	s3
    8cec:	eb4506e3          	beq	a0,s4,8b98 <_printf_i+0x1e8>
    8cf0:	00042783          	lw	a5,0(s0)
    8cf4:	0027f793          	andi	a5,a5,2
    8cf8:	04079463          	bnez	a5,8d40 <_printf_i+0x390>
    8cfc:	00c12783          	lw	a5,12(sp)
    8d00:	00c42503          	lw	a0,12(s0)
    8d04:	e8f55ce3          	bge	a0,a5,8b9c <_printf_i+0x1ec>
    8d08:	00078513          	mv	a0,a5
    8d0c:	e91ff06f          	j	8b9c <_printf_i+0x1ec>
    8d10:	00100693          	li	a3,1
    8d14:	000a8613          	mv	a2,s5
    8d18:	00090593          	mv	a1,s2
    8d1c:	00048513          	mv	a0,s1
    8d20:	000980e7          	jalr	s3
    8d24:	e7650ae3          	beq	a0,s6,8b98 <_printf_i+0x1e8>
    8d28:	001a0a13          	addi	s4,s4,1
    8d2c:	00c42783          	lw	a5,12(s0)
    8d30:	00c12703          	lw	a4,12(sp)
    8d34:	40e787b3          	sub	a5,a5,a4
    8d38:	fcfa4ce3          	blt	s4,a5,8d10 <_printf_i+0x360>
    8d3c:	fc1ff06f          	j	8cfc <_printf_i+0x34c>
    8d40:	00000a13          	li	s4,0
    8d44:	01940a93          	addi	s5,s0,25
    8d48:	fff00b13          	li	s6,-1
    8d4c:	fe1ff06f          	j	8d2c <_printf_i+0x37c>

00008d50 <iprintf>:
    8d50:	fb010113          	addi	sp,sp,-80
    8d54:	04f12223          	sw	a5,68(sp)
    8d58:	000827b7          	lui	a5,0x82
    8d5c:	02812423          	sw	s0,40(sp)
    8d60:	00050413          	mv	s0,a0
    8d64:	db87a503          	lw	a0,-584(a5) # 81db8 <_impure_ptr>
    8d68:	02112623          	sw	ra,44(sp)
    8d6c:	02b12a23          	sw	a1,52(sp)
    8d70:	02c12c23          	sw	a2,56(sp)
    8d74:	02d12e23          	sw	a3,60(sp)
    8d78:	04e12023          	sw	a4,64(sp)
    8d7c:	05012423          	sw	a6,72(sp)
    8d80:	05112623          	sw	a7,76(sp)
    8d84:	00050c63          	beqz	a0,8d9c <iprintf+0x4c>
    8d88:	01852783          	lw	a5,24(a0)
    8d8c:	00079863          	bnez	a5,8d9c <iprintf+0x4c>
    8d90:	00a12623          	sw	a0,12(sp)
    8d94:	58c010ef          	jal	ra,a320 <__sinit>
    8d98:	00c12503          	lw	a0,12(sp)
    8d9c:	00852583          	lw	a1,8(a0)
    8da0:	03410693          	addi	a3,sp,52
    8da4:	00040613          	mv	a2,s0
    8da8:	00d12e23          	sw	a3,28(sp)
    8dac:	5c0020ef          	jal	ra,b36c <_vfiprintf_r>
    8db0:	02c12083          	lw	ra,44(sp)
    8db4:	02812403          	lw	s0,40(sp)
    8db8:	05010113          	addi	sp,sp,80
    8dbc:	00008067          	ret

00008dc0 <_sbrk_r>:
    8dc0:	ff010113          	addi	sp,sp,-16
    8dc4:	00812423          	sw	s0,8(sp)
    8dc8:	00912223          	sw	s1,4(sp)
    8dcc:	00050413          	mv	s0,a0
    8dd0:	0000d4b7          	lui	s1,0xd
    8dd4:	00058513          	mv	a0,a1
    8dd8:	00112623          	sw	ra,12(sp)
    8ddc:	1404ae23          	sw	zero,348(s1) # d15c <errno>
    8de0:	8e5fc0ef          	jal	ra,56c4 <_sbrk>
    8de4:	fff00793          	li	a5,-1
    8de8:	00f51863          	bne	a0,a5,8df8 <_sbrk_r+0x38>
    8dec:	15c4a783          	lw	a5,348(s1)
    8df0:	00078463          	beqz	a5,8df8 <_sbrk_r+0x38>
    8df4:	00f42023          	sw	a5,0(s0)
    8df8:	00c12083          	lw	ra,12(sp)
    8dfc:	00812403          	lw	s0,8(sp)
    8e00:	00412483          	lw	s1,4(sp)
    8e04:	01010113          	addi	sp,sp,16
    8e08:	00008067          	ret

00008e0c <strlen>:
    8e0c:	00050793          	mv	a5,a0
    8e10:	0007c703          	lbu	a4,0(a5)
    8e14:	00178793          	addi	a5,a5,1
    8e18:	fe071ce3          	bnez	a4,8e10 <strlen+0x4>
    8e1c:	40a78533          	sub	a0,a5,a0
    8e20:	fff50513          	addi	a0,a0,-1
    8e24:	00008067          	ret

00008e28 <strnlen>:
    8e28:	00b505b3          	add	a1,a0,a1
    8e2c:	00050793          	mv	a5,a0
    8e30:	00b78663          	beq	a5,a1,8e3c <strnlen+0x14>
    8e34:	0007c703          	lbu	a4,0(a5)
    8e38:	00071663          	bnez	a4,8e44 <strnlen+0x1c>
    8e3c:	40a78533          	sub	a0,a5,a0
    8e40:	00008067          	ret
    8e44:	00178793          	addi	a5,a5,1
    8e48:	fe9ff06f          	j	8e30 <strnlen+0x8>

00008e4c <quorem>:
    8e4c:	fe010113          	addi	sp,sp,-32
    8e50:	00812c23          	sw	s0,24(sp)
    8e54:	01052783          	lw	a5,16(a0)
    8e58:	0105a403          	lw	s0,16(a1)
    8e5c:	00112e23          	sw	ra,28(sp)
    8e60:	00912a23          	sw	s1,20(sp)
    8e64:	01212823          	sw	s2,16(sp)
    8e68:	01312623          	sw	s3,12(sp)
    8e6c:	01412423          	sw	s4,8(sp)
    8e70:	01512223          	sw	s5,4(sp)
    8e74:	1887ce63          	blt	a5,s0,9010 <quorem+0x1c4>
    8e78:	fff40413          	addi	s0,s0,-1
    8e7c:	00241613          	slli	a2,s0,0x2
    8e80:	01458a13          	addi	s4,a1,20
    8e84:	00ca0ab3          	add	s5,s4,a2
    8e88:	01450993          	addi	s3,a0,20
    8e8c:	000aa783          	lw	a5,0(s5)
    8e90:	00c98633          	add	a2,s3,a2
    8e94:	00062703          	lw	a4,0(a2)
    8e98:	00178793          	addi	a5,a5,1
    8e9c:	00050913          	mv	s2,a0
    8ea0:	02f754b3          	divu	s1,a4,a5
    8ea4:	08f76863          	bltu	a4,a5,8f34 <quorem+0xe8>
    8ea8:	00010537          	lui	a0,0x10
    8eac:	000a0813          	mv	a6,s4
    8eb0:	00098893          	mv	a7,s3
    8eb4:	00000313          	li	t1,0
    8eb8:	00000e13          	li	t3,0
    8ebc:	fff50513          	addi	a0,a0,-1 # ffff <W1+0x8df>
    8ec0:	00082683          	lw	a3,0(a6)
    8ec4:	00488893          	addi	a7,a7,4
    8ec8:	00480813          	addi	a6,a6,4
    8ecc:	00a6f7b3          	and	a5,a3,a0
    8ed0:	0106d693          	srli	a3,a3,0x10
    8ed4:	029787b3          	mul	a5,a5,s1
    8ed8:	029686b3          	mul	a3,a3,s1
    8edc:	006787b3          	add	a5,a5,t1
    8ee0:	0107d713          	srli	a4,a5,0x10
    8ee4:	00a7f7b3          	and	a5,a5,a0
    8ee8:	40fe07b3          	sub	a5,t3,a5
    8eec:	00e686b3          	add	a3,a3,a4
    8ef0:	ffc8a703          	lw	a4,-4(a7)
    8ef4:	0106d313          	srli	t1,a3,0x10
    8ef8:	00a6f6b3          	and	a3,a3,a0
    8efc:	00a77e33          	and	t3,a4,a0
    8f00:	01c787b3          	add	a5,a5,t3
    8f04:	01075713          	srli	a4,a4,0x10
    8f08:	40d70733          	sub	a4,a4,a3
    8f0c:	4107d693          	srai	a3,a5,0x10
    8f10:	00d70733          	add	a4,a4,a3
    8f14:	41075e13          	srai	t3,a4,0x10
    8f18:	00a7f7b3          	and	a5,a5,a0
    8f1c:	01071713          	slli	a4,a4,0x10
    8f20:	00f767b3          	or	a5,a4,a5
    8f24:	fef8ae23          	sw	a5,-4(a7)
    8f28:	f90afce3          	bgeu	s5,a6,8ec0 <quorem+0x74>
    8f2c:	00062783          	lw	a5,0(a2)
    8f30:	0a078a63          	beqz	a5,8fe4 <quorem+0x198>
    8f34:	00090513          	mv	a0,s2
    8f38:	795010ef          	jal	ra,aecc <__mcmp>
    8f3c:	06054a63          	bltz	a0,8fb0 <quorem+0x164>
    8f40:	000106b7          	lui	a3,0x10
    8f44:	00148493          	addi	s1,s1,1
    8f48:	00098613          	mv	a2,s3
    8f4c:	00000593          	li	a1,0
    8f50:	fff68693          	addi	a3,a3,-1 # ffff <W1+0x8df>
    8f54:	000a2503          	lw	a0,0(s4)
    8f58:	00062783          	lw	a5,0(a2)
    8f5c:	00460613          	addi	a2,a2,4
    8f60:	00d57733          	and	a4,a0,a3
    8f64:	40e585b3          	sub	a1,a1,a4
    8f68:	00d7f733          	and	a4,a5,a3
    8f6c:	00e58733          	add	a4,a1,a4
    8f70:	0107d793          	srli	a5,a5,0x10
    8f74:	01055513          	srli	a0,a0,0x10
    8f78:	41075593          	srai	a1,a4,0x10
    8f7c:	40a787b3          	sub	a5,a5,a0
    8f80:	00b787b3          	add	a5,a5,a1
    8f84:	4107d593          	srai	a1,a5,0x10
    8f88:	00d77733          	and	a4,a4,a3
    8f8c:	01079793          	slli	a5,a5,0x10
    8f90:	00e7e7b3          	or	a5,a5,a4
    8f94:	004a0a13          	addi	s4,s4,4
    8f98:	fef62e23          	sw	a5,-4(a2)
    8f9c:	fb4afce3          	bgeu	s5,s4,8f54 <quorem+0x108>
    8fa0:	00241793          	slli	a5,s0,0x2
    8fa4:	00f987b3          	add	a5,s3,a5
    8fa8:	0007a703          	lw	a4,0(a5)
    8fac:	04070a63          	beqz	a4,9000 <quorem+0x1b4>
    8fb0:	00048513          	mv	a0,s1
    8fb4:	01c12083          	lw	ra,28(sp)
    8fb8:	01812403          	lw	s0,24(sp)
    8fbc:	01412483          	lw	s1,20(sp)
    8fc0:	01012903          	lw	s2,16(sp)
    8fc4:	00c12983          	lw	s3,12(sp)
    8fc8:	00812a03          	lw	s4,8(sp)
    8fcc:	00412a83          	lw	s5,4(sp)
    8fd0:	02010113          	addi	sp,sp,32
    8fd4:	00008067          	ret
    8fd8:	00062783          	lw	a5,0(a2)
    8fdc:	00079863          	bnez	a5,8fec <quorem+0x1a0>
    8fe0:	fff40413          	addi	s0,s0,-1
    8fe4:	ffc60613          	addi	a2,a2,-4
    8fe8:	fec9e8e3          	bltu	s3,a2,8fd8 <quorem+0x18c>
    8fec:	00892823          	sw	s0,16(s2)
    8ff0:	f45ff06f          	j	8f34 <quorem+0xe8>
    8ff4:	0007a703          	lw	a4,0(a5)
    8ff8:	00071863          	bnez	a4,9008 <quorem+0x1bc>
    8ffc:	fff40413          	addi	s0,s0,-1
    9000:	ffc78793          	addi	a5,a5,-4
    9004:	fef9e8e3          	bltu	s3,a5,8ff4 <quorem+0x1a8>
    9008:	00892823          	sw	s0,16(s2)
    900c:	fa5ff06f          	j	8fb0 <quorem+0x164>
    9010:	00000513          	li	a0,0
    9014:	fa1ff06f          	j	8fb4 <quorem+0x168>

00009018 <_dtoa_r>:
    9018:	f5010113          	addi	sp,sp,-176
    901c:	02f12c23          	sw	a5,56(sp)
    9020:	02452783          	lw	a5,36(a0)
    9024:	0a812423          	sw	s0,168(sp)
    9028:	0a912223          	sw	s1,164(sp)
    902c:	0b212023          	sw	s2,160(sp)
    9030:	09312e23          	sw	s3,156(sp)
    9034:	09512a23          	sw	s5,148(sp)
    9038:	09612823          	sw	s6,144(sp)
    903c:	0a112623          	sw	ra,172(sp)
    9040:	09412c23          	sw	s4,152(sp)
    9044:	09712623          	sw	s7,140(sp)
    9048:	09812423          	sw	s8,136(sp)
    904c:	09912223          	sw	s9,132(sp)
    9050:	09a12023          	sw	s10,128(sp)
    9054:	07b12e23          	sw	s11,124(sp)
    9058:	00d12a23          	sw	a3,20(sp)
    905c:	02e12023          	sw	a4,32(sp)
    9060:	03112223          	sw	a7,36(sp)
    9064:	00050493          	mv	s1,a0
    9068:	00058a93          	mv	s5,a1
    906c:	00060413          	mv	s0,a2
    9070:	00080913          	mv	s2,a6
    9074:	00058993          	mv	s3,a1
    9078:	00060b13          	mv	s6,a2
    907c:	04079063          	bnez	a5,90bc <_dtoa_r+0xa4>
    9080:	01000513          	li	a0,16
    9084:	b65fe0ef          	jal	ra,7be8 <malloc>
    9088:	02a4a223          	sw	a0,36(s1)
    908c:	02051063          	bnez	a0,90ac <_dtoa_r+0x94>
    9090:	0000d6b7          	lui	a3,0xd
    9094:	f4868693          	addi	a3,a3,-184 # cf48 <_ctype_+0x1a4>
    9098:	00000613          	li	a2,0
    909c:	0ea00593          	li	a1,234
    90a0:	0000d537          	lui	a0,0xd
    90a4:	f6050513          	addi	a0,a0,-160 # cf60 <_ctype_+0x1bc>
    90a8:	331020ef          	jal	ra,bbd8 <__assert_func>
    90ac:	00052223          	sw	zero,4(a0)
    90b0:	00052423          	sw	zero,8(a0)
    90b4:	00052023          	sw	zero,0(a0)
    90b8:	00052623          	sw	zero,12(a0)
    90bc:	0244a783          	lw	a5,36(s1)
    90c0:	0007a583          	lw	a1,0(a5)
    90c4:	02058463          	beqz	a1,90ec <_dtoa_r+0xd4>
    90c8:	0047a703          	lw	a4,4(a5)
    90cc:	00100793          	li	a5,1
    90d0:	00048513          	mv	a0,s1
    90d4:	00e797b3          	sll	a5,a5,a4
    90d8:	00f5a423          	sw	a5,8(a1)
    90dc:	00e5a223          	sw	a4,4(a1)
    90e0:	5f0010ef          	jal	ra,a6d0 <_Bfree>
    90e4:	0244a783          	lw	a5,36(s1)
    90e8:	0007a023          	sw	zero,0(a5)
    90ec:	04045c63          	bgez	s0,9144 <_dtoa_r+0x12c>
    90f0:	00100793          	li	a5,1
    90f4:	00141413          	slli	s0,s0,0x1
    90f8:	00f92023          	sw	a5,0(s2)
    90fc:	00145b13          	srli	s6,s0,0x1
    9100:	7ff007b7          	lui	a5,0x7ff00
    9104:	00fb7733          	and	a4,s6,a5
    9108:	0af71863          	bne	a4,a5,91b8 <_dtoa_r+0x1a0>
    910c:	03812703          	lw	a4,56(sp)
    9110:	000027b7          	lui	a5,0x2
    9114:	00cb1b13          	slli	s6,s6,0xc
    9118:	70f78793          	addi	a5,a5,1807 # 270f <CONFIG_SRAM_SIZE+0x70f>
    911c:	00cb5b13          	srli	s6,s6,0xc
    9120:	00f72023          	sw	a5,0(a4)
    9124:	015b6ab3          	or	s5,s6,s5
    9128:	000a9463          	bnez	s5,9130 <_dtoa_r+0x118>
    912c:	0540106f          	j	a180 <_dtoa_r+0x1168>
    9130:	02412783          	lw	a5,36(sp)
    9134:	0000d537          	lui	a0,0xd
    9138:	06079663          	bnez	a5,91a4 <_dtoa_r+0x18c>
    913c:	f4450793          	addi	a5,a0,-188 # cf44 <_ctype_+0x1a0>
    9140:	0540106f          	j	a194 <_dtoa_r+0x117c>
    9144:	00092023          	sw	zero,0(s2)
    9148:	fb9ff06f          	j	9100 <_dtoa_r+0xe8>
    914c:	f3850793          	addi	a5,a0,-200
    9150:	00f12823          	sw	a5,16(sp)
    9154:	0000d7b7          	lui	a5,0xd
    9158:	f4078793          	addi	a5,a5,-192 # cf40 <_ctype_+0x19c>
    915c:	02412703          	lw	a4,36(sp)
    9160:	00f72023          	sw	a5,0(a4)
    9164:	0ac12083          	lw	ra,172(sp)
    9168:	0a812403          	lw	s0,168(sp)
    916c:	01012503          	lw	a0,16(sp)
    9170:	0a412483          	lw	s1,164(sp)
    9174:	0a012903          	lw	s2,160(sp)
    9178:	09c12983          	lw	s3,156(sp)
    917c:	09812a03          	lw	s4,152(sp)
    9180:	09412a83          	lw	s5,148(sp)
    9184:	09012b03          	lw	s6,144(sp)
    9188:	08c12b83          	lw	s7,140(sp)
    918c:	08812c03          	lw	s8,136(sp)
    9190:	08412c83          	lw	s9,132(sp)
    9194:	08012d03          	lw	s10,128(sp)
    9198:	07c12d83          	lw	s11,124(sp)
    919c:	0b010113          	addi	sp,sp,176
    91a0:	00008067          	ret
    91a4:	f4450793          	addi	a5,a0,-188
    91a8:	00f12823          	sw	a5,16(sp)
    91ac:	0000d7b7          	lui	a5,0xd
    91b0:	f4778793          	addi	a5,a5,-185 # cf47 <_ctype_+0x1a3>
    91b4:	fa9ff06f          	j	915c <_dtoa_r+0x144>
    91b8:	00000613          	li	a2,0
    91bc:	00000693          	li	a3,0
    91c0:	000a8513          	mv	a0,s5
    91c4:	000b0593          	mv	a1,s6
    91c8:	03512623          	sw	s5,44(sp)
    91cc:	03612823          	sw	s6,48(sp)
    91d0:	b40fa0ef          	jal	ra,3510 <__eqdf2>
    91d4:	02051c63          	bnez	a0,920c <_dtoa_r+0x1f4>
    91d8:	03812703          	lw	a4,56(sp)
    91dc:	00100793          	li	a5,1
    91e0:	00f72023          	sw	a5,0(a4)
    91e4:	0000d737          	lui	a4,0xd
    91e8:	d3470793          	addi	a5,a4,-716 # cd34 <gpio_veerwolf_driver_api+0x28>
    91ec:	00f12823          	sw	a5,16(sp)
    91f0:	02412783          	lw	a5,36(sp)
    91f4:	f60788e3          	beqz	a5,9164 <_dtoa_r+0x14c>
    91f8:	02412683          	lw	a3,36(sp)
    91fc:	0000d7b7          	lui	a5,0xd
    9200:	d3578793          	addi	a5,a5,-715 # cd35 <gpio_veerwolf_driver_api+0x29>
    9204:	00f6a023          	sw	a5,0(a3)
    9208:	f5dff06f          	j	9164 <_dtoa_r+0x14c>
    920c:	06810713          	addi	a4,sp,104
    9210:	06c10693          	addi	a3,sp,108
    9214:	000b0613          	mv	a2,s6
    9218:	000a8593          	mv	a1,s5
    921c:	00048513          	mv	a0,s1
    9220:	6fd010ef          	jal	ra,b11c <__d2b>
    9224:	014b5913          	srli	s2,s6,0x14
    9228:	00a12623          	sw	a0,12(sp)
    922c:	7ff97913          	andi	s2,s2,2047
    9230:	06812a03          	lw	s4,104(sp)
    9234:	1a090063          	beqz	s2,93d4 <_dtoa_r+0x3bc>
    9238:	03012783          	lw	a5,48(sp)
    923c:	02c12503          	lw	a0,44(sp)
    9240:	c0190913          	addi	s2,s2,-1023
    9244:	00c79593          	slli	a1,a5,0xc
    9248:	00c5d593          	srli	a1,a1,0xc
    924c:	3ff007b7          	lui	a5,0x3ff00
    9250:	00f5e5b3          	or	a1,a1,a5
    9254:	04012c23          	sw	zero,88(sp)
    9258:	0000c7b7          	lui	a5,0xc
    925c:	7487a603          	lw	a2,1864(a5) # c748 <__device_handles_end+0x84>
    9260:	74c7a683          	lw	a3,1868(a5)
    9264:	d91f80ef          	jal	ra,1ff4 <__subdf3>
    9268:	0000c7b7          	lui	a5,0xc
    926c:	7507a603          	lw	a2,1872(a5) # c750 <__device_handles_end+0x8c>
    9270:	7547a683          	lw	a3,1876(a5)
    9274:	fb8f80ef          	jal	ra,1a2c <__muldf3>
    9278:	0000c7b7          	lui	a5,0xc
    927c:	7587a603          	lw	a2,1880(a5) # c758 <__device_handles_end+0x94>
    9280:	75c7a683          	lw	a3,1884(a5)
    9284:	8f1f70ef          	jal	ra,b74 <__adddf3>
    9288:	00050b93          	mv	s7,a0
    928c:	00090513          	mv	a0,s2
    9290:	00058a93          	mv	s5,a1
    9294:	d9cfa0ef          	jal	ra,3830 <__floatsidf>
    9298:	0000c7b7          	lui	a5,0xc
    929c:	7607a603          	lw	a2,1888(a5) # c760 <__device_handles_end+0x9c>
    92a0:	7647a683          	lw	a3,1892(a5)
    92a4:	f88f80ef          	jal	ra,1a2c <__muldf3>
    92a8:	00050613          	mv	a2,a0
    92ac:	00058693          	mv	a3,a1
    92b0:	000b8513          	mv	a0,s7
    92b4:	000a8593          	mv	a1,s5
    92b8:	8bdf70ef          	jal	ra,b74 <__adddf3>
    92bc:	00050b93          	mv	s7,a0
    92c0:	00058a93          	mv	s5,a1
    92c4:	cecfa0ef          	jal	ra,37b0 <__fixdfsi>
    92c8:	00050413          	mv	s0,a0
    92cc:	00000613          	li	a2,0
    92d0:	00000693          	li	a3,0
    92d4:	000b8513          	mv	a0,s7
    92d8:	000a8593          	mv	a1,s5
    92dc:	ba4fa0ef          	jal	ra,3680 <__ledf2>
    92e0:	02055063          	bgez	a0,9300 <_dtoa_r+0x2e8>
    92e4:	00040513          	mv	a0,s0
    92e8:	d48fa0ef          	jal	ra,3830 <__floatsidf>
    92ec:	000b8613          	mv	a2,s7
    92f0:	000a8693          	mv	a3,s5
    92f4:	a1cfa0ef          	jal	ra,3510 <__eqdf2>
    92f8:	00050463          	beqz	a0,9300 <_dtoa_r+0x2e8>
    92fc:	fff40413          	addi	s0,s0,-1
    9300:	00100713          	li	a4,1
    9304:	01600793          	li	a5,22
    9308:	02e12a23          	sw	a4,52(sp)
    930c:	0287ea63          	bltu	a5,s0,9340 <_dtoa_r+0x328>
    9310:	0000d737          	lui	a4,0xd
    9314:	00341793          	slli	a5,s0,0x3
    9318:	9a870713          	addi	a4,a4,-1624 # c9a8 <__mprec_tens>
    931c:	00e787b3          	add	a5,a5,a4
    9320:	0007a603          	lw	a2,0(a5)
    9324:	0047a683          	lw	a3,4(a5)
    9328:	02c12503          	lw	a0,44(sp)
    932c:	03012583          	lw	a1,48(sp)
    9330:	b50fa0ef          	jal	ra,3680 <__ledf2>
    9334:	00055463          	bgez	a0,933c <_dtoa_r+0x324>
    9338:	fff40413          	addi	s0,s0,-1
    933c:	02012a23          	sw	zero,52(sp)
    9340:	412a0933          	sub	s2,s4,s2
    9344:	fff90c13          	addi	s8,s2,-1
    9348:	00000b93          	li	s7,0
    934c:	000c5863          	bgez	s8,935c <_dtoa_r+0x344>
    9350:	00100b93          	li	s7,1
    9354:	412b8bb3          	sub	s7,s7,s2
    9358:	00000c13          	li	s8,0
    935c:	0c044663          	bltz	s0,9428 <_dtoa_r+0x410>
    9360:	008c0c33          	add	s8,s8,s0
    9364:	02812423          	sw	s0,40(sp)
    9368:	00000c93          	li	s9,0
    936c:	01412703          	lw	a4,20(sp)
    9370:	00900793          	li	a5,9
    9374:	14e7e863          	bltu	a5,a4,94c4 <_dtoa_r+0x4ac>
    9378:	00500793          	li	a5,5
    937c:	00100913          	li	s2,1
    9380:	00e7d863          	bge	a5,a4,9390 <_dtoa_r+0x378>
    9384:	ffc70793          	addi	a5,a4,-4
    9388:	00f12a23          	sw	a5,20(sp)
    938c:	00000913          	li	s2,0
    9390:	01412703          	lw	a4,20(sp)
    9394:	00400793          	li	a5,4
    9398:	0af70063          	beq	a4,a5,9438 <_dtoa_r+0x420>
    939c:	00500793          	li	a5,5
    93a0:	10f70063          	beq	a4,a5,94a0 <_dtoa_r+0x488>
    93a4:	00200793          	li	a5,2
    93a8:	0ef70863          	beq	a4,a5,9498 <_dtoa_r+0x480>
    93ac:	00300793          	li	a5,3
    93b0:	00012e23          	sw	zero,28(sp)
    93b4:	0ef70a63          	beq	a4,a5,94a8 <_dtoa_r+0x490>
    93b8:	00100793          	li	a5,1
    93bc:	00f12e23          	sw	a5,28(sp)
    93c0:	fff00d93          	li	s11,-1
    93c4:	fff00d13          	li	s10,-1
    93c8:	01200793          	li	a5,18
    93cc:	02012023          	sw	zero,32(sp)
    93d0:	08c0006f          	j	945c <_dtoa_r+0x444>
    93d4:	06c12903          	lw	s2,108(sp)
    93d8:	02000793          	li	a5,32
    93dc:	012a0933          	add	s2,s4,s2
    93e0:	43290593          	addi	a1,s2,1074
    93e4:	02b7dc63          	bge	a5,a1,941c <_dtoa_r+0x404>
    93e8:	04000513          	li	a0,64
    93ec:	40b50533          	sub	a0,a0,a1
    93f0:	41290593          	addi	a1,s2,1042
    93f4:	00ab1533          	sll	a0,s6,a0
    93f8:	00badab3          	srl	s5,s5,a1
    93fc:	01556533          	or	a0,a0,s5
    9400:	be0f90ef          	jal	ra,27e0 <__floatunsidf>
    9404:	fe1007b7          	lui	a5,0xfe100
    9408:	00b785b3          	add	a1,a5,a1
    940c:	00100793          	li	a5,1
    9410:	fff90913          	addi	s2,s2,-1
    9414:	04f12c23          	sw	a5,88(sp)
    9418:	e41ff06f          	j	9258 <_dtoa_r+0x240>
    941c:	40b78533          	sub	a0,a5,a1
    9420:	00aa9533          	sll	a0,s5,a0
    9424:	fddff06f          	j	9400 <_dtoa_r+0x3e8>
    9428:	408b8bb3          	sub	s7,s7,s0
    942c:	40800cb3          	neg	s9,s0
    9430:	02012423          	sw	zero,40(sp)
    9434:	f39ff06f          	j	936c <_dtoa_r+0x354>
    9438:	00100793          	li	a5,1
    943c:	00f12e23          	sw	a5,28(sp)
    9440:	02012783          	lw	a5,32(sp)
    9444:	08f04663          	bgtz	a5,94d0 <_dtoa_r+0x4b8>
    9448:	00100713          	li	a4,1
    944c:	00100d93          	li	s11,1
    9450:	00100d13          	li	s10,1
    9454:	00100793          	li	a5,1
    9458:	02e12023          	sw	a4,32(sp)
    945c:	0244a683          	lw	a3,36(s1)
    9460:	00400713          	li	a4,4
    9464:	0006a223          	sw	zero,4(a3)
    9468:	01470613          	addi	a2,a4,20
    946c:	0046a583          	lw	a1,4(a3)
    9470:	06c7f863          	bgeu	a5,a2,94e0 <_dtoa_r+0x4c8>
    9474:	00048513          	mv	a0,s1
    9478:	158010ef          	jal	ra,a5d0 <_Balloc>
    947c:	00a12823          	sw	a0,16(sp)
    9480:	06051863          	bnez	a0,94f0 <_dtoa_r+0x4d8>
    9484:	0000d6b7          	lui	a3,0xd
    9488:	fc468693          	addi	a3,a3,-60 # cfc4 <_ctype_+0x220>
    948c:	00000613          	li	a2,0
    9490:	1aa00593          	li	a1,426
    9494:	c0dff06f          	j	90a0 <_dtoa_r+0x88>
    9498:	00012e23          	sw	zero,28(sp)
    949c:	fa5ff06f          	j	9440 <_dtoa_r+0x428>
    94a0:	00100793          	li	a5,1
    94a4:	00f12e23          	sw	a5,28(sp)
    94a8:	02012783          	lw	a5,32(sp)
    94ac:	00f40db3          	add	s11,s0,a5
    94b0:	001d8d13          	addi	s10,s11,1
    94b4:	000d0793          	mv	a5,s10
    94b8:	fba042e3          	bgtz	s10,945c <_dtoa_r+0x444>
    94bc:	00100793          	li	a5,1
    94c0:	f9dff06f          	j	945c <_dtoa_r+0x444>
    94c4:	00100913          	li	s2,1
    94c8:	00012a23          	sw	zero,20(sp)
    94cc:	eedff06f          	j	93b8 <_dtoa_r+0x3a0>
    94d0:	02012d83          	lw	s11,32(sp)
    94d4:	000d8d13          	mv	s10,s11
    94d8:	000d8793          	mv	a5,s11
    94dc:	f81ff06f          	j	945c <_dtoa_r+0x444>
    94e0:	00158593          	addi	a1,a1,1
    94e4:	00b6a223          	sw	a1,4(a3)
    94e8:	00171713          	slli	a4,a4,0x1
    94ec:	f7dff06f          	j	9468 <_dtoa_r+0x450>
    94f0:	0244a783          	lw	a5,36(s1)
    94f4:	01012703          	lw	a4,16(sp)
    94f8:	00e7a023          	sw	a4,0(a5) # fe100000 <CONFIG_SYSTEM_WORKQUEUE_PRIORITY+0xfe100001>
    94fc:	00e00793          	li	a5,14
    9500:	19a7ea63          	bltu	a5,s10,9694 <_dtoa_r+0x67c>
    9504:	18090863          	beqz	s2,9694 <_dtoa_r+0x67c>
    9508:	24805263          	blez	s0,974c <_dtoa_r+0x734>
    950c:	00f47793          	andi	a5,s0,15
    9510:	0000d737          	lui	a4,0xd
    9514:	9a870713          	addi	a4,a4,-1624 # c9a8 <__mprec_tens>
    9518:	00379793          	slli	a5,a5,0x3
    951c:	40445a93          	srai	s5,s0,0x4
    9520:	00e787b3          	add	a5,a5,a4
    9524:	0000d937          	lui	s2,0xd
    9528:	010af693          	andi	a3,s5,16
    952c:	0007a703          	lw	a4,0(a5)
    9530:	98090913          	addi	s2,s2,-1664 # c980 <__mprec_bigtens>
    9534:	0047a783          	lw	a5,4(a5)
    9538:	00200a13          	li	s4,2
    953c:	02068c63          	beqz	a3,9574 <_dtoa_r+0x55c>
    9540:	02092603          	lw	a2,32(s2)
    9544:	02492683          	lw	a3,36(s2)
    9548:	02c12503          	lw	a0,44(sp)
    954c:	03012583          	lw	a1,48(sp)
    9550:	02f12e23          	sw	a5,60(sp)
    9554:	00e12c23          	sw	a4,24(sp)
    9558:	df5f70ef          	jal	ra,134c <__divdf3>
    955c:	03c12783          	lw	a5,60(sp)
    9560:	01812703          	lw	a4,24(sp)
    9564:	00fafa93          	andi	s5,s5,15
    9568:	00050993          	mv	s3,a0
    956c:	00058b13          	mv	s6,a1
    9570:	00300a13          	li	s4,3
    9574:	1a0a9263          	bnez	s5,9718 <_dtoa_r+0x700>
    9578:	00098513          	mv	a0,s3
    957c:	00070613          	mv	a2,a4
    9580:	00078693          	mv	a3,a5
    9584:	000b0593          	mv	a1,s6
    9588:	dc5f70ef          	jal	ra,134c <__divdf3>
    958c:	00050993          	mv	s3,a0
    9590:	00058b13          	mv	s6,a1
    9594:	03412783          	lw	a5,52(sp)
    9598:	24078263          	beqz	a5,97dc <_dtoa_r+0x7c4>
    959c:	0000c7b7          	lui	a5,0xc
    95a0:	7007a603          	lw	a2,1792(a5) # c700 <__device_handles_end+0x3c>
    95a4:	7047a683          	lw	a3,1796(a5)
    95a8:	00098513          	mv	a0,s3
    95ac:	000b0593          	mv	a1,s6
    95b0:	8d0fa0ef          	jal	ra,3680 <__ledf2>
    95b4:	22055463          	bgez	a0,97dc <_dtoa_r+0x7c4>
    95b8:	220d0863          	beqz	s10,97e8 <_dtoa_r+0x7d0>
    95bc:	0db05863          	blez	s11,968c <_dtoa_r+0x674>
    95c0:	fff40793          	addi	a5,s0,-1
    95c4:	00f12c23          	sw	a5,24(sp)
    95c8:	0000c7b7          	lui	a5,0xc
    95cc:	7687a603          	lw	a2,1896(a5) # c768 <__device_handles_end+0xa4>
    95d0:	76c7a683          	lw	a3,1900(a5)
    95d4:	00098513          	mv	a0,s3
    95d8:	000b0593          	mv	a1,s6
    95dc:	c50f80ef          	jal	ra,1a2c <__muldf3>
    95e0:	00050993          	mv	s3,a0
    95e4:	00058b13          	mv	s6,a1
    95e8:	001a0a13          	addi	s4,s4,1
    95ec:	000d8713          	mv	a4,s11
    95f0:	000a0513          	mv	a0,s4
    95f4:	04e12423          	sw	a4,72(sp)
    95f8:	03612e23          	sw	s6,60(sp)
    95fc:	05312023          	sw	s3,64(sp)
    9600:	a30fa0ef          	jal	ra,3830 <__floatsidf>
    9604:	000b0693          	mv	a3,s6
    9608:	00098613          	mv	a2,s3
    960c:	c20f80ef          	jal	ra,1a2c <__muldf3>
    9610:	0000c6b7          	lui	a3,0xc
    9614:	7706a603          	lw	a2,1904(a3) # c770 <__device_handles_end+0xac>
    9618:	7746a683          	lw	a3,1908(a3)
    961c:	000b0913          	mv	s2,s6
    9620:	00098a93          	mv	s5,s3
    9624:	d50f70ef          	jal	ra,b74 <__adddf3>
    9628:	04812703          	lw	a4,72(sp)
    962c:	fcc008b7          	lui	a7,0xfcc00
    9630:	00050b13          	mv	s6,a0
    9634:	00b88a33          	add	s4,a7,a1
    9638:	1a071e63          	bnez	a4,97f4 <_dtoa_r+0x7dc>
    963c:	0000c737          	lui	a4,0xc
    9640:	77872603          	lw	a2,1912(a4) # c778 <__device_handles_end+0xb4>
    9644:	77c72683          	lw	a3,1916(a4)
    9648:	00098513          	mv	a0,s3
    964c:	00090593          	mv	a1,s2
    9650:	9a5f80ef          	jal	ra,1ff4 <__subdf3>
    9654:	000b0613          	mv	a2,s6
    9658:	000a0693          	mv	a3,s4
    965c:	00050993          	mv	s3,a0
    9660:	00058913          	mv	s2,a1
    9664:	f39f90ef          	jal	ra,359c <__gedf2>
    9668:	06a040e3          	bgtz	a0,9ec8 <_dtoa_r+0xeb0>
    966c:	800007b7          	lui	a5,0x80000
    9670:	0147c7b3          	xor	a5,a5,s4
    9674:	000b0613          	mv	a2,s6
    9678:	00078693          	mv	a3,a5
    967c:	00098513          	mv	a0,s3
    9680:	00090593          	mv	a1,s2
    9684:	ffdf90ef          	jal	ra,3680 <__ledf2>
    9688:	02054ae3          	bltz	a0,9ebc <_dtoa_r+0xea4>
    968c:	02c12983          	lw	s3,44(sp)
    9690:	03012b03          	lw	s6,48(sp)
    9694:	06c12783          	lw	a5,108(sp)
    9698:	4e07cc63          	bltz	a5,9b90 <_dtoa_r+0xb78>
    969c:	00e00713          	li	a4,14
    96a0:	4e874863          	blt	a4,s0,9b90 <_dtoa_r+0xb78>
    96a4:	0000d737          	lui	a4,0xd
    96a8:	00341793          	slli	a5,s0,0x3
    96ac:	9a870713          	addi	a4,a4,-1624 # c9a8 <__mprec_tens>
    96b0:	00e787b3          	add	a5,a5,a4
    96b4:	0007aa03          	lw	s4,0(a5) # 80000000 <CONFIG_SYSTEM_WORKQUEUE_PRIORITY+0x80000001>
    96b8:	0047aa83          	lw	s5,4(a5)
    96bc:	02012783          	lw	a5,32(sp)
    96c0:	3607de63          	bgez	a5,9a3c <_dtoa_r+0xa24>
    96c4:	37a04c63          	bgtz	s10,9a3c <_dtoa_r+0xa24>
    96c8:	7e0d1a63          	bnez	s10,9ebc <_dtoa_r+0xea4>
    96cc:	0000c7b7          	lui	a5,0xc
    96d0:	7787a603          	lw	a2,1912(a5) # c778 <__device_handles_end+0xb4>
    96d4:	77c7a683          	lw	a3,1916(a5)
    96d8:	000a0513          	mv	a0,s4
    96dc:	000a8593          	mv	a1,s5
    96e0:	b4cf80ef          	jal	ra,1a2c <__muldf3>
    96e4:	00098613          	mv	a2,s3
    96e8:	000b0693          	mv	a3,s6
    96ec:	eb1f90ef          	jal	ra,359c <__gedf2>
    96f0:	00000a13          	li	s4,0
    96f4:	00000913          	li	s2,0
    96f8:	78055063          	bgez	a0,9e78 <_dtoa_r+0xe60>
    96fc:	01012783          	lw	a5,16(sp)
    9700:	01012703          	lw	a4,16(sp)
    9704:	00140413          	addi	s0,s0,1
    9708:	00178993          	addi	s3,a5,1
    970c:	03100793          	li	a5,49
    9710:	00f70023          	sb	a5,0(a4)
    9714:	7700006f          	j	9e84 <_dtoa_r+0xe6c>
    9718:	001af693          	andi	a3,s5,1
    971c:	02068263          	beqz	a3,9740 <_dtoa_r+0x728>
    9720:	00092603          	lw	a2,0(s2)
    9724:	00492683          	lw	a3,4(s2)
    9728:	00070513          	mv	a0,a4
    972c:	00078593          	mv	a1,a5
    9730:	afcf80ef          	jal	ra,1a2c <__muldf3>
    9734:	001a0a13          	addi	s4,s4,1
    9738:	00050713          	mv	a4,a0
    973c:	00058793          	mv	a5,a1
    9740:	401ada93          	srai	s5,s5,0x1
    9744:	00890913          	addi	s2,s2,8
    9748:	e2dff06f          	j	9574 <_dtoa_r+0x55c>
    974c:	00200a13          	li	s4,2
    9750:	e40402e3          	beqz	s0,9594 <_dtoa_r+0x57c>
    9754:	40800933          	neg	s2,s0
    9758:	00f97793          	andi	a5,s2,15
    975c:	0000d737          	lui	a4,0xd
    9760:	9a870713          	addi	a4,a4,-1624 # c9a8 <__mprec_tens>
    9764:	00379793          	slli	a5,a5,0x3
    9768:	00e787b3          	add	a5,a5,a4
    976c:	0007a603          	lw	a2,0(a5)
    9770:	0047a683          	lw	a3,4(a5)
    9774:	02c12503          	lw	a0,44(sp)
    9778:	03012583          	lw	a1,48(sp)
    977c:	0000dab7          	lui	s5,0xd
    9780:	40495913          	srai	s2,s2,0x4
    9784:	aa8f80ef          	jal	ra,1a2c <__muldf3>
    9788:	00050793          	mv	a5,a0
    978c:	00050993          	mv	s3,a0
    9790:	00058b13          	mv	s6,a1
    9794:	980a8a93          	addi	s5,s5,-1664 # c980 <__mprec_bigtens>
    9798:	00000713          	li	a4,0
    979c:	00091863          	bnez	s2,97ac <_dtoa_r+0x794>
    97a0:	de070ae3          	beqz	a4,9594 <_dtoa_r+0x57c>
    97a4:	00078993          	mv	s3,a5
    97a8:	de9ff06f          	j	9590 <_dtoa_r+0x578>
    97ac:	00197693          	andi	a3,s2,1
    97b0:	02068063          	beqz	a3,97d0 <_dtoa_r+0x7b8>
    97b4:	000aa603          	lw	a2,0(s5)
    97b8:	004aa683          	lw	a3,4(s5)
    97bc:	00078513          	mv	a0,a5
    97c0:	001a0a13          	addi	s4,s4,1
    97c4:	a68f80ef          	jal	ra,1a2c <__muldf3>
    97c8:	00050793          	mv	a5,a0
    97cc:	00100713          	li	a4,1
    97d0:	40195913          	srai	s2,s2,0x1
    97d4:	008a8a93          	addi	s5,s5,8
    97d8:	fc5ff06f          	j	979c <_dtoa_r+0x784>
    97dc:	00812c23          	sw	s0,24(sp)
    97e0:	000d0713          	mv	a4,s10
    97e4:	e0dff06f          	j	95f0 <_dtoa_r+0x5d8>
    97e8:	00812c23          	sw	s0,24(sp)
    97ec:	00000713          	li	a4,0
    97f0:	e01ff06f          	j	95f0 <_dtoa_r+0x5d8>
    97f4:	fff70793          	addi	a5,a4,-1
    97f8:	0000d6b7          	lui	a3,0xd
    97fc:	9a868693          	addi	a3,a3,-1624 # c9a8 <__mprec_tens>
    9800:	00379793          	slli	a5,a5,0x3
    9804:	00d787b3          	add	a5,a5,a3
    9808:	0007a603          	lw	a2,0(a5)
    980c:	0047a683          	lw	a3,4(a5)
    9810:	01012783          	lw	a5,16(sp)
    9814:	00e787b3          	add	a5,a5,a4
    9818:	02f12e23          	sw	a5,60(sp)
    981c:	01c12783          	lw	a5,28(sp)
    9820:	10078863          	beqz	a5,9930 <_dtoa_r+0x918>
    9824:	0000c7b7          	lui	a5,0xc
    9828:	7847a583          	lw	a1,1924(a5) # c784 <__device_handles_end+0xc0>
    982c:	04a12023          	sw	a0,64(sp)
    9830:	7807a503          	lw	a0,1920(a5)
    9834:	b19f70ef          	jal	ra,134c <__divdf3>
    9838:	000b0613          	mv	a2,s6
    983c:	000a0693          	mv	a3,s4
    9840:	fb4f80ef          	jal	ra,1ff4 <__subdf3>
    9844:	0000c7b7          	lui	a5,0xc
    9848:	7047a803          	lw	a6,1796(a5) # c704 <__device_handles_end+0x40>
    984c:	7007a783          	lw	a5,1792(a5)
    9850:	01012983          	lw	s3,16(sp)
    9854:	05012623          	sw	a6,76(sp)
    9858:	04f12423          	sw	a5,72(sp)
    985c:	0000c7b7          	lui	a5,0xc
    9860:	76c7a803          	lw	a6,1900(a5) # c76c <__device_handles_end+0xa8>
    9864:	7687a783          	lw	a5,1896(a5)
    9868:	00050a13          	mv	s4,a0
    986c:	00058b13          	mv	s6,a1
    9870:	04f12023          	sw	a5,64(sp)
    9874:	05012223          	sw	a6,68(sp)
    9878:	00090593          	mv	a1,s2
    987c:	000a8513          	mv	a0,s5
    9880:	f31f90ef          	jal	ra,37b0 <__fixdfsi>
    9884:	04a12823          	sw	a0,80(sp)
    9888:	fa9f90ef          	jal	ra,3830 <__floatsidf>
    988c:	00050613          	mv	a2,a0
    9890:	00058693          	mv	a3,a1
    9894:	000a8513          	mv	a0,s5
    9898:	00090593          	mv	a1,s2
    989c:	f58f80ef          	jal	ra,1ff4 <__subdf3>
    98a0:	05012783          	lw	a5,80(sp)
    98a4:	00198993          	addi	s3,s3,1
    98a8:	000a0613          	mv	a2,s4
    98ac:	03078793          	addi	a5,a5,48
    98b0:	fef98fa3          	sb	a5,-1(s3)
    98b4:	000b0693          	mv	a3,s6
    98b8:	00050913          	mv	s2,a0
    98bc:	00058a93          	mv	s5,a1
    98c0:	dc1f90ef          	jal	ra,3680 <__ledf2>
    98c4:	14054c63          	bltz	a0,9a1c <_dtoa_r+0xa04>
    98c8:	04812503          	lw	a0,72(sp)
    98cc:	04c12583          	lw	a1,76(sp)
    98d0:	00090613          	mv	a2,s2
    98d4:	000a8693          	mv	a3,s5
    98d8:	f1cf80ef          	jal	ra,1ff4 <__subdf3>
    98dc:	000a0613          	mv	a2,s4
    98e0:	000b0693          	mv	a3,s6
    98e4:	d9df90ef          	jal	ra,3680 <__ledf2>
    98e8:	22054c63          	bltz	a0,9b20 <_dtoa_r+0xb08>
    98ec:	03c12783          	lw	a5,60(sp)
    98f0:	d8f98ee3          	beq	s3,a5,968c <_dtoa_r+0x674>
    98f4:	04012603          	lw	a2,64(sp)
    98f8:	04412683          	lw	a3,68(sp)
    98fc:	000a0513          	mv	a0,s4
    9900:	000b0593          	mv	a1,s6
    9904:	928f80ef          	jal	ra,1a2c <__muldf3>
    9908:	04012603          	lw	a2,64(sp)
    990c:	04412683          	lw	a3,68(sp)
    9910:	00050a13          	mv	s4,a0
    9914:	00058b13          	mv	s6,a1
    9918:	00090513          	mv	a0,s2
    991c:	000a8593          	mv	a1,s5
    9920:	90cf80ef          	jal	ra,1a2c <__muldf3>
    9924:	00050a93          	mv	s5,a0
    9928:	00058913          	mv	s2,a1
    992c:	f4dff06f          	j	9878 <_dtoa_r+0x860>
    9930:	000a0593          	mv	a1,s4
    9934:	8f8f80ef          	jal	ra,1a2c <__muldf3>
    9938:	03c12783          	lw	a5,60(sp)
    993c:	01012983          	lw	s3,16(sp)
    9940:	04a12423          	sw	a0,72(sp)
    9944:	04f12023          	sw	a5,64(sp)
    9948:	0000c7b7          	lui	a5,0xc
    994c:	76c7a803          	lw	a6,1900(a5) # c76c <__device_handles_end+0xa8>
    9950:	7687a783          	lw	a5,1896(a5)
    9954:	00058b13          	mv	s6,a1
    9958:	05012a23          	sw	a6,84(sp)
    995c:	04f12823          	sw	a5,80(sp)
    9960:	00090593          	mv	a1,s2
    9964:	000a8513          	mv	a0,s5
    9968:	e49f90ef          	jal	ra,37b0 <__fixdfsi>
    996c:	04a12e23          	sw	a0,92(sp)
    9970:	ec1f90ef          	jal	ra,3830 <__floatsidf>
    9974:	00050613          	mv	a2,a0
    9978:	00058693          	mv	a3,a1
    997c:	000a8513          	mv	a0,s5
    9980:	00090593          	mv	a1,s2
    9984:	e70f80ef          	jal	ra,1ff4 <__subdf3>
    9988:	05c12783          	lw	a5,92(sp)
    998c:	00198993          	addi	s3,s3,1
    9990:	00050a13          	mv	s4,a0
    9994:	03078793          	addi	a5,a5,48
    9998:	fef98fa3          	sb	a5,-1(s3)
    999c:	03c12783          	lw	a5,60(sp)
    99a0:	00058913          	mv	s2,a1
    99a4:	08f99063          	bne	s3,a5,9a24 <_dtoa_r+0xa0c>
    99a8:	0000cab7          	lui	s5,0xc
    99ac:	780aa603          	lw	a2,1920(s5) # c780 <__device_handles_end+0xbc>
    99b0:	784aa683          	lw	a3,1924(s5)
    99b4:	04812503          	lw	a0,72(sp)
    99b8:	000b0593          	mv	a1,s6
    99bc:	9b8f70ef          	jal	ra,b74 <__adddf3>
    99c0:	00050613          	mv	a2,a0
    99c4:	00058693          	mv	a3,a1
    99c8:	000a0513          	mv	a0,s4
    99cc:	00090593          	mv	a1,s2
    99d0:	bcdf90ef          	jal	ra,359c <__gedf2>
    99d4:	14a04663          	bgtz	a0,9b20 <_dtoa_r+0xb08>
    99d8:	04812603          	lw	a2,72(sp)
    99dc:	780aa503          	lw	a0,1920(s5)
    99e0:	784aa583          	lw	a1,1924(s5)
    99e4:	000b0693          	mv	a3,s6
    99e8:	e0cf80ef          	jal	ra,1ff4 <__subdf3>
    99ec:	00050613          	mv	a2,a0
    99f0:	00058693          	mv	a3,a1
    99f4:	000a0513          	mv	a0,s4
    99f8:	00090593          	mv	a1,s2
    99fc:	c85f90ef          	jal	ra,3680 <__ledf2>
    9a00:	c80556e3          	bgez	a0,968c <_dtoa_r+0x674>
    9a04:	03000793          	li	a5,48
    9a08:	04012983          	lw	s3,64(sp)
    9a0c:	fff98713          	addi	a4,s3,-1
    9a10:	04e12023          	sw	a4,64(sp)
    9a14:	fff9c703          	lbu	a4,-1(s3)
    9a18:	fef708e3          	beq	a4,a5,9a08 <_dtoa_r+0x9f0>
    9a1c:	01812403          	lw	s0,24(sp)
    9a20:	0d00006f          	j	9af0 <_dtoa_r+0xad8>
    9a24:	05012603          	lw	a2,80(sp)
    9a28:	05412683          	lw	a3,84(sp)
    9a2c:	800f80ef          	jal	ra,1a2c <__muldf3>
    9a30:	00050a93          	mv	s5,a0
    9a34:	00058913          	mv	s2,a1
    9a38:	f29ff06f          	j	9960 <_dtoa_r+0x948>
    9a3c:	01012783          	lw	a5,16(sp)
    9a40:	000b0c93          	mv	s9,s6
    9a44:	00098d93          	mv	s11,s3
    9a48:	00178c13          	addi	s8,a5,1
    9a4c:	01a78d33          	add	s10,a5,s10
    9a50:	0000c7b7          	lui	a5,0xc
    9a54:	7687ab03          	lw	s6,1896(a5) # c768 <__device_handles_end+0xa4>
    9a58:	76c7ab83          	lw	s7,1900(a5)
    9a5c:	000a0613          	mv	a2,s4
    9a60:	000a8693          	mv	a3,s5
    9a64:	000d8513          	mv	a0,s11
    9a68:	000c8593          	mv	a1,s9
    9a6c:	8e1f70ef          	jal	ra,134c <__divdf3>
    9a70:	d41f90ef          	jal	ra,37b0 <__fixdfsi>
    9a74:	00050913          	mv	s2,a0
    9a78:	db9f90ef          	jal	ra,3830 <__floatsidf>
    9a7c:	000a0613          	mv	a2,s4
    9a80:	000a8693          	mv	a3,s5
    9a84:	fa9f70ef          	jal	ra,1a2c <__muldf3>
    9a88:	00058693          	mv	a3,a1
    9a8c:	00050613          	mv	a2,a0
    9a90:	000c8593          	mv	a1,s9
    9a94:	000d8513          	mv	a0,s11
    9a98:	d5cf80ef          	jal	ra,1ff4 <__subdf3>
    9a9c:	03090693          	addi	a3,s2,48
    9aa0:	fedc0fa3          	sb	a3,-1(s8)
    9aa4:	000c0993          	mv	s3,s8
    9aa8:	0b8d1e63          	bne	s10,s8,9b64 <_dtoa_r+0xb4c>
    9aac:	00050613          	mv	a2,a0
    9ab0:	00058693          	mv	a3,a1
    9ab4:	8c0f70ef          	jal	ra,b74 <__adddf3>
    9ab8:	000a0613          	mv	a2,s4
    9abc:	000a8693          	mv	a3,s5
    9ac0:	00050b93          	mv	s7,a0
    9ac4:	00058b13          	mv	s6,a1
    9ac8:	ad5f90ef          	jal	ra,359c <__gedf2>
    9acc:	04a04863          	bgtz	a0,9b1c <_dtoa_r+0xb04>
    9ad0:	000a0613          	mv	a2,s4
    9ad4:	000a8693          	mv	a3,s5
    9ad8:	000b8513          	mv	a0,s7
    9adc:	000b0593          	mv	a1,s6
    9ae0:	a31f90ef          	jal	ra,3510 <__eqdf2>
    9ae4:	00051663          	bnez	a0,9af0 <_dtoa_r+0xad8>
    9ae8:	00197913          	andi	s2,s2,1
    9aec:	02091863          	bnez	s2,9b1c <_dtoa_r+0xb04>
    9af0:	00c12583          	lw	a1,12(sp)
    9af4:	00048513          	mv	a0,s1
    9af8:	3d9000ef          	jal	ra,a6d0 <_Bfree>
    9afc:	03812783          	lw	a5,56(sp)
    9b00:	00098023          	sb	zero,0(s3)
    9b04:	00140513          	addi	a0,s0,1
    9b08:	00a7a023          	sw	a0,0(a5)
    9b0c:	02412783          	lw	a5,36(sp)
    9b10:	e4078a63          	beqz	a5,9164 <_dtoa_r+0x14c>
    9b14:	0137a023          	sw	s3,0(a5)
    9b18:	e4cff06f          	j	9164 <_dtoa_r+0x14c>
    9b1c:	00812c23          	sw	s0,24(sp)
    9b20:	00098793          	mv	a5,s3
    9b24:	03900713          	li	a4,57
    9b28:	00078993          	mv	s3,a5
    9b2c:	fff7c683          	lbu	a3,-1(a5)
    9b30:	fff78793          	addi	a5,a5,-1
    9b34:	02e69063          	bne	a3,a4,9b54 <_dtoa_r+0xb3c>
    9b38:	01012683          	lw	a3,16(sp)
    9b3c:	fef696e3          	bne	a3,a5,9b28 <_dtoa_r+0xb10>
    9b40:	01812703          	lw	a4,24(sp)
    9b44:	00170713          	addi	a4,a4,1
    9b48:	00e12c23          	sw	a4,24(sp)
    9b4c:	03000713          	li	a4,48
    9b50:	00e68023          	sb	a4,0(a3)
    9b54:	0007c703          	lbu	a4,0(a5)
    9b58:	00170713          	addi	a4,a4,1
    9b5c:	00e78023          	sb	a4,0(a5)
    9b60:	ebdff06f          	j	9a1c <_dtoa_r+0xa04>
    9b64:	000b0613          	mv	a2,s6
    9b68:	000b8693          	mv	a3,s7
    9b6c:	ec1f70ef          	jal	ra,1a2c <__muldf3>
    9b70:	00000613          	li	a2,0
    9b74:	00000693          	li	a3,0
    9b78:	00050d93          	mv	s11,a0
    9b7c:	00058c93          	mv	s9,a1
    9b80:	001c0c13          	addi	s8,s8,1
    9b84:	98df90ef          	jal	ra,3510 <__eqdf2>
    9b88:	ec051ae3          	bnez	a0,9a5c <_dtoa_r+0xa44>
    9b8c:	f65ff06f          	j	9af0 <_dtoa_r+0xad8>
    9b90:	01c12703          	lw	a4,28(sp)
    9b94:	16070c63          	beqz	a4,9d0c <_dtoa_r+0xcf4>
    9b98:	01412683          	lw	a3,20(sp)
    9b9c:	00100713          	li	a4,1
    9ba0:	12d74463          	blt	a4,a3,9cc8 <_dtoa_r+0xcb0>
    9ba4:	05812703          	lw	a4,88(sp)
    9ba8:	43378793          	addi	a5,a5,1075
    9bac:	00071863          	bnez	a4,9bbc <_dtoa_r+0xba4>
    9bb0:	06812703          	lw	a4,104(sp)
    9bb4:	03600793          	li	a5,54
    9bb8:	40e787b3          	sub	a5,a5,a4
    9bbc:	000c8a13          	mv	s4,s9
    9bc0:	000b8a93          	mv	s5,s7
    9bc4:	00100593          	li	a1,1
    9bc8:	00048513          	mv	a0,s1
    9bcc:	00fb8bb3          	add	s7,s7,a5
    9bd0:	00fc0c33          	add	s8,s8,a5
    9bd4:	5d5000ef          	jal	ra,a9a8 <__i2b>
    9bd8:	00050913          	mv	s2,a0
    9bdc:	03505063          	blez	s5,9bfc <_dtoa_r+0xbe4>
    9be0:	01805e63          	blez	s8,9bfc <_dtoa_r+0xbe4>
    9be4:	000a8793          	mv	a5,s5
    9be8:	015c5463          	bge	s8,s5,9bf0 <_dtoa_r+0xbd8>
    9bec:	000c0793          	mv	a5,s8
    9bf0:	40fb8bb3          	sub	s7,s7,a5
    9bf4:	40fa8ab3          	sub	s5,s5,a5
    9bf8:	40fc0c33          	sub	s8,s8,a5
    9bfc:	060c8263          	beqz	s9,9c60 <_dtoa_r+0xc48>
    9c00:	01c12783          	lw	a5,28(sp)
    9c04:	10078c63          	beqz	a5,9d1c <_dtoa_r+0xd04>
    9c08:	05405063          	blez	s4,9c48 <_dtoa_r+0xc30>
    9c0c:	00090593          	mv	a1,s2
    9c10:	000a0613          	mv	a2,s4
    9c14:	00048513          	mv	a0,s1
    9c18:	7ed000ef          	jal	ra,ac04 <__pow5mult>
    9c1c:	00c12603          	lw	a2,12(sp)
    9c20:	00050593          	mv	a1,a0
    9c24:	00050913          	mv	s2,a0
    9c28:	00048513          	mv	a0,s1
    9c2c:	5d1000ef          	jal	ra,a9fc <__multiply>
    9c30:	00c12583          	lw	a1,12(sp)
    9c34:	00a12c23          	sw	a0,24(sp)
    9c38:	00048513          	mv	a0,s1
    9c3c:	295000ef          	jal	ra,a6d0 <_Bfree>
    9c40:	01812783          	lw	a5,24(sp)
    9c44:	00f12623          	sw	a5,12(sp)
    9c48:	414c8633          	sub	a2,s9,s4
    9c4c:	014c8a63          	beq	s9,s4,9c60 <_dtoa_r+0xc48>
    9c50:	00c12583          	lw	a1,12(sp)
    9c54:	00048513          	mv	a0,s1
    9c58:	7ad000ef          	jal	ra,ac04 <__pow5mult>
    9c5c:	00a12623          	sw	a0,12(sp)
    9c60:	00100593          	li	a1,1
    9c64:	00048513          	mv	a0,s1
    9c68:	541000ef          	jal	ra,a9a8 <__i2b>
    9c6c:	02812783          	lw	a5,40(sp)
    9c70:	00050a13          	mv	s4,a0
    9c74:	0af05863          	blez	a5,9d24 <_dtoa_r+0xd0c>
    9c78:	00078613          	mv	a2,a5
    9c7c:	00050593          	mv	a1,a0
    9c80:	00048513          	mv	a0,s1
    9c84:	781000ef          	jal	ra,ac04 <__pow5mult>
    9c88:	01412703          	lw	a4,20(sp)
    9c8c:	00100793          	li	a5,1
    9c90:	00050a13          	mv	s4,a0
    9c94:	00000c93          	li	s9,0
    9c98:	0ae7c463          	blt	a5,a4,9d40 <_dtoa_r+0xd28>
    9c9c:	00000c93          	li	s9,0
    9ca0:	08099a63          	bnez	s3,9d34 <_dtoa_r+0xd1c>
    9ca4:	00cb1793          	slli	a5,s6,0xc
    9ca8:	08079663          	bnez	a5,9d34 <_dtoa_r+0xd1c>
    9cac:	7ff005b7          	lui	a1,0x7ff00
    9cb0:	00bb7b33          	and	s6,s6,a1
    9cb4:	080b0063          	beqz	s6,9d34 <_dtoa_r+0xd1c>
    9cb8:	001b8b93          	addi	s7,s7,1
    9cbc:	001c0c13          	addi	s8,s8,1
    9cc0:	00100c93          	li	s9,1
    9cc4:	0700006f          	j	9d34 <_dtoa_r+0xd1c>
    9cc8:	fffd0a13          	addi	s4,s10,-1
    9ccc:	014ccc63          	blt	s9,s4,9ce4 <_dtoa_r+0xccc>
    9cd0:	414c8a33          	sub	s4,s9,s4
    9cd4:	020d5663          	bgez	s10,9d00 <_dtoa_r+0xce8>
    9cd8:	41ab8ab3          	sub	s5,s7,s10
    9cdc:	00000793          	li	a5,0
    9ce0:	ee5ff06f          	j	9bc4 <_dtoa_r+0xbac>
    9ce4:	02812783          	lw	a5,40(sp)
    9ce8:	419a0cb3          	sub	s9,s4,s9
    9cec:	019787b3          	add	a5,a5,s9
    9cf0:	02f12423          	sw	a5,40(sp)
    9cf4:	000a0c93          	mv	s9,s4
    9cf8:	00000a13          	li	s4,0
    9cfc:	fd9ff06f          	j	9cd4 <_dtoa_r+0xcbc>
    9d00:	000b8a93          	mv	s5,s7
    9d04:	000d0793          	mv	a5,s10
    9d08:	ebdff06f          	j	9bc4 <_dtoa_r+0xbac>
    9d0c:	000c8a13          	mv	s4,s9
    9d10:	000b8a93          	mv	s5,s7
    9d14:	00000913          	li	s2,0
    9d18:	ec5ff06f          	j	9bdc <_dtoa_r+0xbc4>
    9d1c:	000c8613          	mv	a2,s9
    9d20:	f31ff06f          	j	9c50 <_dtoa_r+0xc38>
    9d24:	01412703          	lw	a4,20(sp)
    9d28:	00100793          	li	a5,1
    9d2c:	00000c93          	li	s9,0
    9d30:	f6e7d6e3          	bge	a5,a4,9c9c <_dtoa_r+0xc84>
    9d34:	02812783          	lw	a5,40(sp)
    9d38:	00100513          	li	a0,1
    9d3c:	02078263          	beqz	a5,9d60 <_dtoa_r+0xd48>
    9d40:	010a2783          	lw	a5,16(s4)
    9d44:	00378793          	addi	a5,a5,3
    9d48:	00279793          	slli	a5,a5,0x2
    9d4c:	00fa07b3          	add	a5,s4,a5
    9d50:	0047a503          	lw	a0,4(a5)
    9d54:	331000ef          	jal	ra,a884 <__hi0bits>
    9d58:	02000793          	li	a5,32
    9d5c:	40a78533          	sub	a0,a5,a0
    9d60:	00ac0533          	add	a0,s8,a0
    9d64:	01f57513          	andi	a0,a0,31
    9d68:	0c050463          	beqz	a0,9e30 <_dtoa_r+0xe18>
    9d6c:	02000793          	li	a5,32
    9d70:	40a787b3          	sub	a5,a5,a0
    9d74:	00400713          	li	a4,4
    9d78:	0af75863          	bge	a4,a5,9e28 <_dtoa_r+0xe10>
    9d7c:	01c00793          	li	a5,28
    9d80:	40a78533          	sub	a0,a5,a0
    9d84:	00ab8bb3          	add	s7,s7,a0
    9d88:	00aa8ab3          	add	s5,s5,a0
    9d8c:	00ac0c33          	add	s8,s8,a0
    9d90:	01705c63          	blez	s7,9da8 <_dtoa_r+0xd90>
    9d94:	00c12583          	lw	a1,12(sp)
    9d98:	000b8613          	mv	a2,s7
    9d9c:	00048513          	mv	a0,s1
    9da0:	7a9000ef          	jal	ra,ad48 <__lshift>
    9da4:	00a12623          	sw	a0,12(sp)
    9da8:	01805c63          	blez	s8,9dc0 <_dtoa_r+0xda8>
    9dac:	000a0593          	mv	a1,s4
    9db0:	000c0613          	mv	a2,s8
    9db4:	00048513          	mv	a0,s1
    9db8:	791000ef          	jal	ra,ad48 <__lshift>
    9dbc:	00050a13          	mv	s4,a0
    9dc0:	03412783          	lw	a5,52(sp)
    9dc4:	06078a63          	beqz	a5,9e38 <_dtoa_r+0xe20>
    9dc8:	00c12503          	lw	a0,12(sp)
    9dcc:	000a0593          	mv	a1,s4
    9dd0:	0fc010ef          	jal	ra,aecc <__mcmp>
    9dd4:	06055263          	bgez	a0,9e38 <_dtoa_r+0xe20>
    9dd8:	00c12583          	lw	a1,12(sp)
    9ddc:	00000693          	li	a3,0
    9de0:	00a00613          	li	a2,10
    9de4:	00048513          	mv	a0,s1
    9de8:	17d000ef          	jal	ra,a764 <__multadd>
    9dec:	01c12783          	lw	a5,28(sp)
    9df0:	00a12623          	sw	a0,12(sp)
    9df4:	fff40413          	addi	s0,s0,-1
    9df8:	3a078263          	beqz	a5,a19c <_dtoa_r+0x1184>
    9dfc:	00090593          	mv	a1,s2
    9e00:	00000693          	li	a3,0
    9e04:	00a00613          	li	a2,10
    9e08:	00048513          	mv	a0,s1
    9e0c:	159000ef          	jal	ra,a764 <__multadd>
    9e10:	00050913          	mv	s2,a0
    9e14:	0db04863          	bgtz	s11,9ee4 <_dtoa_r+0xecc>
    9e18:	01412703          	lw	a4,20(sp)
    9e1c:	00200793          	li	a5,2
    9e20:	02e7c663          	blt	a5,a4,9e4c <_dtoa_r+0xe34>
    9e24:	0c00006f          	j	9ee4 <_dtoa_r+0xecc>
    9e28:	f6e784e3          	beq	a5,a4,9d90 <_dtoa_r+0xd78>
    9e2c:	00078513          	mv	a0,a5
    9e30:	01c50513          	addi	a0,a0,28
    9e34:	f51ff06f          	j	9d84 <_dtoa_r+0xd6c>
    9e38:	0ba04063          	bgtz	s10,9ed8 <_dtoa_r+0xec0>
    9e3c:	01412703          	lw	a4,20(sp)
    9e40:	00200793          	li	a5,2
    9e44:	08e7da63          	bge	a5,a4,9ed8 <_dtoa_r+0xec0>
    9e48:	000d0d93          	mv	s11,s10
    9e4c:	020d9663          	bnez	s11,9e78 <_dtoa_r+0xe60>
    9e50:	000a0593          	mv	a1,s4
    9e54:	00000693          	li	a3,0
    9e58:	00500613          	li	a2,5
    9e5c:	00048513          	mv	a0,s1
    9e60:	105000ef          	jal	ra,a764 <__multadd>
    9e64:	00050a13          	mv	s4,a0
    9e68:	00050593          	mv	a1,a0
    9e6c:	00c12503          	lw	a0,12(sp)
    9e70:	05c010ef          	jal	ra,aecc <__mcmp>
    9e74:	88a044e3          	bgtz	a0,96fc <_dtoa_r+0x6e4>
    9e78:	02012783          	lw	a5,32(sp)
    9e7c:	01012983          	lw	s3,16(sp)
    9e80:	fff7c413          	not	s0,a5
    9e84:	00000b13          	li	s6,0
    9e88:	000a0593          	mv	a1,s4
    9e8c:	00048513          	mv	a0,s1
    9e90:	041000ef          	jal	ra,a6d0 <_Bfree>
    9e94:	c4090ee3          	beqz	s2,9af0 <_dtoa_r+0xad8>
    9e98:	000b0a63          	beqz	s6,9eac <_dtoa_r+0xe94>
    9e9c:	012b0863          	beq	s6,s2,9eac <_dtoa_r+0xe94>
    9ea0:	000b0593          	mv	a1,s6
    9ea4:	00048513          	mv	a0,s1
    9ea8:	029000ef          	jal	ra,a6d0 <_Bfree>
    9eac:	00090593          	mv	a1,s2
    9eb0:	00048513          	mv	a0,s1
    9eb4:	01d000ef          	jal	ra,a6d0 <_Bfree>
    9eb8:	c39ff06f          	j	9af0 <_dtoa_r+0xad8>
    9ebc:	00000a13          	li	s4,0
    9ec0:	00000913          	li	s2,0
    9ec4:	fb5ff06f          	j	9e78 <_dtoa_r+0xe60>
    9ec8:	01812403          	lw	s0,24(sp)
    9ecc:	00000a13          	li	s4,0
    9ed0:	00000913          	li	s2,0
    9ed4:	829ff06f          	j	96fc <_dtoa_r+0x6e4>
    9ed8:	01c12783          	lw	a5,28(sp)
    9edc:	000d0d93          	mv	s11,s10
    9ee0:	2c078663          	beqz	a5,a1ac <_dtoa_r+0x1194>
    9ee4:	01505c63          	blez	s5,9efc <_dtoa_r+0xee4>
    9ee8:	00090593          	mv	a1,s2
    9eec:	000a8613          	mv	a2,s5
    9ef0:	00048513          	mv	a0,s1
    9ef4:	655000ef          	jal	ra,ad48 <__lshift>
    9ef8:	00050913          	mv	s2,a0
    9efc:	00090513          	mv	a0,s2
    9f00:	040c8a63          	beqz	s9,9f54 <_dtoa_r+0xf3c>
    9f04:	00492583          	lw	a1,4(s2)
    9f08:	00048513          	mv	a0,s1
    9f0c:	6c4000ef          	jal	ra,a5d0 <_Balloc>
    9f10:	00050a93          	mv	s5,a0
    9f14:	00051c63          	bnez	a0,9f2c <_dtoa_r+0xf14>
    9f18:	0000d6b7          	lui	a3,0xd
    9f1c:	fc468693          	addi	a3,a3,-60 # cfc4 <_ctype_+0x220>
    9f20:	00000613          	li	a2,0
    9f24:	2ea00593          	li	a1,746
    9f28:	978ff06f          	j	90a0 <_dtoa_r+0x88>
    9f2c:	01092603          	lw	a2,16(s2)
    9f30:	00c90593          	addi	a1,s2,12
    9f34:	00c50513          	addi	a0,a0,12
    9f38:	00260613          	addi	a2,a2,2
    9f3c:	00261613          	slli	a2,a2,0x2
    9f40:	d90f90ef          	jal	ra,34d0 <memcpy>
    9f44:	00100613          	li	a2,1
    9f48:	000a8593          	mv	a1,s5
    9f4c:	00048513          	mv	a0,s1
    9f50:	5f9000ef          	jal	ra,ad48 <__lshift>
    9f54:	01012783          	lw	a5,16(sp)
    9f58:	00090b13          	mv	s6,s2
    9f5c:	00050913          	mv	s2,a0
    9f60:	00178c13          	addi	s8,a5,1
    9f64:	01b787b3          	add	a5,a5,s11
    9f68:	00f12c23          	sw	a5,24(sp)
    9f6c:	0019fd93          	andi	s11,s3,1
    9f70:	00c12503          	lw	a0,12(sp)
    9f74:	000a0593          	mv	a1,s4
    9f78:	fffc0d13          	addi	s10,s8,-1
    9f7c:	ed1fe0ef          	jal	ra,8e4c <quorem>
    9f80:	00050c93          	mv	s9,a0
    9f84:	03050a93          	addi	s5,a0,48
    9f88:	00c12503          	lw	a0,12(sp)
    9f8c:	000b0593          	mv	a1,s6
    9f90:	73d000ef          	jal	ra,aecc <__mcmp>
    9f94:	000a0593          	mv	a1,s4
    9f98:	00050b93          	mv	s7,a0
    9f9c:	00090613          	mv	a2,s2
    9fa0:	00048513          	mv	a0,s1
    9fa4:	77d000ef          	jal	ra,af20 <__mdiff>
    9fa8:	00c52683          	lw	a3,12(a0)
    9fac:	00050593          	mv	a1,a0
    9fb0:	00100713          	li	a4,1
    9fb4:	00069c63          	bnez	a3,9fcc <_dtoa_r+0xfb4>
    9fb8:	00a12e23          	sw	a0,28(sp)
    9fbc:	00c12503          	lw	a0,12(sp)
    9fc0:	70d000ef          	jal	ra,aecc <__mcmp>
    9fc4:	01c12583          	lw	a1,28(sp)
    9fc8:	00050713          	mv	a4,a0
    9fcc:	00048513          	mv	a0,s1
    9fd0:	00e12e23          	sw	a4,28(sp)
    9fd4:	6fc000ef          	jal	ra,a6d0 <_Bfree>
    9fd8:	01412783          	lw	a5,20(sp)
    9fdc:	01c12703          	lw	a4,28(sp)
    9fe0:	000c0993          	mv	s3,s8
    9fe4:	00e7e6b3          	or	a3,a5,a4
    9fe8:	01b6e6b3          	or	a3,a3,s11
    9fec:	00069e63          	bnez	a3,a008 <_dtoa_r+0xff0>
    9ff0:	03900713          	li	a4,57
    9ff4:	06ea8063          	beq	s5,a4,a054 <_dtoa_r+0x103c>
    9ff8:	01705463          	blez	s7,a000 <_dtoa_r+0xfe8>
    9ffc:	031c8a93          	addi	s5,s9,49
    a000:	015d0023          	sb	s5,0(s10)
    a004:	e85ff06f          	j	9e88 <_dtoa_r+0xe70>
    a008:	000bca63          	bltz	s7,a01c <_dtoa_r+0x1004>
    a00c:	01412783          	lw	a5,20(sp)
    a010:	0177ebb3          	or	s7,a5,s7
    a014:	01bbebb3          	or	s7,s7,s11
    a018:	060b9463          	bnez	s7,a080 <_dtoa_r+0x1068>
    a01c:	fee052e3          	blez	a4,a000 <_dtoa_r+0xfe8>
    a020:	00c12583          	lw	a1,12(sp)
    a024:	00100613          	li	a2,1
    a028:	00048513          	mv	a0,s1
    a02c:	51d000ef          	jal	ra,ad48 <__lshift>
    a030:	000a0593          	mv	a1,s4
    a034:	00a12623          	sw	a0,12(sp)
    a038:	695000ef          	jal	ra,aecc <__mcmp>
    a03c:	00a04863          	bgtz	a0,a04c <_dtoa_r+0x1034>
    a040:	fc0510e3          	bnez	a0,a000 <_dtoa_r+0xfe8>
    a044:	001af713          	andi	a4,s5,1
    a048:	fa070ce3          	beqz	a4,a000 <_dtoa_r+0xfe8>
    a04c:	03900713          	li	a4,57
    a050:	faea96e3          	bne	s5,a4,9ffc <_dtoa_r+0xfe4>
    a054:	03900793          	li	a5,57
    a058:	00fd0023          	sb	a5,0(s10)
    a05c:	00098793          	mv	a5,s3
    a060:	03900693          	li	a3,57
    a064:	00078993          	mv	s3,a5
    a068:	fff9c703          	lbu	a4,-1(s3)
    a06c:	fff78793          	addi	a5,a5,-1
    a070:	0ed70c63          	beq	a4,a3,a168 <_dtoa_r+0x1150>
    a074:	00170713          	addi	a4,a4,1
    a078:	00e78023          	sb	a4,0(a5)
    a07c:	e0dff06f          	j	9e88 <_dtoa_r+0xe70>
    a080:	00e05c63          	blez	a4,a098 <_dtoa_r+0x1080>
    a084:	03900713          	li	a4,57
    a088:	fcea86e3          	beq	s5,a4,a054 <_dtoa_r+0x103c>
    a08c:	001a8793          	addi	a5,s5,1
    a090:	00fd0023          	sb	a5,0(s10)
    a094:	df5ff06f          	j	9e88 <_dtoa_r+0xe70>
    a098:	01812783          	lw	a5,24(sp)
    a09c:	ff5c0fa3          	sb	s5,-1(s8)
    a0a0:	09878063          	beq	a5,s8,a120 <_dtoa_r+0x1108>
    a0a4:	00c12583          	lw	a1,12(sp)
    a0a8:	00000693          	li	a3,0
    a0ac:	00a00613          	li	a2,10
    a0b0:	00048513          	mv	a0,s1
    a0b4:	6b0000ef          	jal	ra,a764 <__multadd>
    a0b8:	00a12623          	sw	a0,12(sp)
    a0bc:	00000693          	li	a3,0
    a0c0:	00a00613          	li	a2,10
    a0c4:	000b0593          	mv	a1,s6
    a0c8:	00048513          	mv	a0,s1
    a0cc:	012b1c63          	bne	s6,s2,a0e4 <_dtoa_r+0x10cc>
    a0d0:	694000ef          	jal	ra,a764 <__multadd>
    a0d4:	00050b13          	mv	s6,a0
    a0d8:	00050913          	mv	s2,a0
    a0dc:	001c0c13          	addi	s8,s8,1
    a0e0:	e91ff06f          	j	9f70 <_dtoa_r+0xf58>
    a0e4:	680000ef          	jal	ra,a764 <__multadd>
    a0e8:	00090593          	mv	a1,s2
    a0ec:	00050b13          	mv	s6,a0
    a0f0:	00000693          	li	a3,0
    a0f4:	00a00613          	li	a2,10
    a0f8:	00048513          	mv	a0,s1
    a0fc:	668000ef          	jal	ra,a764 <__multadd>
    a100:	00050913          	mv	s2,a0
    a104:	fd9ff06f          	j	a0dc <_dtoa_r+0x10c4>
    a108:	00100993          	li	s3,1
    a10c:	01b05463          	blez	s11,a114 <_dtoa_r+0x10fc>
    a110:	000d8993          	mv	s3,s11
    a114:	01012783          	lw	a5,16(sp)
    a118:	00000b13          	li	s6,0
    a11c:	013789b3          	add	s3,a5,s3
    a120:	00c12583          	lw	a1,12(sp)
    a124:	00100613          	li	a2,1
    a128:	00048513          	mv	a0,s1
    a12c:	41d000ef          	jal	ra,ad48 <__lshift>
    a130:	000a0593          	mv	a1,s4
    a134:	00a12623          	sw	a0,12(sp)
    a138:	595000ef          	jal	ra,aecc <__mcmp>
    a13c:	f2a040e3          	bgtz	a0,a05c <_dtoa_r+0x1044>
    a140:	00051663          	bnez	a0,a14c <_dtoa_r+0x1134>
    a144:	001af793          	andi	a5,s5,1
    a148:	f0079ae3          	bnez	a5,a05c <_dtoa_r+0x1044>
    a14c:	00098793          	mv	a5,s3
    a150:	03000713          	li	a4,48
    a154:	00078993          	mv	s3,a5
    a158:	fff7c683          	lbu	a3,-1(a5)
    a15c:	fff78793          	addi	a5,a5,-1
    a160:	fee68ae3          	beq	a3,a4,a154 <_dtoa_r+0x113c>
    a164:	d25ff06f          	j	9e88 <_dtoa_r+0xe70>
    a168:	01012703          	lw	a4,16(sp)
    a16c:	eef71ce3          	bne	a4,a5,a064 <_dtoa_r+0x104c>
    a170:	03100793          	li	a5,49
    a174:	00140413          	addi	s0,s0,1
    a178:	00f70023          	sb	a5,0(a4)
    a17c:	d0dff06f          	j	9e88 <_dtoa_r+0xe70>
    a180:	02412783          	lw	a5,36(sp)
    a184:	0000d537          	lui	a0,0xd
    a188:	00078463          	beqz	a5,a190 <_dtoa_r+0x1178>
    a18c:	fc1fe06f          	j	914c <_dtoa_r+0x134>
    a190:	f3850793          	addi	a5,a0,-200 # cf38 <_ctype_+0x194>
    a194:	00f12823          	sw	a5,16(sp)
    a198:	fcdfe06f          	j	9164 <_dtoa_r+0x14c>
    a19c:	01b04863          	bgtz	s11,a1ac <_dtoa_r+0x1194>
    a1a0:	01412703          	lw	a4,20(sp)
    a1a4:	00200793          	li	a5,2
    a1a8:	cae7c2e3          	blt	a5,a4,9e4c <_dtoa_r+0xe34>
    a1ac:	00000993          	li	s3,0
    a1b0:	00c12503          	lw	a0,12(sp)
    a1b4:	000a0593          	mv	a1,s4
    a1b8:	c95fe0ef          	jal	ra,8e4c <quorem>
    a1bc:	01012783          	lw	a5,16(sp)
    a1c0:	03050a93          	addi	s5,a0,48
    a1c4:	01378733          	add	a4,a5,s3
    a1c8:	01570023          	sb	s5,0(a4)
    a1cc:	00198993          	addi	s3,s3,1
    a1d0:	f3b9dce3          	bge	s3,s11,a108 <_dtoa_r+0x10f0>
    a1d4:	00c12583          	lw	a1,12(sp)
    a1d8:	00000693          	li	a3,0
    a1dc:	00a00613          	li	a2,10
    a1e0:	00048513          	mv	a0,s1
    a1e4:	580000ef          	jal	ra,a764 <__multadd>
    a1e8:	00a12623          	sw	a0,12(sp)
    a1ec:	fc5ff06f          	j	a1b0 <_dtoa_r+0x1198>

0000a1f0 <std>:
    a1f0:	ff010113          	addi	sp,sp,-16
    a1f4:	00812423          	sw	s0,8(sp)
    a1f8:	00112623          	sw	ra,12(sp)
    a1fc:	00050413          	mv	s0,a0
    a200:	00b51623          	sh	a1,12(a0)
    a204:	00c51723          	sh	a2,14(a0)
    a208:	00052023          	sw	zero,0(a0)
    a20c:	00052223          	sw	zero,4(a0)
    a210:	00052423          	sw	zero,8(a0)
    a214:	06052223          	sw	zero,100(a0)
    a218:	00052823          	sw	zero,16(a0)
    a21c:	00052a23          	sw	zero,20(a0)
    a220:	00052c23          	sw	zero,24(a0)
    a224:	00800613          	li	a2,8
    a228:	00000593          	li	a1,0
    a22c:	05c50513          	addi	a0,a0,92
    a230:	ac4f90ef          	jal	ra,34f4 <memset>
    a234:	0000b7b7          	lui	a5,0xb
    a238:	7a078793          	addi	a5,a5,1952 # b7a0 <__sread>
    a23c:	02f42223          	sw	a5,36(s0)
    a240:	0000b7b7          	lui	a5,0xb
    a244:	7f078793          	addi	a5,a5,2032 # b7f0 <__swrite>
    a248:	02f42423          	sw	a5,40(s0)
    a24c:	0000c7b7          	lui	a5,0xc
    a250:	87478793          	addi	a5,a5,-1932 # b874 <__sseek>
    a254:	02f42623          	sw	a5,44(s0)
    a258:	0000c7b7          	lui	a5,0xc
    a25c:	8cc78793          	addi	a5,a5,-1844 # b8cc <__sclose>
    a260:	00c12083          	lw	ra,12(sp)
    a264:	02842023          	sw	s0,32(s0)
    a268:	02f42823          	sw	a5,48(s0)
    a26c:	00812403          	lw	s0,8(sp)
    a270:	01010113          	addi	sp,sp,16
    a274:	00008067          	ret

0000a278 <_cleanup_r>:
    a278:	0000c5b7          	lui	a1,0xc
    a27c:	e6c58593          	addi	a1,a1,-404 # be6c <_fflush_r>
    a280:	2580006f          	j	a4d8 <_fwalk_reent>

0000a284 <__sfmoreglue>:
    a284:	ff010113          	addi	sp,sp,-16
    a288:	00912223          	sw	s1,4(sp)
    a28c:	06800613          	li	a2,104
    a290:	fff58493          	addi	s1,a1,-1
    a294:	02c484b3          	mul	s1,s1,a2
    a298:	01212023          	sw	s2,0(sp)
    a29c:	00058913          	mv	s2,a1
    a2a0:	00812423          	sw	s0,8(sp)
    a2a4:	00112623          	sw	ra,12(sp)
    a2a8:	07448593          	addi	a1,s1,116
    a2ac:	a51fd0ef          	jal	ra,7cfc <_malloc_r>
    a2b0:	00050413          	mv	s0,a0
    a2b4:	02050063          	beqz	a0,a2d4 <__sfmoreglue+0x50>
    a2b8:	00052023          	sw	zero,0(a0)
    a2bc:	01252223          	sw	s2,4(a0)
    a2c0:	00c50513          	addi	a0,a0,12
    a2c4:	00a42423          	sw	a0,8(s0)
    a2c8:	06848613          	addi	a2,s1,104
    a2cc:	00000593          	li	a1,0
    a2d0:	a24f90ef          	jal	ra,34f4 <memset>
    a2d4:	00c12083          	lw	ra,12(sp)
    a2d8:	00040513          	mv	a0,s0
    a2dc:	00812403          	lw	s0,8(sp)
    a2e0:	00412483          	lw	s1,4(sp)
    a2e4:	00012903          	lw	s2,0(sp)
    a2e8:	01010113          	addi	sp,sp,16
    a2ec:	00008067          	ret

0000a2f0 <__sfp_lock_acquire>:
    a2f0:	00082537          	lui	a0,0x82
    a2f4:	de050513          	addi	a0,a0,-544 # 81de0 <__lock___sfp_recursive_mutex>
    a2f8:	c30fb06f          	j	5728 <__retarget_lock_acquire_recursive>

0000a2fc <__sfp_lock_release>:
    a2fc:	00082537          	lui	a0,0x82
    a300:	de050513          	addi	a0,a0,-544 # 81de0 <__lock___sfp_recursive_mutex>
    a304:	c30fb06f          	j	5734 <__retarget_lock_release_recursive>

0000a308 <__sinit_lock_acquire>:
    a308:	00082537          	lui	a0,0x82
    a30c:	df450513          	addi	a0,a0,-524 # 81df4 <__lock___sinit_recursive_mutex>
    a310:	c18fb06f          	j	5728 <__retarget_lock_acquire_recursive>

0000a314 <__sinit_lock_release>:
    a314:	00082537          	lui	a0,0x82
    a318:	df450513          	addi	a0,a0,-524 # 81df4 <__lock___sinit_recursive_mutex>
    a31c:	c18fb06f          	j	5734 <__retarget_lock_release_recursive>

0000a320 <__sinit>:
    a320:	ff010113          	addi	sp,sp,-16
    a324:	00812423          	sw	s0,8(sp)
    a328:	00112623          	sw	ra,12(sp)
    a32c:	00050413          	mv	s0,a0
    a330:	fd9ff0ef          	jal	ra,a308 <__sinit_lock_acquire>
    a334:	01842783          	lw	a5,24(s0)
    a338:	00078a63          	beqz	a5,a34c <__sinit+0x2c>
    a33c:	00812403          	lw	s0,8(sp)
    a340:	00c12083          	lw	ra,12(sp)
    a344:	01010113          	addi	sp,sp,16
    a348:	fcdff06f          	j	a314 <__sinit_lock_release>
    a34c:	0000a7b7          	lui	a5,0xa
    a350:	27878793          	addi	a5,a5,632 # a278 <_cleanup_r>
    a354:	02f42423          	sw	a5,40(s0)
    a358:	0000c7b7          	lui	a5,0xc
    a35c:	7987a783          	lw	a5,1944(a5) # c798 <_global_impure_ptr>
    a360:	04042423          	sw	zero,72(s0)
    a364:	04042623          	sw	zero,76(s0)
    a368:	04042823          	sw	zero,80(s0)
    a36c:	00879663          	bne	a5,s0,a378 <__sinit+0x58>
    a370:	00100793          	li	a5,1
    a374:	00f42c23          	sw	a5,24(s0)
    a378:	00040513          	mv	a0,s0
    a37c:	05c000ef          	jal	ra,a3d8 <__sfp>
    a380:	00a42223          	sw	a0,4(s0)
    a384:	00040513          	mv	a0,s0
    a388:	050000ef          	jal	ra,a3d8 <__sfp>
    a38c:	00a42423          	sw	a0,8(s0)
    a390:	00040513          	mv	a0,s0
    a394:	044000ef          	jal	ra,a3d8 <__sfp>
    a398:	00a42623          	sw	a0,12(s0)
    a39c:	00442503          	lw	a0,4(s0)
    a3a0:	00000613          	li	a2,0
    a3a4:	00400593          	li	a1,4
    a3a8:	e49ff0ef          	jal	ra,a1f0 <std>
    a3ac:	00842503          	lw	a0,8(s0)
    a3b0:	00100613          	li	a2,1
    a3b4:	00900593          	li	a1,9
    a3b8:	e39ff0ef          	jal	ra,a1f0 <std>
    a3bc:	00c42503          	lw	a0,12(s0)
    a3c0:	00200613          	li	a2,2
    a3c4:	01200593          	li	a1,18
    a3c8:	e29ff0ef          	jal	ra,a1f0 <std>
    a3cc:	00100793          	li	a5,1
    a3d0:	00f42c23          	sw	a5,24(s0)
    a3d4:	f69ff06f          	j	a33c <__sinit+0x1c>

0000a3d8 <__sfp>:
    a3d8:	ff010113          	addi	sp,sp,-16
    a3dc:	00912223          	sw	s1,4(sp)
    a3e0:	01212023          	sw	s2,0(sp)
    a3e4:	00112623          	sw	ra,12(sp)
    a3e8:	00812423          	sw	s0,8(sp)
    a3ec:	00050913          	mv	s2,a0
    a3f0:	f01ff0ef          	jal	ra,a2f0 <__sfp_lock_acquire>
    a3f4:	0000c7b7          	lui	a5,0xc
    a3f8:	7987a483          	lw	s1,1944(a5) # c798 <_global_impure_ptr>
    a3fc:	0184a783          	lw	a5,24(s1)
    a400:	00079663          	bnez	a5,a40c <__sfp+0x34>
    a404:	00048513          	mv	a0,s1
    a408:	f19ff0ef          	jal	ra,a320 <__sinit>
    a40c:	04848493          	addi	s1,s1,72
    a410:	0084a403          	lw	s0,8(s1)
    a414:	0044a783          	lw	a5,4(s1)
    a418:	fff78793          	addi	a5,a5,-1
    a41c:	0007da63          	bgez	a5,a430 <__sfp+0x58>
    a420:	0004a783          	lw	a5,0(s1)
    a424:	08078663          	beqz	a5,a4b0 <__sfp+0xd8>
    a428:	0004a483          	lw	s1,0(s1)
    a42c:	fe5ff06f          	j	a410 <__sfp+0x38>
    a430:	00c41703          	lh	a4,12(s0)
    a434:	06071a63          	bnez	a4,a4a8 <__sfp+0xd0>
    a438:	ffff07b7          	lui	a5,0xffff0
    a43c:	00178793          	addi	a5,a5,1 # ffff0001 <CONFIG_SYSTEM_WORKQUEUE_PRIORITY+0xffff0002>
    a440:	00f42623          	sw	a5,12(s0)
    a444:	05840513          	addi	a0,s0,88
    a448:	06042223          	sw	zero,100(s0)
    a44c:	ab0fb0ef          	jal	ra,56fc <__retarget_lock_init_recursive>
    a450:	eadff0ef          	jal	ra,a2fc <__sfp_lock_release>
    a454:	00800613          	li	a2,8
    a458:	00042023          	sw	zero,0(s0)
    a45c:	00042423          	sw	zero,8(s0)
    a460:	00042223          	sw	zero,4(s0)
    a464:	00042823          	sw	zero,16(s0)
    a468:	00042a23          	sw	zero,20(s0)
    a46c:	00042c23          	sw	zero,24(s0)
    a470:	00000593          	li	a1,0
    a474:	05c40513          	addi	a0,s0,92
    a478:	87cf90ef          	jal	ra,34f4 <memset>
    a47c:	02042a23          	sw	zero,52(s0)
    a480:	02042c23          	sw	zero,56(s0)
    a484:	04042423          	sw	zero,72(s0)
    a488:	04042623          	sw	zero,76(s0)
    a48c:	00c12083          	lw	ra,12(sp)
    a490:	00040513          	mv	a0,s0
    a494:	00812403          	lw	s0,8(sp)
    a498:	00412483          	lw	s1,4(sp)
    a49c:	00012903          	lw	s2,0(sp)
    a4a0:	01010113          	addi	sp,sp,16
    a4a4:	00008067          	ret
    a4a8:	06840413          	addi	s0,s0,104
    a4ac:	f6dff06f          	j	a418 <__sfp+0x40>
    a4b0:	00400593          	li	a1,4
    a4b4:	00090513          	mv	a0,s2
    a4b8:	dcdff0ef          	jal	ra,a284 <__sfmoreglue>
    a4bc:	00a4a023          	sw	a0,0(s1)
    a4c0:	00050413          	mv	s0,a0
    a4c4:	f60512e3          	bnez	a0,a428 <__sfp+0x50>
    a4c8:	e35ff0ef          	jal	ra,a2fc <__sfp_lock_release>
    a4cc:	00c00793          	li	a5,12
    a4d0:	00f92023          	sw	a5,0(s2)
    a4d4:	fb9ff06f          	j	a48c <__sfp+0xb4>

0000a4d8 <_fwalk_reent>:
    a4d8:	fd010113          	addi	sp,sp,-48
    a4dc:	02812423          	sw	s0,40(sp)
    a4e0:	03212023          	sw	s2,32(sp)
    a4e4:	01312e23          	sw	s3,28(sp)
    a4e8:	01412c23          	sw	s4,24(sp)
    a4ec:	01612823          	sw	s6,16(sp)
    a4f0:	01712623          	sw	s7,12(sp)
    a4f4:	02112623          	sw	ra,44(sp)
    a4f8:	02912223          	sw	s1,36(sp)
    a4fc:	01512a23          	sw	s5,20(sp)
    a500:	00050913          	mv	s2,a0
    a504:	00058a13          	mv	s4,a1
    a508:	04850413          	addi	s0,a0,72
    a50c:	00000993          	li	s3,0
    a510:	00100b13          	li	s6,1
    a514:	fff00b93          	li	s7,-1
    a518:	00842483          	lw	s1,8(s0)
    a51c:	00442a83          	lw	s5,4(s0)
    a520:	fffa8a93          	addi	s5,s5,-1
    a524:	020ade63          	bgez	s5,a560 <_fwalk_reent+0x88>
    a528:	00042403          	lw	s0,0(s0)
    a52c:	fe0416e3          	bnez	s0,a518 <_fwalk_reent+0x40>
    a530:	02c12083          	lw	ra,44(sp)
    a534:	02812403          	lw	s0,40(sp)
    a538:	02412483          	lw	s1,36(sp)
    a53c:	02012903          	lw	s2,32(sp)
    a540:	01812a03          	lw	s4,24(sp)
    a544:	01412a83          	lw	s5,20(sp)
    a548:	01012b03          	lw	s6,16(sp)
    a54c:	00c12b83          	lw	s7,12(sp)
    a550:	00098513          	mv	a0,s3
    a554:	01c12983          	lw	s3,28(sp)
    a558:	03010113          	addi	sp,sp,48
    a55c:	00008067          	ret
    a560:	00c4d783          	lhu	a5,12(s1)
    a564:	00fb7e63          	bgeu	s6,a5,a580 <_fwalk_reent+0xa8>
    a568:	00e49783          	lh	a5,14(s1)
    a56c:	01778a63          	beq	a5,s7,a580 <_fwalk_reent+0xa8>
    a570:	00048593          	mv	a1,s1
    a574:	00090513          	mv	a0,s2
    a578:	000a00e7          	jalr	s4
    a57c:	00a9e9b3          	or	s3,s3,a0
    a580:	06848493          	addi	s1,s1,104
    a584:	f9dff06f          	j	a520 <_fwalk_reent+0x48>

0000a588 <_localeconv_r>:
    a588:	00082537          	lui	a0,0x82
    a58c:	cf050513          	addi	a0,a0,-784 # 81cf0 <__global_locale+0xf0>
    a590:	00008067          	ret

0000a594 <memchr>:
    a594:	0ff5f593          	andi	a1,a1,255
    a598:	00c50633          	add	a2,a0,a2
    a59c:	00c51663          	bne	a0,a2,a5a8 <memchr+0x14>
    a5a0:	00000513          	li	a0,0
    a5a4:	00008067          	ret
    a5a8:	00054783          	lbu	a5,0(a0)
    a5ac:	feb78ce3          	beq	a5,a1,a5a4 <memchr+0x10>
    a5b0:	00150513          	addi	a0,a0,1
    a5b4:	fe9ff06f          	j	a59c <memchr+0x8>

0000a5b8 <__malloc_lock>:
    a5b8:	00082537          	lui	a0,0x82
    a5bc:	dcc50513          	addi	a0,a0,-564 # 81dcc <__lock___malloc_recursive_mutex>
    a5c0:	968fb06f          	j	5728 <__retarget_lock_acquire_recursive>

0000a5c4 <__malloc_unlock>:
    a5c4:	00082537          	lui	a0,0x82
    a5c8:	dcc50513          	addi	a0,a0,-564 # 81dcc <__lock___malloc_recursive_mutex>
    a5cc:	968fb06f          	j	5734 <__retarget_lock_release_recursive>

0000a5d0 <_Balloc>:
    a5d0:	02452783          	lw	a5,36(a0)
    a5d4:	ff010113          	addi	sp,sp,-16
    a5d8:	00812423          	sw	s0,8(sp)
    a5dc:	00912223          	sw	s1,4(sp)
    a5e0:	00112623          	sw	ra,12(sp)
    a5e4:	01212023          	sw	s2,0(sp)
    a5e8:	00050413          	mv	s0,a0
    a5ec:	00058493          	mv	s1,a1
    a5f0:	04079063          	bnez	a5,a630 <_Balloc+0x60>
    a5f4:	01000513          	li	a0,16
    a5f8:	df0fd0ef          	jal	ra,7be8 <malloc>
    a5fc:	02a42223          	sw	a0,36(s0)
    a600:	02051063          	bnez	a0,a620 <_Balloc+0x50>
    a604:	0000d6b7          	lui	a3,0xd
    a608:	0000d537          	lui	a0,0xd
    a60c:	f4868693          	addi	a3,a3,-184 # cf48 <_ctype_+0x1a4>
    a610:	00000613          	li	a2,0
    a614:	06600593          	li	a1,102
    a618:	03850513          	addi	a0,a0,56 # d038 <__sf_fake_stdout+0x20>
    a61c:	5bc010ef          	jal	ra,bbd8 <__assert_func>
    a620:	00052223          	sw	zero,4(a0)
    a624:	00052423          	sw	zero,8(a0)
    a628:	00052023          	sw	zero,0(a0)
    a62c:	00052623          	sw	zero,12(a0)
    a630:	02442903          	lw	s2,36(s0)
    a634:	00c92783          	lw	a5,12(s2)
    a638:	04078463          	beqz	a5,a680 <_Balloc+0xb0>
    a63c:	02442703          	lw	a4,36(s0)
    a640:	00249793          	slli	a5,s1,0x2
    a644:	00c72703          	lw	a4,12(a4)
    a648:	00f707b3          	add	a5,a4,a5
    a64c:	0007a503          	lw	a0,0(a5)
    a650:	06051663          	bnez	a0,a6bc <_Balloc+0xec>
    a654:	00100913          	li	s2,1
    a658:	00991933          	sll	s2,s2,s1
    a65c:	00590613          	addi	a2,s2,5
    a660:	00261613          	slli	a2,a2,0x2
    a664:	00100593          	li	a1,1
    a668:	00040513          	mv	a0,s0
    a66c:	40d000ef          	jal	ra,b278 <_calloc_r>
    a670:	02050863          	beqz	a0,a6a0 <_Balloc+0xd0>
    a674:	00952223          	sw	s1,4(a0)
    a678:	01252423          	sw	s2,8(a0)
    a67c:	0480006f          	j	a6c4 <_Balloc+0xf4>
    a680:	02100613          	li	a2,33
    a684:	00400593          	li	a1,4
    a688:	00040513          	mv	a0,s0
    a68c:	3ed000ef          	jal	ra,b278 <_calloc_r>
    a690:	02442783          	lw	a5,36(s0)
    a694:	00a92623          	sw	a0,12(s2)
    a698:	00c7a783          	lw	a5,12(a5)
    a69c:	fa0790e3          	bnez	a5,a63c <_Balloc+0x6c>
    a6a0:	00000513          	li	a0,0
    a6a4:	00c12083          	lw	ra,12(sp)
    a6a8:	00812403          	lw	s0,8(sp)
    a6ac:	00412483          	lw	s1,4(sp)
    a6b0:	00012903          	lw	s2,0(sp)
    a6b4:	01010113          	addi	sp,sp,16
    a6b8:	00008067          	ret
    a6bc:	00052703          	lw	a4,0(a0)
    a6c0:	00e7a023          	sw	a4,0(a5)
    a6c4:	00052823          	sw	zero,16(a0)
    a6c8:	00052623          	sw	zero,12(a0)
    a6cc:	fd9ff06f          	j	a6a4 <_Balloc+0xd4>

0000a6d0 <_Bfree>:
    a6d0:	02452783          	lw	a5,36(a0)
    a6d4:	ff010113          	addi	sp,sp,-16
    a6d8:	00812423          	sw	s0,8(sp)
    a6dc:	00912223          	sw	s1,4(sp)
    a6e0:	00112623          	sw	ra,12(sp)
    a6e4:	00050493          	mv	s1,a0
    a6e8:	00058413          	mv	s0,a1
    a6ec:	04079063          	bnez	a5,a72c <_Bfree+0x5c>
    a6f0:	01000513          	li	a0,16
    a6f4:	cf4fd0ef          	jal	ra,7be8 <malloc>
    a6f8:	02a4a223          	sw	a0,36(s1)
    a6fc:	02051063          	bnez	a0,a71c <_Bfree+0x4c>
    a700:	0000d6b7          	lui	a3,0xd
    a704:	0000d537          	lui	a0,0xd
    a708:	f4868693          	addi	a3,a3,-184 # cf48 <_ctype_+0x1a4>
    a70c:	00000613          	li	a2,0
    a710:	08a00593          	li	a1,138
    a714:	03850513          	addi	a0,a0,56 # d038 <__sf_fake_stdout+0x20>
    a718:	4c0010ef          	jal	ra,bbd8 <__assert_func>
    a71c:	00052223          	sw	zero,4(a0)
    a720:	00052423          	sw	zero,8(a0)
    a724:	00052023          	sw	zero,0(a0)
    a728:	00052623          	sw	zero,12(a0)
    a72c:	02040263          	beqz	s0,a750 <_Bfree+0x80>
    a730:	0244a683          	lw	a3,36(s1)
    a734:	00442783          	lw	a5,4(s0)
    a738:	00279713          	slli	a4,a5,0x2
    a73c:	00c6a783          	lw	a5,12(a3)
    a740:	00e787b3          	add	a5,a5,a4
    a744:	0007a703          	lw	a4,0(a5)
    a748:	00e42023          	sw	a4,0(s0)
    a74c:	0087a023          	sw	s0,0(a5)
    a750:	00c12083          	lw	ra,12(sp)
    a754:	00812403          	lw	s0,8(sp)
    a758:	00412483          	lw	s1,4(sp)
    a75c:	01010113          	addi	sp,sp,16
    a760:	00008067          	ret

0000a764 <__multadd>:
    a764:	fe010113          	addi	sp,sp,-32
    a768:	00812c23          	sw	s0,24(sp)
    a76c:	01212823          	sw	s2,16(sp)
    a770:	01312623          	sw	s3,12(sp)
    a774:	0105a903          	lw	s2,16(a1)
    a778:	00058413          	mv	s0,a1
    a77c:	00068993          	mv	s3,a3
    a780:	01458693          	addi	a3,a1,20
    a784:	000105b7          	lui	a1,0x10
    a788:	00912a23          	sw	s1,20(sp)
    a78c:	00112e23          	sw	ra,28(sp)
    a790:	00050493          	mv	s1,a0
    a794:	01412423          	sw	s4,8(sp)
    a798:	00000513          	li	a0,0
    a79c:	fff58593          	addi	a1,a1,-1 # ffff <W1+0x8df>
    a7a0:	0006a783          	lw	a5,0(a3)
    a7a4:	00468693          	addi	a3,a3,4
    a7a8:	00150513          	addi	a0,a0,1
    a7ac:	00b7f733          	and	a4,a5,a1
    a7b0:	02c70733          	mul	a4,a4,a2
    a7b4:	0107d793          	srli	a5,a5,0x10
    a7b8:	02c787b3          	mul	a5,a5,a2
    a7bc:	01370733          	add	a4,a4,s3
    a7c0:	01075813          	srli	a6,a4,0x10
    a7c4:	00b77733          	and	a4,a4,a1
    a7c8:	010787b3          	add	a5,a5,a6
    a7cc:	0107d993          	srli	s3,a5,0x10
    a7d0:	01079793          	slli	a5,a5,0x10
    a7d4:	00e787b3          	add	a5,a5,a4
    a7d8:	fef6ae23          	sw	a5,-4(a3)
    a7dc:	fd2542e3          	blt	a0,s2,a7a0 <__multadd+0x3c>
    a7e0:	08098063          	beqz	s3,a860 <__multadd+0xfc>
    a7e4:	00842783          	lw	a5,8(s0)
    a7e8:	06f94063          	blt	s2,a5,a848 <__multadd+0xe4>
    a7ec:	00442583          	lw	a1,4(s0)
    a7f0:	00048513          	mv	a0,s1
    a7f4:	00158593          	addi	a1,a1,1
    a7f8:	dd9ff0ef          	jal	ra,a5d0 <_Balloc>
    a7fc:	00050a13          	mv	s4,a0
    a800:	02051063          	bnez	a0,a820 <__multadd+0xbc>
    a804:	0000d6b7          	lui	a3,0xd
    a808:	0000d537          	lui	a0,0xd
    a80c:	fc468693          	addi	a3,a3,-60 # cfc4 <_ctype_+0x220>
    a810:	00000613          	li	a2,0
    a814:	0b500593          	li	a1,181
    a818:	03850513          	addi	a0,a0,56 # d038 <__sf_fake_stdout+0x20>
    a81c:	3bc010ef          	jal	ra,bbd8 <__assert_func>
    a820:	01042603          	lw	a2,16(s0)
    a824:	00c40593          	addi	a1,s0,12
    a828:	00c50513          	addi	a0,a0,12
    a82c:	00260613          	addi	a2,a2,2
    a830:	00261613          	slli	a2,a2,0x2
    a834:	c9df80ef          	jal	ra,34d0 <memcpy>
    a838:	00040593          	mv	a1,s0
    a83c:	00048513          	mv	a0,s1
    a840:	e91ff0ef          	jal	ra,a6d0 <_Bfree>
    a844:	000a0413          	mv	s0,s4
    a848:	00490793          	addi	a5,s2,4
    a84c:	00279793          	slli	a5,a5,0x2
    a850:	00f407b3          	add	a5,s0,a5
    a854:	0137a223          	sw	s3,4(a5)
    a858:	00190913          	addi	s2,s2,1
    a85c:	01242823          	sw	s2,16(s0)
    a860:	01c12083          	lw	ra,28(sp)
    a864:	00040513          	mv	a0,s0
    a868:	01812403          	lw	s0,24(sp)
    a86c:	01412483          	lw	s1,20(sp)
    a870:	01012903          	lw	s2,16(sp)
    a874:	00c12983          	lw	s3,12(sp)
    a878:	00812a03          	lw	s4,8(sp)
    a87c:	02010113          	addi	sp,sp,32
    a880:	00008067          	ret

0000a884 <__hi0bits>:
    a884:	ffff0737          	lui	a4,0xffff0
    a888:	00e57733          	and	a4,a0,a4
    a88c:	00050793          	mv	a5,a0
    a890:	00000513          	li	a0,0
    a894:	00071663          	bnez	a4,a8a0 <__hi0bits+0x1c>
    a898:	01079793          	slli	a5,a5,0x10
    a89c:	01000513          	li	a0,16
    a8a0:	ff000737          	lui	a4,0xff000
    a8a4:	00e7f733          	and	a4,a5,a4
    a8a8:	00071663          	bnez	a4,a8b4 <__hi0bits+0x30>
    a8ac:	00850513          	addi	a0,a0,8
    a8b0:	00879793          	slli	a5,a5,0x8
    a8b4:	f0000737          	lui	a4,0xf0000
    a8b8:	00e7f733          	and	a4,a5,a4
    a8bc:	00071663          	bnez	a4,a8c8 <__hi0bits+0x44>
    a8c0:	00450513          	addi	a0,a0,4
    a8c4:	00479793          	slli	a5,a5,0x4
    a8c8:	c0000737          	lui	a4,0xc0000
    a8cc:	00e7f733          	and	a4,a5,a4
    a8d0:	00071663          	bnez	a4,a8dc <__hi0bits+0x58>
    a8d4:	00250513          	addi	a0,a0,2
    a8d8:	00279793          	slli	a5,a5,0x2
    a8dc:	0007cc63          	bltz	a5,a8f4 <__hi0bits+0x70>
    a8e0:	40000737          	lui	a4,0x40000
    a8e4:	00e7f7b3          	and	a5,a5,a4
    a8e8:	00150513          	addi	a0,a0,1
    a8ec:	00079463          	bnez	a5,a8f4 <__hi0bits+0x70>
    a8f0:	02000513          	li	a0,32
    a8f4:	00008067          	ret

0000a8f8 <__lo0bits>:
    a8f8:	00052783          	lw	a5,0(a0)
    a8fc:	00050713          	mv	a4,a0
    a900:	0077f693          	andi	a3,a5,7
    a904:	02068c63          	beqz	a3,a93c <__lo0bits+0x44>
    a908:	0017f693          	andi	a3,a5,1
    a90c:	00000513          	li	a0,0
    a910:	08069a63          	bnez	a3,a9a4 <__lo0bits+0xac>
    a914:	0027f693          	andi	a3,a5,2
    a918:	00068a63          	beqz	a3,a92c <__lo0bits+0x34>
    a91c:	0017d793          	srli	a5,a5,0x1
    a920:	00f72023          	sw	a5,0(a4) # 40000000 <CONFIG_SYS_CLOCK_HW_CYCLES_PER_SEC+0x3d050f80>
    a924:	00100513          	li	a0,1
    a928:	00008067          	ret
    a92c:	0027d793          	srli	a5,a5,0x2
    a930:	00f72023          	sw	a5,0(a4)
    a934:	00200513          	li	a0,2
    a938:	00008067          	ret
    a93c:	01079693          	slli	a3,a5,0x10
    a940:	0106d693          	srli	a3,a3,0x10
    a944:	00000513          	li	a0,0
    a948:	00069663          	bnez	a3,a954 <__lo0bits+0x5c>
    a94c:	0107d793          	srli	a5,a5,0x10
    a950:	01000513          	li	a0,16
    a954:	0ff7f693          	andi	a3,a5,255
    a958:	00069663          	bnez	a3,a964 <__lo0bits+0x6c>
    a95c:	00850513          	addi	a0,a0,8
    a960:	0087d793          	srli	a5,a5,0x8
    a964:	00f7f693          	andi	a3,a5,15
    a968:	00069663          	bnez	a3,a974 <__lo0bits+0x7c>
    a96c:	00450513          	addi	a0,a0,4
    a970:	0047d793          	srli	a5,a5,0x4
    a974:	0037f693          	andi	a3,a5,3
    a978:	00069663          	bnez	a3,a984 <__lo0bits+0x8c>
    a97c:	00250513          	addi	a0,a0,2
    a980:	0027d793          	srli	a5,a5,0x2
    a984:	0017f693          	andi	a3,a5,1
    a988:	00069863          	bnez	a3,a998 <__lo0bits+0xa0>
    a98c:	0017d793          	srli	a5,a5,0x1
    a990:	00150513          	addi	a0,a0,1
    a994:	00078663          	beqz	a5,a9a0 <__lo0bits+0xa8>
    a998:	00f72023          	sw	a5,0(a4)
    a99c:	00008067          	ret
    a9a0:	02000513          	li	a0,32
    a9a4:	00008067          	ret

0000a9a8 <__i2b>:
    a9a8:	ff010113          	addi	sp,sp,-16
    a9ac:	00812423          	sw	s0,8(sp)
    a9b0:	00058413          	mv	s0,a1
    a9b4:	00100593          	li	a1,1
    a9b8:	00112623          	sw	ra,12(sp)
    a9bc:	c15ff0ef          	jal	ra,a5d0 <_Balloc>
    a9c0:	02051063          	bnez	a0,a9e0 <__i2b+0x38>
    a9c4:	0000d6b7          	lui	a3,0xd
    a9c8:	0000d537          	lui	a0,0xd
    a9cc:	fc468693          	addi	a3,a3,-60 # cfc4 <_ctype_+0x220>
    a9d0:	00000613          	li	a2,0
    a9d4:	14000593          	li	a1,320
    a9d8:	03850513          	addi	a0,a0,56 # d038 <__sf_fake_stdout+0x20>
    a9dc:	1fc010ef          	jal	ra,bbd8 <__assert_func>
    a9e0:	00c12083          	lw	ra,12(sp)
    a9e4:	00852a23          	sw	s0,20(a0)
    a9e8:	00812403          	lw	s0,8(sp)
    a9ec:	00100713          	li	a4,1
    a9f0:	00e52823          	sw	a4,16(a0)
    a9f4:	01010113          	addi	sp,sp,16
    a9f8:	00008067          	ret

0000a9fc <__multiply>:
    a9fc:	0105a703          	lw	a4,16(a1)
    aa00:	01062783          	lw	a5,16(a2)
    aa04:	fe010113          	addi	sp,sp,-32
    aa08:	00812c23          	sw	s0,24(sp)
    aa0c:	01212823          	sw	s2,16(sp)
    aa10:	00112e23          	sw	ra,28(sp)
    aa14:	00912a23          	sw	s1,20(sp)
    aa18:	01312623          	sw	s3,12(sp)
    aa1c:	01412423          	sw	s4,8(sp)
    aa20:	00058413          	mv	s0,a1
    aa24:	00060913          	mv	s2,a2
    aa28:	00f75663          	bge	a4,a5,aa34 <__multiply+0x38>
    aa2c:	00060413          	mv	s0,a2
    aa30:	00058913          	mv	s2,a1
    aa34:	01042a03          	lw	s4,16(s0)
    aa38:	01092983          	lw	s3,16(s2)
    aa3c:	00842783          	lw	a5,8(s0)
    aa40:	00442583          	lw	a1,4(s0)
    aa44:	013a04b3          	add	s1,s4,s3
    aa48:	0097d463          	bge	a5,s1,aa50 <__multiply+0x54>
    aa4c:	00158593          	addi	a1,a1,1
    aa50:	b81ff0ef          	jal	ra,a5d0 <_Balloc>
    aa54:	02051063          	bnez	a0,aa74 <__multiply+0x78>
    aa58:	0000d6b7          	lui	a3,0xd
    aa5c:	0000d537          	lui	a0,0xd
    aa60:	fc468693          	addi	a3,a3,-60 # cfc4 <_ctype_+0x220>
    aa64:	00000613          	li	a2,0
    aa68:	15d00593          	li	a1,349
    aa6c:	03850513          	addi	a0,a0,56 # d038 <__sf_fake_stdout+0x20>
    aa70:	168010ef          	jal	ra,bbd8 <__assert_func>
    aa74:	01450693          	addi	a3,a0,20
    aa78:	00249813          	slli	a6,s1,0x2
    aa7c:	01068833          	add	a6,a3,a6
    aa80:	00068793          	mv	a5,a3
    aa84:	0707ec63          	bltu	a5,a6,aafc <__multiply+0x100>
    aa88:	01440313          	addi	t1,s0,20
    aa8c:	002a1593          	slli	a1,s4,0x2
    aa90:	01490613          	addi	a2,s2,20
    aa94:	00299893          	slli	a7,s3,0x2
    aa98:	00b305b3          	add	a1,t1,a1
    aa9c:	01540793          	addi	a5,s0,21
    aaa0:	011608b3          	add	a7,a2,a7
    aaa4:	00400e13          	li	t3,4
    aaa8:	00f5ea63          	bltu	a1,a5,aabc <__multiply+0xc0>
    aaac:	40858433          	sub	s0,a1,s0
    aab0:	feb40413          	addi	s0,s0,-21
    aab4:	ffc47413          	andi	s0,s0,-4
    aab8:	00440e13          	addi	t3,s0,4
    aabc:	00010eb7          	lui	t4,0x10
    aac0:	fffe8e93          	addi	t4,t4,-1 # ffff <W1+0x8df>
    aac4:	05166263          	bltu	a2,a7,ab08 <__multiply+0x10c>
    aac8:	00905863          	blez	s1,aad8 <__multiply+0xdc>
    aacc:	ffc82783          	lw	a5,-4(a6)
    aad0:	ffc80813          	addi	a6,a6,-4
    aad4:	12078463          	beqz	a5,abfc <__multiply+0x200>
    aad8:	01c12083          	lw	ra,28(sp)
    aadc:	01812403          	lw	s0,24(sp)
    aae0:	00952823          	sw	s1,16(a0)
    aae4:	01012903          	lw	s2,16(sp)
    aae8:	01412483          	lw	s1,20(sp)
    aaec:	00c12983          	lw	s3,12(sp)
    aaf0:	00812a03          	lw	s4,8(sp)
    aaf4:	02010113          	addi	sp,sp,32
    aaf8:	00008067          	ret
    aafc:	0007a023          	sw	zero,0(a5)
    ab00:	00478793          	addi	a5,a5,4
    ab04:	f81ff06f          	j	aa84 <__multiply+0x88>
    ab08:	00062f83          	lw	t6,0(a2)
    ab0c:	01dfffb3          	and	t6,t6,t4
    ab10:	060f8663          	beqz	t6,ab7c <__multiply+0x180>
    ab14:	00068393          	mv	t2,a3
    ab18:	00030293          	mv	t0,t1
    ab1c:	00000913          	li	s2,0
    ab20:	0002a703          	lw	a4,0(t0)
    ab24:	0003a403          	lw	s0,0(t2)
    ab28:	00438393          	addi	t2,t2,4
    ab2c:	01d77f33          	and	t5,a4,t4
    ab30:	03ff0f33          	mul	t5,t5,t6
    ab34:	01d477b3          	and	a5,s0,t4
    ab38:	01045413          	srli	s0,s0,0x10
    ab3c:	00428293          	addi	t0,t0,4
    ab40:	00ff0f33          	add	t5,t5,a5
    ab44:	01075793          	srli	a5,a4,0x10
    ab48:	03f787b3          	mul	a5,a5,t6
    ab4c:	012f0f33          	add	t5,t5,s2
    ab50:	010f5713          	srli	a4,t5,0x10
    ab54:	01df7f33          	and	t5,t5,t4
    ab58:	008787b3          	add	a5,a5,s0
    ab5c:	00e787b3          	add	a5,a5,a4
    ab60:	0107d913          	srli	s2,a5,0x10
    ab64:	01079793          	slli	a5,a5,0x10
    ab68:	01e7e7b3          	or	a5,a5,t5
    ab6c:	fef3ae23          	sw	a5,-4(t2)
    ab70:	fab2e8e3          	bltu	t0,a1,ab20 <__multiply+0x124>
    ab74:	01c687b3          	add	a5,a3,t3
    ab78:	0127a023          	sw	s2,0(a5)
    ab7c:	00265383          	lhu	t2,2(a2)
    ab80:	06038863          	beqz	t2,abf0 <__multiply+0x1f4>
    ab84:	0006a783          	lw	a5,0(a3)
    ab88:	00068f93          	mv	t6,a3
    ab8c:	00030f13          	mv	t5,t1
    ab90:	00000293          	li	t0,0
    ab94:	000f2703          	lw	a4,0(t5)
    ab98:	002fd403          	lhu	s0,2(t6)
    ab9c:	01d7f7b3          	and	a5,a5,t4
    aba0:	01d77733          	and	a4,a4,t4
    aba4:	02770733          	mul	a4,a4,t2
    aba8:	004f8f93          	addi	t6,t6,4
    abac:	004f0f13          	addi	t5,t5,4
    abb0:	00870733          	add	a4,a4,s0
    abb4:	00570733          	add	a4,a4,t0
    abb8:	01071293          	slli	t0,a4,0x10
    abbc:	00f2e7b3          	or	a5,t0,a5
    abc0:	feffae23          	sw	a5,-4(t6)
    abc4:	ffef5783          	lhu	a5,-2(t5)
    abc8:	000fa283          	lw	t0,0(t6)
    abcc:	01075713          	srli	a4,a4,0x10
    abd0:	027787b3          	mul	a5,a5,t2
    abd4:	01d2f2b3          	and	t0,t0,t4
    abd8:	005787b3          	add	a5,a5,t0
    abdc:	00e787b3          	add	a5,a5,a4
    abe0:	0107d293          	srli	t0,a5,0x10
    abe4:	fabf68e3          	bltu	t5,a1,ab94 <__multiply+0x198>
    abe8:	01c68733          	add	a4,a3,t3
    abec:	00f72023          	sw	a5,0(a4)
    abf0:	00460613          	addi	a2,a2,4
    abf4:	00468693          	addi	a3,a3,4
    abf8:	ecdff06f          	j	aac4 <__multiply+0xc8>
    abfc:	fff48493          	addi	s1,s1,-1
    ac00:	ec9ff06f          	j	aac8 <__multiply+0xcc>

0000ac04 <__pow5mult>:
    ac04:	fe010113          	addi	sp,sp,-32
    ac08:	00912a23          	sw	s1,20(sp)
    ac0c:	01212823          	sw	s2,16(sp)
    ac10:	01312623          	sw	s3,12(sp)
    ac14:	00112e23          	sw	ra,28(sp)
    ac18:	00812c23          	sw	s0,24(sp)
    ac1c:	01412423          	sw	s4,8(sp)
    ac20:	00367793          	andi	a5,a2,3
    ac24:	00050913          	mv	s2,a0
    ac28:	00060493          	mv	s1,a2
    ac2c:	00058993          	mv	s3,a1
    ac30:	02078463          	beqz	a5,ac58 <__pow5mult+0x54>
    ac34:	fff78793          	addi	a5,a5,-1
    ac38:	0000d737          	lui	a4,0xd
    ac3c:	09c70713          	addi	a4,a4,156 # d09c <p05.0>
    ac40:	00279793          	slli	a5,a5,0x2
    ac44:	00f707b3          	add	a5,a4,a5
    ac48:	0007a603          	lw	a2,0(a5)
    ac4c:	00000693          	li	a3,0
    ac50:	b15ff0ef          	jal	ra,a764 <__multadd>
    ac54:	00050993          	mv	s3,a0
    ac58:	4024d493          	srai	s1,s1,0x2
    ac5c:	0c048463          	beqz	s1,ad24 <__pow5mult+0x120>
    ac60:	02492783          	lw	a5,36(s2)
    ac64:	04079063          	bnez	a5,aca4 <__pow5mult+0xa0>
    ac68:	01000513          	li	a0,16
    ac6c:	f7dfc0ef          	jal	ra,7be8 <malloc>
    ac70:	02a92223          	sw	a0,36(s2)
    ac74:	02051063          	bnez	a0,ac94 <__pow5mult+0x90>
    ac78:	0000d6b7          	lui	a3,0xd
    ac7c:	0000d537          	lui	a0,0xd
    ac80:	f4868693          	addi	a3,a3,-184 # cf48 <_ctype_+0x1a4>
    ac84:	00000613          	li	a2,0
    ac88:	1ae00593          	li	a1,430
    ac8c:	03850513          	addi	a0,a0,56 # d038 <__sf_fake_stdout+0x20>
    ac90:	749000ef          	jal	ra,bbd8 <__assert_func>
    ac94:	00052223          	sw	zero,4(a0)
    ac98:	00052423          	sw	zero,8(a0)
    ac9c:	00052023          	sw	zero,0(a0)
    aca0:	00052623          	sw	zero,12(a0)
    aca4:	02492a03          	lw	s4,36(s2)
    aca8:	008a2403          	lw	s0,8(s4)
    acac:	00041e63          	bnez	s0,acc8 <__pow5mult+0xc4>
    acb0:	27100593          	li	a1,625
    acb4:	00090513          	mv	a0,s2
    acb8:	cf1ff0ef          	jal	ra,a9a8 <__i2b>
    acbc:	00aa2423          	sw	a0,8(s4)
    acc0:	00050413          	mv	s0,a0
    acc4:	00052023          	sw	zero,0(a0)
    acc8:	0014f793          	andi	a5,s1,1
    accc:	02078463          	beqz	a5,acf4 <__pow5mult+0xf0>
    acd0:	00098593          	mv	a1,s3
    acd4:	00040613          	mv	a2,s0
    acd8:	00090513          	mv	a0,s2
    acdc:	d21ff0ef          	jal	ra,a9fc <__multiply>
    ace0:	00050a13          	mv	s4,a0
    ace4:	00098593          	mv	a1,s3
    ace8:	00090513          	mv	a0,s2
    acec:	9e5ff0ef          	jal	ra,a6d0 <_Bfree>
    acf0:	000a0993          	mv	s3,s4
    acf4:	4014d493          	srai	s1,s1,0x1
    acf8:	02048663          	beqz	s1,ad24 <__pow5mult+0x120>
    acfc:	00042503          	lw	a0,0(s0)
    ad00:	00051e63          	bnez	a0,ad1c <__pow5mult+0x118>
    ad04:	00040613          	mv	a2,s0
    ad08:	00040593          	mv	a1,s0
    ad0c:	00090513          	mv	a0,s2
    ad10:	cedff0ef          	jal	ra,a9fc <__multiply>
    ad14:	00a42023          	sw	a0,0(s0)
    ad18:	00052023          	sw	zero,0(a0)
    ad1c:	00050413          	mv	s0,a0
    ad20:	fa9ff06f          	j	acc8 <__pow5mult+0xc4>
    ad24:	01c12083          	lw	ra,28(sp)
    ad28:	01812403          	lw	s0,24(sp)
    ad2c:	01412483          	lw	s1,20(sp)
    ad30:	01012903          	lw	s2,16(sp)
    ad34:	00812a03          	lw	s4,8(sp)
    ad38:	00098513          	mv	a0,s3
    ad3c:	00c12983          	lw	s3,12(sp)
    ad40:	02010113          	addi	sp,sp,32
    ad44:	00008067          	ret

0000ad48 <__lshift>:
    ad48:	fe010113          	addi	sp,sp,-32
    ad4c:	00812c23          	sw	s0,24(sp)
    ad50:	00058413          	mv	s0,a1
    ad54:	01612023          	sw	s6,0(sp)
    ad58:	01042b03          	lw	s6,16(s0)
    ad5c:	00912a23          	sw	s1,20(sp)
    ad60:	0045a583          	lw	a1,4(a1)
    ad64:	40565493          	srai	s1,a2,0x5
    ad68:	00842783          	lw	a5,8(s0)
    ad6c:	01648b33          	add	s6,s1,s6
    ad70:	01212823          	sw	s2,16(sp)
    ad74:	01412423          	sw	s4,8(sp)
    ad78:	01512223          	sw	s5,4(sp)
    ad7c:	00112e23          	sw	ra,28(sp)
    ad80:	01312623          	sw	s3,12(sp)
    ad84:	00050a93          	mv	s5,a0
    ad88:	00060913          	mv	s2,a2
    ad8c:	001b0a13          	addi	s4,s6,1
    ad90:	0347c863          	blt	a5,s4,adc0 <__lshift+0x78>
    ad94:	000a8513          	mv	a0,s5
    ad98:	839ff0ef          	jal	ra,a5d0 <_Balloc>
    ad9c:	00050993          	mv	s3,a0
    ada0:	02051663          	bnez	a0,adcc <__lshift+0x84>
    ada4:	0000d6b7          	lui	a3,0xd
    ada8:	0000d537          	lui	a0,0xd
    adac:	fc468693          	addi	a3,a3,-60 # cfc4 <_ctype_+0x220>
    adb0:	00000613          	li	a2,0
    adb4:	1d900593          	li	a1,473
    adb8:	03850513          	addi	a0,a0,56 # d038 <__sf_fake_stdout+0x20>
    adbc:	61d000ef          	jal	ra,bbd8 <__assert_func>
    adc0:	00158593          	addi	a1,a1,1
    adc4:	00179793          	slli	a5,a5,0x1
    adc8:	fc9ff06f          	j	ad90 <__lshift+0x48>
    adcc:	01450793          	addi	a5,a0,20
    add0:	00078693          	mv	a3,a5
    add4:	00000713          	li	a4,0
    add8:	00468693          	addi	a3,a3,4
    addc:	0c974663          	blt	a4,s1,aea8 <__lshift+0x160>
    ade0:	0004d463          	bgez	s1,ade8 <__lshift+0xa0>
    ade4:	00000493          	li	s1,0
    ade8:	00249493          	slli	s1,s1,0x2
    adec:	009786b3          	add	a3,a5,s1
    adf0:	01042783          	lw	a5,16(s0)
    adf4:	01440713          	addi	a4,s0,20
    adf8:	01f97613          	andi	a2,s2,31
    adfc:	00279793          	slli	a5,a5,0x2
    ae00:	00f707b3          	add	a5,a4,a5
    ae04:	0a060863          	beqz	a2,aeb4 <__lshift+0x16c>
    ae08:	02000813          	li	a6,32
    ae0c:	40c80833          	sub	a6,a6,a2
    ae10:	00068893          	mv	a7,a3
    ae14:	00000593          	li	a1,0
    ae18:	00072503          	lw	a0,0(a4)
    ae1c:	00488893          	addi	a7,a7,4 # fcc00004 <CONFIG_SYSTEM_WORKQUEUE_PRIORITY+0xfcc00005>
    ae20:	00470713          	addi	a4,a4,4
    ae24:	00c51533          	sll	a0,a0,a2
    ae28:	00b565b3          	or	a1,a0,a1
    ae2c:	feb8ae23          	sw	a1,-4(a7)
    ae30:	ffc72583          	lw	a1,-4(a4)
    ae34:	0105d5b3          	srl	a1,a1,a6
    ae38:	fef760e3          	bltu	a4,a5,ae18 <__lshift+0xd0>
    ae3c:	01540713          	addi	a4,s0,21
    ae40:	00400613          	li	a2,4
    ae44:	00e7ea63          	bltu	a5,a4,ae58 <__lshift+0x110>
    ae48:	408787b3          	sub	a5,a5,s0
    ae4c:	feb78793          	addi	a5,a5,-21
    ae50:	ffc7f793          	andi	a5,a5,-4
    ae54:	00478613          	addi	a2,a5,4
    ae58:	00c686b3          	add	a3,a3,a2
    ae5c:	00b6a023          	sw	a1,0(a3)
    ae60:	00058463          	beqz	a1,ae68 <__lshift+0x120>
    ae64:	002b0a13          	addi	s4,s6,2
    ae68:	fffa0a13          	addi	s4,s4,-1
    ae6c:	0149a823          	sw	s4,16(s3)
    ae70:	000a8513          	mv	a0,s5
    ae74:	00040593          	mv	a1,s0
    ae78:	859ff0ef          	jal	ra,a6d0 <_Bfree>
    ae7c:	01c12083          	lw	ra,28(sp)
    ae80:	01812403          	lw	s0,24(sp)
    ae84:	01412483          	lw	s1,20(sp)
    ae88:	01012903          	lw	s2,16(sp)
    ae8c:	00812a03          	lw	s4,8(sp)
    ae90:	00412a83          	lw	s5,4(sp)
    ae94:	00012b03          	lw	s6,0(sp)
    ae98:	00098513          	mv	a0,s3
    ae9c:	00c12983          	lw	s3,12(sp)
    aea0:	02010113          	addi	sp,sp,32
    aea4:	00008067          	ret
    aea8:	fe06ae23          	sw	zero,-4(a3)
    aeac:	00170713          	addi	a4,a4,1
    aeb0:	f29ff06f          	j	add8 <__lshift+0x90>
    aeb4:	00072603          	lw	a2,0(a4)
    aeb8:	00470713          	addi	a4,a4,4
    aebc:	00468693          	addi	a3,a3,4
    aec0:	fec6ae23          	sw	a2,-4(a3)
    aec4:	fef768e3          	bltu	a4,a5,aeb4 <__lshift+0x16c>
    aec8:	fa1ff06f          	j	ae68 <__lshift+0x120>

0000aecc <__mcmp>:
    aecc:	01052683          	lw	a3,16(a0)
    aed0:	0105a703          	lw	a4,16(a1)
    aed4:	00050793          	mv	a5,a0
    aed8:	40e68533          	sub	a0,a3,a4
    aedc:	04e69063          	bne	a3,a4,af1c <__mcmp+0x50>
    aee0:	00271713          	slli	a4,a4,0x2
    aee4:	01478793          	addi	a5,a5,20
    aee8:	01458593          	addi	a1,a1,20
    aeec:	00e786b3          	add	a3,a5,a4
    aef0:	00e585b3          	add	a1,a1,a4
    aef4:	ffc6a603          	lw	a2,-4(a3)
    aef8:	ffc5a703          	lw	a4,-4(a1)
    aefc:	ffc68693          	addi	a3,a3,-4
    af00:	ffc58593          	addi	a1,a1,-4
    af04:	00e60a63          	beq	a2,a4,af18 <__mcmp+0x4c>
    af08:	fff00513          	li	a0,-1
    af0c:	00e66863          	bltu	a2,a4,af1c <__mcmp+0x50>
    af10:	00100513          	li	a0,1
    af14:	00008067          	ret
    af18:	fcd7eee3          	bltu	a5,a3,aef4 <__mcmp+0x28>
    af1c:	00008067          	ret

0000af20 <__mdiff>:
    af20:	fe010113          	addi	sp,sp,-32
    af24:	00812c23          	sw	s0,24(sp)
    af28:	00058413          	mv	s0,a1
    af2c:	01212823          	sw	s2,16(sp)
    af30:	00060593          	mv	a1,a2
    af34:	00050913          	mv	s2,a0
    af38:	00040513          	mv	a0,s0
    af3c:	00912a23          	sw	s1,20(sp)
    af40:	00112e23          	sw	ra,28(sp)
    af44:	01312623          	sw	s3,12(sp)
    af48:	00060493          	mv	s1,a2
    af4c:	f81ff0ef          	jal	ra,aecc <__mcmp>
    af50:	04051c63          	bnez	a0,afa8 <__mdiff+0x88>
    af54:	00000593          	li	a1,0
    af58:	00090513          	mv	a0,s2
    af5c:	e74ff0ef          	jal	ra,a5d0 <_Balloc>
    af60:	02051063          	bnez	a0,af80 <__mdiff+0x60>
    af64:	0000d6b7          	lui	a3,0xd
    af68:	fc468693          	addi	a3,a3,-60 # cfc4 <_ctype_+0x220>
    af6c:	00000613          	li	a2,0
    af70:	23200593          	li	a1,562
    af74:	0000d537          	lui	a0,0xd
    af78:	03850513          	addi	a0,a0,56 # d038 <__sf_fake_stdout+0x20>
    af7c:	45d000ef          	jal	ra,bbd8 <__assert_func>
    af80:	00100793          	li	a5,1
    af84:	00f52823          	sw	a5,16(a0)
    af88:	00052a23          	sw	zero,20(a0)
    af8c:	01c12083          	lw	ra,28(sp)
    af90:	01812403          	lw	s0,24(sp)
    af94:	01412483          	lw	s1,20(sp)
    af98:	01012903          	lw	s2,16(sp)
    af9c:	00c12983          	lw	s3,12(sp)
    afa0:	02010113          	addi	sp,sp,32
    afa4:	00008067          	ret
    afa8:	00100993          	li	s3,1
    afac:	00054a63          	bltz	a0,afc0 <__mdiff+0xa0>
    afb0:	00048793          	mv	a5,s1
    afb4:	00000993          	li	s3,0
    afb8:	00040493          	mv	s1,s0
    afbc:	00078413          	mv	s0,a5
    afc0:	0044a583          	lw	a1,4(s1)
    afc4:	00090513          	mv	a0,s2
    afc8:	e08ff0ef          	jal	ra,a5d0 <_Balloc>
    afcc:	00051c63          	bnez	a0,afe4 <__mdiff+0xc4>
    afd0:	0000d6b7          	lui	a3,0xd
    afd4:	fc468693          	addi	a3,a3,-60 # cfc4 <_ctype_+0x220>
    afd8:	00000613          	li	a2,0
    afdc:	24000593          	li	a1,576
    afe0:	f95ff06f          	j	af74 <__mdiff+0x54>
    afe4:	0104a803          	lw	a6,16(s1)
    afe8:	01042703          	lw	a4,16(s0)
    afec:	01448893          	addi	a7,s1,20
    aff0:	00281693          	slli	a3,a6,0x2
    aff4:	01440793          	addi	a5,s0,20
    aff8:	00271713          	slli	a4,a4,0x2
    affc:	00010eb7          	lui	t4,0x10
    b000:	01352623          	sw	s3,12(a0)
    b004:	00d886b3          	add	a3,a7,a3
    b008:	00e787b3          	add	a5,a5,a4
    b00c:	01450613          	addi	a2,a0,20
    b010:	01400e13          	li	t3,20
    b014:	00000313          	li	t1,0
    b018:	fffe8e93          	addi	t4,t4,-1 # ffff <W1+0x8df>
    b01c:	01c48733          	add	a4,s1,t3
    b020:	00072703          	lw	a4,0(a4)
    b024:	01c405b3          	add	a1,s0,t3
    b028:	0005af03          	lw	t5,0(a1)
    b02c:	01d775b3          	and	a1,a4,t4
    b030:	006585b3          	add	a1,a1,t1
    b034:	01df7333          	and	t1,t5,t4
    b038:	406585b3          	sub	a1,a1,t1
    b03c:	010f5f13          	srli	t5,t5,0x10
    b040:	01075713          	srli	a4,a4,0x10
    b044:	4105d313          	srai	t1,a1,0x10
    b048:	41e70733          	sub	a4,a4,t5
    b04c:	00670733          	add	a4,a4,t1
    b050:	41075313          	srai	t1,a4,0x10
    b054:	01d5f5b3          	and	a1,a1,t4
    b058:	01071713          	slli	a4,a4,0x10
    b05c:	01c50f33          	add	t5,a0,t3
    b060:	00b76733          	or	a4,a4,a1
    b064:	004e0e13          	addi	t3,t3,4
    b068:	00ef2023          	sw	a4,0(t5)
    b06c:	008e0733          	add	a4,t3,s0
    b070:	faf766e3          	bltu	a4,a5,b01c <__mdiff+0xfc>
    b074:	01540593          	addi	a1,s0,21
    b078:	00400713          	li	a4,4
    b07c:	00b7ea63          	bltu	a5,a1,b090 <__mdiff+0x170>
    b080:	408787b3          	sub	a5,a5,s0
    b084:	feb78793          	addi	a5,a5,-21
    b088:	ffc7f793          	andi	a5,a5,-4
    b08c:	00478713          	addi	a4,a5,4
    b090:	00e888b3          	add	a7,a7,a4
    b094:	00010e37          	lui	t3,0x10
    b098:	00e60733          	add	a4,a2,a4
    b09c:	00070e93          	mv	t4,a4
    b0a0:	00088593          	mv	a1,a7
    b0a4:	fffe0e13          	addi	t3,t3,-1 # ffff <W1+0x8df>
    b0a8:	02d5ea63          	bltu	a1,a3,b0dc <__mdiff+0x1bc>
    b0ac:	ffd88613          	addi	a2,a7,-3
    b0b0:	00000793          	li	a5,0
    b0b4:	00c6e863          	bltu	a3,a2,b0c4 <__mdiff+0x1a4>
    b0b8:	00368693          	addi	a3,a3,3
    b0bc:	411687b3          	sub	a5,a3,a7
    b0c0:	ffc7f793          	andi	a5,a5,-4
    b0c4:	00f707b3          	add	a5,a4,a5
    b0c8:	ffc7a703          	lw	a4,-4(a5)
    b0cc:	ffc78793          	addi	a5,a5,-4
    b0d0:	04070263          	beqz	a4,b114 <__mdiff+0x1f4>
    b0d4:	01052823          	sw	a6,16(a0)
    b0d8:	eb5ff06f          	j	af8c <__mdiff+0x6c>
    b0dc:	0005a783          	lw	a5,0(a1)
    b0e0:	004e8e93          	addi	t4,t4,4
    b0e4:	00458593          	addi	a1,a1,4
    b0e8:	01c7f633          	and	a2,a5,t3
    b0ec:	00660633          	add	a2,a2,t1
    b0f0:	41065313          	srai	t1,a2,0x10
    b0f4:	0107d793          	srli	a5,a5,0x10
    b0f8:	006787b3          	add	a5,a5,t1
    b0fc:	4107d313          	srai	t1,a5,0x10
    b100:	01c67633          	and	a2,a2,t3
    b104:	01079793          	slli	a5,a5,0x10
    b108:	00c7e7b3          	or	a5,a5,a2
    b10c:	fefeae23          	sw	a5,-4(t4)
    b110:	f99ff06f          	j	b0a8 <__mdiff+0x188>
    b114:	fff80813          	addi	a6,a6,-1
    b118:	fb1ff06f          	j	b0c8 <__mdiff+0x1a8>

0000b11c <__d2b>:
    b11c:	fd010113          	addi	sp,sp,-48
    b120:	02912223          	sw	s1,36(sp)
    b124:	00058493          	mv	s1,a1
    b128:	00100593          	li	a1,1
    b12c:	02812423          	sw	s0,40(sp)
    b130:	03212023          	sw	s2,32(sp)
    b134:	01312e23          	sw	s3,28(sp)
    b138:	02112623          	sw	ra,44(sp)
    b13c:	01412c23          	sw	s4,24(sp)
    b140:	00060413          	mv	s0,a2
    b144:	00068993          	mv	s3,a3
    b148:	00070913          	mv	s2,a4
    b14c:	c84ff0ef          	jal	ra,a5d0 <_Balloc>
    b150:	02051063          	bnez	a0,b170 <__d2b+0x54>
    b154:	0000d6b7          	lui	a3,0xd
    b158:	0000d537          	lui	a0,0xd
    b15c:	fc468693          	addi	a3,a3,-60 # cfc4 <_ctype_+0x220>
    b160:	00000613          	li	a2,0
    b164:	30a00593          	li	a1,778
    b168:	03850513          	addi	a0,a0,56 # d038 <__sf_fake_stdout+0x20>
    b16c:	26d000ef          	jal	ra,bbd8 <__assert_func>
    b170:	00100737          	lui	a4,0x100
    b174:	fff70793          	addi	a5,a4,-1 # fffff <__data_region_end+0x7e1e7>
    b178:	0087f7b3          	and	a5,a5,s0
    b17c:	01445413          	srli	s0,s0,0x14
    b180:	7ff47413          	andi	s0,s0,2047
    b184:	00050a13          	mv	s4,a0
    b188:	08041a63          	bnez	s0,b21c <__d2b+0x100>
    b18c:	00f12623          	sw	a5,12(sp)
    b190:	08048e63          	beqz	s1,b22c <__d2b+0x110>
    b194:	00810513          	addi	a0,sp,8
    b198:	00912423          	sw	s1,8(sp)
    b19c:	f5cff0ef          	jal	ra,a8f8 <__lo0bits>
    b1a0:	00812683          	lw	a3,8(sp)
    b1a4:	08050063          	beqz	a0,b224 <__d2b+0x108>
    b1a8:	00c12703          	lw	a4,12(sp)
    b1ac:	02000793          	li	a5,32
    b1b0:	40a787b3          	sub	a5,a5,a0
    b1b4:	00f717b3          	sll	a5,a4,a5
    b1b8:	00d7e7b3          	or	a5,a5,a3
    b1bc:	00a75733          	srl	a4,a4,a0
    b1c0:	00fa2a23          	sw	a5,20(s4)
    b1c4:	00e12623          	sw	a4,12(sp)
    b1c8:	00c12483          	lw	s1,12(sp)
    b1cc:	009a2c23          	sw	s1,24(s4)
    b1d0:	009034b3          	snez	s1,s1
    b1d4:	00148493          	addi	s1,s1,1
    b1d8:	009a2823          	sw	s1,16(s4)
    b1dc:	06040a63          	beqz	s0,b250 <__d2b+0x134>
    b1e0:	bcd40413          	addi	s0,s0,-1075
    b1e4:	00a40433          	add	s0,s0,a0
    b1e8:	03500793          	li	a5,53
    b1ec:	0089a023          	sw	s0,0(s3)
    b1f0:	40a78533          	sub	a0,a5,a0
    b1f4:	00a92023          	sw	a0,0(s2)
    b1f8:	02c12083          	lw	ra,44(sp)
    b1fc:	02812403          	lw	s0,40(sp)
    b200:	02412483          	lw	s1,36(sp)
    b204:	02012903          	lw	s2,32(sp)
    b208:	01c12983          	lw	s3,28(sp)
    b20c:	000a0513          	mv	a0,s4
    b210:	01812a03          	lw	s4,24(sp)
    b214:	03010113          	addi	sp,sp,48
    b218:	00008067          	ret
    b21c:	00e7e7b3          	or	a5,a5,a4
    b220:	f6dff06f          	j	b18c <__d2b+0x70>
    b224:	00da2a23          	sw	a3,20(s4)
    b228:	fa1ff06f          	j	b1c8 <__d2b+0xac>
    b22c:	00c10513          	addi	a0,sp,12
    b230:	ec8ff0ef          	jal	ra,a8f8 <__lo0bits>
    b234:	00c12783          	lw	a5,12(sp)
    b238:	02050513          	addi	a0,a0,32
    b23c:	00100493          	li	s1,1
    b240:	00fa2a23          	sw	a5,20(s4)
    b244:	00100793          	li	a5,1
    b248:	00fa2823          	sw	a5,16(s4)
    b24c:	f91ff06f          	j	b1dc <__d2b+0xc0>
    b250:	bce50793          	addi	a5,a0,-1074
    b254:	00f9a023          	sw	a5,0(s3)
    b258:	00249793          	slli	a5,s1,0x2
    b25c:	00fa07b3          	add	a5,s4,a5
    b260:	0107a503          	lw	a0,16(a5)
    b264:	00549493          	slli	s1,s1,0x5
    b268:	e1cff0ef          	jal	ra,a884 <__hi0bits>
    b26c:	40a484b3          	sub	s1,s1,a0
    b270:	00992023          	sw	s1,0(s2)
    b274:	f85ff06f          	j	b1f8 <__d2b+0xdc>

0000b278 <_calloc_r>:
    b278:	02c58633          	mul	a2,a1,a2
    b27c:	fe010113          	addi	sp,sp,-32
    b280:	00812c23          	sw	s0,24(sp)
    b284:	00112e23          	sw	ra,28(sp)
    b288:	00060593          	mv	a1,a2
    b28c:	00c12623          	sw	a2,12(sp)
    b290:	a6dfc0ef          	jal	ra,7cfc <_malloc_r>
    b294:	00050413          	mv	s0,a0
    b298:	00050863          	beqz	a0,b2a8 <_calloc_r+0x30>
    b29c:	00c12603          	lw	a2,12(sp)
    b2a0:	00000593          	li	a1,0
    b2a4:	a50f80ef          	jal	ra,34f4 <memset>
    b2a8:	01c12083          	lw	ra,28(sp)
    b2ac:	00040513          	mv	a0,s0
    b2b0:	01812403          	lw	s0,24(sp)
    b2b4:	02010113          	addi	sp,sp,32
    b2b8:	00008067          	ret

0000b2bc <__sfputc_r>:
    b2bc:	00862783          	lw	a5,8(a2)
    b2c0:	fff78793          	addi	a5,a5,-1
    b2c4:	00f62423          	sw	a5,8(a2)
    b2c8:	0007dc63          	bgez	a5,b2e0 <__sfputc_r+0x24>
    b2cc:	01862703          	lw	a4,24(a2)
    b2d0:	00e7c663          	blt	a5,a4,b2dc <__sfputc_r+0x20>
    b2d4:	00a00793          	li	a5,10
    b2d8:	00f59463          	bne	a1,a5,b2e0 <__sfputc_r+0x24>
    b2dc:	5f80006f          	j	b8d4 <__swbuf_r>
    b2e0:	00062783          	lw	a5,0(a2)
    b2e4:	00058513          	mv	a0,a1
    b2e8:	00178713          	addi	a4,a5,1
    b2ec:	00e62023          	sw	a4,0(a2)
    b2f0:	00b78023          	sb	a1,0(a5)
    b2f4:	00008067          	ret

0000b2f8 <__sfputs_r>:
    b2f8:	fe010113          	addi	sp,sp,-32
    b2fc:	00812c23          	sw	s0,24(sp)
    b300:	00912a23          	sw	s1,20(sp)
    b304:	01212823          	sw	s2,16(sp)
    b308:	01312623          	sw	s3,12(sp)
    b30c:	01412423          	sw	s4,8(sp)
    b310:	00112e23          	sw	ra,28(sp)
    b314:	00050913          	mv	s2,a0
    b318:	00058993          	mv	s3,a1
    b31c:	00060413          	mv	s0,a2
    b320:	00d604b3          	add	s1,a2,a3
    b324:	fff00a13          	li	s4,-1
    b328:	00941663          	bne	s0,s1,b334 <__sfputs_r+0x3c>
    b32c:	00000513          	li	a0,0
    b330:	01c0006f          	j	b34c <__sfputs_r+0x54>
    b334:	00044583          	lbu	a1,0(s0)
    b338:	00098613          	mv	a2,s3
    b33c:	00090513          	mv	a0,s2
    b340:	f7dff0ef          	jal	ra,b2bc <__sfputc_r>
    b344:	00140413          	addi	s0,s0,1
    b348:	ff4510e3          	bne	a0,s4,b328 <__sfputs_r+0x30>
    b34c:	01c12083          	lw	ra,28(sp)
    b350:	01812403          	lw	s0,24(sp)
    b354:	01412483          	lw	s1,20(sp)
    b358:	01012903          	lw	s2,16(sp)
    b35c:	00c12983          	lw	s3,12(sp)
    b360:	00812a03          	lw	s4,8(sp)
    b364:	02010113          	addi	sp,sp,32
    b368:	00008067          	ret

0000b36c <_vfiprintf_r>:
    b36c:	f5010113          	addi	sp,sp,-176
    b370:	0a812423          	sw	s0,168(sp)
    b374:	0a912223          	sw	s1,164(sp)
    b378:	0b212023          	sw	s2,160(sp)
    b37c:	09312e23          	sw	s3,156(sp)
    b380:	0a112623          	sw	ra,172(sp)
    b384:	09412c23          	sw	s4,152(sp)
    b388:	09512a23          	sw	s5,148(sp)
    b38c:	09612823          	sw	s6,144(sp)
    b390:	09712623          	sw	s7,140(sp)
    b394:	09812423          	sw	s8,136(sp)
    b398:	09912223          	sw	s9,132(sp)
    b39c:	09a12023          	sw	s10,128(sp)
    b3a0:	07b12e23          	sw	s11,124(sp)
    b3a4:	00050993          	mv	s3,a0
    b3a8:	00058413          	mv	s0,a1
    b3ac:	00060913          	mv	s2,a2
    b3b0:	00068493          	mv	s1,a3
    b3b4:	00050863          	beqz	a0,b3c4 <_vfiprintf_r+0x58>
    b3b8:	01852783          	lw	a5,24(a0)
    b3bc:	00079463          	bnez	a5,b3c4 <_vfiprintf_r+0x58>
    b3c0:	f61fe0ef          	jal	ra,a320 <__sinit>
    b3c4:	0000d7b7          	lui	a5,0xd
    b3c8:	ff878793          	addi	a5,a5,-8 # cff8 <__sf_fake_stdin>
    b3cc:	08f41c63          	bne	s0,a5,b464 <_vfiprintf_r+0xf8>
    b3d0:	0049a403          	lw	s0,4(s3)
    b3d4:	06442783          	lw	a5,100(s0)
    b3d8:	0017f793          	andi	a5,a5,1
    b3dc:	00079c63          	bnez	a5,b3f4 <_vfiprintf_r+0x88>
    b3e0:	00c45783          	lhu	a5,12(s0)
    b3e4:	2007f793          	andi	a5,a5,512
    b3e8:	00079663          	bnez	a5,b3f4 <_vfiprintf_r+0x88>
    b3ec:	05842503          	lw	a0,88(s0)
    b3f0:	b38fa0ef          	jal	ra,5728 <__retarget_lock_acquire_recursive>
    b3f4:	00c45783          	lhu	a5,12(s0)
    b3f8:	0087f793          	andi	a5,a5,8
    b3fc:	00078663          	beqz	a5,b408 <_vfiprintf_r+0x9c>
    b400:	01042783          	lw	a5,16(s0)
    b404:	0a079063          	bnez	a5,b4a4 <_vfiprintf_r+0x138>
    b408:	00040593          	mv	a1,s0
    b40c:	00098513          	mv	a0,s3
    b410:	650000ef          	jal	ra,ba60 <__swsetup_r>
    b414:	08050863          	beqz	a0,b4a4 <_vfiprintf_r+0x138>
    b418:	06442783          	lw	a5,100(s0)
    b41c:	0017f793          	andi	a5,a5,1
    b420:	06078663          	beqz	a5,b48c <_vfiprintf_r+0x120>
    b424:	fff00513          	li	a0,-1
    b428:	0ac12083          	lw	ra,172(sp)
    b42c:	0a812403          	lw	s0,168(sp)
    b430:	0a412483          	lw	s1,164(sp)
    b434:	0a012903          	lw	s2,160(sp)
    b438:	09c12983          	lw	s3,156(sp)
    b43c:	09812a03          	lw	s4,152(sp)
    b440:	09412a83          	lw	s5,148(sp)
    b444:	09012b03          	lw	s6,144(sp)
    b448:	08c12b83          	lw	s7,140(sp)
    b44c:	08812c03          	lw	s8,136(sp)
    b450:	08412c83          	lw	s9,132(sp)
    b454:	08012d03          	lw	s10,128(sp)
    b458:	07c12d83          	lw	s11,124(sp)
    b45c:	0b010113          	addi	sp,sp,176
    b460:	00008067          	ret
    b464:	0000d7b7          	lui	a5,0xd
    b468:	01878793          	addi	a5,a5,24 # d018 <__sf_fake_stdout>
    b46c:	00f41663          	bne	s0,a5,b478 <_vfiprintf_r+0x10c>
    b470:	0089a403          	lw	s0,8(s3)
    b474:	f61ff06f          	j	b3d4 <_vfiprintf_r+0x68>
    b478:	0000d7b7          	lui	a5,0xd
    b47c:	fd878793          	addi	a5,a5,-40 # cfd8 <__sf_fake_stderr>
    b480:	f4f41ae3          	bne	s0,a5,b3d4 <_vfiprintf_r+0x68>
    b484:	00c9a403          	lw	s0,12(s3)
    b488:	f4dff06f          	j	b3d4 <_vfiprintf_r+0x68>
    b48c:	00c45783          	lhu	a5,12(s0)
    b490:	2007f793          	andi	a5,a5,512
    b494:	f80798e3          	bnez	a5,b424 <_vfiprintf_r+0xb8>
    b498:	05842503          	lw	a0,88(s0)
    b49c:	a98fa0ef          	jal	ra,5734 <__retarget_lock_release_recursive>
    b4a0:	f85ff06f          	j	b424 <_vfiprintf_r+0xb8>
    b4a4:	02000793          	li	a5,32
    b4a8:	02f104a3          	sb	a5,41(sp)
    b4ac:	00008ab7          	lui	s5,0x8
    b4b0:	03000793          	li	a5,48
    b4b4:	02012223          	sw	zero,36(sp)
    b4b8:	02f10523          	sb	a5,42(sp)
    b4bc:	00912623          	sw	s1,12(sp)
    b4c0:	02500c93          	li	s9,37
    b4c4:	0000db37          	lui	s6,0xd
    b4c8:	0000dbb7          	lui	s7,0xd
    b4cc:	0000dd37          	lui	s10,0xd
    b4d0:	0000bc37          	lui	s8,0xb
    b4d4:	06ca8a93          	addi	s5,s5,108 # 806c <_printf_float>
    b4d8:	00090493          	mv	s1,s2
    b4dc:	0004c783          	lbu	a5,0(s1)
    b4e0:	00078463          	beqz	a5,b4e8 <_vfiprintf_r+0x17c>
    b4e4:	0d979c63          	bne	a5,s9,b5bc <_vfiprintf_r+0x250>
    b4e8:	41248db3          	sub	s11,s1,s2
    b4ec:	03248663          	beq	s1,s2,b518 <_vfiprintf_r+0x1ac>
    b4f0:	000d8693          	mv	a3,s11
    b4f4:	00090613          	mv	a2,s2
    b4f8:	00040593          	mv	a1,s0
    b4fc:	00098513          	mv	a0,s3
    b500:	df9ff0ef          	jal	ra,b2f8 <__sfputs_r>
    b504:	fff00793          	li	a5,-1
    b508:	24f50463          	beq	a0,a5,b750 <_vfiprintf_r+0x3e4>
    b50c:	02412783          	lw	a5,36(sp)
    b510:	01b787b3          	add	a5,a5,s11
    b514:	02f12223          	sw	a5,36(sp)
    b518:	0004c783          	lbu	a5,0(s1)
    b51c:	22078a63          	beqz	a5,b750 <_vfiprintf_r+0x3e4>
    b520:	fff00793          	li	a5,-1
    b524:	00148913          	addi	s2,s1,1
    b528:	00012823          	sw	zero,16(sp)
    b52c:	00012e23          	sw	zero,28(sp)
    b530:	00f12a23          	sw	a5,20(sp)
    b534:	00012c23          	sw	zero,24(sp)
    b538:	040109a3          	sb	zero,83(sp)
    b53c:	06012423          	sw	zero,104(sp)
    b540:	00100d93          	li	s11,1
    b544:	00094583          	lbu	a1,0(s2)
    b548:	00500613          	li	a2,5
    b54c:	0a8b0513          	addi	a0,s6,168 # d0a8 <p05.0+0xc>
    b550:	844ff0ef          	jal	ra,a594 <memchr>
    b554:	01012783          	lw	a5,16(sp)
    b558:	00190493          	addi	s1,s2,1
    b55c:	06051463          	bnez	a0,b5c4 <_vfiprintf_r+0x258>
    b560:	0107f713          	andi	a4,a5,16
    b564:	00070663          	beqz	a4,b570 <_vfiprintf_r+0x204>
    b568:	02000713          	li	a4,32
    b56c:	04e109a3          	sb	a4,83(sp)
    b570:	0087f713          	andi	a4,a5,8
    b574:	00070663          	beqz	a4,b580 <_vfiprintf_r+0x214>
    b578:	02b00713          	li	a4,43
    b57c:	04e109a3          	sb	a4,83(sp)
    b580:	00094683          	lbu	a3,0(s2)
    b584:	02a00713          	li	a4,42
    b588:	04e68c63          	beq	a3,a4,b5e0 <_vfiprintf_r+0x274>
    b58c:	01c12783          	lw	a5,28(sp)
    b590:	00090493          	mv	s1,s2
    b594:	00000693          	li	a3,0
    b598:	00900613          	li	a2,9
    b59c:	00a00513          	li	a0,10
    b5a0:	0004c703          	lbu	a4,0(s1)
    b5a4:	00148593          	addi	a1,s1,1
    b5a8:	fd070713          	addi	a4,a4,-48
    b5ac:	08e67c63          	bgeu	a2,a4,b644 <_vfiprintf_r+0x2d8>
    b5b0:	04068463          	beqz	a3,b5f8 <_vfiprintf_r+0x28c>
    b5b4:	00f12e23          	sw	a5,28(sp)
    b5b8:	0400006f          	j	b5f8 <_vfiprintf_r+0x28c>
    b5bc:	00148493          	addi	s1,s1,1
    b5c0:	f1dff06f          	j	b4dc <_vfiprintf_r+0x170>
    b5c4:	0a8b0713          	addi	a4,s6,168
    b5c8:	40e50533          	sub	a0,a0,a4
    b5cc:	00ad9533          	sll	a0,s11,a0
    b5d0:	00a7e7b3          	or	a5,a5,a0
    b5d4:	00f12823          	sw	a5,16(sp)
    b5d8:	00048913          	mv	s2,s1
    b5dc:	f69ff06f          	j	b544 <_vfiprintf_r+0x1d8>
    b5e0:	00c12703          	lw	a4,12(sp)
    b5e4:	00470693          	addi	a3,a4,4
    b5e8:	00072703          	lw	a4,0(a4)
    b5ec:	00d12623          	sw	a3,12(sp)
    b5f0:	04074063          	bltz	a4,b630 <_vfiprintf_r+0x2c4>
    b5f4:	00e12e23          	sw	a4,28(sp)
    b5f8:	0004c703          	lbu	a4,0(s1)
    b5fc:	02e00793          	li	a5,46
    b600:	08f71663          	bne	a4,a5,b68c <_vfiprintf_r+0x320>
    b604:	0014c703          	lbu	a4,1(s1)
    b608:	02a00793          	li	a5,42
    b60c:	04f71a63          	bne	a4,a5,b660 <_vfiprintf_r+0x2f4>
    b610:	00c12783          	lw	a5,12(sp)
    b614:	00248493          	addi	s1,s1,2
    b618:	00478713          	addi	a4,a5,4
    b61c:	0007a783          	lw	a5,0(a5)
    b620:	00e12623          	sw	a4,12(sp)
    b624:	0207ca63          	bltz	a5,b658 <_vfiprintf_r+0x2ec>
    b628:	00f12a23          	sw	a5,20(sp)
    b62c:	0600006f          	j	b68c <_vfiprintf_r+0x320>
    b630:	40e00733          	neg	a4,a4
    b634:	0027e793          	ori	a5,a5,2
    b638:	00e12e23          	sw	a4,28(sp)
    b63c:	00f12823          	sw	a5,16(sp)
    b640:	fb9ff06f          	j	b5f8 <_vfiprintf_r+0x28c>
    b644:	02a787b3          	mul	a5,a5,a0
    b648:	00058493          	mv	s1,a1
    b64c:	00100693          	li	a3,1
    b650:	00e787b3          	add	a5,a5,a4
    b654:	f4dff06f          	j	b5a0 <_vfiprintf_r+0x234>
    b658:	fff00793          	li	a5,-1
    b65c:	fcdff06f          	j	b628 <_vfiprintf_r+0x2bc>
    b660:	00148493          	addi	s1,s1,1
    b664:	00012a23          	sw	zero,20(sp)
    b668:	00000693          	li	a3,0
    b66c:	00000793          	li	a5,0
    b670:	00900613          	li	a2,9
    b674:	00a00513          	li	a0,10
    b678:	0004c703          	lbu	a4,0(s1)
    b67c:	00148593          	addi	a1,s1,1
    b680:	fd070713          	addi	a4,a4,-48
    b684:	08e67263          	bgeu	a2,a4,b708 <_vfiprintf_r+0x39c>
    b688:	fa0690e3          	bnez	a3,b628 <_vfiprintf_r+0x2bc>
    b68c:	0004c583          	lbu	a1,0(s1)
    b690:	00300613          	li	a2,3
    b694:	0b0b8513          	addi	a0,s7,176 # d0b0 <p05.0+0x14>
    b698:	efdfe0ef          	jal	ra,a594 <memchr>
    b69c:	02050263          	beqz	a0,b6c0 <_vfiprintf_r+0x354>
    b6a0:	0b0b8793          	addi	a5,s7,176
    b6a4:	40f50533          	sub	a0,a0,a5
    b6a8:	04000793          	li	a5,64
    b6ac:	00a797b3          	sll	a5,a5,a0
    b6b0:	01012503          	lw	a0,16(sp)
    b6b4:	00148493          	addi	s1,s1,1
    b6b8:	00f56533          	or	a0,a0,a5
    b6bc:	00a12823          	sw	a0,16(sp)
    b6c0:	0004c583          	lbu	a1,0(s1)
    b6c4:	00600613          	li	a2,6
    b6c8:	0b4d0513          	addi	a0,s10,180 # d0b4 <p05.0+0x18>
    b6cc:	00148913          	addi	s2,s1,1
    b6d0:	02b10423          	sb	a1,40(sp)
    b6d4:	ec1fe0ef          	jal	ra,a594 <memchr>
    b6d8:	0a050663          	beqz	a0,b784 <_vfiprintf_r+0x418>
    b6dc:	040a9863          	bnez	s5,b72c <_vfiprintf_r+0x3c0>
    b6e0:	01012703          	lw	a4,16(sp)
    b6e4:	00c12783          	lw	a5,12(sp)
    b6e8:	10077713          	andi	a4,a4,256
    b6ec:	02070863          	beqz	a4,b71c <_vfiprintf_r+0x3b0>
    b6f0:	00478793          	addi	a5,a5,4
    b6f4:	00f12623          	sw	a5,12(sp)
    b6f8:	02412783          	lw	a5,36(sp)
    b6fc:	014787b3          	add	a5,a5,s4
    b700:	02f12223          	sw	a5,36(sp)
    b704:	dd5ff06f          	j	b4d8 <_vfiprintf_r+0x16c>
    b708:	02a787b3          	mul	a5,a5,a0
    b70c:	00058493          	mv	s1,a1
    b710:	00100693          	li	a3,1
    b714:	00e787b3          	add	a5,a5,a4
    b718:	f61ff06f          	j	b678 <_vfiprintf_r+0x30c>
    b71c:	00778793          	addi	a5,a5,7
    b720:	ff87f793          	andi	a5,a5,-8
    b724:	00878793          	addi	a5,a5,8
    b728:	fcdff06f          	j	b6f4 <_vfiprintf_r+0x388>
    b72c:	00c10713          	addi	a4,sp,12
    b730:	2f8c0693          	addi	a3,s8,760 # b2f8 <__sfputs_r>
    b734:	00040613          	mv	a2,s0
    b738:	01010593          	addi	a1,sp,16
    b73c:	00098513          	mv	a0,s3
    b740:	92dfc0ef          	jal	ra,806c <_printf_float>
    b744:	fff00793          	li	a5,-1
    b748:	00050a13          	mv	s4,a0
    b74c:	faf516e3          	bne	a0,a5,b6f8 <_vfiprintf_r+0x38c>
    b750:	06442783          	lw	a5,100(s0)
    b754:	0017f793          	andi	a5,a5,1
    b758:	00079c63          	bnez	a5,b770 <_vfiprintf_r+0x404>
    b75c:	00c45783          	lhu	a5,12(s0)
    b760:	2007f793          	andi	a5,a5,512
    b764:	00079663          	bnez	a5,b770 <_vfiprintf_r+0x404>
    b768:	05842503          	lw	a0,88(s0)
    b76c:	fc9f90ef          	jal	ra,5734 <__retarget_lock_release_recursive>
    b770:	00c45783          	lhu	a5,12(s0)
    b774:	0407f793          	andi	a5,a5,64
    b778:	ca0796e3          	bnez	a5,b424 <_vfiprintf_r+0xb8>
    b77c:	02412503          	lw	a0,36(sp)
    b780:	ca9ff06f          	j	b428 <_vfiprintf_r+0xbc>
    b784:	00c10713          	addi	a4,sp,12
    b788:	2f8c0693          	addi	a3,s8,760
    b78c:	00040613          	mv	a2,s0
    b790:	01010593          	addi	a1,sp,16
    b794:	00098513          	mv	a0,s3
    b798:	a18fd0ef          	jal	ra,89b0 <_printf_i>
    b79c:	fa9ff06f          	j	b744 <_vfiprintf_r+0x3d8>

0000b7a0 <__sread>:
    b7a0:	ff010113          	addi	sp,sp,-16
    b7a4:	00812423          	sw	s0,8(sp)
    b7a8:	00058413          	mv	s0,a1
    b7ac:	00e59583          	lh	a1,14(a1)
    b7b0:	00112623          	sw	ra,12(sp)
    b7b4:	20d000ef          	jal	ra,c1c0 <_read_r>
    b7b8:	02054063          	bltz	a0,b7d8 <__sread+0x38>
    b7bc:	05442783          	lw	a5,84(s0)
    b7c0:	00a787b3          	add	a5,a5,a0
    b7c4:	04f42a23          	sw	a5,84(s0)
    b7c8:	00c12083          	lw	ra,12(sp)
    b7cc:	00812403          	lw	s0,8(sp)
    b7d0:	01010113          	addi	sp,sp,16
    b7d4:	00008067          	ret
    b7d8:	00c45783          	lhu	a5,12(s0)
    b7dc:	fffff737          	lui	a4,0xfffff
    b7e0:	fff70713          	addi	a4,a4,-1 # ffffefff <CONFIG_SYSTEM_WORKQUEUE_PRIORITY+0xfffff000>
    b7e4:	00e7f7b3          	and	a5,a5,a4
    b7e8:	00f41623          	sh	a5,12(s0)
    b7ec:	fddff06f          	j	b7c8 <__sread+0x28>

0000b7f0 <__swrite>:
    b7f0:	00c5d783          	lhu	a5,12(a1)
    b7f4:	fe010113          	addi	sp,sp,-32
    b7f8:	00812c23          	sw	s0,24(sp)
    b7fc:	00912a23          	sw	s1,20(sp)
    b800:	01212823          	sw	s2,16(sp)
    b804:	01312623          	sw	s3,12(sp)
    b808:	00112e23          	sw	ra,28(sp)
    b80c:	1007f793          	andi	a5,a5,256
    b810:	00050493          	mv	s1,a0
    b814:	00058413          	mv	s0,a1
    b818:	00060913          	mv	s2,a2
    b81c:	00068993          	mv	s3,a3
    b820:	00078a63          	beqz	a5,b834 <__swrite+0x44>
    b824:	00e59583          	lh	a1,14(a1)
    b828:	00200693          	li	a3,2
    b82c:	00000613          	li	a2,0
    b830:	760000ef          	jal	ra,bf90 <_lseek_r>
    b834:	00c45783          	lhu	a5,12(s0)
    b838:	fffff737          	lui	a4,0xfffff
    b83c:	fff70713          	addi	a4,a4,-1 # ffffefff <CONFIG_SYSTEM_WORKQUEUE_PRIORITY+0xfffff000>
    b840:	00e7f7b3          	and	a5,a5,a4
    b844:	00e41583          	lh	a1,14(s0)
    b848:	00f41623          	sh	a5,12(s0)
    b84c:	01812403          	lw	s0,24(sp)
    b850:	01c12083          	lw	ra,28(sp)
    b854:	00098693          	mv	a3,s3
    b858:	00090613          	mv	a2,s2
    b85c:	00c12983          	lw	s3,12(sp)
    b860:	01012903          	lw	s2,16(sp)
    b864:	00048513          	mv	a0,s1
    b868:	01412483          	lw	s1,20(sp)
    b86c:	02010113          	addi	sp,sp,32
    b870:	19c0006f          	j	ba0c <_write_r>

0000b874 <__sseek>:
    b874:	ff010113          	addi	sp,sp,-16
    b878:	00812423          	sw	s0,8(sp)
    b87c:	00058413          	mv	s0,a1
    b880:	00e59583          	lh	a1,14(a1)
    b884:	00112623          	sw	ra,12(sp)
    b888:	708000ef          	jal	ra,bf90 <_lseek_r>
    b88c:	fff00793          	li	a5,-1
    b890:	00c45703          	lhu	a4,12(s0)
    b894:	02f51263          	bne	a0,a5,b8b8 <__sseek+0x44>
    b898:	fffff7b7          	lui	a5,0xfffff
    b89c:	fff78793          	addi	a5,a5,-1 # ffffefff <CONFIG_SYSTEM_WORKQUEUE_PRIORITY+0xfffff000>
    b8a0:	00e7f7b3          	and	a5,a5,a4
    b8a4:	00f41623          	sh	a5,12(s0)
    b8a8:	00c12083          	lw	ra,12(sp)
    b8ac:	00812403          	lw	s0,8(sp)
    b8b0:	01010113          	addi	sp,sp,16
    b8b4:	00008067          	ret
    b8b8:	000017b7          	lui	a5,0x1
    b8bc:	00f767b3          	or	a5,a4,a5
    b8c0:	00f41623          	sh	a5,12(s0)
    b8c4:	04a42a23          	sw	a0,84(s0)
    b8c8:	fe1ff06f          	j	b8a8 <__sseek+0x34>

0000b8cc <__sclose>:
    b8cc:	00e59583          	lh	a1,14(a1)
    b8d0:	35c0006f          	j	bc2c <_close_r>

0000b8d4 <__swbuf_r>:
    b8d4:	fe010113          	addi	sp,sp,-32
    b8d8:	00812c23          	sw	s0,24(sp)
    b8dc:	00912a23          	sw	s1,20(sp)
    b8e0:	01212823          	sw	s2,16(sp)
    b8e4:	00112e23          	sw	ra,28(sp)
    b8e8:	01312623          	sw	s3,12(sp)
    b8ec:	00050493          	mv	s1,a0
    b8f0:	00058913          	mv	s2,a1
    b8f4:	00060413          	mv	s0,a2
    b8f8:	00050863          	beqz	a0,b908 <__swbuf_r+0x34>
    b8fc:	01852783          	lw	a5,24(a0)
    b900:	00079463          	bnez	a5,b908 <__swbuf_r+0x34>
    b904:	a1dfe0ef          	jal	ra,a320 <__sinit>
    b908:	0000d7b7          	lui	a5,0xd
    b90c:	ff878793          	addi	a5,a5,-8 # cff8 <__sf_fake_stdin>
    b910:	0af41e63          	bne	s0,a5,b9cc <__swbuf_r+0xf8>
    b914:	0044a403          	lw	s0,4(s1)
    b918:	01842783          	lw	a5,24(s0)
    b91c:	00f42423          	sw	a5,8(s0)
    b920:	00c45783          	lhu	a5,12(s0)
    b924:	0087f793          	andi	a5,a5,8
    b928:	0c078663          	beqz	a5,b9f4 <__swbuf_r+0x120>
    b92c:	01042783          	lw	a5,16(s0)
    b930:	0c078263          	beqz	a5,b9f4 <__swbuf_r+0x120>
    b934:	01042783          	lw	a5,16(s0)
    b938:	00042503          	lw	a0,0(s0)
    b93c:	0ff97993          	andi	s3,s2,255
    b940:	0ff97913          	andi	s2,s2,255
    b944:	40f50533          	sub	a0,a0,a5
    b948:	01442783          	lw	a5,20(s0)
    b94c:	00f54a63          	blt	a0,a5,b960 <__swbuf_r+0x8c>
    b950:	00040593          	mv	a1,s0
    b954:	00048513          	mv	a0,s1
    b958:	514000ef          	jal	ra,be6c <_fflush_r>
    b95c:	0a051463          	bnez	a0,ba04 <__swbuf_r+0x130>
    b960:	00842783          	lw	a5,8(s0)
    b964:	00150513          	addi	a0,a0,1
    b968:	fff78793          	addi	a5,a5,-1
    b96c:	00f42423          	sw	a5,8(s0)
    b970:	00042783          	lw	a5,0(s0)
    b974:	00178713          	addi	a4,a5,1
    b978:	00e42023          	sw	a4,0(s0)
    b97c:	01378023          	sb	s3,0(a5)
    b980:	01442783          	lw	a5,20(s0)
    b984:	00a78c63          	beq	a5,a0,b99c <__swbuf_r+0xc8>
    b988:	00c45783          	lhu	a5,12(s0)
    b98c:	0017f793          	andi	a5,a5,1
    b990:	00078e63          	beqz	a5,b9ac <__swbuf_r+0xd8>
    b994:	00a00793          	li	a5,10
    b998:	00f91a63          	bne	s2,a5,b9ac <__swbuf_r+0xd8>
    b99c:	00040593          	mv	a1,s0
    b9a0:	00048513          	mv	a0,s1
    b9a4:	4c8000ef          	jal	ra,be6c <_fflush_r>
    b9a8:	04051e63          	bnez	a0,ba04 <__swbuf_r+0x130>
    b9ac:	01c12083          	lw	ra,28(sp)
    b9b0:	01812403          	lw	s0,24(sp)
    b9b4:	01412483          	lw	s1,20(sp)
    b9b8:	00c12983          	lw	s3,12(sp)
    b9bc:	00090513          	mv	a0,s2
    b9c0:	01012903          	lw	s2,16(sp)
    b9c4:	02010113          	addi	sp,sp,32
    b9c8:	00008067          	ret
    b9cc:	0000d7b7          	lui	a5,0xd
    b9d0:	01878793          	addi	a5,a5,24 # d018 <__sf_fake_stdout>
    b9d4:	00f41663          	bne	s0,a5,b9e0 <__swbuf_r+0x10c>
    b9d8:	0084a403          	lw	s0,8(s1)
    b9dc:	f3dff06f          	j	b918 <__swbuf_r+0x44>
    b9e0:	0000d7b7          	lui	a5,0xd
    b9e4:	fd878793          	addi	a5,a5,-40 # cfd8 <__sf_fake_stderr>
    b9e8:	f2f418e3          	bne	s0,a5,b918 <__swbuf_r+0x44>
    b9ec:	00c4a403          	lw	s0,12(s1)
    b9f0:	f29ff06f          	j	b918 <__swbuf_r+0x44>
    b9f4:	00040593          	mv	a1,s0
    b9f8:	00048513          	mv	a0,s1
    b9fc:	064000ef          	jal	ra,ba60 <__swsetup_r>
    ba00:	f2050ae3          	beqz	a0,b934 <__swbuf_r+0x60>
    ba04:	fff00913          	li	s2,-1
    ba08:	fa5ff06f          	j	b9ac <__swbuf_r+0xd8>

0000ba0c <_write_r>:
    ba0c:	ff010113          	addi	sp,sp,-16
    ba10:	00812423          	sw	s0,8(sp)
    ba14:	00912223          	sw	s1,4(sp)
    ba18:	00050413          	mv	s0,a0
    ba1c:	0000d4b7          	lui	s1,0xd
    ba20:	00058513          	mv	a0,a1
    ba24:	00060593          	mv	a1,a2
    ba28:	00068613          	mv	a2,a3
    ba2c:	00112623          	sw	ra,12(sp)
    ba30:	1404ae23          	sw	zero,348(s1) # d15c <errno>
    ba34:	c31f90ef          	jal	ra,5664 <_write>
    ba38:	fff00793          	li	a5,-1
    ba3c:	00f51863          	bne	a0,a5,ba4c <_write_r+0x40>
    ba40:	15c4a783          	lw	a5,348(s1)
    ba44:	00078463          	beqz	a5,ba4c <_write_r+0x40>
    ba48:	00f42023          	sw	a5,0(s0)
    ba4c:	00c12083          	lw	ra,12(sp)
    ba50:	00812403          	lw	s0,8(sp)
    ba54:	00412483          	lw	s1,4(sp)
    ba58:	01010113          	addi	sp,sp,16
    ba5c:	00008067          	ret

0000ba60 <__swsetup_r>:
    ba60:	ff010113          	addi	sp,sp,-16
    ba64:	000827b7          	lui	a5,0x82
    ba68:	00912223          	sw	s1,4(sp)
    ba6c:	db87a483          	lw	s1,-584(a5) # 81db8 <_impure_ptr>
    ba70:	00812423          	sw	s0,8(sp)
    ba74:	01212023          	sw	s2,0(sp)
    ba78:	00112623          	sw	ra,12(sp)
    ba7c:	00050913          	mv	s2,a0
    ba80:	00058413          	mv	s0,a1
    ba84:	00048a63          	beqz	s1,ba98 <__swsetup_r+0x38>
    ba88:	0184a783          	lw	a5,24(s1)
    ba8c:	00079663          	bnez	a5,ba98 <__swsetup_r+0x38>
    ba90:	00048513          	mv	a0,s1
    ba94:	88dfe0ef          	jal	ra,a320 <__sinit>
    ba98:	0000d7b7          	lui	a5,0xd
    ba9c:	ff878793          	addi	a5,a5,-8 # cff8 <__sf_fake_stdin>
    baa0:	02f41e63          	bne	s0,a5,badc <__swsetup_r+0x7c>
    baa4:	0044a403          	lw	s0,4(s1)
    baa8:	00c41783          	lh	a5,12(s0)
    baac:	01079713          	slli	a4,a5,0x10
    bab0:	0087f693          	andi	a3,a5,8
    bab4:	01075713          	srli	a4,a4,0x10
    bab8:	08069a63          	bnez	a3,bb4c <__swsetup_r+0xec>
    babc:	01077693          	andi	a3,a4,16
    bac0:	04069263          	bnez	a3,bb04 <__swsetup_r+0xa4>
    bac4:	00900713          	li	a4,9
    bac8:	00e92023          	sw	a4,0(s2)
    bacc:	0407e793          	ori	a5,a5,64
    bad0:	00f41623          	sh	a5,12(s0)
    bad4:	fff00513          	li	a0,-1
    bad8:	0d00006f          	j	bba8 <__swsetup_r+0x148>
    badc:	0000d7b7          	lui	a5,0xd
    bae0:	01878793          	addi	a5,a5,24 # d018 <__sf_fake_stdout>
    bae4:	00f41663          	bne	s0,a5,baf0 <__swsetup_r+0x90>
    bae8:	0084a403          	lw	s0,8(s1)
    baec:	fbdff06f          	j	baa8 <__swsetup_r+0x48>
    baf0:	0000d7b7          	lui	a5,0xd
    baf4:	fd878793          	addi	a5,a5,-40 # cfd8 <__sf_fake_stderr>
    baf8:	faf418e3          	bne	s0,a5,baa8 <__swsetup_r+0x48>
    bafc:	00c4a403          	lw	s0,12(s1)
    bb00:	fa9ff06f          	j	baa8 <__swsetup_r+0x48>
    bb04:	00477713          	andi	a4,a4,4
    bb08:	02070c63          	beqz	a4,bb40 <__swsetup_r+0xe0>
    bb0c:	03442583          	lw	a1,52(s0)
    bb10:	00058c63          	beqz	a1,bb28 <__swsetup_r+0xc8>
    bb14:	04440793          	addi	a5,s0,68
    bb18:	00f58663          	beq	a1,a5,bb24 <__swsetup_r+0xc4>
    bb1c:	00090513          	mv	a0,s2
    bb20:	8d8fc0ef          	jal	ra,7bf8 <_free_r>
    bb24:	02042a23          	sw	zero,52(s0)
    bb28:	00c45783          	lhu	a5,12(s0)
    bb2c:	00042223          	sw	zero,4(s0)
    bb30:	fdb7f793          	andi	a5,a5,-37
    bb34:	00f41623          	sh	a5,12(s0)
    bb38:	01042783          	lw	a5,16(s0)
    bb3c:	00f42023          	sw	a5,0(s0)
    bb40:	00c45783          	lhu	a5,12(s0)
    bb44:	0087e793          	ori	a5,a5,8
    bb48:	00f41623          	sh	a5,12(s0)
    bb4c:	01042783          	lw	a5,16(s0)
    bb50:	02079063          	bnez	a5,bb70 <__swsetup_r+0x110>
    bb54:	00c45783          	lhu	a5,12(s0)
    bb58:	20000713          	li	a4,512
    bb5c:	2807f793          	andi	a5,a5,640
    bb60:	00e78863          	beq	a5,a4,bb70 <__swsetup_r+0x110>
    bb64:	00040593          	mv	a1,s0
    bb68:	00090513          	mv	a0,s2
    bb6c:	508000ef          	jal	ra,c074 <__smakebuf_r>
    bb70:	00c41783          	lh	a5,12(s0)
    bb74:	01079713          	slli	a4,a5,0x10
    bb78:	0017f693          	andi	a3,a5,1
    bb7c:	01075713          	srli	a4,a4,0x10
    bb80:	04068063          	beqz	a3,bbc0 <__swsetup_r+0x160>
    bb84:	01442683          	lw	a3,20(s0)
    bb88:	00042423          	sw	zero,8(s0)
    bb8c:	40d006b3          	neg	a3,a3
    bb90:	00d42c23          	sw	a3,24(s0)
    bb94:	01042683          	lw	a3,16(s0)
    bb98:	00000513          	li	a0,0
    bb9c:	00069663          	bnez	a3,bba8 <__swsetup_r+0x148>
    bba0:	08077713          	andi	a4,a4,128
    bba4:	f20714e3          	bnez	a4,bacc <__swsetup_r+0x6c>
    bba8:	00c12083          	lw	ra,12(sp)
    bbac:	00812403          	lw	s0,8(sp)
    bbb0:	00412483          	lw	s1,4(sp)
    bbb4:	00012903          	lw	s2,0(sp)
    bbb8:	01010113          	addi	sp,sp,16
    bbbc:	00008067          	ret
    bbc0:	00277693          	andi	a3,a4,2
    bbc4:	00000613          	li	a2,0
    bbc8:	00069463          	bnez	a3,bbd0 <__swsetup_r+0x170>
    bbcc:	01442603          	lw	a2,20(s0)
    bbd0:	00c42423          	sw	a2,8(s0)
    bbd4:	fc1ff06f          	j	bb94 <__swsetup_r+0x134>

0000bbd8 <__assert_func>:
    bbd8:	000827b7          	lui	a5,0x82
    bbdc:	db87a783          	lw	a5,-584(a5) # 81db8 <_impure_ptr>
    bbe0:	ff010113          	addi	sp,sp,-16
    bbe4:	00060813          	mv	a6,a2
    bbe8:	00112623          	sw	ra,12(sp)
    bbec:	00050893          	mv	a7,a0
    bbf0:	00058713          	mv	a4,a1
    bbf4:	00c7a503          	lw	a0,12(a5)
    bbf8:	00068613          	mv	a2,a3
    bbfc:	02080063          	beqz	a6,bc1c <__assert_func+0x44>
    bc00:	0000d7b7          	lui	a5,0xd
    bc04:	0bc78793          	addi	a5,a5,188 # d0bc <p05.0+0x20>
    bc08:	0000d5b7          	lui	a1,0xd
    bc0c:	00088693          	mv	a3,a7
    bc10:	0cc58593          	addi	a1,a1,204 # d0cc <p05.0+0x30>
    bc14:	334000ef          	jal	ra,bf48 <fiprintf>
    bc18:	62c000ef          	jal	ra,c244 <abort>
    bc1c:	0000d837          	lui	a6,0xd
    bc20:	b1880793          	addi	a5,a6,-1256 # cb18 <__mprec_tens+0x170>
    bc24:	b1880813          	addi	a6,a6,-1256
    bc28:	fe1ff06f          	j	bc08 <__assert_func+0x30>

0000bc2c <_close_r>:
    bc2c:	ff010113          	addi	sp,sp,-16
    bc30:	00812423          	sw	s0,8(sp)
    bc34:	00912223          	sw	s1,4(sp)
    bc38:	00050413          	mv	s0,a0
    bc3c:	0000d4b7          	lui	s1,0xd
    bc40:	00058513          	mv	a0,a1
    bc44:	00112623          	sw	ra,12(sp)
    bc48:	1404ae23          	sw	zero,348(s1) # d15c <errno>
    bc4c:	a25f90ef          	jal	ra,5670 <_close>
    bc50:	fff00793          	li	a5,-1
    bc54:	00f51863          	bne	a0,a5,bc64 <_close_r+0x38>
    bc58:	15c4a783          	lw	a5,348(s1)
    bc5c:	00078463          	beqz	a5,bc64 <_close_r+0x38>
    bc60:	00f42023          	sw	a5,0(s0)
    bc64:	00c12083          	lw	ra,12(sp)
    bc68:	00812403          	lw	s0,8(sp)
    bc6c:	00412483          	lw	s1,4(sp)
    bc70:	01010113          	addi	sp,sp,16
    bc74:	00008067          	ret

0000bc78 <__sflush_r>:
    bc78:	00c5d783          	lhu	a5,12(a1)
    bc7c:	fe010113          	addi	sp,sp,-32
    bc80:	00812c23          	sw	s0,24(sp)
    bc84:	00912a23          	sw	s1,20(sp)
    bc88:	00112e23          	sw	ra,28(sp)
    bc8c:	01212823          	sw	s2,16(sp)
    bc90:	01312623          	sw	s3,12(sp)
    bc94:	0087f713          	andi	a4,a5,8
    bc98:	00050493          	mv	s1,a0
    bc9c:	00058413          	mv	s0,a1
    bca0:	16071263          	bnez	a4,be04 <__sflush_r+0x18c>
    bca4:	0045a703          	lw	a4,4(a1)
    bca8:	00e04a63          	bgtz	a4,bcbc <__sflush_r+0x44>
    bcac:	0405a703          	lw	a4,64(a1)
    bcb0:	00e04663          	bgtz	a4,bcbc <__sflush_r+0x44>
    bcb4:	00000513          	li	a0,0
    bcb8:	1240006f          	j	bddc <__sflush_r+0x164>
    bcbc:	02c42703          	lw	a4,44(s0)
    bcc0:	fe070ae3          	beqz	a4,bcb4 <__sflush_r+0x3c>
    bcc4:	000016b7          	lui	a3,0x1
    bcc8:	0004a903          	lw	s2,0(s1)
    bccc:	00d7f7b3          	and	a5,a5,a3
    bcd0:	0004a023          	sw	zero,0(s1)
    bcd4:	0c078063          	beqz	a5,bd94 <__sflush_r+0x11c>
    bcd8:	05442503          	lw	a0,84(s0)
    bcdc:	00c45783          	lhu	a5,12(s0)
    bce0:	0047f793          	andi	a5,a5,4
    bce4:	00078e63          	beqz	a5,bd00 <__sflush_r+0x88>
    bce8:	00442783          	lw	a5,4(s0)
    bcec:	40f50533          	sub	a0,a0,a5
    bcf0:	03442783          	lw	a5,52(s0)
    bcf4:	00078663          	beqz	a5,bd00 <__sflush_r+0x88>
    bcf8:	04042783          	lw	a5,64(s0)
    bcfc:	40f50533          	sub	a0,a0,a5
    bd00:	02c42783          	lw	a5,44(s0)
    bd04:	02042583          	lw	a1,32(s0)
    bd08:	00050613          	mv	a2,a0
    bd0c:	00000693          	li	a3,0
    bd10:	00048513          	mv	a0,s1
    bd14:	000780e7          	jalr	a5
    bd18:	fff00793          	li	a5,-1
    bd1c:	00c45703          	lhu	a4,12(s0)
    bd20:	02f51263          	bne	a0,a5,bd44 <__sflush_r+0xcc>
    bd24:	0004a683          	lw	a3,0(s1)
    bd28:	01d00793          	li	a5,29
    bd2c:	0cd7e663          	bltu	a5,a3,bdf8 <__sflush_r+0x180>
    bd30:	204007b7          	lui	a5,0x20400
    bd34:	00178793          	addi	a5,a5,1 # 20400001 <CONFIG_SYS_CLOCK_HW_CYCLES_PER_SEC+0x1d450f81>
    bd38:	00d7d7b3          	srl	a5,a5,a3
    bd3c:	0017f793          	andi	a5,a5,1
    bd40:	0a078c63          	beqz	a5,bdf8 <__sflush_r+0x180>
    bd44:	01042783          	lw	a5,16(s0)
    bd48:	00042223          	sw	zero,4(s0)
    bd4c:	00f42023          	sw	a5,0(s0)
    bd50:	000017b7          	lui	a5,0x1
    bd54:	00f77733          	and	a4,a4,a5
    bd58:	00070c63          	beqz	a4,bd70 <__sflush_r+0xf8>
    bd5c:	fff00793          	li	a5,-1
    bd60:	00f51663          	bne	a0,a5,bd6c <__sflush_r+0xf4>
    bd64:	0004a783          	lw	a5,0(s1)
    bd68:	00079463          	bnez	a5,bd70 <__sflush_r+0xf8>
    bd6c:	04a42a23          	sw	a0,84(s0)
    bd70:	03442583          	lw	a1,52(s0)
    bd74:	0124a023          	sw	s2,0(s1)
    bd78:	f2058ee3          	beqz	a1,bcb4 <__sflush_r+0x3c>
    bd7c:	04440793          	addi	a5,s0,68
    bd80:	00f58663          	beq	a1,a5,bd8c <__sflush_r+0x114>
    bd84:	00048513          	mv	a0,s1
    bd88:	e71fb0ef          	jal	ra,7bf8 <_free_r>
    bd8c:	02042a23          	sw	zero,52(s0)
    bd90:	f25ff06f          	j	bcb4 <__sflush_r+0x3c>
    bd94:	02042583          	lw	a1,32(s0)
    bd98:	00100693          	li	a3,1
    bd9c:	00000613          	li	a2,0
    bda0:	00048513          	mv	a0,s1
    bda4:	000700e7          	jalr	a4
    bda8:	fff00793          	li	a5,-1
    bdac:	f2f518e3          	bne	a0,a5,bcdc <__sflush_r+0x64>
    bdb0:	0004a783          	lw	a5,0(s1)
    bdb4:	f20784e3          	beqz	a5,bcdc <__sflush_r+0x64>
    bdb8:	01d00713          	li	a4,29
    bdbc:	00e78663          	beq	a5,a4,bdc8 <__sflush_r+0x150>
    bdc0:	01600713          	li	a4,22
    bdc4:	00e79663          	bne	a5,a4,bdd0 <__sflush_r+0x158>
    bdc8:	0124a023          	sw	s2,0(s1)
    bdcc:	ee9ff06f          	j	bcb4 <__sflush_r+0x3c>
    bdd0:	00c45783          	lhu	a5,12(s0)
    bdd4:	0407e793          	ori	a5,a5,64
    bdd8:	00f41623          	sh	a5,12(s0)
    bddc:	01c12083          	lw	ra,28(sp)
    bde0:	01812403          	lw	s0,24(sp)
    bde4:	01412483          	lw	s1,20(sp)
    bde8:	01012903          	lw	s2,16(sp)
    bdec:	00c12983          	lw	s3,12(sp)
    bdf0:	02010113          	addi	sp,sp,32
    bdf4:	00008067          	ret
    bdf8:	04076713          	ori	a4,a4,64
    bdfc:	00e41623          	sh	a4,12(s0)
    be00:	fddff06f          	j	bddc <__sflush_r+0x164>
    be04:	0105a983          	lw	s3,16(a1)
    be08:	ea0986e3          	beqz	s3,bcb4 <__sflush_r+0x3c>
    be0c:	0005a903          	lw	s2,0(a1)
    be10:	0037f793          	andi	a5,a5,3
    be14:	0135a023          	sw	s3,0(a1)
    be18:	41390933          	sub	s2,s2,s3
    be1c:	00000713          	li	a4,0
    be20:	00079463          	bnez	a5,be28 <__sflush_r+0x1b0>
    be24:	0145a703          	lw	a4,20(a1)
    be28:	00e42423          	sw	a4,8(s0)
    be2c:	e92054e3          	blez	s2,bcb4 <__sflush_r+0x3c>
    be30:	02842783          	lw	a5,40(s0)
    be34:	02042583          	lw	a1,32(s0)
    be38:	00090693          	mv	a3,s2
    be3c:	00098613          	mv	a2,s3
    be40:	00048513          	mv	a0,s1
    be44:	000780e7          	jalr	a5 # 1000 <__adddf3+0x48c>
    be48:	00a04c63          	bgtz	a0,be60 <__sflush_r+0x1e8>
    be4c:	00c45783          	lhu	a5,12(s0)
    be50:	fff00513          	li	a0,-1
    be54:	0407e793          	ori	a5,a5,64
    be58:	00f41623          	sh	a5,12(s0)
    be5c:	f81ff06f          	j	bddc <__sflush_r+0x164>
    be60:	00a989b3          	add	s3,s3,a0
    be64:	40a90933          	sub	s2,s2,a0
    be68:	fc5ff06f          	j	be2c <__sflush_r+0x1b4>

0000be6c <_fflush_r>:
    be6c:	0105a783          	lw	a5,16(a1)
    be70:	ff010113          	addi	sp,sp,-16
    be74:	00112623          	sw	ra,12(sp)
    be78:	00812423          	sw	s0,8(sp)
    be7c:	00912223          	sw	s1,4(sp)
    be80:	02079063          	bnez	a5,bea0 <_fflush_r+0x34>
    be84:	00000493          	li	s1,0
    be88:	00c12083          	lw	ra,12(sp)
    be8c:	00812403          	lw	s0,8(sp)
    be90:	00048513          	mv	a0,s1
    be94:	00412483          	lw	s1,4(sp)
    be98:	01010113          	addi	sp,sp,16
    be9c:	00008067          	ret
    bea0:	00050493          	mv	s1,a0
    bea4:	00058413          	mv	s0,a1
    bea8:	00050863          	beqz	a0,beb8 <_fflush_r+0x4c>
    beac:	01852783          	lw	a5,24(a0)
    beb0:	00079463          	bnez	a5,beb8 <_fflush_r+0x4c>
    beb4:	c6cfe0ef          	jal	ra,a320 <__sinit>
    beb8:	0000d7b7          	lui	a5,0xd
    bebc:	ff878793          	addi	a5,a5,-8 # cff8 <__sf_fake_stdin>
    bec0:	06f41063          	bne	s0,a5,bf20 <_fflush_r+0xb4>
    bec4:	0044a403          	lw	s0,4(s1)
    bec8:	00c41783          	lh	a5,12(s0)
    becc:	fa078ce3          	beqz	a5,be84 <_fflush_r+0x18>
    bed0:	06442703          	lw	a4,100(s0)
    bed4:	00177713          	andi	a4,a4,1
    bed8:	00071a63          	bnez	a4,beec <_fflush_r+0x80>
    bedc:	2007f793          	andi	a5,a5,512
    bee0:	00079663          	bnez	a5,beec <_fflush_r+0x80>
    bee4:	05842503          	lw	a0,88(s0)
    bee8:	841f90ef          	jal	ra,5728 <__retarget_lock_acquire_recursive>
    beec:	00048513          	mv	a0,s1
    bef0:	00040593          	mv	a1,s0
    bef4:	d85ff0ef          	jal	ra,bc78 <__sflush_r>
    bef8:	06442783          	lw	a5,100(s0)
    befc:	00050493          	mv	s1,a0
    bf00:	0017f793          	andi	a5,a5,1
    bf04:	f80792e3          	bnez	a5,be88 <_fflush_r+0x1c>
    bf08:	00c45783          	lhu	a5,12(s0)
    bf0c:	2007f793          	andi	a5,a5,512
    bf10:	f6079ce3          	bnez	a5,be88 <_fflush_r+0x1c>
    bf14:	05842503          	lw	a0,88(s0)
    bf18:	81df90ef          	jal	ra,5734 <__retarget_lock_release_recursive>
    bf1c:	f6dff06f          	j	be88 <_fflush_r+0x1c>
    bf20:	0000d7b7          	lui	a5,0xd
    bf24:	01878793          	addi	a5,a5,24 # d018 <__sf_fake_stdout>
    bf28:	00f41663          	bne	s0,a5,bf34 <_fflush_r+0xc8>
    bf2c:	0084a403          	lw	s0,8(s1)
    bf30:	f99ff06f          	j	bec8 <_fflush_r+0x5c>
    bf34:	0000d7b7          	lui	a5,0xd
    bf38:	fd878793          	addi	a5,a5,-40 # cfd8 <__sf_fake_stderr>
    bf3c:	f8f416e3          	bne	s0,a5,bec8 <_fflush_r+0x5c>
    bf40:	00c4a403          	lw	s0,12(s1)
    bf44:	f85ff06f          	j	bec8 <_fflush_r+0x5c>

0000bf48 <fiprintf>:
    bf48:	fc010113          	addi	sp,sp,-64
    bf4c:	02f12a23          	sw	a5,52(sp)
    bf50:	000827b7          	lui	a5,0x82
    bf54:	02c12423          	sw	a2,40(sp)
    bf58:	00058613          	mv	a2,a1
    bf5c:	00050593          	mv	a1,a0
    bf60:	db87a503          	lw	a0,-584(a5) # 81db8 <_impure_ptr>
    bf64:	02d12623          	sw	a3,44(sp)
    bf68:	02810693          	addi	a3,sp,40
    bf6c:	00112e23          	sw	ra,28(sp)
    bf70:	02e12823          	sw	a4,48(sp)
    bf74:	03012c23          	sw	a6,56(sp)
    bf78:	03112e23          	sw	a7,60(sp)
    bf7c:	00d12623          	sw	a3,12(sp)
    bf80:	becff0ef          	jal	ra,b36c <_vfiprintf_r>
    bf84:	01c12083          	lw	ra,28(sp)
    bf88:	04010113          	addi	sp,sp,64
    bf8c:	00008067          	ret

0000bf90 <_lseek_r>:
    bf90:	ff010113          	addi	sp,sp,-16
    bf94:	00812423          	sw	s0,8(sp)
    bf98:	00912223          	sw	s1,4(sp)
    bf9c:	00050413          	mv	s0,a0
    bfa0:	0000d4b7          	lui	s1,0xd
    bfa4:	00058513          	mv	a0,a1
    bfa8:	00060593          	mv	a1,a2
    bfac:	00068613          	mv	a2,a3
    bfb0:	00112623          	sw	ra,12(sp)
    bfb4:	1404ae23          	sw	zero,348(s1) # d15c <errno>
    bfb8:	ec0f90ef          	jal	ra,5678 <_lseek>
    bfbc:	fff00793          	li	a5,-1
    bfc0:	00f51863          	bne	a0,a5,bfd0 <_lseek_r+0x40>
    bfc4:	15c4a783          	lw	a5,348(s1)
    bfc8:	00078463          	beqz	a5,bfd0 <_lseek_r+0x40>
    bfcc:	00f42023          	sw	a5,0(s0)
    bfd0:	00c12083          	lw	ra,12(sp)
    bfd4:	00812403          	lw	s0,8(sp)
    bfd8:	00412483          	lw	s1,4(sp)
    bfdc:	01010113          	addi	sp,sp,16
    bfe0:	00008067          	ret

0000bfe4 <__swhatbuf_r>:
    bfe4:	f9010113          	addi	sp,sp,-112
    bfe8:	07212023          	sw	s2,96(sp)
    bfec:	00058913          	mv	s2,a1
    bff0:	00e59583          	lh	a1,14(a1)
    bff4:	06812423          	sw	s0,104(sp)
    bff8:	06912223          	sw	s1,100(sp)
    bffc:	06112623          	sw	ra,108(sp)
    c000:	00060413          	mv	s0,a2
    c004:	00068493          	mv	s1,a3
    c008:	0005de63          	bgez	a1,c024 <__swhatbuf_r+0x40>
    c00c:	00c91783          	lh	a5,12(s2)
    c010:	0004a023          	sw	zero,0(s1)
    c014:	0807f793          	andi	a5,a5,128
    c018:	02079c63          	bnez	a5,c050 <__swhatbuf_r+0x6c>
    c01c:	40000793          	li	a5,1024
    c020:	0340006f          	j	c054 <__swhatbuf_r+0x70>
    c024:	00810613          	addi	a2,sp,8
    c028:	234000ef          	jal	ra,c25c <_fstat_r>
    c02c:	fe0540e3          	bltz	a0,c00c <__swhatbuf_r+0x28>
    c030:	00c12703          	lw	a4,12(sp)
    c034:	0000f7b7          	lui	a5,0xf
    c038:	00e7f7b3          	and	a5,a5,a4
    c03c:	ffffe737          	lui	a4,0xffffe
    c040:	00e787b3          	add	a5,a5,a4
    c044:	0017b793          	seqz	a5,a5
    c048:	00f4a023          	sw	a5,0(s1)
    c04c:	fd1ff06f          	j	c01c <__swhatbuf_r+0x38>
    c050:	04000793          	li	a5,64
    c054:	06c12083          	lw	ra,108(sp)
    c058:	00f42023          	sw	a5,0(s0)
    c05c:	06812403          	lw	s0,104(sp)
    c060:	06412483          	lw	s1,100(sp)
    c064:	06012903          	lw	s2,96(sp)
    c068:	00000513          	li	a0,0
    c06c:	07010113          	addi	sp,sp,112
    c070:	00008067          	ret

0000c074 <__smakebuf_r>:
    c074:	00c5d783          	lhu	a5,12(a1)
    c078:	fe010113          	addi	sp,sp,-32
    c07c:	00812c23          	sw	s0,24(sp)
    c080:	00112e23          	sw	ra,28(sp)
    c084:	00912a23          	sw	s1,20(sp)
    c088:	01212823          	sw	s2,16(sp)
    c08c:	0027f793          	andi	a5,a5,2
    c090:	00058413          	mv	s0,a1
    c094:	02078863          	beqz	a5,c0c4 <__smakebuf_r+0x50>
    c098:	04740793          	addi	a5,s0,71
    c09c:	00f42023          	sw	a5,0(s0)
    c0a0:	00f42823          	sw	a5,16(s0)
    c0a4:	00100793          	li	a5,1
    c0a8:	00f42a23          	sw	a5,20(s0)
    c0ac:	01c12083          	lw	ra,28(sp)
    c0b0:	01812403          	lw	s0,24(sp)
    c0b4:	01412483          	lw	s1,20(sp)
    c0b8:	01012903          	lw	s2,16(sp)
    c0bc:	02010113          	addi	sp,sp,32
    c0c0:	00008067          	ret
    c0c4:	00c10693          	addi	a3,sp,12
    c0c8:	00810613          	addi	a2,sp,8
    c0cc:	00050913          	mv	s2,a0
    c0d0:	f15ff0ef          	jal	ra,bfe4 <__swhatbuf_r>
    c0d4:	00812583          	lw	a1,8(sp)
    c0d8:	00050493          	mv	s1,a0
    c0dc:	00090513          	mv	a0,s2
    c0e0:	c1dfb0ef          	jal	ra,7cfc <_malloc_r>
    c0e4:	02051063          	bnez	a0,c104 <__smakebuf_r+0x90>
    c0e8:	00c41783          	lh	a5,12(s0)
    c0ec:	2007f713          	andi	a4,a5,512
    c0f0:	fa071ee3          	bnez	a4,c0ac <__smakebuf_r+0x38>
    c0f4:	ffc7f793          	andi	a5,a5,-4
    c0f8:	0027e793          	ori	a5,a5,2
    c0fc:	00f41623          	sh	a5,12(s0)
    c100:	f99ff06f          	j	c098 <__smakebuf_r+0x24>
    c104:	0000a7b7          	lui	a5,0xa
    c108:	27878793          	addi	a5,a5,632 # a278 <_cleanup_r>
    c10c:	02f92423          	sw	a5,40(s2)
    c110:	00c45783          	lhu	a5,12(s0)
    c114:	00a42023          	sw	a0,0(s0)
    c118:	00a42823          	sw	a0,16(s0)
    c11c:	0807e793          	ori	a5,a5,128
    c120:	00f41623          	sh	a5,12(s0)
    c124:	00812783          	lw	a5,8(sp)
    c128:	00f42a23          	sw	a5,20(s0)
    c12c:	00c12783          	lw	a5,12(sp)
    c130:	02078263          	beqz	a5,c154 <__smakebuf_r+0xe0>
    c134:	00e41583          	lh	a1,14(s0)
    c138:	00090513          	mv	a0,s2
    c13c:	170000ef          	jal	ra,c2ac <_isatty_r>
    c140:	00050a63          	beqz	a0,c154 <__smakebuf_r+0xe0>
    c144:	00c45783          	lhu	a5,12(s0)
    c148:	ffc7f793          	andi	a5,a5,-4
    c14c:	0017e793          	ori	a5,a5,1
    c150:	00f41623          	sh	a5,12(s0)
    c154:	00c45503          	lhu	a0,12(s0)
    c158:	00a4e4b3          	or	s1,s1,a0
    c15c:	00941623          	sh	s1,12(s0)
    c160:	f4dff06f          	j	c0ac <__smakebuf_r+0x38>

0000c164 <__ascii_mbtowc>:
    c164:	02059a63          	bnez	a1,c198 <__ascii_mbtowc+0x34>
    c168:	ff010113          	addi	sp,sp,-16
    c16c:	00c10593          	addi	a1,sp,12
    c170:	00000513          	li	a0,0
    c174:	00060e63          	beqz	a2,c190 <__ascii_mbtowc+0x2c>
    c178:	ffe00513          	li	a0,-2
    c17c:	00068a63          	beqz	a3,c190 <__ascii_mbtowc+0x2c>
    c180:	00064783          	lbu	a5,0(a2)
    c184:	00f5a023          	sw	a5,0(a1)
    c188:	00064503          	lbu	a0,0(a2)
    c18c:	00a03533          	snez	a0,a0
    c190:	01010113          	addi	sp,sp,16
    c194:	00008067          	ret
    c198:	00000513          	li	a0,0
    c19c:	02060063          	beqz	a2,c1bc <__ascii_mbtowc+0x58>
    c1a0:	ffe00513          	li	a0,-2
    c1a4:	00068c63          	beqz	a3,c1bc <__ascii_mbtowc+0x58>
    c1a8:	00064783          	lbu	a5,0(a2)
    c1ac:	00f5a023          	sw	a5,0(a1)
    c1b0:	00064503          	lbu	a0,0(a2)
    c1b4:	00a03533          	snez	a0,a0
    c1b8:	00008067          	ret
    c1bc:	00008067          	ret

0000c1c0 <_read_r>:
    c1c0:	ff010113          	addi	sp,sp,-16
    c1c4:	00812423          	sw	s0,8(sp)
    c1c8:	00912223          	sw	s1,4(sp)
    c1cc:	00050413          	mv	s0,a0
    c1d0:	0000d4b7          	lui	s1,0xd
    c1d4:	00058513          	mv	a0,a1
    c1d8:	00060593          	mv	a1,a2
    c1dc:	00068613          	mv	a2,a3
    c1e0:	00112623          	sw	ra,12(sp)
    c1e4:	1404ae23          	sw	zero,348(s1) # d15c <errno>
    c1e8:	c70f90ef          	jal	ra,5658 <_read>
    c1ec:	fff00793          	li	a5,-1
    c1f0:	00f51863          	bne	a0,a5,c200 <_read_r+0x40>
    c1f4:	15c4a783          	lw	a5,348(s1)
    c1f8:	00078463          	beqz	a5,c200 <_read_r+0x40>
    c1fc:	00f42023          	sw	a5,0(s0)
    c200:	00c12083          	lw	ra,12(sp)
    c204:	00812403          	lw	s0,8(sp)
    c208:	00412483          	lw	s1,4(sp)
    c20c:	01010113          	addi	sp,sp,16
    c210:	00008067          	ret

0000c214 <__ascii_wctomb>:
    c214:	02058463          	beqz	a1,c23c <__ascii_wctomb+0x28>
    c218:	0ff00793          	li	a5,255
    c21c:	00c7fa63          	bgeu	a5,a2,c230 <__ascii_wctomb+0x1c>
    c220:	08a00793          	li	a5,138
    c224:	00f52023          	sw	a5,0(a0)
    c228:	fff00513          	li	a0,-1
    c22c:	00008067          	ret
    c230:	00c58023          	sb	a2,0(a1)
    c234:	00100513          	li	a0,1
    c238:	00008067          	ret
    c23c:	00000513          	li	a0,0
    c240:	00008067          	ret

0000c244 <abort>:
    c244:	ff010113          	addi	sp,sp,-16
    c248:	00600513          	li	a0,6
    c24c:	00112623          	sw	ra,12(sp)
    c250:	158000ef          	jal	ra,c3a8 <raise>
    c254:	00100513          	li	a0,1
    c258:	c50f90ef          	jal	ra,56a8 <_exit>

0000c25c <_fstat_r>:
    c25c:	ff010113          	addi	sp,sp,-16
    c260:	00812423          	sw	s0,8(sp)
    c264:	00912223          	sw	s1,4(sp)
    c268:	00050413          	mv	s0,a0
    c26c:	0000d4b7          	lui	s1,0xd
    c270:	00058513          	mv	a0,a1
    c274:	00060593          	mv	a1,a2
    c278:	00112623          	sw	ra,12(sp)
    c27c:	1404ae23          	sw	zero,348(s1) # d15c <errno>
    c280:	c18f90ef          	jal	ra,5698 <_fstat>
    c284:	fff00793          	li	a5,-1
    c288:	00f51863          	bne	a0,a5,c298 <_fstat_r+0x3c>
    c28c:	15c4a783          	lw	a5,348(s1)
    c290:	00078463          	beqz	a5,c298 <_fstat_r+0x3c>
    c294:	00f42023          	sw	a5,0(s0)
    c298:	00c12083          	lw	ra,12(sp)
    c29c:	00812403          	lw	s0,8(sp)
    c2a0:	00412483          	lw	s1,4(sp)
    c2a4:	01010113          	addi	sp,sp,16
    c2a8:	00008067          	ret

0000c2ac <_isatty_r>:
    c2ac:	ff010113          	addi	sp,sp,-16
    c2b0:	00812423          	sw	s0,8(sp)
    c2b4:	00912223          	sw	s1,4(sp)
    c2b8:	00050413          	mv	s0,a0
    c2bc:	0000d4b7          	lui	s1,0xd
    c2c0:	00058513          	mv	a0,a1
    c2c4:	00112623          	sw	ra,12(sp)
    c2c8:	1404ae23          	sw	zero,348(s1) # d15c <errno>
    c2cc:	bb4f90ef          	jal	ra,5680 <_isatty>
    c2d0:	fff00793          	li	a5,-1
    c2d4:	00f51863          	bne	a0,a5,c2e4 <_isatty_r+0x38>
    c2d8:	15c4a783          	lw	a5,348(s1)
    c2dc:	00078463          	beqz	a5,c2e4 <_isatty_r+0x38>
    c2e0:	00f42023          	sw	a5,0(s0)
    c2e4:	00c12083          	lw	ra,12(sp)
    c2e8:	00812403          	lw	s0,8(sp)
    c2ec:	00412483          	lw	s1,4(sp)
    c2f0:	01010113          	addi	sp,sp,16
    c2f4:	00008067          	ret

0000c2f8 <_raise_r>:
    c2f8:	fe010113          	addi	sp,sp,-32
    c2fc:	00812c23          	sw	s0,24(sp)
    c300:	00112e23          	sw	ra,28(sp)
    c304:	01f00793          	li	a5,31
    c308:	00050413          	mv	s0,a0
    c30c:	02b7f063          	bgeu	a5,a1,c32c <_raise_r+0x34>
    c310:	01600793          	li	a5,22
    c314:	00f52023          	sw	a5,0(a0)
    c318:	fff00513          	li	a0,-1
    c31c:	01c12083          	lw	ra,28(sp)
    c320:	01812403          	lw	s0,24(sp)
    c324:	02010113          	addi	sp,sp,32
    c328:	00008067          	ret
    c32c:	04452783          	lw	a5,68(a0)
    c330:	00058613          	mv	a2,a1
    c334:	00078a63          	beqz	a5,c348 <_raise_r+0x50>
    c338:	00259713          	slli	a4,a1,0x2
    c33c:	00e787b3          	add	a5,a5,a4
    c340:	0007a703          	lw	a4,0(a5)
    c344:	02071663          	bnez	a4,c370 <_raise_r+0x78>
    c348:	00040513          	mv	a0,s0
    c34c:	00c12623          	sw	a2,12(sp)
    c350:	0b8000ef          	jal	ra,c408 <_getpid_r>
    c354:	00050593          	mv	a1,a0
    c358:	00040513          	mv	a0,s0
    c35c:	01812403          	lw	s0,24(sp)
    c360:	00c12603          	lw	a2,12(sp)
    c364:	01c12083          	lw	ra,28(sp)
    c368:	02010113          	addi	sp,sp,32
    c36c:	04c0006f          	j	c3b8 <_kill_r>
    c370:	00100693          	li	a3,1
    c374:	00000513          	li	a0,0
    c378:	fad702e3          	beq	a4,a3,c31c <_raise_r+0x24>
    c37c:	fff00693          	li	a3,-1
    c380:	00d71a63          	bne	a4,a3,c394 <_raise_r+0x9c>
    c384:	01600793          	li	a5,22
    c388:	00f42023          	sw	a5,0(s0)
    c38c:	00100513          	li	a0,1
    c390:	f8dff06f          	j	c31c <_raise_r+0x24>
    c394:	00058513          	mv	a0,a1
    c398:	0007a023          	sw	zero,0(a5)
    c39c:	000700e7          	jalr	a4 # ffffe000 <CONFIG_SYSTEM_WORKQUEUE_PRIORITY+0xffffe001>
    c3a0:	00000513          	li	a0,0
    c3a4:	f79ff06f          	j	c31c <_raise_r+0x24>

0000c3a8 <raise>:
    c3a8:	000827b7          	lui	a5,0x82
    c3ac:	00050593          	mv	a1,a0
    c3b0:	db87a503          	lw	a0,-584(a5) # 81db8 <_impure_ptr>
    c3b4:	f45ff06f          	j	c2f8 <_raise_r>

0000c3b8 <_kill_r>:
    c3b8:	ff010113          	addi	sp,sp,-16
    c3bc:	00812423          	sw	s0,8(sp)
    c3c0:	00912223          	sw	s1,4(sp)
    c3c4:	00050413          	mv	s0,a0
    c3c8:	0000d4b7          	lui	s1,0xd
    c3cc:	00058513          	mv	a0,a1
    c3d0:	00060593          	mv	a1,a2
    c3d4:	00112623          	sw	ra,12(sp)
    c3d8:	1404ae23          	sw	zero,348(s1) # d15c <errno>
    c3dc:	aacf90ef          	jal	ra,5688 <_kill>
    c3e0:	fff00793          	li	a5,-1
    c3e4:	00f51863          	bne	a0,a5,c3f4 <_kill_r+0x3c>
    c3e8:	15c4a783          	lw	a5,348(s1)
    c3ec:	00078463          	beqz	a5,c3f4 <_kill_r+0x3c>
    c3f0:	00f42023          	sw	a5,0(s0)
    c3f4:	00c12083          	lw	ra,12(sp)
    c3f8:	00812403          	lw	s0,8(sp)
    c3fc:	00412483          	lw	s1,4(sp)
    c400:	01010113          	addi	sp,sp,16
    c404:	00008067          	ret

0000c408 <_getpid_r>:
    c408:	a88f906f          	j	5690 <_getpid>
