
zephyr.elf:     file format elf32-littleriscv


Disassembly of section vector:

00000000 <__start>:

	/*
	 * Set mtvec (Machine Trap-Vector Base-Address Register)
	 * to __irq_wrapper.
	 */
	la t0, __irq_wrapper
   0:	00000297          	auipc	t0,0x0
   4:	03028293          	addi	t0,t0,48 # 30 <__irq_wrapper>
	csrw mtvec, t0
   8:	30529073          	csrw	mtvec,t0
	/*
	* To avoid having to hardcode the main clock frequency,
	* we read the actual value from register 0x8000103c
	* and store to z_clock_hw_cycles_per_sec
	*/
	li	t0, 0x80001000
   c:	800012b7          	lui	t0,0x80001
	lw	t1, 0x3c(t0)
  10:	03c2a303          	lw	t1,60(t0) # 8000103c <CONFIG_SYSTEM_WORKQUEUE_PRIORITY+0x8000103d>
	la	t0, z_clock_hw_cycles_per_sec
  14:	00203297          	auipc	t0,0x203
  18:	75028293          	addi	t0,t0,1872 # 203764 <z_clock_hw_cycles_per_sec>
	sw	t1, 0(t0)
  1c:	0062a023          	sw	t1,0(t0)

	/* Jump to __initialize */
	tail __initialize
  20:	2050506f          	j	5a24 <__initialize>

Disassembly of section exceptions:

00000030 <__irq_wrapper>:
	 * Save caller-saved registers on current thread stack.
	 * NOTE: need to be updated to account for floating-point registers
	 * floating-point registers should be accounted for when corresponding
	 * config variable is set
	 */
	STORE_CALLER_SAVED()
  30:	fb010113          	addi	sp,sp,-80
  34:	00112023          	sw	ra,0(sp)
  38:	00412223          	sw	tp,4(sp)
  3c:	00512423          	sw	t0,8(sp)
  40:	00612623          	sw	t1,12(sp)
  44:	00712823          	sw	t2,16(sp)
  48:	01c12a23          	sw	t3,20(sp)
  4c:	01d12c23          	sw	t4,24(sp)
  50:	01e12e23          	sw	t5,28(sp)
  54:	03f12023          	sw	t6,32(sp)
  58:	02a12223          	sw	a0,36(sp)
  5c:	02b12423          	sw	a1,40(sp)
  60:	02c12623          	sw	a2,44(sp)
  64:	02d12823          	sw	a3,48(sp)
  68:	02e12a23          	sw	a4,52(sp)
  6c:	02f12c23          	sw	a5,56(sp)
  70:	03012e23          	sw	a6,60(sp)
  74:	05112023          	sw	a7,64(sp)

skip_store_fp_caller_saved:
#endif /* CONFIG_FPU && CONFIG_FPU_SHARING */

	/* Save MEPC register */
	csrr t0, mepc
  78:	341022f3          	csrr	t0,mepc
	RV_OP_STOREREG t0, __z_arch_esf_t_mepc_OFFSET(sp)
  7c:	04512223          	sw	t0,68(sp)

	/* Save SOC-specific MSTATUS register */
	csrr t0, mstatus
  80:	300022f3          	csrr	t0,mstatus
	RV_OP_STOREREG t0, __z_arch_esf_t_mstatus_OFFSET(sp)
  84:	04512423          	sw	t0,72(sp)
	 * SOCs (like pulpino or riscv-qemu), the MSB is never set to indicate
	 * interrupt. Hence, check for interrupt/exception via the __soc_is_irq
	 * function (that needs to be implemented by each SOC). The result is
	 * returned via register a0 (1: interrupt, 0 exception)
	 */
	jal ra, __soc_is_irq
  88:	228000ef          	jal	ra,2b0 <__soc_is_irq>

	/* If a0 != 0, jump to is_interrupt */
	addi t1, x0, 0
  8c:	00000313          	li	t1,0
	bnez a0, is_interrupt
  90:	02051e63          	bnez	a0,cc <is_interrupt>
	/*
	 * If the exception is the result of an ECALL, check whether to
	 * perform a context-switch or an IRQ offload. Otherwise call _Fault
	 * to report the exception.
	 */
	csrr t0, mcause
  94:	342022f3          	csrr	t0,mcause
	li t2, SOC_MCAUSE_EXP_MASK
  98:	800003b7          	lui	t2,0x80000
  9c:	fff38393          	addi	t2,t2,-1 # 7fffffff <CONFIG_SYSTEM_WORKQUEUE_PRIORITY+0x80000000>
	and t0, t0, t2
  a0:	0072f2b3          	and	t0,t0,t2
	li t1, SOC_MCAUSE_ECALL_EXP
  a4:	00b00313          	li	t1,11

	/*
	 * If mcause == SOC_MCAUSE_ECALL_EXP, handle system call from
	 * kernel thread.
	 */
	beq t0, t1, is_kernel_syscall
  a8:	00628a63          	beq	t0,t1,bc <is_kernel_syscall>
	 * Stack pointer is pointing to a z_arch_esf_t structure, pass it
	 * to _Fault (via register a0).
	 * If _Fault shall return, set return address to
	 * no_reschedule to restore stack.
	 */
	addi a0, sp, 0
  ac:	00010513          	mv	a0,sp
	RV_OP_LOADREG t1, _kernel_offset_to_current(t0)
	RV_OP_LOADREG t0, _thread_offset_to_priv_stack_start(t1)
	RV_OP_STOREREG sp, _thread_offset_to_user_sp(t1) /* Update user SP */
	addi sp, t0, CONFIG_PRIVILEGED_STACK_SIZE
#else
	la ra, no_reschedule
  b0:	00000097          	auipc	ra,0x0
  b4:	19408093          	addi	ra,ra,404 # 244 <no_reschedule>
#endif /* CONFIG_USERSPACE */

	tail _Fault
  b8:	1250506f          	j	59dc <_Fault>

000000bc <is_kernel_syscall>:
	 * again upon exiting the ISR.
	 *
	 * It's safe to always increment by 4, even with compressed
	 * instructions, because the ecall instruction is always 4 bytes.
	 */
	RV_OP_LOADREG t0, __z_arch_esf_t_mepc_OFFSET(sp)
  bc:	04412283          	lw	t0,68(sp)
	addi t0, t0, 4
  c0:	00428293          	addi	t0,t0,4
	RV_OP_STOREREG t0, __z_arch_esf_t_mepc_OFFSET(sp)
  c4:	04512223          	sw	t0,68(sp)
	j z_riscv_user_mode_enter_syscall
#endif /* CONFIG_USERSPACE */
	/*
	 * Go to reschedule to handle context-switch
	 */
	j reschedule
  c8:	0800006f          	j	148 <reschedule>

000000cc <is_interrupt>:
	 * Save current thread stack pointer and switch
	 * stack pointer to interrupt stack.
	 */

	/* Save thread stack pointer to temp register t0 */
	addi t0, sp, 0
  cc:	00010293          	mv	t0,sp

	/* Switch to interrupt stack */
	la t2, _kernel
  d0:	0000e397          	auipc	t2,0xe
  d4:	e4c38393          	addi	t2,t2,-436 # df1c <_kernel>
	RV_OP_LOADREG sp, _kernel_offset_to_irq_stack(t2)
  d8:	0043a103          	lw	sp,4(t2)

	/*
	 * Save thread stack pointer on interrupt stack
	 * In RISC-V, stack pointer needs to be 16-byte aligned
	 */
	addi sp, sp, -16
  dc:	ff010113          	addi	sp,sp,-16
	RV_OP_STOREREG t0, 0x00(sp)
  e0:	00512023          	sw	t0,0(sp)

000000e4 <on_irq_stack>:
	la t2, _kernel
#endif /* !CONFIG_USERSPACE && !CONFIG_PMP_STACK_GUARD */

on_irq_stack:
	/* Increment _kernel.cpus[0].nested variable */
	lw t3, _kernel_offset_to_nested(t2)
  e4:	0003ae03          	lw	t3,0(t2)
	addi t3, t3, 1
  e8:	001e0e13          	addi	t3,t3,1
	sw t3, _kernel_offset_to_nested(t2)
  ec:	01c3a023          	sw	t3,0(t2)
#ifdef CONFIG_TRACING_ISR
	call sys_trace_isr_enter
#endif

	/* Get IRQ causing interrupt */
	csrr a0, mcause
  f0:	34202573          	csrr	a0,mcause
	li t0, SOC_MCAUSE_EXP_MASK
  f4:	800002b7          	lui	t0,0x80000
  f8:	fff28293          	addi	t0,t0,-1 # 7fffffff <CONFIG_SYSTEM_WORKQUEUE_PRIORITY+0x80000000>
	and a0, a0, t0
  fc:	00557533          	and	a0,a0,t0

	/*
	 * Clear pending IRQ generating the interrupt at SOC level
	 * Pass IRQ number to __soc_handle_irq via register a0
	 */
	jal ra, __soc_handle_irq
 100:	1a0000ef          	jal	ra,2a0 <__soc_handle_irq>

	/*
	 * Call corresponding registered function in _sw_isr_table.
	 * (table is 2-word wide, we should shift index accordingly)
	 */
	la t0, _sw_isr_table
 104:	0000d297          	auipc	t0,0xd
 108:	dd028293          	addi	t0,t0,-560 # ced4 <_sw_isr_table>
	slli a0, a0, (RV_REGSHIFT + 1)
 10c:	00351513          	slli	a0,a0,0x3
	add t0, t0, a0
 110:	00a282b3          	add	t0,t0,a0

	/* Load argument in a0 register */
	RV_OP_LOADREG a0, 0x00(t0)
 114:	0002a503          	lw	a0,0(t0)

	/* Load ISR function address in register t1 */
	RV_OP_LOADREG t1, RV_REGSIZE(t0)
 118:	0042a303          	lw	t1,4(t0)

	/* Call ISR function */
	jalr ra, t1
 11c:	000300e7          	jalr	t1

00000120 <on_thread_stack>:

on_thread_stack:
	/* Get reference to _kernel */
	la t1, _kernel
 120:	0000e317          	auipc	t1,0xe
 124:	dfc30313          	addi	t1,t1,-516 # df1c <_kernel>

	/* Decrement _kernel.cpus[0].nested variable */
	lw t2, _kernel_offset_to_nested(t1)
 128:	00032383          	lw	t2,0(t1)
	addi t2, t2, -1
 12c:	fff38393          	addi	t2,t2,-1
	sw t2, _kernel_offset_to_nested(t1)
 130:	00732023          	sw	t2,0(t1)

#if !defined(CONFIG_USERSPACE) && !defined(CONFIG_PMP_STACK_GUARD)
	/* Restore thread stack pointer */
	RV_OP_LOADREG t0, 0x00(sp)
 134:	00012283          	lw	t0,0(sp)
	addi sp, t0, 0
 138:	00028113          	mv	sp,t0
	/*
	 * Check if we need to perform a reschedule
	 */

	/* Get pointer to _kernel.current */
	RV_OP_LOADREG t2, _kernel_offset_to_current(t1)
 13c:	00832383          	lw	t2,8(t1)

	/*
	 * Check if next thread to schedule is current thread.
	 * If yes do not perform a reschedule
	 */
	RV_OP_LOADREG t3, _kernel_offset_to_ready_q_cache(t1)
 140:	01832e03          	lw	t3,24(t1)
	beq t3, t2, no_reschedule
 144:	107e0063          	beq	t3,t2,244 <no_reschedule>

00000148 <reschedule>:
	 * Note:
	 *   Sometimes this code is execute back-to-back before the target thread
	 *   has a chance to run. If this happens, the current thread and the
	 *   target thread will be the same.
	 */
	la t0, _kernel
 148:	0000e297          	auipc	t0,0xe
 14c:	dd428293          	addi	t0,t0,-556 # df1c <_kernel>
	RV_OP_LOADREG t2, _kernel_offset_to_current(t0)
 150:	0082a383          	lw	t2,8(t0)
	RV_OP_LOADREG t3, _kernel_offset_to_ready_q_cache(t0)
 154:	0182ae03          	lw	t3,24(t0)
	beq t2, t3, no_reschedule
 158:	0fc38663          	beq	t2,t3,244 <no_reschedule>

#if CONFIG_INSTRUMENT_THREAD_SWITCHING
	call z_thread_mark_switched_out
#endif
	/* Get reference to _kernel */
	la t0, _kernel
 15c:	0000e297          	auipc	t0,0xe
 160:	dc028293          	addi	t0,t0,-576 # df1c <_kernel>

	/* Get pointer to _kernel.current */
	RV_OP_LOADREG t1, _kernel_offset_to_current(t0)
 164:	0082a303          	lw	t1,8(t0)

	/*
	 * Save callee-saved registers of current kernel thread
	 * prior to handle context-switching
	 */
	STORE_CALLEE_SAVED(t1)
 168:	02832a23          	sw	s0,52(t1)
 16c:	02932c23          	sw	s1,56(t1)
 170:	03232e23          	sw	s2,60(t1)
 174:	05332023          	sw	s3,64(t1)
 178:	05432223          	sw	s4,68(t1)
 17c:	05532423          	sw	s5,72(t1)
 180:	05632623          	sw	s6,76(t1)
 184:	05732823          	sw	s7,80(t1)
 188:	05832a23          	sw	s8,84(t1)
 18c:	05932c23          	sw	s9,88(t1)
 190:	05a32e23          	sw	s10,92(t1)
 194:	07b32023          	sw	s11,96(t1)

00000198 <skip_callee_saved_reg>:

	/*
	 * Save stack pointer of current thread and set the default return value
	 * of z_swap to _k_neg_eagain for the thread.
	 */
	RV_OP_STOREREG sp, _thread_offset_to_sp(t1)
 198:	02232823          	sw	sp,48(t1)
	la t2, _k_neg_eagain
 19c:	0000d397          	auipc	t2,0xd
 1a0:	02038393          	addi	t2,t2,32 # d1bc <_k_neg_eagain>
	lw t3, 0x00(t2)
 1a4:	0003ae03          	lw	t3,0(t2)
	sw t3, _thread_offset_to_swap_return_value(t1)
 1a8:	07c32c23          	sw	t3,120(t1)

	/* Get next thread to schedule. */
	RV_OP_LOADREG t1, _kernel_offset_to_ready_q_cache(t0)
 1ac:	0182a303          	lw	t1,24(t0)

	/*
	 * Set _kernel.current to new thread loaded in t1
	 */
	RV_OP_STOREREG t1, _kernel_offset_to_current(t0)
 1b0:	0062a423          	sw	t1,8(t0)

	/* Switch to new thread stack */
	RV_OP_LOADREG sp, _thread_offset_to_sp(t1)
 1b4:	03032103          	lw	sp,48(t1)

	/* Restore callee-saved registers of new thread */
	LOAD_CALLEE_SAVED(t1)
 1b8:	03432403          	lw	s0,52(t1)
 1bc:	03832483          	lw	s1,56(t1)
 1c0:	03c32903          	lw	s2,60(t1)
 1c4:	04032983          	lw	s3,64(t1)
 1c8:	04432a03          	lw	s4,68(t1)
 1cc:	04832a83          	lw	s5,72(t1)
 1d0:	04c32b03          	lw	s6,76(t1)
 1d4:	05032b83          	lw	s7,80(t1)
 1d8:	05432c03          	lw	s8,84(t1)
 1dc:	05832c83          	lw	s9,88(t1)
 1e0:	05c32d03          	lw	s10,92(t1)
 1e4:	06032d83          	lw	s11,96(t1)
	addi a0, sp, __z_arch_esf_t_soc_context_OFFSET
	jal ra, __soc_restore_context
#endif /* CONFIG_RISCV_SOC_CONTEXT_SAVE */

	/* Restore MEPC register */
	RV_OP_LOADREG t0, __z_arch_esf_t_mepc_OFFSET(sp)
 1e8:	04412283          	lw	t0,68(sp)
	csrw mepc, t0
 1ec:	34129073          	csrw	mepc,t0

	/* Restore SOC-specific MSTATUS register */
	RV_OP_LOADREG t0, __z_arch_esf_t_mstatus_OFFSET(sp)
 1f0:	04812283          	lw	t0,72(sp)
	csrw mstatus, t0
 1f4:	30029073          	csrw	mstatus,t0

skip_load_fp_caller_saved_resched:
#endif /* CONFIG_FPU && CONFIG_FPU_SHARING */

	/* Restore caller-saved registers from thread stack */
	LOAD_CALLER_SAVED()
 1f8:	00012083          	lw	ra,0(sp)
 1fc:	00412203          	lw	tp,4(sp)
 200:	00812283          	lw	t0,8(sp)
 204:	00c12303          	lw	t1,12(sp)
 208:	01012383          	lw	t2,16(sp)
 20c:	01412e03          	lw	t3,20(sp)
 210:	01812e83          	lw	t4,24(sp)
 214:	01c12f03          	lw	t5,28(sp)
 218:	02012f83          	lw	t6,32(sp)
 21c:	02412503          	lw	a0,36(sp)
 220:	02812583          	lw	a1,40(sp)
 224:	02c12603          	lw	a2,44(sp)
 228:	03012683          	lw	a3,48(sp)
 22c:	03412703          	lw	a4,52(sp)
 230:	03812783          	lw	a5,56(sp)
 234:	03c12803          	lw	a6,60(sp)
 238:	04012883          	lw	a7,64(sp)
 23c:	05010113          	addi	sp,sp,80

	/* Call SOC_ERET to exit ISR */
	SOC_ERET
 240:	30200073          	mret

00000244 <no_reschedule>:
	addi a0, sp, __z_arch_esf_t_soc_context_OFFSET
	jal ra, __soc_restore_context
#endif /* CONFIG_RISCV_SOC_CONTEXT_SAVE */

	/* Restore MEPC register */
	RV_OP_LOADREG t0, __z_arch_esf_t_mepc_OFFSET(sp)
 244:	04412283          	lw	t0,68(sp)
	csrw mepc, t0
 248:	34129073          	csrw	mepc,t0

	/* Restore SOC-specific MSTATUS register */
	RV_OP_LOADREG t0, __z_arch_esf_t_mstatus_OFFSET(sp)
 24c:	04812283          	lw	t0,72(sp)
	csrw mstatus, t0
 250:	30029073          	csrw	mstatus,t0

skip_load_fp_caller_saved:
#endif /* CONFIG_FPU && CONFIG_FPU_SHARING */

	/* Restore caller-saved registers from thread stack */
	LOAD_CALLER_SAVED()
 254:	00012083          	lw	ra,0(sp)
 258:	00412203          	lw	tp,4(sp)
 25c:	00812283          	lw	t0,8(sp)
 260:	00c12303          	lw	t1,12(sp)
 264:	01012383          	lw	t2,16(sp)
 268:	01412e03          	lw	t3,20(sp)
 26c:	01812e83          	lw	t4,24(sp)
 270:	01c12f03          	lw	t5,28(sp)
 274:	02012f83          	lw	t6,32(sp)
 278:	02412503          	lw	a0,36(sp)
 27c:	02812583          	lw	a1,40(sp)
 280:	02c12603          	lw	a2,44(sp)
 284:	03012683          	lw	a3,48(sp)
 288:	03412703          	lw	a4,52(sp)
 28c:	03812783          	lw	a5,56(sp)
 290:	03c12803          	lw	a6,60(sp)
 294:	04012883          	lw	a7,64(sp)
 298:	05010113          	addi	sp,sp,80

#ifdef CONFIG_PMP_STACK_GUARD
	csrrw sp, mscratch, sp
#endif /* CONFIG_PMP_STACK_GUARD */
	/* Call SOC_ERET to exit ISR */
	SOC_ERET
 29c:	30200073          	mret

000002a0 <__soc_handle_irq>:
 * SOC-specific function to handle pending IRQ number generating the interrupt.
 * Exception number is given as parameter via register a0.
 */
SECTION_FUNC(exception.other, __soc_handle_irq)
	/* Clear exception number from CSR mip register */
	li t1, 1
 2a0:	00100313          	li	t1,1
	sll t0, t1, a0
 2a4:	00a312b3          	sll	t0,t1,a0
	csrrc t1, mip, t0
 2a8:	3442b373          	csrrc	t1,mip,t0

	/* Return */
	jalr x0, ra
 2ac:	00008067          	ret

000002b0 <__soc_is_irq>:
 * return 1 (interrupt) or 0 (exception)
 *
 */
SECTION_FUNC(exception.other, __soc_is_irq)
	/* Read mcause and check if interrupt bit is set */
	csrr t0, mcause
 2b0:	342022f3          	csrr	t0,mcause
	li t1, SOC_MCAUSE_IRQ_MASK
 2b4:	80000337          	lui	t1,0x80000
	and t0, t0, t1
 2b8:	0062f2b3          	and	t0,t0,t1

	/* If interrupt bit is not set, return with 0 */
	addi a0, x0, 0
 2bc:	00000513          	li	a0,0
	beqz t0, not_interrupt
 2c0:	00028463          	beqz	t0,2c8 <not_interrupt>
	addi a0, a0, 1
 2c4:	00150513          	addi	a0,a0,1

000002c8 <not_interrupt>:

not_interrupt:
	/* return */
	jalr x0, ra
 2c8:	00008067          	ret

000002cc <arch_swap>:
 * key is stored in a0 register
 */
SECTION_FUNC(exception.other, arch_swap)

	/* Make a system call to perform context switch */
	ecall
 2cc:	00000073          	ecall
	 * Prior to unlocking irq, load return value of
	 * arch_swap to temp register t2 (from
	 * _thread_offset_to_swap_return_value). Normally, it should be -EAGAIN,
	 * unless someone has previously called arch_thread_return_value_set(..).
	 */
	la t0, _kernel
 2d0:	0000e297          	auipc	t0,0xe
 2d4:	c4c28293          	addi	t0,t0,-948 # df1c <_kernel>

	/* Get pointer to _kernel.current */
	RV_OP_LOADREG t1, _kernel_offset_to_current(t0)
 2d8:	0082a303          	lw	t1,8(t0)

	/* Load return value of arch_swap function in temp register t2 */
	lw t2, _thread_offset_to_swap_return_value(t1)
 2dc:	07832383          	lw	t2,120(t1) # 80000078 <CONFIG_SYSTEM_WORKQUEUE_PRIORITY+0x80000079>

	/*
	 * Unlock irq, following IRQ lock state in a0 register.
	 * Use atomic instruction csrrs to do so.
	 */
	andi a0, a0, MSTATUS_IEN
 2e0:	00857513          	andi	a0,a0,8
	csrrs t0, mstatus, a0
 2e4:	300522f3          	csrrs	t0,mstatus,a0

	/* Set value of return register a0 to value of register t2 */
	addi a0, t2, 0
 2e8:	00038513          	mv	a0,t2

	/* Return */
	jalr x0, ra
 2ec:	00008067          	ret

Disassembly of section text:

000002f0 <__clzsi2>:
     2f0:	000107b7          	lui	a5,0x10
     2f4:	02f57a63          	bgeu	a0,a5,328 <__clzsi2+0x38>
     2f8:	0ff00793          	li	a5,255
     2fc:	00a7b7b3          	sltu	a5,a5,a0
     300:	00379793          	slli	a5,a5,0x3
     304:	0000d737          	lui	a4,0xd
     308:	02000693          	li	a3,32
     30c:	40f686b3          	sub	a3,a3,a5
     310:	00f55533          	srl	a0,a0,a5
     314:	1c470793          	addi	a5,a4,452 # d1c4 <__clz_tab>
     318:	00a78533          	add	a0,a5,a0
     31c:	00054503          	lbu	a0,0(a0)
     320:	40a68533          	sub	a0,a3,a0
     324:	00008067          	ret
     328:	01000737          	lui	a4,0x1000
     32c:	01000793          	li	a5,16
     330:	fce56ae3          	bltu	a0,a4,304 <__clzsi2+0x14>
     334:	01800793          	li	a5,24
     338:	fcdff06f          	j	304 <__clzsi2+0x14>

0000033c <__udivdi3>:
     33c:	00050893          	mv	a7,a0
     340:	00058793          	mv	a5,a1
     344:	00060813          	mv	a6,a2
     348:	00068513          	mv	a0,a3
     34c:	00088313          	mv	t1,a7
     350:	28069463          	bnez	a3,5d8 <CONFIG_HEAP_MEM_POOL_SIZE+0x1d8>
     354:	0000d6b7          	lui	a3,0xd
     358:	1c468693          	addi	a3,a3,452 # d1c4 <__clz_tab>
     35c:	0ec5f663          	bgeu	a1,a2,448 <CONFIG_HEAP_MEM_POOL_SIZE+0x48>
     360:	00010737          	lui	a4,0x10
     364:	0ce67863          	bgeu	a2,a4,434 <CONFIG_HEAP_MEM_POOL_SIZE+0x34>
     368:	0ff00713          	li	a4,255
     36c:	00c73733          	sltu	a4,a4,a2
     370:	00371713          	slli	a4,a4,0x3
     374:	00e65533          	srl	a0,a2,a4
     378:	00a686b3          	add	a3,a3,a0
     37c:	0006c683          	lbu	a3,0(a3)
     380:	02000513          	li	a0,32
     384:	00e68733          	add	a4,a3,a4
     388:	40e506b3          	sub	a3,a0,a4
     38c:	00e50c63          	beq	a0,a4,3a4 <__udivdi3+0x68>
     390:	00d795b3          	sll	a1,a5,a3
     394:	00e8d733          	srl	a4,a7,a4
     398:	00d61833          	sll	a6,a2,a3
     39c:	00b765b3          	or	a1,a4,a1
     3a0:	00d89333          	sll	t1,a7,a3
     3a4:	01085893          	srli	a7,a6,0x10
     3a8:	0315d6b3          	divu	a3,a1,a7
     3ac:	01081613          	slli	a2,a6,0x10
     3b0:	01065613          	srli	a2,a2,0x10
     3b4:	01035793          	srli	a5,t1,0x10
     3b8:	0315f733          	remu	a4,a1,a7
     3bc:	00068513          	mv	a0,a3
     3c0:	02d605b3          	mul	a1,a2,a3
     3c4:	01071713          	slli	a4,a4,0x10
     3c8:	00f767b3          	or	a5,a4,a5
     3cc:	00b7fe63          	bgeu	a5,a1,3e8 <__udivdi3+0xac>
     3d0:	010787b3          	add	a5,a5,a6
     3d4:	fff68513          	addi	a0,a3,-1
     3d8:	0107e863          	bltu	a5,a6,3e8 <__udivdi3+0xac>
     3dc:	00b7f663          	bgeu	a5,a1,3e8 <__udivdi3+0xac>
     3e0:	ffe68513          	addi	a0,a3,-2
     3e4:	010787b3          	add	a5,a5,a6
     3e8:	40b787b3          	sub	a5,a5,a1
     3ec:	0317f733          	remu	a4,a5,a7
     3f0:	01031313          	slli	t1,t1,0x10
     3f4:	01035313          	srli	t1,t1,0x10
     3f8:	0317d7b3          	divu	a5,a5,a7
     3fc:	01071713          	slli	a4,a4,0x10
     400:	00676333          	or	t1,a4,t1
     404:	02f606b3          	mul	a3,a2,a5
     408:	00078613          	mv	a2,a5
     40c:	00d37c63          	bgeu	t1,a3,424 <CONFIG_HEAP_MEM_POOL_SIZE+0x24>
     410:	00680333          	add	t1,a6,t1
     414:	fff78613          	addi	a2,a5,-1 # ffff <z_interrupt_stacks+0x6bf>
     418:	01036663          	bltu	t1,a6,424 <CONFIG_HEAP_MEM_POOL_SIZE+0x24>
     41c:	00d37463          	bgeu	t1,a3,424 <CONFIG_HEAP_MEM_POOL_SIZE+0x24>
     420:	ffe78613          	addi	a2,a5,-2
     424:	01051513          	slli	a0,a0,0x10
     428:	00c56533          	or	a0,a0,a2
     42c:	00000593          	li	a1,0
     430:	0e40006f          	j	514 <CONFIG_HEAP_MEM_POOL_SIZE+0x114>
     434:	01000537          	lui	a0,0x1000
     438:	01000713          	li	a4,16
     43c:	f2a66ce3          	bltu	a2,a0,374 <__udivdi3+0x38>
     440:	01800713          	li	a4,24
     444:	f31ff06f          	j	374 <__udivdi3+0x38>
     448:	00061663          	bnez	a2,454 <CONFIG_HEAP_MEM_POOL_SIZE+0x54>
     44c:	00100713          	li	a4,1
     450:	02c75833          	divu	a6,a4,a2
     454:	00010737          	lui	a4,0x10
     458:	0ce87063          	bgeu	a6,a4,518 <CONFIG_HEAP_MEM_POOL_SIZE+0x118>
     45c:	0ff00713          	li	a4,255
     460:	01077463          	bgeu	a4,a6,468 <CONFIG_HEAP_MEM_POOL_SIZE+0x68>
     464:	00800513          	li	a0,8
     468:	00a85733          	srl	a4,a6,a0
     46c:	00e686b3          	add	a3,a3,a4
     470:	0006c703          	lbu	a4,0(a3)
     474:	02000613          	li	a2,32
     478:	00a70733          	add	a4,a4,a0
     47c:	40e606b3          	sub	a3,a2,a4
     480:	0ae61663          	bne	a2,a4,52c <CONFIG_HEAP_MEM_POOL_SIZE+0x12c>
     484:	410787b3          	sub	a5,a5,a6
     488:	00100593          	li	a1,1
     48c:	01085893          	srli	a7,a6,0x10
     490:	01081613          	slli	a2,a6,0x10
     494:	01065613          	srli	a2,a2,0x10
     498:	01035713          	srli	a4,t1,0x10
     49c:	0317f6b3          	remu	a3,a5,a7
     4a0:	0317d7b3          	divu	a5,a5,a7
     4a4:	01069693          	slli	a3,a3,0x10
     4a8:	00e6e733          	or	a4,a3,a4
     4ac:	02f60e33          	mul	t3,a2,a5
     4b0:	00078513          	mv	a0,a5
     4b4:	01c77e63          	bgeu	a4,t3,4d0 <CONFIG_HEAP_MEM_POOL_SIZE+0xd0>
     4b8:	01070733          	add	a4,a4,a6
     4bc:	fff78513          	addi	a0,a5,-1
     4c0:	01076863          	bltu	a4,a6,4d0 <CONFIG_HEAP_MEM_POOL_SIZE+0xd0>
     4c4:	01c77663          	bgeu	a4,t3,4d0 <CONFIG_HEAP_MEM_POOL_SIZE+0xd0>
     4c8:	ffe78513          	addi	a0,a5,-2
     4cc:	01070733          	add	a4,a4,a6
     4d0:	41c70733          	sub	a4,a4,t3
     4d4:	031777b3          	remu	a5,a4,a7
     4d8:	01031313          	slli	t1,t1,0x10
     4dc:	01035313          	srli	t1,t1,0x10
     4e0:	03175733          	divu	a4,a4,a7
     4e4:	01079793          	slli	a5,a5,0x10
     4e8:	0067e333          	or	t1,a5,t1
     4ec:	02e606b3          	mul	a3,a2,a4
     4f0:	00070613          	mv	a2,a4
     4f4:	00d37c63          	bgeu	t1,a3,50c <CONFIG_HEAP_MEM_POOL_SIZE+0x10c>
     4f8:	00680333          	add	t1,a6,t1
     4fc:	fff70613          	addi	a2,a4,-1 # ffff <z_interrupt_stacks+0x6bf>
     500:	01036663          	bltu	t1,a6,50c <CONFIG_HEAP_MEM_POOL_SIZE+0x10c>
     504:	00d37463          	bgeu	t1,a3,50c <CONFIG_HEAP_MEM_POOL_SIZE+0x10c>
     508:	ffe70613          	addi	a2,a4,-2
     50c:	01051513          	slli	a0,a0,0x10
     510:	00c56533          	or	a0,a0,a2
     514:	00008067          	ret
     518:	01000737          	lui	a4,0x1000
     51c:	01000513          	li	a0,16
     520:	f4e864e3          	bltu	a6,a4,468 <CONFIG_HEAP_MEM_POOL_SIZE+0x68>
     524:	01800513          	li	a0,24
     528:	f41ff06f          	j	468 <CONFIG_HEAP_MEM_POOL_SIZE+0x68>
     52c:	00d81833          	sll	a6,a6,a3
     530:	00e7d533          	srl	a0,a5,a4
     534:	00d89333          	sll	t1,a7,a3
     538:	00d797b3          	sll	a5,a5,a3
     53c:	00e8d733          	srl	a4,a7,a4
     540:	01085893          	srli	a7,a6,0x10
     544:	00f76633          	or	a2,a4,a5
     548:	03157733          	remu	a4,a0,a7
     54c:	01081793          	slli	a5,a6,0x10
     550:	0107d793          	srli	a5,a5,0x10
     554:	01065593          	srli	a1,a2,0x10
     558:	03155533          	divu	a0,a0,a7
     55c:	01071713          	slli	a4,a4,0x10
     560:	00b76733          	or	a4,a4,a1
     564:	02a786b3          	mul	a3,a5,a0
     568:	00050593          	mv	a1,a0
     56c:	00d77e63          	bgeu	a4,a3,588 <CONFIG_HEAP_MEM_POOL_SIZE+0x188>
     570:	01070733          	add	a4,a4,a6
     574:	fff50593          	addi	a1,a0,-1 # ffffff <__data_region_end+0xdfc7cf>
     578:	01076863          	bltu	a4,a6,588 <CONFIG_HEAP_MEM_POOL_SIZE+0x188>
     57c:	00d77663          	bgeu	a4,a3,588 <CONFIG_HEAP_MEM_POOL_SIZE+0x188>
     580:	ffe50593          	addi	a1,a0,-2
     584:	01070733          	add	a4,a4,a6
     588:	40d706b3          	sub	a3,a4,a3
     58c:	0316f733          	remu	a4,a3,a7
     590:	01061613          	slli	a2,a2,0x10
     594:	01065613          	srli	a2,a2,0x10
     598:	0316d6b3          	divu	a3,a3,a7
     59c:	01071713          	slli	a4,a4,0x10
     5a0:	02d78533          	mul	a0,a5,a3
     5a4:	00c767b3          	or	a5,a4,a2
     5a8:	00068713          	mv	a4,a3
     5ac:	00a7fe63          	bgeu	a5,a0,5c8 <CONFIG_HEAP_MEM_POOL_SIZE+0x1c8>
     5b0:	010787b3          	add	a5,a5,a6
     5b4:	fff68713          	addi	a4,a3,-1
     5b8:	0107e863          	bltu	a5,a6,5c8 <CONFIG_HEAP_MEM_POOL_SIZE+0x1c8>
     5bc:	00a7f663          	bgeu	a5,a0,5c8 <CONFIG_HEAP_MEM_POOL_SIZE+0x1c8>
     5c0:	ffe68713          	addi	a4,a3,-2
     5c4:	010787b3          	add	a5,a5,a6
     5c8:	01059593          	slli	a1,a1,0x10
     5cc:	40a787b3          	sub	a5,a5,a0
     5d0:	00e5e5b3          	or	a1,a1,a4
     5d4:	eb9ff06f          	j	48c <CONFIG_HEAP_MEM_POOL_SIZE+0x8c>
     5d8:	18d5e663          	bltu	a1,a3,764 <CONFIG_HEAP_MEM_POOL_SIZE+0x364>
     5dc:	00010737          	lui	a4,0x10
     5e0:	04e6f463          	bgeu	a3,a4,628 <CONFIG_HEAP_MEM_POOL_SIZE+0x228>
     5e4:	0ff00713          	li	a4,255
     5e8:	00d735b3          	sltu	a1,a4,a3
     5ec:	00359593          	slli	a1,a1,0x3
     5f0:	0000d737          	lui	a4,0xd
     5f4:	00b6d533          	srl	a0,a3,a1
     5f8:	1c470713          	addi	a4,a4,452 # d1c4 <__clz_tab>
     5fc:	00a70733          	add	a4,a4,a0
     600:	00074703          	lbu	a4,0(a4)
     604:	02000513          	li	a0,32
     608:	00b70733          	add	a4,a4,a1
     60c:	40e505b3          	sub	a1,a0,a4
     610:	02e51663          	bne	a0,a4,63c <CONFIG_HEAP_MEM_POOL_SIZE+0x23c>
     614:	00100513          	li	a0,1
     618:	eef6eee3          	bltu	a3,a5,514 <CONFIG_HEAP_MEM_POOL_SIZE+0x114>
     61c:	00c8b533          	sltu	a0,a7,a2
     620:	00154513          	xori	a0,a0,1
     624:	ef1ff06f          	j	514 <CONFIG_HEAP_MEM_POOL_SIZE+0x114>
     628:	01000737          	lui	a4,0x1000
     62c:	01000593          	li	a1,16
     630:	fce6e0e3          	bltu	a3,a4,5f0 <CONFIG_HEAP_MEM_POOL_SIZE+0x1f0>
     634:	01800593          	li	a1,24
     638:	fb9ff06f          	j	5f0 <CONFIG_HEAP_MEM_POOL_SIZE+0x1f0>
     63c:	00e65833          	srl	a6,a2,a4
     640:	00b696b3          	sll	a3,a3,a1
     644:	00d86833          	or	a6,a6,a3
     648:	00e7de33          	srl	t3,a5,a4
     64c:	01085e93          	srli	t4,a6,0x10
     650:	03de76b3          	remu	a3,t3,t4
     654:	00b797b3          	sll	a5,a5,a1
     658:	00e8d733          	srl	a4,a7,a4
     65c:	00b61333          	sll	t1,a2,a1
     660:	00f76633          	or	a2,a4,a5
     664:	01081793          	slli	a5,a6,0x10
     668:	0107d793          	srli	a5,a5,0x10
     66c:	01065713          	srli	a4,a2,0x10
     670:	03de5e33          	divu	t3,t3,t4
     674:	01069693          	slli	a3,a3,0x10
     678:	00e6e733          	or	a4,a3,a4
     67c:	03c78f33          	mul	t5,a5,t3
     680:	000e0513          	mv	a0,t3
     684:	01e77e63          	bgeu	a4,t5,6a0 <CONFIG_HEAP_MEM_POOL_SIZE+0x2a0>
     688:	01070733          	add	a4,a4,a6
     68c:	fffe0513          	addi	a0,t3,-1
     690:	01076863          	bltu	a4,a6,6a0 <CONFIG_HEAP_MEM_POOL_SIZE+0x2a0>
     694:	01e77663          	bgeu	a4,t5,6a0 <CONFIG_HEAP_MEM_POOL_SIZE+0x2a0>
     698:	ffee0513          	addi	a0,t3,-2
     69c:	01070733          	add	a4,a4,a6
     6a0:	41e70733          	sub	a4,a4,t5
     6a4:	03d776b3          	remu	a3,a4,t4
     6a8:	03d75733          	divu	a4,a4,t4
     6ac:	01069693          	slli	a3,a3,0x10
     6b0:	02e78e33          	mul	t3,a5,a4
     6b4:	01061793          	slli	a5,a2,0x10
     6b8:	0107d793          	srli	a5,a5,0x10
     6bc:	00f6e7b3          	or	a5,a3,a5
     6c0:	00070613          	mv	a2,a4
     6c4:	01c7fe63          	bgeu	a5,t3,6e0 <CONFIG_HEAP_MEM_POOL_SIZE+0x2e0>
     6c8:	010787b3          	add	a5,a5,a6
     6cc:	fff70613          	addi	a2,a4,-1 # ffffff <__data_region_end+0xdfc7cf>
     6d0:	0107e863          	bltu	a5,a6,6e0 <CONFIG_HEAP_MEM_POOL_SIZE+0x2e0>
     6d4:	01c7f663          	bgeu	a5,t3,6e0 <CONFIG_HEAP_MEM_POOL_SIZE+0x2e0>
     6d8:	ffe70613          	addi	a2,a4,-2
     6dc:	010787b3          	add	a5,a5,a6
     6e0:	01051513          	slli	a0,a0,0x10
     6e4:	00010eb7          	lui	t4,0x10
     6e8:	00c56533          	or	a0,a0,a2
     6ec:	fffe8693          	addi	a3,t4,-1 # ffff <z_interrupt_stacks+0x6bf>
     6f0:	00d57833          	and	a6,a0,a3
     6f4:	01055613          	srli	a2,a0,0x10
     6f8:	00d376b3          	and	a3,t1,a3
     6fc:	01035313          	srli	t1,t1,0x10
     700:	41c787b3          	sub	a5,a5,t3
     704:	02d80e33          	mul	t3,a6,a3
     708:	02d606b3          	mul	a3,a2,a3
     70c:	010e5713          	srli	a4,t3,0x10
     710:	02680833          	mul	a6,a6,t1
     714:	00d80833          	add	a6,a6,a3
     718:	01070733          	add	a4,a4,a6
     71c:	02660633          	mul	a2,a2,t1
     720:	00d77463          	bgeu	a4,a3,728 <CONFIG_HEAP_MEM_POOL_SIZE+0x328>
     724:	01d60633          	add	a2,a2,t4
     728:	01075693          	srli	a3,a4,0x10
     72c:	00c68633          	add	a2,a3,a2
     730:	02c7e663          	bltu	a5,a2,75c <CONFIG_HEAP_MEM_POOL_SIZE+0x35c>
     734:	cec79ce3          	bne	a5,a2,42c <CONFIG_HEAP_MEM_POOL_SIZE+0x2c>
     738:	000107b7          	lui	a5,0x10
     73c:	fff78793          	addi	a5,a5,-1 # ffff <z_interrupt_stacks+0x6bf>
     740:	00f77733          	and	a4,a4,a5
     744:	01071713          	slli	a4,a4,0x10
     748:	00fe7e33          	and	t3,t3,a5
     74c:	00b898b3          	sll	a7,a7,a1
     750:	01c70733          	add	a4,a4,t3
     754:	00000593          	li	a1,0
     758:	dae8fee3          	bgeu	a7,a4,514 <CONFIG_HEAP_MEM_POOL_SIZE+0x114>
     75c:	fff50513          	addi	a0,a0,-1
     760:	ccdff06f          	j	42c <CONFIG_HEAP_MEM_POOL_SIZE+0x2c>
     764:	00000593          	li	a1,0
     768:	00000513          	li	a0,0
     76c:	da9ff06f          	j	514 <CONFIG_HEAP_MEM_POOL_SIZE+0x114>

00000770 <__umoddi3>:
     770:	00050e93          	mv	t4,a0
     774:	00058313          	mv	t1,a1
     778:	00060813          	mv	a6,a2
     77c:	00068793          	mv	a5,a3
     780:	22069a63          	bnez	a3,9b4 <CONFIG_ISR_STACK_SIZE+0x1b4>
     784:	0000d737          	lui	a4,0xd
     788:	1c470713          	addi	a4,a4,452 # d1c4 <__clz_tab>
     78c:	0cc5fc63          	bgeu	a1,a2,864 <CONFIG_ISR_STACK_SIZE+0x64>
     790:	000106b7          	lui	a3,0x10
     794:	0ad67e63          	bgeu	a2,a3,850 <CONFIG_ISR_STACK_SIZE+0x50>
     798:	0ff00693          	li	a3,255
     79c:	00c6f463          	bgeu	a3,a2,7a4 <__umoddi3+0x34>
     7a0:	00800793          	li	a5,8
     7a4:	00f656b3          	srl	a3,a2,a5
     7a8:	00d70733          	add	a4,a4,a3
     7ac:	00074703          	lbu	a4,0(a4)
     7b0:	00f707b3          	add	a5,a4,a5
     7b4:	02000713          	li	a4,32
     7b8:	40f708b3          	sub	a7,a4,a5
     7bc:	00f70c63          	beq	a4,a5,7d4 <__umoddi3+0x64>
     7c0:	011315b3          	sll	a1,t1,a7
     7c4:	00fed7b3          	srl	a5,t4,a5
     7c8:	01161833          	sll	a6,a2,a7
     7cc:	00b7e5b3          	or	a1,a5,a1
     7d0:	011e9533          	sll	a0,t4,a7
     7d4:	01085693          	srli	a3,a6,0x10
     7d8:	02d5f7b3          	remu	a5,a1,a3
     7dc:	01081613          	slli	a2,a6,0x10
     7e0:	01065613          	srli	a2,a2,0x10
     7e4:	01055713          	srli	a4,a0,0x10
     7e8:	02d5d5b3          	divu	a1,a1,a3
     7ec:	01079793          	slli	a5,a5,0x10
     7f0:	00e7e733          	or	a4,a5,a4
     7f4:	02b605b3          	mul	a1,a2,a1
     7f8:	00b77a63          	bgeu	a4,a1,80c <CONFIG_ISR_STACK_SIZE+0xc>
     7fc:	01070733          	add	a4,a4,a6
     800:	01076663          	bltu	a4,a6,80c <CONFIG_ISR_STACK_SIZE+0xc>
     804:	00b77463          	bgeu	a4,a1,80c <CONFIG_ISR_STACK_SIZE+0xc>
     808:	01070733          	add	a4,a4,a6
     80c:	40b70733          	sub	a4,a4,a1
     810:	02d777b3          	remu	a5,a4,a3
     814:	01051513          	slli	a0,a0,0x10
     818:	01055513          	srli	a0,a0,0x10
     81c:	02d75733          	divu	a4,a4,a3
     820:	01079793          	slli	a5,a5,0x10
     824:	00a7e533          	or	a0,a5,a0
     828:	02e60733          	mul	a4,a2,a4
     82c:	00e57a63          	bgeu	a0,a4,840 <CONFIG_ISR_STACK_SIZE+0x40>
     830:	01050533          	add	a0,a0,a6
     834:	01056663          	bltu	a0,a6,840 <CONFIG_ISR_STACK_SIZE+0x40>
     838:	00e57463          	bgeu	a0,a4,840 <CONFIG_ISR_STACK_SIZE+0x40>
     83c:	01050533          	add	a0,a0,a6
     840:	40e50533          	sub	a0,a0,a4
     844:	01155533          	srl	a0,a0,a7
     848:	00000593          	li	a1,0
     84c:	00008067          	ret
     850:	010006b7          	lui	a3,0x1000
     854:	01000793          	li	a5,16
     858:	f4d666e3          	bltu	a2,a3,7a4 <__umoddi3+0x34>
     85c:	01800793          	li	a5,24
     860:	f45ff06f          	j	7a4 <__umoddi3+0x34>
     864:	00061663          	bnez	a2,870 <CONFIG_ISR_STACK_SIZE+0x70>
     868:	00100693          	li	a3,1
     86c:	02c6d833          	divu	a6,a3,a2
     870:	000106b7          	lui	a3,0x10
     874:	12d87663          	bgeu	a6,a3,9a0 <CONFIG_ISR_STACK_SIZE+0x1a0>
     878:	0ff00693          	li	a3,255
     87c:	0106f463          	bgeu	a3,a6,884 <CONFIG_ISR_STACK_SIZE+0x84>
     880:	00800793          	li	a5,8
     884:	00f856b3          	srl	a3,a6,a5
     888:	00d70733          	add	a4,a4,a3
     88c:	00074603          	lbu	a2,0(a4)
     890:	410305b3          	sub	a1,t1,a6
     894:	00f60633          	add	a2,a2,a5
     898:	02000793          	li	a5,32
     89c:	40c788b3          	sub	a7,a5,a2
     8a0:	08c78663          	beq	a5,a2,92c <CONFIG_ISR_STACK_SIZE+0x12c>
     8a4:	01181833          	sll	a6,a6,a7
     8a8:	00c357b3          	srl	a5,t1,a2
     8ac:	011315b3          	sll	a1,t1,a7
     8b0:	01085313          	srli	t1,a6,0x10
     8b4:	00ced633          	srl	a2,t4,a2
     8b8:	00b66633          	or	a2,a2,a1
     8bc:	01081593          	slli	a1,a6,0x10
     8c0:	0105d593          	srli	a1,a1,0x10
     8c4:	011e9533          	sll	a0,t4,a7
     8c8:	0267d6b3          	divu	a3,a5,t1
     8cc:	0267f733          	remu	a4,a5,t1
     8d0:	01065793          	srli	a5,a2,0x10
     8d4:	02d586b3          	mul	a3,a1,a3
     8d8:	01071713          	slli	a4,a4,0x10
     8dc:	00f76733          	or	a4,a4,a5
     8e0:	00d77a63          	bgeu	a4,a3,8f4 <CONFIG_ISR_STACK_SIZE+0xf4>
     8e4:	01070733          	add	a4,a4,a6
     8e8:	01076663          	bltu	a4,a6,8f4 <CONFIG_ISR_STACK_SIZE+0xf4>
     8ec:	00d77463          	bgeu	a4,a3,8f4 <CONFIG_ISR_STACK_SIZE+0xf4>
     8f0:	01070733          	add	a4,a4,a6
     8f4:	40d706b3          	sub	a3,a4,a3
     8f8:	0266f733          	remu	a4,a3,t1
     8fc:	01061613          	slli	a2,a2,0x10
     900:	01065613          	srli	a2,a2,0x10
     904:	0266d6b3          	divu	a3,a3,t1
     908:	01071713          	slli	a4,a4,0x10
     90c:	02d586b3          	mul	a3,a1,a3
     910:	00c765b3          	or	a1,a4,a2
     914:	00d5fa63          	bgeu	a1,a3,928 <CONFIG_ISR_STACK_SIZE+0x128>
     918:	010585b3          	add	a1,a1,a6
     91c:	0105e663          	bltu	a1,a6,928 <CONFIG_ISR_STACK_SIZE+0x128>
     920:	00d5f463          	bgeu	a1,a3,928 <CONFIG_ISR_STACK_SIZE+0x128>
     924:	010585b3          	add	a1,a1,a6
     928:	40d585b3          	sub	a1,a1,a3
     92c:	01085693          	srli	a3,a6,0x10
     930:	02d5f733          	remu	a4,a1,a3
     934:	01081793          	slli	a5,a6,0x10
     938:	0107d793          	srli	a5,a5,0x10
     93c:	01055613          	srli	a2,a0,0x10
     940:	02d5d5b3          	divu	a1,a1,a3
     944:	01071713          	slli	a4,a4,0x10
     948:	00c76733          	or	a4,a4,a2
     94c:	02b785b3          	mul	a1,a5,a1
     950:	00b77a63          	bgeu	a4,a1,964 <CONFIG_ISR_STACK_SIZE+0x164>
     954:	01070733          	add	a4,a4,a6
     958:	01076663          	bltu	a4,a6,964 <CONFIG_ISR_STACK_SIZE+0x164>
     95c:	00b77463          	bgeu	a4,a1,964 <CONFIG_ISR_STACK_SIZE+0x164>
     960:	01070733          	add	a4,a4,a6
     964:	40b705b3          	sub	a1,a4,a1
     968:	02d5f733          	remu	a4,a1,a3
     96c:	01051513          	slli	a0,a0,0x10
     970:	01055513          	srli	a0,a0,0x10
     974:	02d5d5b3          	divu	a1,a1,a3
     978:	02b785b3          	mul	a1,a5,a1
     97c:	01071793          	slli	a5,a4,0x10
     980:	00a7e533          	or	a0,a5,a0
     984:	00b57a63          	bgeu	a0,a1,998 <CONFIG_ISR_STACK_SIZE+0x198>
     988:	01050533          	add	a0,a0,a6
     98c:	01056663          	bltu	a0,a6,998 <CONFIG_ISR_STACK_SIZE+0x198>
     990:	00b57463          	bgeu	a0,a1,998 <CONFIG_ISR_STACK_SIZE+0x198>
     994:	01050533          	add	a0,a0,a6
     998:	40b50533          	sub	a0,a0,a1
     99c:	ea9ff06f          	j	844 <CONFIG_ISR_STACK_SIZE+0x44>
     9a0:	010006b7          	lui	a3,0x1000
     9a4:	01000793          	li	a5,16
     9a8:	ecd86ee3          	bltu	a6,a3,884 <CONFIG_ISR_STACK_SIZE+0x84>
     9ac:	01800793          	li	a5,24
     9b0:	ed5ff06f          	j	884 <CONFIG_ISR_STACK_SIZE+0x84>
     9b4:	e8d5ece3          	bltu	a1,a3,84c <CONFIG_ISR_STACK_SIZE+0x4c>
     9b8:	000107b7          	lui	a5,0x10
     9bc:	04f6f863          	bgeu	a3,a5,a0c <CONFIG_ISR_STACK_SIZE+0x20c>
     9c0:	0ff00893          	li	a7,255
     9c4:	00d8b7b3          	sltu	a5,a7,a3
     9c8:	00379793          	slli	a5,a5,0x3
     9cc:	0000d737          	lui	a4,0xd
     9d0:	00f6d833          	srl	a6,a3,a5
     9d4:	1c470713          	addi	a4,a4,452 # d1c4 <__clz_tab>
     9d8:	01070733          	add	a4,a4,a6
     9dc:	00074883          	lbu	a7,0(a4)
     9e0:	00f888b3          	add	a7,a7,a5
     9e4:	02000793          	li	a5,32
     9e8:	41178833          	sub	a6,a5,a7
     9ec:	03179a63          	bne	a5,a7,a20 <CONFIG_ISR_STACK_SIZE+0x220>
     9f0:	0066e463          	bltu	a3,t1,9f8 <CONFIG_ISR_STACK_SIZE+0x1f8>
     9f4:	e4ceece3          	bltu	t4,a2,84c <CONFIG_ISR_STACK_SIZE+0x4c>
     9f8:	40ce8533          	sub	a0,t4,a2
     9fc:	40d305b3          	sub	a1,t1,a3
     a00:	00aebeb3          	sltu	t4,t4,a0
     a04:	41d585b3          	sub	a1,a1,t4
     a08:	e45ff06f          	j	84c <CONFIG_ISR_STACK_SIZE+0x4c>
     a0c:	01000737          	lui	a4,0x1000
     a10:	01000793          	li	a5,16
     a14:	fae6ece3          	bltu	a3,a4,9cc <CONFIG_ISR_STACK_SIZE+0x1cc>
     a18:	01800793          	li	a5,24
     a1c:	fb1ff06f          	j	9cc <CONFIG_ISR_STACK_SIZE+0x1cc>
     a20:	011657b3          	srl	a5,a2,a7
     a24:	010696b3          	sll	a3,a3,a6
     a28:	00d7ee33          	or	t3,a5,a3
     a2c:	01135f33          	srl	t5,t1,a7
     a30:	011ed7b3          	srl	a5,t4,a7
     a34:	010e9533          	sll	a0,t4,a6
     a38:	010e5e93          	srli	t4,t3,0x10
     a3c:	010315b3          	sll	a1,t1,a6
     a40:	03df5333          	divu	t1,t5,t4
     a44:	00b7e7b3          	or	a5,a5,a1
     a48:	010e1593          	slli	a1,t3,0x10
     a4c:	0105d593          	srli	a1,a1,0x10
     a50:	0107d713          	srli	a4,a5,0x10
     a54:	01061633          	sll	a2,a2,a6
     a58:	03df76b3          	remu	a3,t5,t4
     a5c:	02658f33          	mul	t5,a1,t1
     a60:	01069693          	slli	a3,a3,0x10
     a64:	00e6e733          	or	a4,a3,a4
     a68:	00030693          	mv	a3,t1
     a6c:	01e77e63          	bgeu	a4,t5,a88 <CONFIG_ISR_STACK_SIZE+0x288>
     a70:	01c70733          	add	a4,a4,t3
     a74:	fff30693          	addi	a3,t1,-1
     a78:	01c76863          	bltu	a4,t3,a88 <CONFIG_ISR_STACK_SIZE+0x288>
     a7c:	01e77663          	bgeu	a4,t5,a88 <CONFIG_ISR_STACK_SIZE+0x288>
     a80:	ffe30693          	addi	a3,t1,-2
     a84:	01c70733          	add	a4,a4,t3
     a88:	41e70733          	sub	a4,a4,t5
     a8c:	03d77333          	remu	t1,a4,t4
     a90:	01079793          	slli	a5,a5,0x10
     a94:	0107d793          	srli	a5,a5,0x10
     a98:	03d75733          	divu	a4,a4,t4
     a9c:	01031313          	slli	t1,t1,0x10
     aa0:	00f36333          	or	t1,t1,a5
     aa4:	02e585b3          	mul	a1,a1,a4
     aa8:	00070793          	mv	a5,a4
     aac:	00b37e63          	bgeu	t1,a1,ac8 <CONFIG_ISR_STACK_SIZE+0x2c8>
     ab0:	01c30333          	add	t1,t1,t3
     ab4:	fff70793          	addi	a5,a4,-1 # ffffff <__data_region_end+0xdfc7cf>
     ab8:	01c36863          	bltu	t1,t3,ac8 <CONFIG_ISR_STACK_SIZE+0x2c8>
     abc:	00b37663          	bgeu	t1,a1,ac8 <CONFIG_ISR_STACK_SIZE+0x2c8>
     ac0:	ffe70793          	addi	a5,a4,-2
     ac4:	01c30333          	add	t1,t1,t3
     ac8:	01069693          	slli	a3,a3,0x10
     acc:	00010f37          	lui	t5,0x10
     ad0:	00f6e6b3          	or	a3,a3,a5
     ad4:	40b305b3          	sub	a1,t1,a1
     ad8:	ffff0313          	addi	t1,t5,-1 # ffff <z_interrupt_stacks+0x6bf>
     adc:	0066feb3          	and	t4,a3,t1
     ae0:	01065713          	srli	a4,a2,0x10
     ae4:	0106d693          	srli	a3,a3,0x10
     ae8:	00667333          	and	t1,a2,t1
     aec:	026e87b3          	mul	a5,t4,t1
     af0:	02668333          	mul	t1,a3,t1
     af4:	02ee8eb3          	mul	t4,t4,a4
     af8:	02e686b3          	mul	a3,a3,a4
     afc:	006e8eb3          	add	t4,t4,t1
     b00:	0107d713          	srli	a4,a5,0x10
     b04:	01d70733          	add	a4,a4,t4
     b08:	00677463          	bgeu	a4,t1,b10 <CONFIG_ISR_STACK_SIZE+0x310>
     b0c:	01e686b3          	add	a3,a3,t5
     b10:	01075313          	srli	t1,a4,0x10
     b14:	00d306b3          	add	a3,t1,a3
     b18:	00010337          	lui	t1,0x10
     b1c:	fff30313          	addi	t1,t1,-1 # ffff <z_interrupt_stacks+0x6bf>
     b20:	00677733          	and	a4,a4,t1
     b24:	01071713          	slli	a4,a4,0x10
     b28:	0067f7b3          	and	a5,a5,t1
     b2c:	00f707b3          	add	a5,a4,a5
     b30:	00d5e663          	bltu	a1,a3,b3c <CONFIG_ISR_STACK_SIZE+0x33c>
     b34:	00d59e63          	bne	a1,a3,b50 <CONFIG_ISR_STACK_SIZE+0x350>
     b38:	00f57c63          	bgeu	a0,a5,b50 <CONFIG_ISR_STACK_SIZE+0x350>
     b3c:	40c78633          	sub	a2,a5,a2
     b40:	00c7b7b3          	sltu	a5,a5,a2
     b44:	01c787b3          	add	a5,a5,t3
     b48:	40f686b3          	sub	a3,a3,a5
     b4c:	00060793          	mv	a5,a2
     b50:	40f507b3          	sub	a5,a0,a5
     b54:	00f53533          	sltu	a0,a0,a5
     b58:	40d585b3          	sub	a1,a1,a3
     b5c:	40a585b3          	sub	a1,a1,a0
     b60:	011598b3          	sll	a7,a1,a7
     b64:	0107d533          	srl	a0,a5,a6
     b68:	00a8e533          	or	a0,a7,a0
     b6c:	0105d5b3          	srl	a1,a1,a6
     b70:	cddff06f          	j	84c <CONFIG_ISR_STACK_SIZE+0x4c>

00000b74 <__adddf3>:
     b74:	00100837          	lui	a6,0x100
     b78:	fff80813          	addi	a6,a6,-1 # fffff <digits+0x8528f>
     b7c:	fe010113          	addi	sp,sp,-32
     b80:	00b877b3          	and	a5,a6,a1
     b84:	0145d713          	srli	a4,a1,0x14
     b88:	00d87833          	and	a6,a6,a3
     b8c:	0146d313          	srli	t1,a3,0x14
     b90:	00812c23          	sw	s0,24(sp)
     b94:	00379793          	slli	a5,a5,0x3
     b98:	7ff77413          	andi	s0,a4,2047
     b9c:	01d55713          	srli	a4,a0,0x1d
     ba0:	00381813          	slli	a6,a6,0x3
     ba4:	00912a23          	sw	s1,20(sp)
     ba8:	00f767b3          	or	a5,a4,a5
     bac:	01f5d493          	srli	s1,a1,0x1f
     bb0:	01d65713          	srli	a4,a2,0x1d
     bb4:	7ff37313          	andi	t1,t1,2047
     bb8:	00112e23          	sw	ra,28(sp)
     bbc:	01212823          	sw	s2,16(sp)
     bc0:	01312623          	sw	s3,12(sp)
     bc4:	01f6d693          	srli	a3,a3,0x1f
     bc8:	01076733          	or	a4,a4,a6
     bcc:	00351593          	slli	a1,a0,0x3
     bd0:	00361613          	slli	a2,a2,0x3
     bd4:	40640833          	sub	a6,s0,t1
     bd8:	2cd49863          	bne	s1,a3,ea8 <__adddf3+0x334>
     bdc:	13005063          	blez	a6,cfc <__adddf3+0x188>
     be0:	04031063          	bnez	t1,c20 <__adddf3+0xac>
     be4:	00c766b3          	or	a3,a4,a2
     be8:	70068c63          	beqz	a3,1300 <__adddf3+0x78c>
     bec:	fff80513          	addi	a0,a6,-1
     bf0:	02051063          	bnez	a0,c10 <__adddf3+0x9c>
     bf4:	00c58633          	add	a2,a1,a2
     bf8:	00b63533          	sltu	a0,a2,a1
     bfc:	00e787b3          	add	a5,a5,a4
     c00:	00a787b3          	add	a5,a5,a0
     c04:	00060593          	mv	a1,a2
     c08:	00100413          	li	s0,1
     c0c:	0700006f          	j	c7c <__adddf3+0x108>
     c10:	7ff00693          	li	a3,2047
     c14:	02d81063          	bne	a6,a3,c34 <__adddf3+0xc0>
     c18:	7ff00413          	li	s0,2047
     c1c:	2140006f          	j	e30 <__adddf3+0x2bc>
     c20:	7ff00693          	li	a3,2047
     c24:	20d40663          	beq	s0,a3,e30 <__adddf3+0x2bc>
     c28:	008006b7          	lui	a3,0x800
     c2c:	00d76733          	or	a4,a4,a3
     c30:	00080513          	mv	a0,a6
     c34:	03800693          	li	a3,56
     c38:	0aa6cc63          	blt	a3,a0,cf0 <__adddf3+0x17c>
     c3c:	01f00693          	li	a3,31
     c40:	06a6ce63          	blt	a3,a0,cbc <__adddf3+0x148>
     c44:	02000813          	li	a6,32
     c48:	40a80833          	sub	a6,a6,a0
     c4c:	010716b3          	sll	a3,a4,a6
     c50:	00a658b3          	srl	a7,a2,a0
     c54:	01061633          	sll	a2,a2,a6
     c58:	0116e6b3          	or	a3,a3,a7
     c5c:	00c03633          	snez	a2,a2
     c60:	00c6e633          	or	a2,a3,a2
     c64:	00a75733          	srl	a4,a4,a0
     c68:	00b60633          	add	a2,a2,a1
     c6c:	00b63533          	sltu	a0,a2,a1
     c70:	00f70733          	add	a4,a4,a5
     c74:	00a707b3          	add	a5,a4,a0
     c78:	00060593          	mv	a1,a2
     c7c:	00800737          	lui	a4,0x800
     c80:	00e7f733          	and	a4,a5,a4
     c84:	1a070663          	beqz	a4,e30 <__adddf3+0x2bc>
     c88:	00140413          	addi	s0,s0,1
     c8c:	7ff00713          	li	a4,2047
     c90:	5ce40a63          	beq	s0,a4,1264 <__adddf3+0x6f0>
     c94:	ff800737          	lui	a4,0xff800
     c98:	fff70713          	addi	a4,a4,-1 # ff7fffff <CONFIG_SYSTEM_WORKQUEUE_PRIORITY+0xff800000>
     c9c:	00e7f7b3          	and	a5,a5,a4
     ca0:	0015f513          	andi	a0,a1,1
     ca4:	0015d713          	srli	a4,a1,0x1
     ca8:	00a76533          	or	a0,a4,a0
     cac:	01f79593          	slli	a1,a5,0x1f
     cb0:	00a5e5b3          	or	a1,a1,a0
     cb4:	0017d793          	srli	a5,a5,0x1
     cb8:	1780006f          	j	e30 <__adddf3+0x2bc>
     cbc:	fe050693          	addi	a3,a0,-32
     cc0:	02000893          	li	a7,32
     cc4:	00d756b3          	srl	a3,a4,a3
     cc8:	00000813          	li	a6,0
     ccc:	01150863          	beq	a0,a7,cdc <__adddf3+0x168>
     cd0:	04000813          	li	a6,64
     cd4:	40a80533          	sub	a0,a6,a0
     cd8:	00a71833          	sll	a6,a4,a0
     cdc:	00c86633          	or	a2,a6,a2
     ce0:	00c03633          	snez	a2,a2
     ce4:	00c6e633          	or	a2,a3,a2
     ce8:	00000713          	li	a4,0
     cec:	f7dff06f          	j	c68 <__adddf3+0xf4>
     cf0:	00c76633          	or	a2,a4,a2
     cf4:	00c03633          	snez	a2,a2
     cf8:	ff1ff06f          	j	ce8 <__adddf3+0x174>
     cfc:	0e080263          	beqz	a6,de0 <__adddf3+0x26c>
     d00:	40830533          	sub	a0,t1,s0
     d04:	02041e63          	bnez	s0,d40 <__adddf3+0x1cc>
     d08:	00b7e6b3          	or	a3,a5,a1
     d0c:	52068c63          	beqz	a3,1244 <__adddf3+0x6d0>
     d10:	fff50693          	addi	a3,a0,-1
     d14:	00069c63          	bnez	a3,d2c <__adddf3+0x1b8>
     d18:	00c585b3          	add	a1,a1,a2
     d1c:	00e787b3          	add	a5,a5,a4
     d20:	00c5b633          	sltu	a2,a1,a2
     d24:	00c787b3          	add	a5,a5,a2
     d28:	ee1ff06f          	j	c08 <__adddf3+0x94>
     d2c:	7ff00813          	li	a6,2047
     d30:	03051263          	bne	a0,a6,d54 <__adddf3+0x1e0>
     d34:	00070793          	mv	a5,a4
     d38:	00060593          	mv	a1,a2
     d3c:	eddff06f          	j	c18 <__adddf3+0xa4>
     d40:	7ff00693          	li	a3,2047
     d44:	fed308e3          	beq	t1,a3,d34 <__adddf3+0x1c0>
     d48:	008006b7          	lui	a3,0x800
     d4c:	00d7e7b3          	or	a5,a5,a3
     d50:	00050693          	mv	a3,a0
     d54:	03800513          	li	a0,56
     d58:	06d54e63          	blt	a0,a3,dd4 <__adddf3+0x260>
     d5c:	01f00513          	li	a0,31
     d60:	04d54063          	blt	a0,a3,da0 <__adddf3+0x22c>
     d64:	02000813          	li	a6,32
     d68:	40d80833          	sub	a6,a6,a3
     d6c:	01079533          	sll	a0,a5,a6
     d70:	00d5d8b3          	srl	a7,a1,a3
     d74:	010595b3          	sll	a1,a1,a6
     d78:	01156533          	or	a0,a0,a7
     d7c:	00b035b3          	snez	a1,a1
     d80:	00b56533          	or	a0,a0,a1
     d84:	00d7d7b3          	srl	a5,a5,a3
     d88:	00c505b3          	add	a1,a0,a2
     d8c:	00e787b3          	add	a5,a5,a4
     d90:	00c5b633          	sltu	a2,a1,a2
     d94:	00c787b3          	add	a5,a5,a2
     d98:	00030413          	mv	s0,t1
     d9c:	ee1ff06f          	j	c7c <__adddf3+0x108>
     da0:	fe068513          	addi	a0,a3,-32 # 7fffe0 <__data_region_end+0x5fc7b0>
     da4:	02000893          	li	a7,32
     da8:	00a7d833          	srl	a6,a5,a0
     dac:	00000513          	li	a0,0
     db0:	01168863          	beq	a3,a7,dc0 <__adddf3+0x24c>
     db4:	04000513          	li	a0,64
     db8:	40d50533          	sub	a0,a0,a3
     dbc:	00a79533          	sll	a0,a5,a0
     dc0:	00b56533          	or	a0,a0,a1
     dc4:	00a03533          	snez	a0,a0
     dc8:	00a86533          	or	a0,a6,a0
     dcc:	00000793          	li	a5,0
     dd0:	fb9ff06f          	j	d88 <__adddf3+0x214>
     dd4:	00b7e533          	or	a0,a5,a1
     dd8:	00a03533          	snez	a0,a0
     ddc:	ff1ff06f          	j	dcc <__adddf3+0x258>
     de0:	00140693          	addi	a3,s0,1
     de4:	7fe6f513          	andi	a0,a3,2046
     de8:	08051863          	bnez	a0,e78 <__adddf3+0x304>
     dec:	00b7e6b3          	or	a3,a5,a1
     df0:	06041463          	bnez	s0,e58 <__adddf3+0x2e4>
     df4:	46068063          	beqz	a3,1254 <__adddf3+0x6e0>
     df8:	00c766b3          	or	a3,a4,a2
     dfc:	02068a63          	beqz	a3,e30 <__adddf3+0x2bc>
     e00:	00c58633          	add	a2,a1,a2
     e04:	00e787b3          	add	a5,a5,a4
     e08:	00b63533          	sltu	a0,a2,a1
     e0c:	00a787b3          	add	a5,a5,a0
     e10:	00800737          	lui	a4,0x800
     e14:	00e7f733          	and	a4,a5,a4
     e18:	00060593          	mv	a1,a2
     e1c:	00070a63          	beqz	a4,e30 <__adddf3+0x2bc>
     e20:	ff800737          	lui	a4,0xff800
     e24:	fff70713          	addi	a4,a4,-1 # ff7fffff <CONFIG_SYSTEM_WORKQUEUE_PRIORITY+0xff800000>
     e28:	00e7f7b3          	and	a5,a5,a4
     e2c:	00100413          	li	s0,1
     e30:	0075f713          	andi	a4,a1,7
     e34:	42070c63          	beqz	a4,126c <__adddf3+0x6f8>
     e38:	00f5f713          	andi	a4,a1,15
     e3c:	00400693          	li	a3,4
     e40:	42d70663          	beq	a4,a3,126c <__adddf3+0x6f8>
     e44:	00458713          	addi	a4,a1,4
     e48:	00b73533          	sltu	a0,a4,a1
     e4c:	00a787b3          	add	a5,a5,a0
     e50:	00070593          	mv	a1,a4
     e54:	4180006f          	j	126c <__adddf3+0x6f8>
     e58:	ec068ee3          	beqz	a3,d34 <__adddf3+0x1c0>
     e5c:	00c76633          	or	a2,a4,a2
     e60:	da060ce3          	beqz	a2,c18 <__adddf3+0xa4>
     e64:	00000493          	li	s1,0
     e68:	004007b7          	lui	a5,0x400
     e6c:	00000593          	li	a1,0
     e70:	7ff00413          	li	s0,2047
     e74:	3f80006f          	j	126c <__adddf3+0x6f8>
     e78:	7ff00513          	li	a0,2047
     e7c:	3ea68263          	beq	a3,a0,1260 <__adddf3+0x6ec>
     e80:	00c58633          	add	a2,a1,a2
     e84:	00b63533          	sltu	a0,a2,a1
     e88:	00e787b3          	add	a5,a5,a4
     e8c:	00a787b3          	add	a5,a5,a0
     e90:	01f79513          	slli	a0,a5,0x1f
     e94:	00165613          	srli	a2,a2,0x1
     e98:	00c565b3          	or	a1,a0,a2
     e9c:	0017d793          	srli	a5,a5,0x1
     ea0:	00068413          	mv	s0,a3
     ea4:	f8dff06f          	j	e30 <__adddf3+0x2bc>
     ea8:	0f005c63          	blez	a6,fa0 <__adddf3+0x42c>
     eac:	08031e63          	bnez	t1,f48 <__adddf3+0x3d4>
     eb0:	00c766b3          	or	a3,a4,a2
     eb4:	44068663          	beqz	a3,1300 <__adddf3+0x78c>
     eb8:	fff80513          	addi	a0,a6,-1
     ebc:	02051063          	bnez	a0,edc <__adddf3+0x368>
     ec0:	40c58633          	sub	a2,a1,a2
     ec4:	00c5b533          	sltu	a0,a1,a2
     ec8:	40e787b3          	sub	a5,a5,a4
     ecc:	40a787b3          	sub	a5,a5,a0
     ed0:	00060593          	mv	a1,a2
     ed4:	00100413          	li	s0,1
     ed8:	0540006f          	j	f2c <__adddf3+0x3b8>
     edc:	7ff00693          	li	a3,2047
     ee0:	d2d80ce3          	beq	a6,a3,c18 <__adddf3+0xa4>
     ee4:	03800693          	li	a3,56
     ee8:	0aa6c663          	blt	a3,a0,f94 <__adddf3+0x420>
     eec:	01f00693          	li	a3,31
     ef0:	06a6c863          	blt	a3,a0,f60 <__adddf3+0x3ec>
     ef4:	02000813          	li	a6,32
     ef8:	40a80833          	sub	a6,a6,a0
     efc:	010716b3          	sll	a3,a4,a6
     f00:	00a658b3          	srl	a7,a2,a0
     f04:	01061633          	sll	a2,a2,a6
     f08:	0116e6b3          	or	a3,a3,a7
     f0c:	00c03633          	snez	a2,a2
     f10:	00c6e633          	or	a2,a3,a2
     f14:	00a75733          	srl	a4,a4,a0
     f18:	40c58633          	sub	a2,a1,a2
     f1c:	00c5b533          	sltu	a0,a1,a2
     f20:	40e78733          	sub	a4,a5,a4
     f24:	40a707b3          	sub	a5,a4,a0
     f28:	00060593          	mv	a1,a2
     f2c:	00800937          	lui	s2,0x800
     f30:	0127f733          	and	a4,a5,s2
     f34:	ee070ee3          	beqz	a4,e30 <__adddf3+0x2bc>
     f38:	fff90913          	addi	s2,s2,-1 # 7fffff <__data_region_end+0x5fc7cf>
     f3c:	0127f933          	and	s2,a5,s2
     f40:	00058993          	mv	s3,a1
     f44:	2140006f          	j	1158 <__adddf3+0x5e4>
     f48:	7ff00693          	li	a3,2047
     f4c:	eed402e3          	beq	s0,a3,e30 <__adddf3+0x2bc>
     f50:	008006b7          	lui	a3,0x800
     f54:	00d76733          	or	a4,a4,a3
     f58:	00080513          	mv	a0,a6
     f5c:	f89ff06f          	j	ee4 <__adddf3+0x370>
     f60:	fe050693          	addi	a3,a0,-32
     f64:	02000893          	li	a7,32
     f68:	00d756b3          	srl	a3,a4,a3
     f6c:	00000813          	li	a6,0
     f70:	01150863          	beq	a0,a7,f80 <__adddf3+0x40c>
     f74:	04000813          	li	a6,64
     f78:	40a80533          	sub	a0,a6,a0
     f7c:	00a71833          	sll	a6,a4,a0
     f80:	00c86633          	or	a2,a6,a2
     f84:	00c03633          	snez	a2,a2
     f88:	00c6e633          	or	a2,a3,a2
     f8c:	00000713          	li	a4,0
     f90:	f89ff06f          	j	f18 <__adddf3+0x3a4>
     f94:	00c76633          	or	a2,a4,a2
     f98:	00c03633          	snez	a2,a2
     f9c:	ff1ff06f          	j	f8c <__adddf3+0x418>
     fa0:	0e080863          	beqz	a6,1090 <__adddf3+0x51c>
     fa4:	40830533          	sub	a0,t1,s0
     fa8:	04041263          	bnez	s0,fec <__adddf3+0x478>
     fac:	00b7e833          	or	a6,a5,a1
     fb0:	34080c63          	beqz	a6,1308 <__adddf3+0x794>
     fb4:	fff50813          	addi	a6,a0,-1
     fb8:	00081e63          	bnez	a6,fd4 <__adddf3+0x460>
     fbc:	40b605b3          	sub	a1,a2,a1
     fc0:	40f707b3          	sub	a5,a4,a5
     fc4:	00b63633          	sltu	a2,a2,a1
     fc8:	40c787b3          	sub	a5,a5,a2
     fcc:	00068493          	mv	s1,a3
     fd0:	f05ff06f          	j	ed4 <__adddf3+0x360>
     fd4:	7ff00893          	li	a7,2047
     fd8:	03151463          	bne	a0,a7,1000 <__adddf3+0x48c>
     fdc:	00070793          	mv	a5,a4
     fe0:	00060593          	mv	a1,a2
     fe4:	7ff00413          	li	s0,2047
     fe8:	0d00006f          	j	10b8 <__adddf3+0x544>
     fec:	7ff00813          	li	a6,2047
     ff0:	ff0306e3          	beq	t1,a6,fdc <__adddf3+0x468>
     ff4:	00800837          	lui	a6,0x800
     ff8:	0107e7b3          	or	a5,a5,a6
     ffc:	00050813          	mv	a6,a0
    1000:	03800513          	li	a0,56
    1004:	09054063          	blt	a0,a6,1084 <__adddf3+0x510>
    1008:	01f00513          	li	a0,31
    100c:	05054263          	blt	a0,a6,1050 <__adddf3+0x4dc>
    1010:	02000893          	li	a7,32
    1014:	410888b3          	sub	a7,a7,a6
    1018:	01179533          	sll	a0,a5,a7
    101c:	0105de33          	srl	t3,a1,a6
    1020:	011595b3          	sll	a1,a1,a7
    1024:	01c56533          	or	a0,a0,t3
    1028:	00b035b3          	snez	a1,a1
    102c:	00b56533          	or	a0,a0,a1
    1030:	0107d7b3          	srl	a5,a5,a6
    1034:	40a605b3          	sub	a1,a2,a0
    1038:	40f707b3          	sub	a5,a4,a5
    103c:	00b63633          	sltu	a2,a2,a1
    1040:	40c787b3          	sub	a5,a5,a2
    1044:	00030413          	mv	s0,t1
    1048:	00068493          	mv	s1,a3
    104c:	ee1ff06f          	j	f2c <__adddf3+0x3b8>
    1050:	fe080513          	addi	a0,a6,-32 # 7fffe0 <__data_region_end+0x5fc7b0>
    1054:	02000e13          	li	t3,32
    1058:	00a7d8b3          	srl	a7,a5,a0
    105c:	00000513          	li	a0,0
    1060:	01c80863          	beq	a6,t3,1070 <__adddf3+0x4fc>
    1064:	04000513          	li	a0,64
    1068:	41050533          	sub	a0,a0,a6
    106c:	00a79533          	sll	a0,a5,a0
    1070:	00b56533          	or	a0,a0,a1
    1074:	00a03533          	snez	a0,a0
    1078:	00a8e533          	or	a0,a7,a0
    107c:	00000793          	li	a5,0
    1080:	fb5ff06f          	j	1034 <__adddf3+0x4c0>
    1084:	00b7e533          	or	a0,a5,a1
    1088:	00a03533          	snez	a0,a0
    108c:	ff1ff06f          	j	107c <__adddf3+0x508>
    1090:	00140513          	addi	a0,s0,1
    1094:	7fe57513          	andi	a0,a0,2046
    1098:	08051863          	bnez	a0,1128 <__adddf3+0x5b4>
    109c:	00b7e833          	or	a6,a5,a1
    10a0:	00c76533          	or	a0,a4,a2
    10a4:	06041263          	bnez	s0,1108 <__adddf3+0x594>
    10a8:	00081c63          	bnez	a6,10c0 <__adddf3+0x54c>
    10ac:	26050663          	beqz	a0,1318 <__adddf3+0x7a4>
    10b0:	00070793          	mv	a5,a4
    10b4:	00060593          	mv	a1,a2
    10b8:	00068493          	mv	s1,a3
    10bc:	d75ff06f          	j	e30 <__adddf3+0x2bc>
    10c0:	d60508e3          	beqz	a0,e30 <__adddf3+0x2bc>
    10c4:	40c58833          	sub	a6,a1,a2
    10c8:	0105b8b3          	sltu	a7,a1,a6
    10cc:	40e78533          	sub	a0,a5,a4
    10d0:	41150533          	sub	a0,a0,a7
    10d4:	008008b7          	lui	a7,0x800
    10d8:	011578b3          	and	a7,a0,a7
    10dc:	00088c63          	beqz	a7,10f4 <__adddf3+0x580>
    10e0:	40b605b3          	sub	a1,a2,a1
    10e4:	40f707b3          	sub	a5,a4,a5
    10e8:	00b63633          	sltu	a2,a2,a1
    10ec:	40c787b3          	sub	a5,a5,a2
    10f0:	fc9ff06f          	j	10b8 <__adddf3+0x544>
    10f4:	00a865b3          	or	a1,a6,a0
    10f8:	22058863          	beqz	a1,1328 <__adddf3+0x7b4>
    10fc:	00050793          	mv	a5,a0
    1100:	00080593          	mv	a1,a6
    1104:	d2dff06f          	j	e30 <__adddf3+0x2bc>
    1108:	00081c63          	bnez	a6,1120 <__adddf3+0x5ac>
    110c:	22050263          	beqz	a0,1330 <__adddf3+0x7bc>
    1110:	00070793          	mv	a5,a4
    1114:	00060593          	mv	a1,a2
    1118:	00068493          	mv	s1,a3
    111c:	afdff06f          	j	c18 <__adddf3+0xa4>
    1120:	ae050ce3          	beqz	a0,c18 <__adddf3+0xa4>
    1124:	d41ff06f          	j	e64 <__adddf3+0x2f0>
    1128:	40c589b3          	sub	s3,a1,a2
    112c:	0135b533          	sltu	a0,a1,s3
    1130:	40e78933          	sub	s2,a5,a4
    1134:	40a90933          	sub	s2,s2,a0
    1138:	00800537          	lui	a0,0x800
    113c:	00a97533          	and	a0,s2,a0
    1140:	08050463          	beqz	a0,11c8 <__adddf3+0x654>
    1144:	40b609b3          	sub	s3,a2,a1
    1148:	40f707b3          	sub	a5,a4,a5
    114c:	01363633          	sltu	a2,a2,s3
    1150:	40c78933          	sub	s2,a5,a2
    1154:	00068493          	mv	s1,a3
    1158:	08090263          	beqz	s2,11dc <__adddf3+0x668>
    115c:	00090513          	mv	a0,s2
    1160:	990ff0ef          	jal	ra,2f0 <__clzsi2>
    1164:	ff850713          	addi	a4,a0,-8 # 7ffff8 <__data_region_end+0x5fc7c8>
    1168:	01f00793          	li	a5,31
    116c:	08e7c063          	blt	a5,a4,11ec <__adddf3+0x678>
    1170:	02000793          	li	a5,32
    1174:	40e787b3          	sub	a5,a5,a4
    1178:	00e91933          	sll	s2,s2,a4
    117c:	00f9d7b3          	srl	a5,s3,a5
    1180:	0127e7b3          	or	a5,a5,s2
    1184:	00e995b3          	sll	a1,s3,a4
    1188:	0a874463          	blt	a4,s0,1230 <__adddf3+0x6bc>
    118c:	40870733          	sub	a4,a4,s0
    1190:	00170693          	addi	a3,a4,1
    1194:	01f00613          	li	a2,31
    1198:	06d64263          	blt	a2,a3,11fc <__adddf3+0x688>
    119c:	02000713          	li	a4,32
    11a0:	40d70733          	sub	a4,a4,a3
    11a4:	00e79633          	sll	a2,a5,a4
    11a8:	00d5d533          	srl	a0,a1,a3
    11ac:	00e595b3          	sll	a1,a1,a4
    11b0:	00a66633          	or	a2,a2,a0
    11b4:	00b035b3          	snez	a1,a1
    11b8:	00b665b3          	or	a1,a2,a1
    11bc:	00d7d7b3          	srl	a5,a5,a3
    11c0:	00000413          	li	s0,0
    11c4:	c6dff06f          	j	e30 <__adddf3+0x2bc>
    11c8:	0129e5b3          	or	a1,s3,s2
    11cc:	f80596e3          	bnez	a1,1158 <__adddf3+0x5e4>
    11d0:	00000793          	li	a5,0
    11d4:	00000413          	li	s0,0
    11d8:	1480006f          	j	1320 <__adddf3+0x7ac>
    11dc:	00098513          	mv	a0,s3
    11e0:	910ff0ef          	jal	ra,2f0 <__clzsi2>
    11e4:	02050513          	addi	a0,a0,32
    11e8:	f7dff06f          	j	1164 <__adddf3+0x5f0>
    11ec:	fd850793          	addi	a5,a0,-40
    11f0:	00f997b3          	sll	a5,s3,a5
    11f4:	00000593          	li	a1,0
    11f8:	f91ff06f          	j	1188 <__adddf3+0x614>
    11fc:	fe170713          	addi	a4,a4,-31
    1200:	02000613          	li	a2,32
    1204:	00e7d733          	srl	a4,a5,a4
    1208:	00000513          	li	a0,0
    120c:	00c68863          	beq	a3,a2,121c <__adddf3+0x6a8>
    1210:	04000513          	li	a0,64
    1214:	40d50533          	sub	a0,a0,a3
    1218:	00a79533          	sll	a0,a5,a0
    121c:	00a5e533          	or	a0,a1,a0
    1220:	00a03533          	snez	a0,a0
    1224:	00a765b3          	or	a1,a4,a0
    1228:	00000793          	li	a5,0
    122c:	f95ff06f          	j	11c0 <__adddf3+0x64c>
    1230:	40e40433          	sub	s0,s0,a4
    1234:	ff800737          	lui	a4,0xff800
    1238:	fff70713          	addi	a4,a4,-1 # ff7fffff <CONFIG_SYSTEM_WORKQUEUE_PRIORITY+0xff800000>
    123c:	00e7f7b3          	and	a5,a5,a4
    1240:	bf1ff06f          	j	e30 <__adddf3+0x2bc>
    1244:	00070793          	mv	a5,a4
    1248:	00060593          	mv	a1,a2
    124c:	00050413          	mv	s0,a0
    1250:	be1ff06f          	j	e30 <__adddf3+0x2bc>
    1254:	00070793          	mv	a5,a4
    1258:	00060593          	mv	a1,a2
    125c:	bd5ff06f          	j	e30 <__adddf3+0x2bc>
    1260:	7ff00413          	li	s0,2047
    1264:	00000793          	li	a5,0
    1268:	00000593          	li	a1,0
    126c:	00800737          	lui	a4,0x800
    1270:	00e7f733          	and	a4,a5,a4
    1274:	00070e63          	beqz	a4,1290 <__adddf3+0x71c>
    1278:	00140413          	addi	s0,s0,1
    127c:	7ff00713          	li	a4,2047
    1280:	0ce40063          	beq	s0,a4,1340 <__adddf3+0x7cc>
    1284:	ff800737          	lui	a4,0xff800
    1288:	fff70713          	addi	a4,a4,-1 # ff7fffff <CONFIG_SYSTEM_WORKQUEUE_PRIORITY+0xff800000>
    128c:	00e7f7b3          	and	a5,a5,a4
    1290:	01d79713          	slli	a4,a5,0x1d
    1294:	0035d513          	srli	a0,a1,0x3
    1298:	00a76533          	or	a0,a4,a0
    129c:	7ff00713          	li	a4,2047
    12a0:	0037d793          	srli	a5,a5,0x3
    12a4:	00e41e63          	bne	s0,a4,12c0 <__adddf3+0x74c>
    12a8:	00f56533          	or	a0,a0,a5
    12ac:	00000793          	li	a5,0
    12b0:	00050863          	beqz	a0,12c0 <__adddf3+0x74c>
    12b4:	000807b7          	lui	a5,0x80
    12b8:	00000513          	li	a0,0
    12bc:	00000493          	li	s1,0
    12c0:	01441713          	slli	a4,s0,0x14
    12c4:	7ff006b7          	lui	a3,0x7ff00
    12c8:	00c79793          	slli	a5,a5,0xc
    12cc:	01c12083          	lw	ra,28(sp)
    12d0:	01812403          	lw	s0,24(sp)
    12d4:	00d77733          	and	a4,a4,a3
    12d8:	00c7d793          	srli	a5,a5,0xc
    12dc:	01f49493          	slli	s1,s1,0x1f
    12e0:	00f767b3          	or	a5,a4,a5
    12e4:	0097e733          	or	a4,a5,s1
    12e8:	01012903          	lw	s2,16(sp)
    12ec:	01412483          	lw	s1,20(sp)
    12f0:	00c12983          	lw	s3,12(sp)
    12f4:	00070593          	mv	a1,a4
    12f8:	02010113          	addi	sp,sp,32
    12fc:	00008067          	ret
    1300:	00080413          	mv	s0,a6
    1304:	b2dff06f          	j	e30 <__adddf3+0x2bc>
    1308:	00070793          	mv	a5,a4
    130c:	00060593          	mv	a1,a2
    1310:	00050413          	mv	s0,a0
    1314:	da5ff06f          	j	10b8 <__adddf3+0x544>
    1318:	00000793          	li	a5,0
    131c:	00000593          	li	a1,0
    1320:	00000493          	li	s1,0
    1324:	f49ff06f          	j	126c <__adddf3+0x6f8>
    1328:	00000793          	li	a5,0
    132c:	ff5ff06f          	j	1320 <__adddf3+0x7ac>
    1330:	00000593          	li	a1,0
    1334:	00000493          	li	s1,0
    1338:	004007b7          	lui	a5,0x400
    133c:	b35ff06f          	j	e70 <__adddf3+0x2fc>
    1340:	00000793          	li	a5,0
    1344:	00000593          	li	a1,0
    1348:	f49ff06f          	j	1290 <__adddf3+0x71c>

0000134c <__divdf3>:
    134c:	fd010113          	addi	sp,sp,-48
    1350:	03212023          	sw	s2,32(sp)
    1354:	0145d913          	srli	s2,a1,0x14
    1358:	02912223          	sw	s1,36(sp)
    135c:	01312e23          	sw	s3,28(sp)
    1360:	01412c23          	sw	s4,24(sp)
    1364:	01612823          	sw	s6,16(sp)
    1368:	01812423          	sw	s8,8(sp)
    136c:	00c59493          	slli	s1,a1,0xc
    1370:	02112623          	sw	ra,44(sp)
    1374:	02812423          	sw	s0,40(sp)
    1378:	01512a23          	sw	s5,20(sp)
    137c:	01712623          	sw	s7,12(sp)
    1380:	7ff97913          	andi	s2,s2,2047
    1384:	00050a13          	mv	s4,a0
    1388:	00060b13          	mv	s6,a2
    138c:	00068c13          	mv	s8,a3
    1390:	00c4d493          	srli	s1,s1,0xc
    1394:	01f5d993          	srli	s3,a1,0x1f
    1398:	0a090063          	beqz	s2,1438 <__divdf3+0xec>
    139c:	7ff00793          	li	a5,2047
    13a0:	0ef90e63          	beq	s2,a5,149c <__divdf3+0x150>
    13a4:	01d55a93          	srli	s5,a0,0x1d
    13a8:	00349493          	slli	s1,s1,0x3
    13ac:	009ae4b3          	or	s1,s5,s1
    13b0:	00800ab7          	lui	s5,0x800
    13b4:	0154eab3          	or	s5,s1,s5
    13b8:	00351413          	slli	s0,a0,0x3
    13bc:	c0190913          	addi	s2,s2,-1023
    13c0:	00000b93          	li	s7,0
    13c4:	00cc1513          	slli	a0,s8,0xc
    13c8:	00c55493          	srli	s1,a0,0xc
    13cc:	014c5513          	srli	a0,s8,0x14
    13d0:	7ff57593          	andi	a1,a0,2047
    13d4:	01fc5c13          	srli	s8,s8,0x1f
    13d8:	10058063          	beqz	a1,14d8 <__divdf3+0x18c>
    13dc:	7ff00793          	li	a5,2047
    13e0:	16f58263          	beq	a1,a5,1544 <__divdf3+0x1f8>
    13e4:	00349513          	slli	a0,s1,0x3
    13e8:	01db5793          	srli	a5,s6,0x1d
    13ec:	00a7e533          	or	a0,a5,a0
    13f0:	008004b7          	lui	s1,0x800
    13f4:	009564b3          	or	s1,a0,s1
    13f8:	003b1f93          	slli	t6,s6,0x3
    13fc:	c0158513          	addi	a0,a1,-1023
    1400:	00000793          	li	a5,0
    1404:	002b9713          	slli	a4,s7,0x2
    1408:	00f76733          	or	a4,a4,a5
    140c:	fff70713          	addi	a4,a4,-1
    1410:	00e00613          	li	a2,14
    1414:	0189c6b3          	xor	a3,s3,s8
    1418:	40a905b3          	sub	a1,s2,a0
    141c:	16e66063          	bltu	a2,a4,157c <__divdf3+0x230>
    1420:	0000d637          	lui	a2,0xd
    1424:	00271713          	slli	a4,a4,0x2
    1428:	2c460613          	addi	a2,a2,708 # d2c4 <__clz_tab+0x100>
    142c:	00c70733          	add	a4,a4,a2
    1430:	00072703          	lw	a4,0(a4)
    1434:	00070067          	jr	a4
    1438:	00a4eab3          	or	s5,s1,a0
    143c:	060a8e63          	beqz	s5,14b8 <__divdf3+0x16c>
    1440:	04048063          	beqz	s1,1480 <__divdf3+0x134>
    1444:	00048513          	mv	a0,s1
    1448:	ea9fe0ef          	jal	ra,2f0 <__clzsi2>
    144c:	ff550793          	addi	a5,a0,-11
    1450:	01c00713          	li	a4,28
    1454:	02f74c63          	blt	a4,a5,148c <__divdf3+0x140>
    1458:	01d00a93          	li	s5,29
    145c:	ff850413          	addi	s0,a0,-8
    1460:	40fa8ab3          	sub	s5,s5,a5
    1464:	008494b3          	sll	s1,s1,s0
    1468:	015a5ab3          	srl	s5,s4,s5
    146c:	009aeab3          	or	s5,s5,s1
    1470:	008a1433          	sll	s0,s4,s0
    1474:	c0d00593          	li	a1,-1011
    1478:	40a58933          	sub	s2,a1,a0
    147c:	f45ff06f          	j	13c0 <__divdf3+0x74>
    1480:	e71fe0ef          	jal	ra,2f0 <__clzsi2>
    1484:	02050513          	addi	a0,a0,32
    1488:	fc5ff06f          	j	144c <__divdf3+0x100>
    148c:	fd850493          	addi	s1,a0,-40
    1490:	009a1ab3          	sll	s5,s4,s1
    1494:	00000413          	li	s0,0
    1498:	fddff06f          	j	1474 <__divdf3+0x128>
    149c:	00a4eab3          	or	s5,s1,a0
    14a0:	020a8463          	beqz	s5,14c8 <__divdf3+0x17c>
    14a4:	00050413          	mv	s0,a0
    14a8:	00048a93          	mv	s5,s1
    14ac:	7ff00913          	li	s2,2047
    14b0:	00300b93          	li	s7,3
    14b4:	f11ff06f          	j	13c4 <__divdf3+0x78>
    14b8:	00000413          	li	s0,0
    14bc:	00000913          	li	s2,0
    14c0:	00100b93          	li	s7,1
    14c4:	f01ff06f          	j	13c4 <__divdf3+0x78>
    14c8:	00000413          	li	s0,0
    14cc:	7ff00913          	li	s2,2047
    14d0:	00200b93          	li	s7,2
    14d4:	ef1ff06f          	j	13c4 <__divdf3+0x78>
    14d8:	0164efb3          	or	t6,s1,s6
    14dc:	080f8063          	beqz	t6,155c <__divdf3+0x210>
    14e0:	04048263          	beqz	s1,1524 <__divdf3+0x1d8>
    14e4:	00048513          	mv	a0,s1
    14e8:	e09fe0ef          	jal	ra,2f0 <__clzsi2>
    14ec:	00050593          	mv	a1,a0
    14f0:	ff558793          	addi	a5,a1,-11
    14f4:	01c00713          	li	a4,28
    14f8:	02f74e63          	blt	a4,a5,1534 <__divdf3+0x1e8>
    14fc:	01d00693          	li	a3,29
    1500:	ff858f93          	addi	t6,a1,-8
    1504:	40f686b3          	sub	a3,a3,a5
    1508:	01f49533          	sll	a0,s1,t6
    150c:	00db56b3          	srl	a3,s6,a3
    1510:	00a6e4b3          	or	s1,a3,a0
    1514:	01fb1fb3          	sll	t6,s6,t6
    1518:	c0d00693          	li	a3,-1011
    151c:	40b68533          	sub	a0,a3,a1
    1520:	ee1ff06f          	j	1400 <__divdf3+0xb4>
    1524:	000b0513          	mv	a0,s6
    1528:	dc9fe0ef          	jal	ra,2f0 <__clzsi2>
    152c:	02050593          	addi	a1,a0,32
    1530:	fc1ff06f          	j	14f0 <__divdf3+0x1a4>
    1534:	fd858513          	addi	a0,a1,-40
    1538:	00ab14b3          	sll	s1,s6,a0
    153c:	00000f93          	li	t6,0
    1540:	fd9ff06f          	j	1518 <__divdf3+0x1cc>
    1544:	0164efb3          	or	t6,s1,s6
    1548:	020f8263          	beqz	t6,156c <__divdf3+0x220>
    154c:	000b0f93          	mv	t6,s6
    1550:	7ff00513          	li	a0,2047
    1554:	00300793          	li	a5,3
    1558:	eadff06f          	j	1404 <__divdf3+0xb8>
    155c:	00000493          	li	s1,0
    1560:	00000513          	li	a0,0
    1564:	00100793          	li	a5,1
    1568:	e9dff06f          	j	1404 <__divdf3+0xb8>
    156c:	00000493          	li	s1,0
    1570:	7ff00513          	li	a0,2047
    1574:	00200793          	li	a5,2
    1578:	e8dff06f          	j	1404 <__divdf3+0xb8>
    157c:	0154e663          	bltu	s1,s5,1588 <__divdf3+0x23c>
    1580:	349a9e63          	bne	s5,s1,18dc <__divdf3+0x590>
    1584:	35f46c63          	bltu	s0,t6,18dc <__divdf3+0x590>
    1588:	01fa9613          	slli	a2,s5,0x1f
    158c:	00145713          	srli	a4,s0,0x1
    1590:	01f41793          	slli	a5,s0,0x1f
    1594:	001ada93          	srli	s5,s5,0x1
    1598:	00e66433          	or	s0,a2,a4
    159c:	00849513          	slli	a0,s1,0x8
    15a0:	018fd893          	srli	a7,t6,0x18
    15a4:	00a8e8b3          	or	a7,a7,a0
    15a8:	01055513          	srli	a0,a0,0x10
    15ac:	02aade33          	divu	t3,s5,a0
    15b0:	01089e93          	slli	t4,a7,0x10
    15b4:	010ede93          	srli	t4,t4,0x10
    15b8:	01045713          	srli	a4,s0,0x10
    15bc:	008f9313          	slli	t1,t6,0x8
    15c0:	02aafab3          	remu	s5,s5,a0
    15c4:	000e0613          	mv	a2,t3
    15c8:	03ce8833          	mul	a6,t4,t3
    15cc:	010a9a93          	slli	s5,s5,0x10
    15d0:	01576733          	or	a4,a4,s5
    15d4:	01077e63          	bgeu	a4,a6,15f0 <__divdf3+0x2a4>
    15d8:	01170733          	add	a4,a4,a7
    15dc:	fffe0613          	addi	a2,t3,-1
    15e0:	01176863          	bltu	a4,a7,15f0 <__divdf3+0x2a4>
    15e4:	01077663          	bgeu	a4,a6,15f0 <__divdf3+0x2a4>
    15e8:	ffee0613          	addi	a2,t3,-2
    15ec:	01170733          	add	a4,a4,a7
    15f0:	41070733          	sub	a4,a4,a6
    15f4:	02a75e33          	divu	t3,a4,a0
    15f8:	01041413          	slli	s0,s0,0x10
    15fc:	01045413          	srli	s0,s0,0x10
    1600:	02a77733          	remu	a4,a4,a0
    1604:	000e0293          	mv	t0,t3
    1608:	03ce8833          	mul	a6,t4,t3
    160c:	01071713          	slli	a4,a4,0x10
    1610:	00e46733          	or	a4,s0,a4
    1614:	01077e63          	bgeu	a4,a6,1630 <__divdf3+0x2e4>
    1618:	01170733          	add	a4,a4,a7
    161c:	fffe0293          	addi	t0,t3,-1
    1620:	01176863          	bltu	a4,a7,1630 <__divdf3+0x2e4>
    1624:	01077663          	bgeu	a4,a6,1630 <__divdf3+0x2e4>
    1628:	ffee0293          	addi	t0,t3,-2
    162c:	01170733          	add	a4,a4,a7
    1630:	41070433          	sub	s0,a4,a6
    1634:	01061613          	slli	a2,a2,0x10
    1638:	00010837          	lui	a6,0x10
    163c:	005662b3          	or	t0,a2,t0
    1640:	fff80e13          	addi	t3,a6,-1 # ffff <z_interrupt_stacks+0x6bf>
    1644:	0102d613          	srli	a2,t0,0x10
    1648:	01c2f733          	and	a4,t0,t3
    164c:	01035f13          	srli	t5,t1,0x10
    1650:	01c37e33          	and	t3,t1,t3
    1654:	02ee03b3          	mul	t2,t3,a4
    1658:	03c604b3          	mul	s1,a2,t3
    165c:	02ef0733          	mul	a4,t5,a4
    1660:	03e60fb3          	mul	t6,a2,t5
    1664:	00970633          	add	a2,a4,s1
    1668:	0103d713          	srli	a4,t2,0x10
    166c:	00c70733          	add	a4,a4,a2
    1670:	00977463          	bgeu	a4,s1,1678 <__divdf3+0x32c>
    1674:	010f8fb3          	add	t6,t6,a6
    1678:	01075613          	srli	a2,a4,0x10
    167c:	01f60633          	add	a2,a2,t6
    1680:	00010fb7          	lui	t6,0x10
    1684:	ffff8f93          	addi	t6,t6,-1 # ffff <z_interrupt_stacks+0x6bf>
    1688:	01f77833          	and	a6,a4,t6
    168c:	01081813          	slli	a6,a6,0x10
    1690:	01f3f3b3          	and	t2,t2,t6
    1694:	00780833          	add	a6,a6,t2
    1698:	00c46863          	bltu	s0,a2,16a8 <__divdf3+0x35c>
    169c:	00028493          	mv	s1,t0
    16a0:	04c41463          	bne	s0,a2,16e8 <__divdf3+0x39c>
    16a4:	0507f263          	bgeu	a5,a6,16e8 <__divdf3+0x39c>
    16a8:	006787b3          	add	a5,a5,t1
    16ac:	0067b733          	sltu	a4,a5,t1
    16b0:	01170733          	add	a4,a4,a7
    16b4:	00e40433          	add	s0,s0,a4
    16b8:	fff28493          	addi	s1,t0,-1
    16bc:	0088e663          	bltu	a7,s0,16c8 <__divdf3+0x37c>
    16c0:	02889463          	bne	a7,s0,16e8 <__divdf3+0x39c>
    16c4:	0267e263          	bltu	a5,t1,16e8 <__divdf3+0x39c>
    16c8:	00c46663          	bltu	s0,a2,16d4 <__divdf3+0x388>
    16cc:	00861e63          	bne	a2,s0,16e8 <__divdf3+0x39c>
    16d0:	0107fc63          	bgeu	a5,a6,16e8 <__divdf3+0x39c>
    16d4:	006787b3          	add	a5,a5,t1
    16d8:	0067b733          	sltu	a4,a5,t1
    16dc:	01170733          	add	a4,a4,a7
    16e0:	ffe28493          	addi	s1,t0,-2
    16e4:	00e40433          	add	s0,s0,a4
    16e8:	41078833          	sub	a6,a5,a6
    16ec:	40c40433          	sub	s0,s0,a2
    16f0:	0107b7b3          	sltu	a5,a5,a6
    16f4:	40f40433          	sub	s0,s0,a5
    16f8:	fff00f93          	li	t6,-1
    16fc:	12888463          	beq	a7,s0,1824 <__divdf3+0x4d8>
    1700:	02a45fb3          	divu	t6,s0,a0
    1704:	01085713          	srli	a4,a6,0x10
    1708:	02a47433          	remu	s0,s0,a0
    170c:	000f8613          	mv	a2,t6
    1710:	03fe87b3          	mul	a5,t4,t6
    1714:	01041413          	slli	s0,s0,0x10
    1718:	00876433          	or	s0,a4,s0
    171c:	00f47e63          	bgeu	s0,a5,1738 <__divdf3+0x3ec>
    1720:	01140433          	add	s0,s0,a7
    1724:	ffff8613          	addi	a2,t6,-1
    1728:	01146863          	bltu	s0,a7,1738 <__divdf3+0x3ec>
    172c:	00f47663          	bgeu	s0,a5,1738 <__divdf3+0x3ec>
    1730:	ffef8613          	addi	a2,t6,-2
    1734:	01140433          	add	s0,s0,a7
    1738:	40f40433          	sub	s0,s0,a5
    173c:	02a45733          	divu	a4,s0,a0
    1740:	01081813          	slli	a6,a6,0x10
    1744:	01085813          	srli	a6,a6,0x10
    1748:	02a47433          	remu	s0,s0,a0
    174c:	00070793          	mv	a5,a4
    1750:	02ee8eb3          	mul	t4,t4,a4
    1754:	01041413          	slli	s0,s0,0x10
    1758:	00886433          	or	s0,a6,s0
    175c:	01d47e63          	bgeu	s0,t4,1778 <__divdf3+0x42c>
    1760:	01140433          	add	s0,s0,a7
    1764:	fff70793          	addi	a5,a4,-1
    1768:	01146863          	bltu	s0,a7,1778 <__divdf3+0x42c>
    176c:	01d47663          	bgeu	s0,t4,1778 <__divdf3+0x42c>
    1770:	ffe70793          	addi	a5,a4,-2
    1774:	01140433          	add	s0,s0,a7
    1778:	01061613          	slli	a2,a2,0x10
    177c:	00f66633          	or	a2,a2,a5
    1780:	01061793          	slli	a5,a2,0x10
    1784:	0107d793          	srli	a5,a5,0x10
    1788:	01065713          	srli	a4,a2,0x10
    178c:	02ef0833          	mul	a6,t5,a4
    1790:	41d40433          	sub	s0,s0,t4
    1794:	02ff0f33          	mul	t5,t5,a5
    1798:	03c78eb3          	mul	t4,a5,t3
    179c:	03c70e33          	mul	t3,a4,t3
    17a0:	010ed793          	srli	a5,t4,0x10
    17a4:	01cf0f33          	add	t5,t5,t3
    17a8:	01e787b3          	add	a5,a5,t5
    17ac:	01c7f663          	bgeu	a5,t3,17b8 <__divdf3+0x46c>
    17b0:	00010737          	lui	a4,0x10
    17b4:	00e80833          	add	a6,a6,a4
    17b8:	0107d713          	srli	a4,a5,0x10
    17bc:	01070733          	add	a4,a4,a6
    17c0:	00010837          	lui	a6,0x10
    17c4:	fff80813          	addi	a6,a6,-1 # ffff <z_interrupt_stacks+0x6bf>
    17c8:	0107f533          	and	a0,a5,a6
    17cc:	01051513          	slli	a0,a0,0x10
    17d0:	010efeb3          	and	t4,t4,a6
    17d4:	01d50533          	add	a0,a0,t4
    17d8:	00e46863          	bltu	s0,a4,17e8 <__divdf3+0x49c>
    17dc:	24e41463          	bne	s0,a4,1a24 <__divdf3+0x6d8>
    17e0:	00060f93          	mv	t6,a2
    17e4:	04050063          	beqz	a0,1824 <__divdf3+0x4d8>
    17e8:	00888433          	add	s0,a7,s0
    17ec:	fff60f93          	addi	t6,a2,-1
    17f0:	03146463          	bltu	s0,a7,1818 <__divdf3+0x4cc>
    17f4:	00e46663          	bltu	s0,a4,1800 <__divdf3+0x4b4>
    17f8:	22e41463          	bne	s0,a4,1a20 <__divdf3+0x6d4>
    17fc:	02a37063          	bgeu	t1,a0,181c <__divdf3+0x4d0>
    1800:	00131793          	slli	a5,t1,0x1
    1804:	0067b333          	sltu	t1,a5,t1
    1808:	011308b3          	add	a7,t1,a7
    180c:	ffe60f93          	addi	t6,a2,-2
    1810:	01140433          	add	s0,s0,a7
    1814:	00078313          	mv	t1,a5
    1818:	00e41463          	bne	s0,a4,1820 <__divdf3+0x4d4>
    181c:	00650463          	beq	a0,t1,1824 <__divdf3+0x4d8>
    1820:	001fef93          	ori	t6,t6,1
    1824:	3ff58793          	addi	a5,a1,1023
    1828:	10f05a63          	blez	a5,193c <__divdf3+0x5f0>
    182c:	007ff713          	andi	a4,t6,7
    1830:	02070063          	beqz	a4,1850 <__divdf3+0x504>
    1834:	00fff713          	andi	a4,t6,15
    1838:	00400613          	li	a2,4
    183c:	00c70a63          	beq	a4,a2,1850 <__divdf3+0x504>
    1840:	004f8613          	addi	a2,t6,4
    1844:	01f63fb3          	sltu	t6,a2,t6
    1848:	01f484b3          	add	s1,s1,t6
    184c:	00060f93          	mv	t6,a2
    1850:	01000737          	lui	a4,0x1000
    1854:	00e4f733          	and	a4,s1,a4
    1858:	00070a63          	beqz	a4,186c <__divdf3+0x520>
    185c:	ff0007b7          	lui	a5,0xff000
    1860:	fff78793          	addi	a5,a5,-1 # feffffff <CONFIG_SYSTEM_WORKQUEUE_PRIORITY+0xff000000>
    1864:	00f4f4b3          	and	s1,s1,a5
    1868:	40058793          	addi	a5,a1,1024
    186c:	7fe00713          	li	a4,2046
    1870:	0af74063          	blt	a4,a5,1910 <__divdf3+0x5c4>
    1874:	003fdf93          	srli	t6,t6,0x3
    1878:	01d49713          	slli	a4,s1,0x1d
    187c:	01f76733          	or	a4,a4,t6
    1880:	0034d513          	srli	a0,s1,0x3
    1884:	01479793          	slli	a5,a5,0x14
    1888:	7ff00637          	lui	a2,0x7ff00
    188c:	00c51513          	slli	a0,a0,0xc
    1890:	02c12083          	lw	ra,44(sp)
    1894:	02812403          	lw	s0,40(sp)
    1898:	00c7f7b3          	and	a5,a5,a2
    189c:	00c55513          	srli	a0,a0,0xc
    18a0:	00a7e533          	or	a0,a5,a0
    18a4:	01f69693          	slli	a3,a3,0x1f
    18a8:	00d567b3          	or	a5,a0,a3
    18ac:	02412483          	lw	s1,36(sp)
    18b0:	02012903          	lw	s2,32(sp)
    18b4:	01c12983          	lw	s3,28(sp)
    18b8:	01812a03          	lw	s4,24(sp)
    18bc:	01412a83          	lw	s5,20(sp)
    18c0:	01012b03          	lw	s6,16(sp)
    18c4:	00c12b83          	lw	s7,12(sp)
    18c8:	00812c03          	lw	s8,8(sp)
    18cc:	00070513          	mv	a0,a4
    18d0:	00078593          	mv	a1,a5
    18d4:	03010113          	addi	sp,sp,48
    18d8:	00008067          	ret
    18dc:	fff58593          	addi	a1,a1,-1
    18e0:	00000793          	li	a5,0
    18e4:	cb9ff06f          	j	159c <__divdf3+0x250>
    18e8:	00098693          	mv	a3,s3
    18ec:	000a8493          	mv	s1,s5
    18f0:	00040f93          	mv	t6,s0
    18f4:	000b8793          	mv	a5,s7
    18f8:	00300713          	li	a4,3
    18fc:	0ee78a63          	beq	a5,a4,19f0 <__divdf3+0x6a4>
    1900:	00100713          	li	a4,1
    1904:	10e78063          	beq	a5,a4,1a04 <__divdf3+0x6b8>
    1908:	00200713          	li	a4,2
    190c:	f0e79ce3          	bne	a5,a4,1824 <__divdf3+0x4d8>
    1910:	00000513          	li	a0,0
    1914:	00000713          	li	a4,0
    1918:	7ff00793          	li	a5,2047
    191c:	f69ff06f          	j	1884 <__divdf3+0x538>
    1920:	000c0693          	mv	a3,s8
    1924:	fd5ff06f          	j	18f8 <__divdf3+0x5ac>
    1928:	000804b7          	lui	s1,0x80
    192c:	00000f93          	li	t6,0
    1930:	00000693          	li	a3,0
    1934:	00300793          	li	a5,3
    1938:	fc1ff06f          	j	18f8 <__divdf3+0x5ac>
    193c:	00100513          	li	a0,1
    1940:	40f50533          	sub	a0,a0,a5
    1944:	03800713          	li	a4,56
    1948:	0aa74e63          	blt	a4,a0,1a04 <__divdf3+0x6b8>
    194c:	01f00713          	li	a4,31
    1950:	06a74663          	blt	a4,a0,19bc <__divdf3+0x670>
    1954:	41e58593          	addi	a1,a1,1054
    1958:	00b497b3          	sll	a5,s1,a1
    195c:	00afd733          	srl	a4,t6,a0
    1960:	00bf95b3          	sll	a1,t6,a1
    1964:	00e7e7b3          	or	a5,a5,a4
    1968:	00b035b3          	snez	a1,a1
    196c:	00b7e7b3          	or	a5,a5,a1
    1970:	00a4d533          	srl	a0,s1,a0
    1974:	0077f713          	andi	a4,a5,7
    1978:	02070063          	beqz	a4,1998 <__divdf3+0x64c>
    197c:	00f7f713          	andi	a4,a5,15
    1980:	00400613          	li	a2,4
    1984:	00c70a63          	beq	a4,a2,1998 <__divdf3+0x64c>
    1988:	00478713          	addi	a4,a5,4
    198c:	00f737b3          	sltu	a5,a4,a5
    1990:	00f50533          	add	a0,a0,a5
    1994:	00070793          	mv	a5,a4
    1998:	00800737          	lui	a4,0x800
    199c:	00e57733          	and	a4,a0,a4
    19a0:	06071863          	bnez	a4,1a10 <__divdf3+0x6c4>
    19a4:	01d51713          	slli	a4,a0,0x1d
    19a8:	0037d793          	srli	a5,a5,0x3
    19ac:	00f76733          	or	a4,a4,a5
    19b0:	00355513          	srli	a0,a0,0x3
    19b4:	00000793          	li	a5,0
    19b8:	ecdff06f          	j	1884 <__divdf3+0x538>
    19bc:	fe100713          	li	a4,-31
    19c0:	40f707b3          	sub	a5,a4,a5
    19c4:	02000613          	li	a2,32
    19c8:	00f4d7b3          	srl	a5,s1,a5
    19cc:	00000713          	li	a4,0
    19d0:	00c50663          	beq	a0,a2,19dc <__divdf3+0x690>
    19d4:	43e58713          	addi	a4,a1,1086
    19d8:	00e49733          	sll	a4,s1,a4
    19dc:	01f76733          	or	a4,a4,t6
    19e0:	00e03733          	snez	a4,a4
    19e4:	00e7e7b3          	or	a5,a5,a4
    19e8:	00000513          	li	a0,0
    19ec:	f89ff06f          	j	1974 <__divdf3+0x628>
    19f0:	00080537          	lui	a0,0x80
    19f4:	00000713          	li	a4,0
    19f8:	7ff00793          	li	a5,2047
    19fc:	00000693          	li	a3,0
    1a00:	e85ff06f          	j	1884 <__divdf3+0x538>
    1a04:	00000513          	li	a0,0
    1a08:	00000713          	li	a4,0
    1a0c:	fa9ff06f          	j	19b4 <__divdf3+0x668>
    1a10:	00000513          	li	a0,0
    1a14:	00000713          	li	a4,0
    1a18:	00100793          	li	a5,1
    1a1c:	e69ff06f          	j	1884 <__divdf3+0x538>
    1a20:	000f8613          	mv	a2,t6
    1a24:	00060f93          	mv	t6,a2
    1a28:	df9ff06f          	j	1820 <__divdf3+0x4d4>

00001a2c <__muldf3>:
    1a2c:	fd010113          	addi	sp,sp,-48
    1a30:	01312e23          	sw	s3,28(sp)
    1a34:	0145d993          	srli	s3,a1,0x14
    1a38:	02812423          	sw	s0,40(sp)
    1a3c:	02912223          	sw	s1,36(sp)
    1a40:	01412c23          	sw	s4,24(sp)
    1a44:	01512a23          	sw	s5,20(sp)
    1a48:	01712623          	sw	s7,12(sp)
    1a4c:	00c59493          	slli	s1,a1,0xc
    1a50:	02112623          	sw	ra,44(sp)
    1a54:	03212023          	sw	s2,32(sp)
    1a58:	01612823          	sw	s6,16(sp)
    1a5c:	7ff9f993          	andi	s3,s3,2047
    1a60:	00050413          	mv	s0,a0
    1a64:	00060b93          	mv	s7,a2
    1a68:	00068a93          	mv	s5,a3
    1a6c:	00c4d493          	srli	s1,s1,0xc
    1a70:	01f5da13          	srli	s4,a1,0x1f
    1a74:	0a098263          	beqz	s3,1b18 <__muldf3+0xec>
    1a78:	7ff00793          	li	a5,2047
    1a7c:	10f98063          	beq	s3,a5,1b7c <__muldf3+0x150>
    1a80:	01d55793          	srli	a5,a0,0x1d
    1a84:	00349493          	slli	s1,s1,0x3
    1a88:	0097e4b3          	or	s1,a5,s1
    1a8c:	008007b7          	lui	a5,0x800
    1a90:	00f4e4b3          	or	s1,s1,a5
    1a94:	00351913          	slli	s2,a0,0x3
    1a98:	c0198993          	addi	s3,s3,-1023
    1a9c:	00000b13          	li	s6,0
    1aa0:	014ad513          	srli	a0,s5,0x14
    1aa4:	00ca9413          	slli	s0,s5,0xc
    1aa8:	7ff57513          	andi	a0,a0,2047
    1aac:	00c45413          	srli	s0,s0,0xc
    1ab0:	01fada93          	srli	s5,s5,0x1f
    1ab4:	10050063          	beqz	a0,1bb4 <__muldf3+0x188>
    1ab8:	7ff00793          	li	a5,2047
    1abc:	16f50063          	beq	a0,a5,1c1c <__muldf3+0x1f0>
    1ac0:	01dbd793          	srli	a5,s7,0x1d
    1ac4:	00341413          	slli	s0,s0,0x3
    1ac8:	0087e433          	or	s0,a5,s0
    1acc:	008007b7          	lui	a5,0x800
    1ad0:	00f46433          	or	s0,s0,a5
    1ad4:	c0150513          	addi	a0,a0,-1023 # 7fc01 <digits+0x4e91>
    1ad8:	003b9793          	slli	a5,s7,0x3
    1adc:	00000713          	li	a4,0
    1ae0:	002b1693          	slli	a3,s6,0x2
    1ae4:	00e6e6b3          	or	a3,a3,a4
    1ae8:	00a98533          	add	a0,s3,a0
    1aec:	fff68693          	addi	a3,a3,-1 # 7fefffff <CONFIG_SYS_CLOCK_HW_CYCLES_PER_SEC+0x7cf50f7f>
    1af0:	00e00813          	li	a6,14
    1af4:	015a4633          	xor	a2,s4,s5
    1af8:	00150593          	addi	a1,a0,1
    1afc:	14d86c63          	bltu	a6,a3,1c54 <__muldf3+0x228>
    1b00:	0000d537          	lui	a0,0xd
    1b04:	00269693          	slli	a3,a3,0x2
    1b08:	30050513          	addi	a0,a0,768 # d300 <__clz_tab+0x13c>
    1b0c:	00a686b3          	add	a3,a3,a0
    1b10:	0006a683          	lw	a3,0(a3)
    1b14:	00068067          	jr	a3
    1b18:	00a4e933          	or	s2,s1,a0
    1b1c:	06090c63          	beqz	s2,1b94 <__muldf3+0x168>
    1b20:	04048063          	beqz	s1,1b60 <__muldf3+0x134>
    1b24:	00048513          	mv	a0,s1
    1b28:	fc8fe0ef          	jal	ra,2f0 <__clzsi2>
    1b2c:	ff550713          	addi	a4,a0,-11
    1b30:	01c00793          	li	a5,28
    1b34:	02e7cc63          	blt	a5,a4,1b6c <__muldf3+0x140>
    1b38:	01d00793          	li	a5,29
    1b3c:	ff850913          	addi	s2,a0,-8
    1b40:	40e787b3          	sub	a5,a5,a4
    1b44:	012494b3          	sll	s1,s1,s2
    1b48:	00f457b3          	srl	a5,s0,a5
    1b4c:	0097e4b3          	or	s1,a5,s1
    1b50:	01241933          	sll	s2,s0,s2
    1b54:	c0d00993          	li	s3,-1011
    1b58:	40a989b3          	sub	s3,s3,a0
    1b5c:	f41ff06f          	j	1a9c <__muldf3+0x70>
    1b60:	f90fe0ef          	jal	ra,2f0 <__clzsi2>
    1b64:	02050513          	addi	a0,a0,32
    1b68:	fc5ff06f          	j	1b2c <__muldf3+0x100>
    1b6c:	fd850493          	addi	s1,a0,-40
    1b70:	009414b3          	sll	s1,s0,s1
    1b74:	00000913          	li	s2,0
    1b78:	fddff06f          	j	1b54 <__muldf3+0x128>
    1b7c:	00a4e933          	or	s2,s1,a0
    1b80:	02090263          	beqz	s2,1ba4 <__muldf3+0x178>
    1b84:	00050913          	mv	s2,a0
    1b88:	7ff00993          	li	s3,2047
    1b8c:	00300b13          	li	s6,3
    1b90:	f11ff06f          	j	1aa0 <__muldf3+0x74>
    1b94:	00000493          	li	s1,0
    1b98:	00000993          	li	s3,0
    1b9c:	00100b13          	li	s6,1
    1ba0:	f01ff06f          	j	1aa0 <__muldf3+0x74>
    1ba4:	00000493          	li	s1,0
    1ba8:	7ff00993          	li	s3,2047
    1bac:	00200b13          	li	s6,2
    1bb0:	ef1ff06f          	j	1aa0 <__muldf3+0x74>
    1bb4:	017467b3          	or	a5,s0,s7
    1bb8:	06078e63          	beqz	a5,1c34 <__muldf3+0x208>
    1bbc:	04040063          	beqz	s0,1bfc <__muldf3+0x1d0>
    1bc0:	00040513          	mv	a0,s0
    1bc4:	f2cfe0ef          	jal	ra,2f0 <__clzsi2>
    1bc8:	ff550693          	addi	a3,a0,-11
    1bcc:	01c00793          	li	a5,28
    1bd0:	02d7ce63          	blt	a5,a3,1c0c <__muldf3+0x1e0>
    1bd4:	01d00713          	li	a4,29
    1bd8:	ff850793          	addi	a5,a0,-8
    1bdc:	40d70733          	sub	a4,a4,a3
    1be0:	00f41433          	sll	s0,s0,a5
    1be4:	00ebd733          	srl	a4,s7,a4
    1be8:	00876433          	or	s0,a4,s0
    1bec:	00fb97b3          	sll	a5,s7,a5
    1bf0:	c0d00713          	li	a4,-1011
    1bf4:	40a70533          	sub	a0,a4,a0
    1bf8:	ee5ff06f          	j	1adc <__muldf3+0xb0>
    1bfc:	000b8513          	mv	a0,s7
    1c00:	ef0fe0ef          	jal	ra,2f0 <__clzsi2>
    1c04:	02050513          	addi	a0,a0,32
    1c08:	fc1ff06f          	j	1bc8 <__muldf3+0x19c>
    1c0c:	fd850413          	addi	s0,a0,-40
    1c10:	008b9433          	sll	s0,s7,s0
    1c14:	00000793          	li	a5,0
    1c18:	fd9ff06f          	j	1bf0 <__muldf3+0x1c4>
    1c1c:	017467b3          	or	a5,s0,s7
    1c20:	02078263          	beqz	a5,1c44 <__muldf3+0x218>
    1c24:	000b8793          	mv	a5,s7
    1c28:	7ff00513          	li	a0,2047
    1c2c:	00300713          	li	a4,3
    1c30:	eb1ff06f          	j	1ae0 <__muldf3+0xb4>
    1c34:	00000413          	li	s0,0
    1c38:	00000513          	li	a0,0
    1c3c:	00100713          	li	a4,1
    1c40:	ea1ff06f          	j	1ae0 <__muldf3+0xb4>
    1c44:	00000413          	li	s0,0
    1c48:	7ff00513          	li	a0,2047
    1c4c:	00200713          	li	a4,2
    1c50:	e91ff06f          	j	1ae0 <__muldf3+0xb4>
    1c54:	00010f37          	lui	t5,0x10
    1c58:	ffff0e93          	addi	t4,t5,-1 # ffff <z_interrupt_stacks+0x6bf>
    1c5c:	01095713          	srli	a4,s2,0x10
    1c60:	0107d893          	srli	a7,a5,0x10
    1c64:	01d97933          	and	s2,s2,t4
    1c68:	01d7f7b3          	and	a5,a5,t4
    1c6c:	03288833          	mul	a6,a7,s2
    1c70:	02f906b3          	mul	a3,s2,a5
    1c74:	02f70fb3          	mul	t6,a4,a5
    1c78:	01f80333          	add	t1,a6,t6
    1c7c:	0106d813          	srli	a6,a3,0x10
    1c80:	00680833          	add	a6,a6,t1
    1c84:	03170e33          	mul	t3,a4,a7
    1c88:	01f87463          	bgeu	a6,t6,1c90 <__muldf3+0x264>
    1c8c:	01ee0e33          	add	t3,t3,t5
    1c90:	01085393          	srli	t2,a6,0x10
    1c94:	01d87833          	and	a6,a6,t4
    1c98:	01d6f6b3          	and	a3,a3,t4
    1c9c:	01045f13          	srli	t5,s0,0x10
    1ca0:	01d472b3          	and	t0,s0,t4
    1ca4:	01081813          	slli	a6,a6,0x10
    1ca8:	00d80833          	add	a6,a6,a3
    1cac:	02570eb3          	mul	t4,a4,t0
    1cb0:	025906b3          	mul	a3,s2,t0
    1cb4:	032f0933          	mul	s2,t5,s2
    1cb8:	01d90333          	add	t1,s2,t4
    1cbc:	0106d913          	srli	s2,a3,0x10
    1cc0:	00690933          	add	s2,s2,t1
    1cc4:	03e70733          	mul	a4,a4,t5
    1cc8:	01d97663          	bgeu	s2,t4,1cd4 <__muldf3+0x2a8>
    1ccc:	00010337          	lui	t1,0x10
    1cd0:	00670733          	add	a4,a4,t1
    1cd4:	01095e93          	srli	t4,s2,0x10
    1cd8:	000109b7          	lui	s3,0x10
    1cdc:	00ee8eb3          	add	t4,t4,a4
    1ce0:	fff98713          	addi	a4,s3,-1 # ffff <z_interrupt_stacks+0x6bf>
    1ce4:	00e97933          	and	s2,s2,a4
    1ce8:	00e6f6b3          	and	a3,a3,a4
    1cec:	0104d413          	srli	s0,s1,0x10
    1cf0:	01091913          	slli	s2,s2,0x10
    1cf4:	00e4f4b3          	and	s1,s1,a4
    1cf8:	02978733          	mul	a4,a5,s1
    1cfc:	00d90933          	add	s2,s2,a3
    1d00:	012383b3          	add	t2,t2,s2
    1d04:	02f40333          	mul	t1,s0,a5
    1d08:	029886b3          	mul	a3,a7,s1
    1d0c:	028887b3          	mul	a5,a7,s0
    1d10:	006688b3          	add	a7,a3,t1
    1d14:	01075693          	srli	a3,a4,0x10
    1d18:	011686b3          	add	a3,a3,a7
    1d1c:	0066f463          	bgeu	a3,t1,1d24 <__muldf3+0x2f8>
    1d20:	013787b3          	add	a5,a5,s3
    1d24:	0106d893          	srli	a7,a3,0x10
    1d28:	000109b7          	lui	s3,0x10
    1d2c:	00f88fb3          	add	t6,a7,a5
    1d30:	fff98793          	addi	a5,s3,-1 # ffff <z_interrupt_stacks+0x6bf>
    1d34:	029288b3          	mul	a7,t0,s1
    1d38:	00f6f6b3          	and	a3,a3,a5
    1d3c:	00f77733          	and	a4,a4,a5
    1d40:	01069693          	slli	a3,a3,0x10
    1d44:	00e686b3          	add	a3,a3,a4
    1d48:	025407b3          	mul	a5,s0,t0
    1d4c:	029f04b3          	mul	s1,t5,s1
    1d50:	028f0333          	mul	t1,t5,s0
    1d54:	00f484b3          	add	s1,s1,a5
    1d58:	0108d413          	srli	s0,a7,0x10
    1d5c:	009404b3          	add	s1,s0,s1
    1d60:	00f4f463          	bgeu	s1,a5,1d68 <__muldf3+0x33c>
    1d64:	01330333          	add	t1,t1,s3
    1d68:	000107b7          	lui	a5,0x10
    1d6c:	fff78793          	addi	a5,a5,-1 # ffff <z_interrupt_stacks+0x6bf>
    1d70:	00f4f733          	and	a4,s1,a5
    1d74:	00f8f8b3          	and	a7,a7,a5
    1d78:	01071713          	slli	a4,a4,0x10
    1d7c:	007e0e33          	add	t3,t3,t2
    1d80:	01170733          	add	a4,a4,a7
    1d84:	012e3933          	sltu	s2,t3,s2
    1d88:	01d70733          	add	a4,a4,t4
    1d8c:	01270433          	add	s0,a4,s2
    1d90:	00de0e33          	add	t3,t3,a3
    1d94:	00de36b3          	sltu	a3,t3,a3
    1d98:	01f408b3          	add	a7,s0,t6
    1d9c:	00d88f33          	add	t5,a7,a3
    1da0:	01d73733          	sltu	a4,a4,t4
    1da4:	01243433          	sltu	s0,s0,s2
    1da8:	00876433          	or	s0,a4,s0
    1dac:	0104d493          	srli	s1,s1,0x10
    1db0:	01f8b8b3          	sltu	a7,a7,t6
    1db4:	00df36b3          	sltu	a3,t5,a3
    1db8:	00940433          	add	s0,s0,s1
    1dbc:	00d8e6b3          	or	a3,a7,a3
    1dc0:	00d40433          	add	s0,s0,a3
    1dc4:	00640433          	add	s0,s0,t1
    1dc8:	017f5793          	srli	a5,t5,0x17
    1dcc:	00941413          	slli	s0,s0,0x9
    1dd0:	00f46433          	or	s0,s0,a5
    1dd4:	009e1793          	slli	a5,t3,0x9
    1dd8:	0107e7b3          	or	a5,a5,a6
    1ddc:	00f037b3          	snez	a5,a5
    1de0:	017e5e13          	srli	t3,t3,0x17
    1de4:	009f1713          	slli	a4,t5,0x9
    1de8:	01c7e7b3          	or	a5,a5,t3
    1dec:	00e7e7b3          	or	a5,a5,a4
    1df0:	01000737          	lui	a4,0x1000
    1df4:	00e47733          	and	a4,s0,a4
    1df8:	10070663          	beqz	a4,1f04 <__muldf3+0x4d8>
    1dfc:	0017d713          	srli	a4,a5,0x1
    1e00:	0017f793          	andi	a5,a5,1
    1e04:	00f767b3          	or	a5,a4,a5
    1e08:	01f41713          	slli	a4,s0,0x1f
    1e0c:	00e7e7b3          	or	a5,a5,a4
    1e10:	00145413          	srli	s0,s0,0x1
    1e14:	3ff58693          	addi	a3,a1,1023
    1e18:	0ed05a63          	blez	a3,1f0c <__muldf3+0x4e0>
    1e1c:	0077f713          	andi	a4,a5,7
    1e20:	02070063          	beqz	a4,1e40 <__muldf3+0x414>
    1e24:	00f7f713          	andi	a4,a5,15
    1e28:	00400513          	li	a0,4
    1e2c:	00a70a63          	beq	a4,a0,1e40 <__muldf3+0x414>
    1e30:	00478713          	addi	a4,a5,4
    1e34:	00f737b3          	sltu	a5,a4,a5
    1e38:	00f40433          	add	s0,s0,a5
    1e3c:	00070793          	mv	a5,a4
    1e40:	01000737          	lui	a4,0x1000
    1e44:	00e47733          	and	a4,s0,a4
    1e48:	00070a63          	beqz	a4,1e5c <__muldf3+0x430>
    1e4c:	ff000737          	lui	a4,0xff000
    1e50:	fff70713          	addi	a4,a4,-1 # feffffff <CONFIG_SYSTEM_WORKQUEUE_PRIORITY+0xff000000>
    1e54:	00e47433          	and	s0,s0,a4
    1e58:	40058693          	addi	a3,a1,1024
    1e5c:	7fe00713          	li	a4,2046
    1e60:	16d74a63          	blt	a4,a3,1fd4 <__muldf3+0x5a8>
    1e64:	0037d713          	srli	a4,a5,0x3
    1e68:	01d41793          	slli	a5,s0,0x1d
    1e6c:	00e7e7b3          	or	a5,a5,a4
    1e70:	00345413          	srli	s0,s0,0x3
    1e74:	01469713          	slli	a4,a3,0x14
    1e78:	00c41413          	slli	s0,s0,0xc
    1e7c:	7ff006b7          	lui	a3,0x7ff00
    1e80:	00d77733          	and	a4,a4,a3
    1e84:	00c45413          	srli	s0,s0,0xc
    1e88:	00876433          	or	s0,a4,s0
    1e8c:	01f61613          	slli	a2,a2,0x1f
    1e90:	02c12083          	lw	ra,44(sp)
    1e94:	00c46733          	or	a4,s0,a2
    1e98:	02812403          	lw	s0,40(sp)
    1e9c:	02412483          	lw	s1,36(sp)
    1ea0:	02012903          	lw	s2,32(sp)
    1ea4:	01c12983          	lw	s3,28(sp)
    1ea8:	01812a03          	lw	s4,24(sp)
    1eac:	01412a83          	lw	s5,20(sp)
    1eb0:	01012b03          	lw	s6,16(sp)
    1eb4:	00c12b83          	lw	s7,12(sp)
    1eb8:	00078513          	mv	a0,a5
    1ebc:	00070593          	mv	a1,a4
    1ec0:	03010113          	addi	sp,sp,48
    1ec4:	00008067          	ret
    1ec8:	000a0613          	mv	a2,s4
    1ecc:	00048413          	mv	s0,s1
    1ed0:	00090793          	mv	a5,s2
    1ed4:	000b0713          	mv	a4,s6
    1ed8:	00200693          	li	a3,2
    1edc:	0ed70c63          	beq	a4,a3,1fd4 <__muldf3+0x5a8>
    1ee0:	00300693          	li	a3,3
    1ee4:	0cd70e63          	beq	a4,a3,1fc0 <__muldf3+0x594>
    1ee8:	00100693          	li	a3,1
    1eec:	f2d714e3          	bne	a4,a3,1e14 <__muldf3+0x3e8>
    1ef0:	00000413          	li	s0,0
    1ef4:	00000793          	li	a5,0
    1ef8:	08c0006f          	j	1f84 <__muldf3+0x558>
    1efc:	000a8613          	mv	a2,s5
    1f00:	fd9ff06f          	j	1ed8 <__muldf3+0x4ac>
    1f04:	00050593          	mv	a1,a0
    1f08:	f0dff06f          	j	1e14 <__muldf3+0x3e8>
    1f0c:	00100513          	li	a0,1
    1f10:	40d50533          	sub	a0,a0,a3
    1f14:	03800713          	li	a4,56
    1f18:	fca74ce3          	blt	a4,a0,1ef0 <__muldf3+0x4c4>
    1f1c:	01f00713          	li	a4,31
    1f20:	06a74663          	blt	a4,a0,1f8c <__muldf3+0x560>
    1f24:	41e58593          	addi	a1,a1,1054
    1f28:	00b41733          	sll	a4,s0,a1
    1f2c:	00a7d6b3          	srl	a3,a5,a0
    1f30:	00b797b3          	sll	a5,a5,a1
    1f34:	00d76733          	or	a4,a4,a3
    1f38:	00f037b3          	snez	a5,a5
    1f3c:	00f767b3          	or	a5,a4,a5
    1f40:	00a45433          	srl	s0,s0,a0
    1f44:	0077f713          	andi	a4,a5,7
    1f48:	02070063          	beqz	a4,1f68 <__muldf3+0x53c>
    1f4c:	00f7f713          	andi	a4,a5,15
    1f50:	00400693          	li	a3,4
    1f54:	00d70a63          	beq	a4,a3,1f68 <__muldf3+0x53c>
    1f58:	00478713          	addi	a4,a5,4
    1f5c:	00f737b3          	sltu	a5,a4,a5
    1f60:	00f40433          	add	s0,s0,a5
    1f64:	00070793          	mv	a5,a4
    1f68:	00800737          	lui	a4,0x800
    1f6c:	00e47733          	and	a4,s0,a4
    1f70:	06071a63          	bnez	a4,1fe4 <__muldf3+0x5b8>
    1f74:	01d41713          	slli	a4,s0,0x1d
    1f78:	0037d793          	srli	a5,a5,0x3
    1f7c:	00f767b3          	or	a5,a4,a5
    1f80:	00345413          	srli	s0,s0,0x3
    1f84:	00000693          	li	a3,0
    1f88:	eedff06f          	j	1e74 <__muldf3+0x448>
    1f8c:	fe100713          	li	a4,-31
    1f90:	40d70733          	sub	a4,a4,a3
    1f94:	02000813          	li	a6,32
    1f98:	00e45733          	srl	a4,s0,a4
    1f9c:	00000693          	li	a3,0
    1fa0:	01050663          	beq	a0,a6,1fac <__muldf3+0x580>
    1fa4:	43e58593          	addi	a1,a1,1086
    1fa8:	00b416b3          	sll	a3,s0,a1
    1fac:	00f6e7b3          	or	a5,a3,a5
    1fb0:	00f037b3          	snez	a5,a5
    1fb4:	00f767b3          	or	a5,a4,a5
    1fb8:	00000413          	li	s0,0
    1fbc:	f89ff06f          	j	1f44 <__muldf3+0x518>
    1fc0:	00080437          	lui	s0,0x80
    1fc4:	00000793          	li	a5,0
    1fc8:	7ff00693          	li	a3,2047
    1fcc:	00000613          	li	a2,0
    1fd0:	ea5ff06f          	j	1e74 <__muldf3+0x448>
    1fd4:	00000413          	li	s0,0
    1fd8:	00000793          	li	a5,0
    1fdc:	7ff00693          	li	a3,2047
    1fe0:	e95ff06f          	j	1e74 <__muldf3+0x448>
    1fe4:	00000413          	li	s0,0
    1fe8:	00000793          	li	a5,0
    1fec:	00100693          	li	a3,1
    1ff0:	e85ff06f          	j	1e74 <__muldf3+0x448>

00001ff4 <__subdf3>:
    1ff4:	00100837          	lui	a6,0x100
    1ff8:	fff80813          	addi	a6,a6,-1 # fffff <digits+0x8528f>
    1ffc:	fe010113          	addi	sp,sp,-32
    2000:	00b877b3          	and	a5,a6,a1
    2004:	0145d713          	srli	a4,a1,0x14
    2008:	00d87833          	and	a6,a6,a3
    200c:	0146d313          	srli	t1,a3,0x14
    2010:	00812c23          	sw	s0,24(sp)
    2014:	00379793          	slli	a5,a5,0x3
    2018:	7ff77413          	andi	s0,a4,2047
    201c:	01d55713          	srli	a4,a0,0x1d
    2020:	00912a23          	sw	s1,20(sp)
    2024:	00f767b3          	or	a5,a4,a5
    2028:	01f5d493          	srli	s1,a1,0x1f
    202c:	01d65713          	srli	a4,a2,0x1d
    2030:	00351593          	slli	a1,a0,0x3
    2034:	00381813          	slli	a6,a6,0x3
    2038:	00112e23          	sw	ra,28(sp)
    203c:	01212823          	sw	s2,16(sp)
    2040:	01312623          	sw	s3,12(sp)
    2044:	7ff37313          	andi	t1,t1,2047
    2048:	7ff00513          	li	a0,2047
    204c:	01f6d693          	srli	a3,a3,0x1f
    2050:	01076733          	or	a4,a4,a6
    2054:	00361613          	slli	a2,a2,0x3
    2058:	00a31663          	bne	t1,a0,2064 <CONFIG_SRAM_SIZE+0x64>
    205c:	00c76533          	or	a0,a4,a2
    2060:	00051463          	bnez	a0,2068 <CONFIG_SRAM_SIZE+0x68>
    2064:	0016c693          	xori	a3,a3,1
    2068:	40640833          	sub	a6,s0,t1
    206c:	2c969863          	bne	a3,s1,233c <CONFIG_SRAM_SIZE+0x33c>
    2070:	13005063          	blez	a6,2190 <CONFIG_SRAM_SIZE+0x190>
    2074:	04031063          	bnez	t1,20b4 <CONFIG_SRAM_SIZE+0xb4>
    2078:	00c766b3          	or	a3,a4,a2
    207c:	70068c63          	beqz	a3,2794 <CONFIG_SRAM_SIZE+0x794>
    2080:	fff80513          	addi	a0,a6,-1
    2084:	02051063          	bnez	a0,20a4 <CONFIG_SRAM_SIZE+0xa4>
    2088:	00c58633          	add	a2,a1,a2
    208c:	00b63533          	sltu	a0,a2,a1
    2090:	00e787b3          	add	a5,a5,a4
    2094:	00a787b3          	add	a5,a5,a0
    2098:	00060593          	mv	a1,a2
    209c:	00100413          	li	s0,1
    20a0:	0700006f          	j	2110 <CONFIG_SRAM_SIZE+0x110>
    20a4:	7ff00693          	li	a3,2047
    20a8:	02d81063          	bne	a6,a3,20c8 <CONFIG_SRAM_SIZE+0xc8>
    20ac:	7ff00413          	li	s0,2047
    20b0:	2140006f          	j	22c4 <CONFIG_SRAM_SIZE+0x2c4>
    20b4:	7ff00693          	li	a3,2047
    20b8:	20d40663          	beq	s0,a3,22c4 <CONFIG_SRAM_SIZE+0x2c4>
    20bc:	008006b7          	lui	a3,0x800
    20c0:	00d76733          	or	a4,a4,a3
    20c4:	00080513          	mv	a0,a6
    20c8:	03800693          	li	a3,56
    20cc:	0aa6cc63          	blt	a3,a0,2184 <CONFIG_SRAM_SIZE+0x184>
    20d0:	01f00693          	li	a3,31
    20d4:	06a6ce63          	blt	a3,a0,2150 <CONFIG_SRAM_SIZE+0x150>
    20d8:	02000813          	li	a6,32
    20dc:	40a80833          	sub	a6,a6,a0
    20e0:	010716b3          	sll	a3,a4,a6
    20e4:	00a658b3          	srl	a7,a2,a0
    20e8:	01061633          	sll	a2,a2,a6
    20ec:	0116e6b3          	or	a3,a3,a7
    20f0:	00c03633          	snez	a2,a2
    20f4:	00c6e633          	or	a2,a3,a2
    20f8:	00a75733          	srl	a4,a4,a0
    20fc:	00b60633          	add	a2,a2,a1
    2100:	00b63533          	sltu	a0,a2,a1
    2104:	00f70733          	add	a4,a4,a5
    2108:	00a707b3          	add	a5,a4,a0
    210c:	00060593          	mv	a1,a2
    2110:	00800737          	lui	a4,0x800
    2114:	00e7f733          	and	a4,a5,a4
    2118:	1a070663          	beqz	a4,22c4 <CONFIG_SRAM_SIZE+0x2c4>
    211c:	00140413          	addi	s0,s0,1 # 80001 <digits+0x5291>
    2120:	7ff00713          	li	a4,2047
    2124:	5ce40a63          	beq	s0,a4,26f8 <CONFIG_SRAM_SIZE+0x6f8>
    2128:	ff800737          	lui	a4,0xff800
    212c:	fff70713          	addi	a4,a4,-1 # ff7fffff <CONFIG_SYSTEM_WORKQUEUE_PRIORITY+0xff800000>
    2130:	00e7f7b3          	and	a5,a5,a4
    2134:	0015f513          	andi	a0,a1,1
    2138:	0015d713          	srli	a4,a1,0x1
    213c:	00a76533          	or	a0,a4,a0
    2140:	01f79593          	slli	a1,a5,0x1f
    2144:	00a5e5b3          	or	a1,a1,a0
    2148:	0017d793          	srli	a5,a5,0x1
    214c:	1780006f          	j	22c4 <CONFIG_SRAM_SIZE+0x2c4>
    2150:	fe050693          	addi	a3,a0,-32
    2154:	02000893          	li	a7,32
    2158:	00d756b3          	srl	a3,a4,a3
    215c:	00000813          	li	a6,0
    2160:	01150863          	beq	a0,a7,2170 <CONFIG_SRAM_SIZE+0x170>
    2164:	04000813          	li	a6,64
    2168:	40a80533          	sub	a0,a6,a0
    216c:	00a71833          	sll	a6,a4,a0
    2170:	00c86633          	or	a2,a6,a2
    2174:	00c03633          	snez	a2,a2
    2178:	00c6e633          	or	a2,a3,a2
    217c:	00000713          	li	a4,0
    2180:	f7dff06f          	j	20fc <CONFIG_SRAM_SIZE+0xfc>
    2184:	00c76633          	or	a2,a4,a2
    2188:	00c03633          	snez	a2,a2
    218c:	ff1ff06f          	j	217c <CONFIG_SRAM_SIZE+0x17c>
    2190:	0e080263          	beqz	a6,2274 <CONFIG_SRAM_SIZE+0x274>
    2194:	40830533          	sub	a0,t1,s0
    2198:	02041e63          	bnez	s0,21d4 <CONFIG_SRAM_SIZE+0x1d4>
    219c:	00b7e6b3          	or	a3,a5,a1
    21a0:	52068c63          	beqz	a3,26d8 <CONFIG_SRAM_SIZE+0x6d8>
    21a4:	fff50693          	addi	a3,a0,-1
    21a8:	00069c63          	bnez	a3,21c0 <CONFIG_SRAM_SIZE+0x1c0>
    21ac:	00c585b3          	add	a1,a1,a2
    21b0:	00e787b3          	add	a5,a5,a4
    21b4:	00c5b633          	sltu	a2,a1,a2
    21b8:	00c787b3          	add	a5,a5,a2
    21bc:	ee1ff06f          	j	209c <CONFIG_SRAM_SIZE+0x9c>
    21c0:	7ff00813          	li	a6,2047
    21c4:	03051263          	bne	a0,a6,21e8 <CONFIG_SRAM_SIZE+0x1e8>
    21c8:	00070793          	mv	a5,a4
    21cc:	00060593          	mv	a1,a2
    21d0:	eddff06f          	j	20ac <CONFIG_SRAM_SIZE+0xac>
    21d4:	7ff00693          	li	a3,2047
    21d8:	fed308e3          	beq	t1,a3,21c8 <CONFIG_SRAM_SIZE+0x1c8>
    21dc:	008006b7          	lui	a3,0x800
    21e0:	00d7e7b3          	or	a5,a5,a3
    21e4:	00050693          	mv	a3,a0
    21e8:	03800513          	li	a0,56
    21ec:	06d54e63          	blt	a0,a3,2268 <CONFIG_SRAM_SIZE+0x268>
    21f0:	01f00513          	li	a0,31
    21f4:	04d54063          	blt	a0,a3,2234 <CONFIG_SRAM_SIZE+0x234>
    21f8:	02000813          	li	a6,32
    21fc:	40d80833          	sub	a6,a6,a3
    2200:	01079533          	sll	a0,a5,a6
    2204:	00d5d8b3          	srl	a7,a1,a3
    2208:	010595b3          	sll	a1,a1,a6
    220c:	01156533          	or	a0,a0,a7
    2210:	00b035b3          	snez	a1,a1
    2214:	00b56533          	or	a0,a0,a1
    2218:	00d7d7b3          	srl	a5,a5,a3
    221c:	00c505b3          	add	a1,a0,a2
    2220:	00e787b3          	add	a5,a5,a4
    2224:	00c5b633          	sltu	a2,a1,a2
    2228:	00c787b3          	add	a5,a5,a2
    222c:	00030413          	mv	s0,t1
    2230:	ee1ff06f          	j	2110 <CONFIG_SRAM_SIZE+0x110>
    2234:	fe068513          	addi	a0,a3,-32 # 7fffe0 <__data_region_end+0x5fc7b0>
    2238:	02000893          	li	a7,32
    223c:	00a7d833          	srl	a6,a5,a0
    2240:	00000513          	li	a0,0
    2244:	01168863          	beq	a3,a7,2254 <CONFIG_SRAM_SIZE+0x254>
    2248:	04000513          	li	a0,64
    224c:	40d50533          	sub	a0,a0,a3
    2250:	00a79533          	sll	a0,a5,a0
    2254:	00b56533          	or	a0,a0,a1
    2258:	00a03533          	snez	a0,a0
    225c:	00a86533          	or	a0,a6,a0
    2260:	00000793          	li	a5,0
    2264:	fb9ff06f          	j	221c <CONFIG_SRAM_SIZE+0x21c>
    2268:	00b7e533          	or	a0,a5,a1
    226c:	00a03533          	snez	a0,a0
    2270:	ff1ff06f          	j	2260 <CONFIG_SRAM_SIZE+0x260>
    2274:	00140693          	addi	a3,s0,1
    2278:	7fe6f513          	andi	a0,a3,2046
    227c:	08051863          	bnez	a0,230c <CONFIG_SRAM_SIZE+0x30c>
    2280:	00b7e6b3          	or	a3,a5,a1
    2284:	06041463          	bnez	s0,22ec <CONFIG_SRAM_SIZE+0x2ec>
    2288:	46068063          	beqz	a3,26e8 <CONFIG_SRAM_SIZE+0x6e8>
    228c:	00c766b3          	or	a3,a4,a2
    2290:	02068a63          	beqz	a3,22c4 <CONFIG_SRAM_SIZE+0x2c4>
    2294:	00c58633          	add	a2,a1,a2
    2298:	00e787b3          	add	a5,a5,a4
    229c:	00b63533          	sltu	a0,a2,a1
    22a0:	00a787b3          	add	a5,a5,a0
    22a4:	00800737          	lui	a4,0x800
    22a8:	00e7f733          	and	a4,a5,a4
    22ac:	00060593          	mv	a1,a2
    22b0:	00070a63          	beqz	a4,22c4 <CONFIG_SRAM_SIZE+0x2c4>
    22b4:	ff800737          	lui	a4,0xff800
    22b8:	fff70713          	addi	a4,a4,-1 # ff7fffff <CONFIG_SYSTEM_WORKQUEUE_PRIORITY+0xff800000>
    22bc:	00e7f7b3          	and	a5,a5,a4
    22c0:	00100413          	li	s0,1
    22c4:	0075f713          	andi	a4,a1,7
    22c8:	42070c63          	beqz	a4,2700 <CONFIG_SRAM_SIZE+0x700>
    22cc:	00f5f713          	andi	a4,a1,15
    22d0:	00400693          	li	a3,4
    22d4:	42d70663          	beq	a4,a3,2700 <CONFIG_SRAM_SIZE+0x700>
    22d8:	00458713          	addi	a4,a1,4
    22dc:	00b73533          	sltu	a0,a4,a1
    22e0:	00a787b3          	add	a5,a5,a0
    22e4:	00070593          	mv	a1,a4
    22e8:	4180006f          	j	2700 <CONFIG_SRAM_SIZE+0x700>
    22ec:	ec068ee3          	beqz	a3,21c8 <CONFIG_SRAM_SIZE+0x1c8>
    22f0:	00c76633          	or	a2,a4,a2
    22f4:	da060ce3          	beqz	a2,20ac <CONFIG_SRAM_SIZE+0xac>
    22f8:	00000493          	li	s1,0
    22fc:	004007b7          	lui	a5,0x400
    2300:	00000593          	li	a1,0
    2304:	7ff00413          	li	s0,2047
    2308:	3f80006f          	j	2700 <CONFIG_SRAM_SIZE+0x700>
    230c:	7ff00513          	li	a0,2047
    2310:	3ea68263          	beq	a3,a0,26f4 <CONFIG_SRAM_SIZE+0x6f4>
    2314:	00c58633          	add	a2,a1,a2
    2318:	00b63533          	sltu	a0,a2,a1
    231c:	00e787b3          	add	a5,a5,a4
    2320:	00a787b3          	add	a5,a5,a0
    2324:	01f79513          	slli	a0,a5,0x1f
    2328:	00165613          	srli	a2,a2,0x1
    232c:	00c565b3          	or	a1,a0,a2
    2330:	0017d793          	srli	a5,a5,0x1
    2334:	00068413          	mv	s0,a3
    2338:	f8dff06f          	j	22c4 <CONFIG_SRAM_SIZE+0x2c4>
    233c:	0f005c63          	blez	a6,2434 <CONFIG_SRAM_SIZE+0x434>
    2340:	08031e63          	bnez	t1,23dc <CONFIG_SRAM_SIZE+0x3dc>
    2344:	00c766b3          	or	a3,a4,a2
    2348:	44068663          	beqz	a3,2794 <CONFIG_SRAM_SIZE+0x794>
    234c:	fff80513          	addi	a0,a6,-1
    2350:	02051063          	bnez	a0,2370 <CONFIG_SRAM_SIZE+0x370>
    2354:	40c58633          	sub	a2,a1,a2
    2358:	00c5b533          	sltu	a0,a1,a2
    235c:	40e787b3          	sub	a5,a5,a4
    2360:	40a787b3          	sub	a5,a5,a0
    2364:	00060593          	mv	a1,a2
    2368:	00100413          	li	s0,1
    236c:	0540006f          	j	23c0 <CONFIG_SRAM_SIZE+0x3c0>
    2370:	7ff00693          	li	a3,2047
    2374:	d2d80ce3          	beq	a6,a3,20ac <CONFIG_SRAM_SIZE+0xac>
    2378:	03800693          	li	a3,56
    237c:	0aa6c663          	blt	a3,a0,2428 <CONFIG_SRAM_SIZE+0x428>
    2380:	01f00693          	li	a3,31
    2384:	06a6c863          	blt	a3,a0,23f4 <CONFIG_SRAM_SIZE+0x3f4>
    2388:	02000813          	li	a6,32
    238c:	40a80833          	sub	a6,a6,a0
    2390:	010716b3          	sll	a3,a4,a6
    2394:	00a658b3          	srl	a7,a2,a0
    2398:	01061633          	sll	a2,a2,a6
    239c:	0116e6b3          	or	a3,a3,a7
    23a0:	00c03633          	snez	a2,a2
    23a4:	00c6e633          	or	a2,a3,a2
    23a8:	00a75733          	srl	a4,a4,a0
    23ac:	40c58633          	sub	a2,a1,a2
    23b0:	00c5b533          	sltu	a0,a1,a2
    23b4:	40e78733          	sub	a4,a5,a4
    23b8:	40a707b3          	sub	a5,a4,a0
    23bc:	00060593          	mv	a1,a2
    23c0:	00800937          	lui	s2,0x800
    23c4:	0127f733          	and	a4,a5,s2
    23c8:	ee070ee3          	beqz	a4,22c4 <CONFIG_SRAM_SIZE+0x2c4>
    23cc:	fff90913          	addi	s2,s2,-1 # 7fffff <__data_region_end+0x5fc7cf>
    23d0:	0127f933          	and	s2,a5,s2
    23d4:	00058993          	mv	s3,a1
    23d8:	2140006f          	j	25ec <CONFIG_SRAM_SIZE+0x5ec>
    23dc:	7ff00693          	li	a3,2047
    23e0:	eed402e3          	beq	s0,a3,22c4 <CONFIG_SRAM_SIZE+0x2c4>
    23e4:	008006b7          	lui	a3,0x800
    23e8:	00d76733          	or	a4,a4,a3
    23ec:	00080513          	mv	a0,a6
    23f0:	f89ff06f          	j	2378 <CONFIG_SRAM_SIZE+0x378>
    23f4:	fe050693          	addi	a3,a0,-32
    23f8:	02000893          	li	a7,32
    23fc:	00d756b3          	srl	a3,a4,a3
    2400:	00000813          	li	a6,0
    2404:	01150863          	beq	a0,a7,2414 <CONFIG_SRAM_SIZE+0x414>
    2408:	04000813          	li	a6,64
    240c:	40a80533          	sub	a0,a6,a0
    2410:	00a71833          	sll	a6,a4,a0
    2414:	00c86633          	or	a2,a6,a2
    2418:	00c03633          	snez	a2,a2
    241c:	00c6e633          	or	a2,a3,a2
    2420:	00000713          	li	a4,0
    2424:	f89ff06f          	j	23ac <CONFIG_SRAM_SIZE+0x3ac>
    2428:	00c76633          	or	a2,a4,a2
    242c:	00c03633          	snez	a2,a2
    2430:	ff1ff06f          	j	2420 <CONFIG_SRAM_SIZE+0x420>
    2434:	0e080863          	beqz	a6,2524 <CONFIG_SRAM_SIZE+0x524>
    2438:	40830533          	sub	a0,t1,s0
    243c:	04041263          	bnez	s0,2480 <CONFIG_SRAM_SIZE+0x480>
    2440:	00b7e833          	or	a6,a5,a1
    2444:	34080c63          	beqz	a6,279c <CONFIG_SRAM_SIZE+0x79c>
    2448:	fff50813          	addi	a6,a0,-1
    244c:	00081e63          	bnez	a6,2468 <CONFIG_SRAM_SIZE+0x468>
    2450:	40b605b3          	sub	a1,a2,a1
    2454:	40f707b3          	sub	a5,a4,a5
    2458:	00b63633          	sltu	a2,a2,a1
    245c:	40c787b3          	sub	a5,a5,a2
    2460:	00068493          	mv	s1,a3
    2464:	f05ff06f          	j	2368 <CONFIG_SRAM_SIZE+0x368>
    2468:	7ff00893          	li	a7,2047
    246c:	03151463          	bne	a0,a7,2494 <CONFIG_SRAM_SIZE+0x494>
    2470:	00070793          	mv	a5,a4
    2474:	00060593          	mv	a1,a2
    2478:	7ff00413          	li	s0,2047
    247c:	0d00006f          	j	254c <CONFIG_SRAM_SIZE+0x54c>
    2480:	7ff00813          	li	a6,2047
    2484:	ff0306e3          	beq	t1,a6,2470 <CONFIG_SRAM_SIZE+0x470>
    2488:	00800837          	lui	a6,0x800
    248c:	0107e7b3          	or	a5,a5,a6
    2490:	00050813          	mv	a6,a0
    2494:	03800513          	li	a0,56
    2498:	09054063          	blt	a0,a6,2518 <CONFIG_SRAM_SIZE+0x518>
    249c:	01f00513          	li	a0,31
    24a0:	05054263          	blt	a0,a6,24e4 <CONFIG_SRAM_SIZE+0x4e4>
    24a4:	02000893          	li	a7,32
    24a8:	410888b3          	sub	a7,a7,a6
    24ac:	01179533          	sll	a0,a5,a7
    24b0:	0105de33          	srl	t3,a1,a6
    24b4:	011595b3          	sll	a1,a1,a7
    24b8:	01c56533          	or	a0,a0,t3
    24bc:	00b035b3          	snez	a1,a1
    24c0:	00b56533          	or	a0,a0,a1
    24c4:	0107d7b3          	srl	a5,a5,a6
    24c8:	40a605b3          	sub	a1,a2,a0
    24cc:	40f707b3          	sub	a5,a4,a5
    24d0:	00b63633          	sltu	a2,a2,a1
    24d4:	40c787b3          	sub	a5,a5,a2
    24d8:	00030413          	mv	s0,t1
    24dc:	00068493          	mv	s1,a3
    24e0:	ee1ff06f          	j	23c0 <CONFIG_SRAM_SIZE+0x3c0>
    24e4:	fe080513          	addi	a0,a6,-32 # 7fffe0 <__data_region_end+0x5fc7b0>
    24e8:	02000e13          	li	t3,32
    24ec:	00a7d8b3          	srl	a7,a5,a0
    24f0:	00000513          	li	a0,0
    24f4:	01c80863          	beq	a6,t3,2504 <CONFIG_SRAM_SIZE+0x504>
    24f8:	04000513          	li	a0,64
    24fc:	41050533          	sub	a0,a0,a6
    2500:	00a79533          	sll	a0,a5,a0
    2504:	00b56533          	or	a0,a0,a1
    2508:	00a03533          	snez	a0,a0
    250c:	00a8e533          	or	a0,a7,a0
    2510:	00000793          	li	a5,0
    2514:	fb5ff06f          	j	24c8 <CONFIG_SRAM_SIZE+0x4c8>
    2518:	00b7e533          	or	a0,a5,a1
    251c:	00a03533          	snez	a0,a0
    2520:	ff1ff06f          	j	2510 <CONFIG_SRAM_SIZE+0x510>
    2524:	00140513          	addi	a0,s0,1
    2528:	7fe57513          	andi	a0,a0,2046
    252c:	08051863          	bnez	a0,25bc <CONFIG_SRAM_SIZE+0x5bc>
    2530:	00c76533          	or	a0,a4,a2
    2534:	00b7e833          	or	a6,a5,a1
    2538:	06041263          	bnez	s0,259c <CONFIG_SRAM_SIZE+0x59c>
    253c:	00081c63          	bnez	a6,2554 <CONFIG_SRAM_SIZE+0x554>
    2540:	26050663          	beqz	a0,27ac <CONFIG_SRAM_SIZE+0x7ac>
    2544:	00070793          	mv	a5,a4
    2548:	00060593          	mv	a1,a2
    254c:	00068493          	mv	s1,a3
    2550:	d75ff06f          	j	22c4 <CONFIG_SRAM_SIZE+0x2c4>
    2554:	d60508e3          	beqz	a0,22c4 <CONFIG_SRAM_SIZE+0x2c4>
    2558:	40c58833          	sub	a6,a1,a2
    255c:	0105b8b3          	sltu	a7,a1,a6
    2560:	40e78533          	sub	a0,a5,a4
    2564:	41150533          	sub	a0,a0,a7
    2568:	008008b7          	lui	a7,0x800
    256c:	011578b3          	and	a7,a0,a7
    2570:	00088c63          	beqz	a7,2588 <CONFIG_SRAM_SIZE+0x588>
    2574:	40b605b3          	sub	a1,a2,a1
    2578:	40f707b3          	sub	a5,a4,a5
    257c:	00b63633          	sltu	a2,a2,a1
    2580:	40c787b3          	sub	a5,a5,a2
    2584:	fc9ff06f          	j	254c <CONFIG_SRAM_SIZE+0x54c>
    2588:	00a865b3          	or	a1,a6,a0
    258c:	22058863          	beqz	a1,27bc <CONFIG_SRAM_SIZE+0x7bc>
    2590:	00050793          	mv	a5,a0
    2594:	00080593          	mv	a1,a6
    2598:	d2dff06f          	j	22c4 <CONFIG_SRAM_SIZE+0x2c4>
    259c:	00081c63          	bnez	a6,25b4 <CONFIG_SRAM_SIZE+0x5b4>
    25a0:	22050263          	beqz	a0,27c4 <CONFIG_SRAM_SIZE+0x7c4>
    25a4:	00070793          	mv	a5,a4
    25a8:	00060593          	mv	a1,a2
    25ac:	00068493          	mv	s1,a3
    25b0:	afdff06f          	j	20ac <CONFIG_SRAM_SIZE+0xac>
    25b4:	ae050ce3          	beqz	a0,20ac <CONFIG_SRAM_SIZE+0xac>
    25b8:	d41ff06f          	j	22f8 <CONFIG_SRAM_SIZE+0x2f8>
    25bc:	40c589b3          	sub	s3,a1,a2
    25c0:	0135b533          	sltu	a0,a1,s3
    25c4:	40e78933          	sub	s2,a5,a4
    25c8:	40a90933          	sub	s2,s2,a0
    25cc:	00800537          	lui	a0,0x800
    25d0:	00a97533          	and	a0,s2,a0
    25d4:	08050463          	beqz	a0,265c <CONFIG_SRAM_SIZE+0x65c>
    25d8:	40b609b3          	sub	s3,a2,a1
    25dc:	40f707b3          	sub	a5,a4,a5
    25e0:	01363633          	sltu	a2,a2,s3
    25e4:	40c78933          	sub	s2,a5,a2
    25e8:	00068493          	mv	s1,a3
    25ec:	08090263          	beqz	s2,2670 <CONFIG_SRAM_SIZE+0x670>
    25f0:	00090513          	mv	a0,s2
    25f4:	cfdfd0ef          	jal	ra,2f0 <__clzsi2>
    25f8:	ff850713          	addi	a4,a0,-8 # 7ffff8 <__data_region_end+0x5fc7c8>
    25fc:	01f00793          	li	a5,31
    2600:	08e7c063          	blt	a5,a4,2680 <CONFIG_SRAM_SIZE+0x680>
    2604:	02000793          	li	a5,32
    2608:	40e787b3          	sub	a5,a5,a4
    260c:	00e91933          	sll	s2,s2,a4
    2610:	00f9d7b3          	srl	a5,s3,a5
    2614:	0127e7b3          	or	a5,a5,s2
    2618:	00e995b3          	sll	a1,s3,a4
    261c:	0a874463          	blt	a4,s0,26c4 <CONFIG_SRAM_SIZE+0x6c4>
    2620:	40870733          	sub	a4,a4,s0
    2624:	00170693          	addi	a3,a4,1
    2628:	01f00613          	li	a2,31
    262c:	06d64263          	blt	a2,a3,2690 <CONFIG_SRAM_SIZE+0x690>
    2630:	02000713          	li	a4,32
    2634:	40d70733          	sub	a4,a4,a3
    2638:	00e79633          	sll	a2,a5,a4
    263c:	00d5d533          	srl	a0,a1,a3
    2640:	00e595b3          	sll	a1,a1,a4
    2644:	00a66633          	or	a2,a2,a0
    2648:	00b035b3          	snez	a1,a1
    264c:	00b665b3          	or	a1,a2,a1
    2650:	00d7d7b3          	srl	a5,a5,a3
    2654:	00000413          	li	s0,0
    2658:	c6dff06f          	j	22c4 <CONFIG_SRAM_SIZE+0x2c4>
    265c:	0129e5b3          	or	a1,s3,s2
    2660:	f80596e3          	bnez	a1,25ec <CONFIG_SRAM_SIZE+0x5ec>
    2664:	00000793          	li	a5,0
    2668:	00000413          	li	s0,0
    266c:	1480006f          	j	27b4 <CONFIG_SRAM_SIZE+0x7b4>
    2670:	00098513          	mv	a0,s3
    2674:	c7dfd0ef          	jal	ra,2f0 <__clzsi2>
    2678:	02050513          	addi	a0,a0,32
    267c:	f7dff06f          	j	25f8 <CONFIG_SRAM_SIZE+0x5f8>
    2680:	fd850793          	addi	a5,a0,-40
    2684:	00f997b3          	sll	a5,s3,a5
    2688:	00000593          	li	a1,0
    268c:	f91ff06f          	j	261c <CONFIG_SRAM_SIZE+0x61c>
    2690:	fe170713          	addi	a4,a4,-31
    2694:	02000613          	li	a2,32
    2698:	00e7d733          	srl	a4,a5,a4
    269c:	00000513          	li	a0,0
    26a0:	00c68863          	beq	a3,a2,26b0 <CONFIG_SRAM_SIZE+0x6b0>
    26a4:	04000513          	li	a0,64
    26a8:	40d50533          	sub	a0,a0,a3
    26ac:	00a79533          	sll	a0,a5,a0
    26b0:	00a5e533          	or	a0,a1,a0
    26b4:	00a03533          	snez	a0,a0
    26b8:	00a765b3          	or	a1,a4,a0
    26bc:	00000793          	li	a5,0
    26c0:	f95ff06f          	j	2654 <CONFIG_SRAM_SIZE+0x654>
    26c4:	40e40433          	sub	s0,s0,a4
    26c8:	ff800737          	lui	a4,0xff800
    26cc:	fff70713          	addi	a4,a4,-1 # ff7fffff <CONFIG_SYSTEM_WORKQUEUE_PRIORITY+0xff800000>
    26d0:	00e7f7b3          	and	a5,a5,a4
    26d4:	bf1ff06f          	j	22c4 <CONFIG_SRAM_SIZE+0x2c4>
    26d8:	00070793          	mv	a5,a4
    26dc:	00060593          	mv	a1,a2
    26e0:	00050413          	mv	s0,a0
    26e4:	be1ff06f          	j	22c4 <CONFIG_SRAM_SIZE+0x2c4>
    26e8:	00070793          	mv	a5,a4
    26ec:	00060593          	mv	a1,a2
    26f0:	bd5ff06f          	j	22c4 <CONFIG_SRAM_SIZE+0x2c4>
    26f4:	7ff00413          	li	s0,2047
    26f8:	00000793          	li	a5,0
    26fc:	00000593          	li	a1,0
    2700:	00800737          	lui	a4,0x800
    2704:	00e7f733          	and	a4,a5,a4
    2708:	00070e63          	beqz	a4,2724 <CONFIG_SRAM_SIZE+0x724>
    270c:	00140413          	addi	s0,s0,1
    2710:	7ff00713          	li	a4,2047
    2714:	0ce40063          	beq	s0,a4,27d4 <CONFIG_SRAM_SIZE+0x7d4>
    2718:	ff800737          	lui	a4,0xff800
    271c:	fff70713          	addi	a4,a4,-1 # ff7fffff <CONFIG_SYSTEM_WORKQUEUE_PRIORITY+0xff800000>
    2720:	00e7f7b3          	and	a5,a5,a4
    2724:	01d79713          	slli	a4,a5,0x1d
    2728:	0035d513          	srli	a0,a1,0x3
    272c:	00a76533          	or	a0,a4,a0
    2730:	7ff00713          	li	a4,2047
    2734:	0037d793          	srli	a5,a5,0x3
    2738:	00e41e63          	bne	s0,a4,2754 <CONFIG_SRAM_SIZE+0x754>
    273c:	00f56533          	or	a0,a0,a5
    2740:	00000793          	li	a5,0
    2744:	00050863          	beqz	a0,2754 <CONFIG_SRAM_SIZE+0x754>
    2748:	000807b7          	lui	a5,0x80
    274c:	00000513          	li	a0,0
    2750:	00000493          	li	s1,0
    2754:	01441713          	slli	a4,s0,0x14
    2758:	7ff006b7          	lui	a3,0x7ff00
    275c:	00c79793          	slli	a5,a5,0xc
    2760:	01c12083          	lw	ra,28(sp)
    2764:	01812403          	lw	s0,24(sp)
    2768:	00d77733          	and	a4,a4,a3
    276c:	00c7d793          	srli	a5,a5,0xc
    2770:	01f49493          	slli	s1,s1,0x1f
    2774:	00f767b3          	or	a5,a4,a5
    2778:	0097e733          	or	a4,a5,s1
    277c:	01012903          	lw	s2,16(sp)
    2780:	01412483          	lw	s1,20(sp)
    2784:	00c12983          	lw	s3,12(sp)
    2788:	00070593          	mv	a1,a4
    278c:	02010113          	addi	sp,sp,32
    2790:	00008067          	ret
    2794:	00080413          	mv	s0,a6
    2798:	b2dff06f          	j	22c4 <CONFIG_SRAM_SIZE+0x2c4>
    279c:	00070793          	mv	a5,a4
    27a0:	00060593          	mv	a1,a2
    27a4:	00050413          	mv	s0,a0
    27a8:	da5ff06f          	j	254c <CONFIG_SRAM_SIZE+0x54c>
    27ac:	00000793          	li	a5,0
    27b0:	00000593          	li	a1,0
    27b4:	00000493          	li	s1,0
    27b8:	f49ff06f          	j	2700 <CONFIG_SRAM_SIZE+0x700>
    27bc:	00000793          	li	a5,0
    27c0:	ff5ff06f          	j	27b4 <CONFIG_SRAM_SIZE+0x7b4>
    27c4:	00000593          	li	a1,0
    27c8:	00000493          	li	s1,0
    27cc:	004007b7          	lui	a5,0x400
    27d0:	b35ff06f          	j	2304 <CONFIG_SRAM_SIZE+0x304>
    27d4:	00000793          	li	a5,0
    27d8:	00000593          	li	a1,0
    27dc:	f49ff06f          	j	2724 <CONFIG_SRAM_SIZE+0x724>

000027e0 <__floatunsidf>:
    27e0:	ff010113          	addi	sp,sp,-16
    27e4:	00812423          	sw	s0,8(sp)
    27e8:	00112623          	sw	ra,12(sp)
    27ec:	00050413          	mv	s0,a0
    27f0:	06050263          	beqz	a0,2854 <__floatunsidf+0x74>
    27f4:	afdfd0ef          	jal	ra,2f0 <__clzsi2>
    27f8:	41e00713          	li	a4,1054
    27fc:	00a00793          	li	a5,10
    2800:	40a70733          	sub	a4,a4,a0
    2804:	04a7c063          	blt	a5,a0,2844 <__floatunsidf+0x64>
    2808:	00b00793          	li	a5,11
    280c:	40a787b3          	sub	a5,a5,a0
    2810:	01550513          	addi	a0,a0,21
    2814:	00f457b3          	srl	a5,s0,a5
    2818:	00a41433          	sll	s0,s0,a0
    281c:	00c12083          	lw	ra,12(sp)
    2820:	00040513          	mv	a0,s0
    2824:	00c79793          	slli	a5,a5,0xc
    2828:	00812403          	lw	s0,8(sp)
    282c:	01471713          	slli	a4,a4,0x14
    2830:	00c7d793          	srli	a5,a5,0xc
    2834:	00f766b3          	or	a3,a4,a5
    2838:	00068593          	mv	a1,a3
    283c:	01010113          	addi	sp,sp,16
    2840:	00008067          	ret
    2844:	ff550793          	addi	a5,a0,-11
    2848:	00f417b3          	sll	a5,s0,a5
    284c:	00000413          	li	s0,0
    2850:	fcdff06f          	j	281c <__floatunsidf+0x3c>
    2854:	00000793          	li	a5,0
    2858:	00000713          	li	a4,0
    285c:	fc1ff06f          	j	281c <__floatunsidf+0x3c>

00002860 <__gesf2>:
    2860:	01755693          	srli	a3,a0,0x17
    2864:	008007b7          	lui	a5,0x800
    2868:	fff78793          	addi	a5,a5,-1 # 7fffff <__data_region_end+0x5fc7cf>
    286c:	0175d713          	srli	a4,a1,0x17
    2870:	0ff6f693          	andi	a3,a3,255
    2874:	0ff00813          	li	a6,255
    2878:	00a7f633          	and	a2,a5,a0
    287c:	0ff77713          	andi	a4,a4,255
    2880:	00b7f7b3          	and	a5,a5,a1
    2884:	01f55513          	srli	a0,a0,0x1f
    2888:	01f5d593          	srli	a1,a1,0x1f
    288c:	01069863          	bne	a3,a6,289c <__gesf2+0x3c>
    2890:	06060a63          	beqz	a2,2904 <__gesf2+0xa4>
    2894:	ffe00513          	li	a0,-2
    2898:	00008067          	ret
    289c:	01071463          	bne	a4,a6,28a4 <__gesf2+0x44>
    28a0:	fe079ae3          	bnez	a5,2894 <__gesf2+0x34>
    28a4:	06069263          	bnez	a3,2908 <__gesf2+0xa8>
    28a8:	00071463          	bnez	a4,28b0 <__gesf2+0x50>
    28ac:	04078863          	beqz	a5,28fc <__gesf2+0x9c>
    28b0:	00060c63          	beqz	a2,28c8 <__gesf2+0x68>
    28b4:	00b51463          	bne	a0,a1,28bc <__gesf2+0x5c>
    28b8:	02d75063          	bge	a4,a3,28d8 <__gesf2+0x78>
    28bc:	02050c63          	beqz	a0,28f4 <__gesf2+0x94>
    28c0:	fff00513          	li	a0,-1
    28c4:	00008067          	ret
    28c8:	fff00513          	li	a0,-1
    28cc:	00058a63          	beqz	a1,28e0 <__gesf2+0x80>
    28d0:	00058513          	mv	a0,a1
    28d4:	00008067          	ret
    28d8:	00e6d663          	bge	a3,a4,28e4 <__gesf2+0x84>
    28dc:	fe0502e3          	beqz	a0,28c0 <__gesf2+0x60>
    28e0:	00008067          	ret
    28e4:	fcc7ece3          	bltu	a5,a2,28bc <__gesf2+0x5c>
    28e8:	fef66ae3          	bltu	a2,a5,28dc <__gesf2+0x7c>
    28ec:	00000513          	li	a0,0
    28f0:	00008067          	ret
    28f4:	00100513          	li	a0,1
    28f8:	00008067          	ret
    28fc:	fe0608e3          	beqz	a2,28ec <__gesf2+0x8c>
    2900:	fbdff06f          	j	28bc <__gesf2+0x5c>
    2904:	f8d70ee3          	beq	a4,a3,28a0 <__gesf2+0x40>
    2908:	fa0716e3          	bnez	a4,28b4 <__gesf2+0x54>
    290c:	fa0788e3          	beqz	a5,28bc <__gesf2+0x5c>
    2910:	fa5ff06f          	j	28b4 <__gesf2+0x54>

00002914 <__lesf2>:
    2914:	01755693          	srli	a3,a0,0x17
    2918:	008007b7          	lui	a5,0x800
    291c:	fff78793          	addi	a5,a5,-1 # 7fffff <__data_region_end+0x5fc7cf>
    2920:	0175d713          	srli	a4,a1,0x17
    2924:	0ff6f693          	andi	a3,a3,255
    2928:	0ff00813          	li	a6,255
    292c:	00a7f633          	and	a2,a5,a0
    2930:	0ff77713          	andi	a4,a4,255
    2934:	00b7f7b3          	and	a5,a5,a1
    2938:	01f55513          	srli	a0,a0,0x1f
    293c:	01f5d593          	srli	a1,a1,0x1f
    2940:	01069863          	bne	a3,a6,2950 <__lesf2+0x3c>
    2944:	06060a63          	beqz	a2,29b8 <__lesf2+0xa4>
    2948:	00200513          	li	a0,2
    294c:	00008067          	ret
    2950:	01071463          	bne	a4,a6,2958 <__lesf2+0x44>
    2954:	fe079ae3          	bnez	a5,2948 <__lesf2+0x34>
    2958:	06069263          	bnez	a3,29bc <__lesf2+0xa8>
    295c:	00071463          	bnez	a4,2964 <__lesf2+0x50>
    2960:	04078863          	beqz	a5,29b0 <__lesf2+0x9c>
    2964:	00060c63          	beqz	a2,297c <__lesf2+0x68>
    2968:	00b51463          	bne	a0,a1,2970 <__lesf2+0x5c>
    296c:	02d75063          	bge	a4,a3,298c <__lesf2+0x78>
    2970:	02050c63          	beqz	a0,29a8 <__lesf2+0x94>
    2974:	fff00513          	li	a0,-1
    2978:	00008067          	ret
    297c:	fff00513          	li	a0,-1
    2980:	00058a63          	beqz	a1,2994 <__lesf2+0x80>
    2984:	00058513          	mv	a0,a1
    2988:	00008067          	ret
    298c:	00e6d663          	bge	a3,a4,2998 <__lesf2+0x84>
    2990:	fe0502e3          	beqz	a0,2974 <__lesf2+0x60>
    2994:	00008067          	ret
    2998:	fcc7ece3          	bltu	a5,a2,2970 <__lesf2+0x5c>
    299c:	fef66ae3          	bltu	a2,a5,2990 <__lesf2+0x7c>
    29a0:	00000513          	li	a0,0
    29a4:	00008067          	ret
    29a8:	00100513          	li	a0,1
    29ac:	00008067          	ret
    29b0:	fe0608e3          	beqz	a2,29a0 <__lesf2+0x8c>
    29b4:	fbdff06f          	j	2970 <__lesf2+0x5c>
    29b8:	f8d70ee3          	beq	a4,a3,2954 <__lesf2+0x40>
    29bc:	fa0716e3          	bnez	a4,2968 <__lesf2+0x54>
    29c0:	fa0788e3          	beqz	a5,2970 <__lesf2+0x5c>
    29c4:	fa5ff06f          	j	2968 <__lesf2+0x54>

000029c8 <__mulsf3>:
    29c8:	fe010113          	addi	sp,sp,-32
    29cc:	01212823          	sw	s2,16(sp)
    29d0:	01755913          	srli	s2,a0,0x17
    29d4:	00912a23          	sw	s1,20(sp)
    29d8:	01312623          	sw	s3,12(sp)
    29dc:	01412423          	sw	s4,8(sp)
    29e0:	00951493          	slli	s1,a0,0x9
    29e4:	00112e23          	sw	ra,28(sp)
    29e8:	00812c23          	sw	s0,24(sp)
    29ec:	01512223          	sw	s5,4(sp)
    29f0:	0ff97913          	andi	s2,s2,255
    29f4:	00058a13          	mv	s4,a1
    29f8:	0094d493          	srli	s1,s1,0x9
    29fc:	01f55993          	srli	s3,a0,0x1f
    2a00:	08090663          	beqz	s2,2a8c <__mulsf3+0xc4>
    2a04:	0ff00793          	li	a5,255
    2a08:	0af90263          	beq	s2,a5,2aac <__mulsf3+0xe4>
    2a0c:	00349493          	slli	s1,s1,0x3
    2a10:	040007b7          	lui	a5,0x4000
    2a14:	00f4e4b3          	or	s1,s1,a5
    2a18:	f8190913          	addi	s2,s2,-127
    2a1c:	00000a93          	li	s5,0
    2a20:	017a5513          	srli	a0,s4,0x17
    2a24:	009a1413          	slli	s0,s4,0x9
    2a28:	0ff57513          	andi	a0,a0,255
    2a2c:	00945413          	srli	s0,s0,0x9
    2a30:	01fa5a13          	srli	s4,s4,0x1f
    2a34:	08050c63          	beqz	a0,2acc <__mulsf3+0x104>
    2a38:	0ff00793          	li	a5,255
    2a3c:	0af50863          	beq	a0,a5,2aec <__mulsf3+0x124>
    2a40:	00341413          	slli	s0,s0,0x3
    2a44:	040007b7          	lui	a5,0x4000
    2a48:	00f46433          	or	s0,s0,a5
    2a4c:	f8150513          	addi	a0,a0,-127
    2a50:	00000793          	li	a5,0
    2a54:	002a9713          	slli	a4,s5,0x2
    2a58:	00f76733          	or	a4,a4,a5
    2a5c:	00a90533          	add	a0,s2,a0
    2a60:	fff70713          	addi	a4,a4,-1
    2a64:	00e00593          	li	a1,14
    2a68:	0149c6b3          	xor	a3,s3,s4
    2a6c:	00150613          	addi	a2,a0,1
    2a70:	08e5ee63          	bltu	a1,a4,2b0c <__mulsf3+0x144>
    2a74:	0000d5b7          	lui	a1,0xd
    2a78:	00271713          	slli	a4,a4,0x2
    2a7c:	33c58593          	addi	a1,a1,828 # d33c <__clz_tab+0x178>
    2a80:	00b70733          	add	a4,a4,a1
    2a84:	00072703          	lw	a4,0(a4)
    2a88:	00070067          	jr	a4
    2a8c:	02048a63          	beqz	s1,2ac0 <__mulsf3+0xf8>
    2a90:	00048513          	mv	a0,s1
    2a94:	85dfd0ef          	jal	ra,2f0 <__clzsi2>
    2a98:	ffb50793          	addi	a5,a0,-5
    2a9c:	f8a00913          	li	s2,-118
    2aa0:	00f494b3          	sll	s1,s1,a5
    2aa4:	40a90933          	sub	s2,s2,a0
    2aa8:	f75ff06f          	j	2a1c <__mulsf3+0x54>
    2aac:	0ff00913          	li	s2,255
    2ab0:	00200a93          	li	s5,2
    2ab4:	f60486e3          	beqz	s1,2a20 <__mulsf3+0x58>
    2ab8:	00300a93          	li	s5,3
    2abc:	f65ff06f          	j	2a20 <__mulsf3+0x58>
    2ac0:	00000913          	li	s2,0
    2ac4:	00100a93          	li	s5,1
    2ac8:	f59ff06f          	j	2a20 <__mulsf3+0x58>
    2acc:	02040a63          	beqz	s0,2b00 <__mulsf3+0x138>
    2ad0:	00040513          	mv	a0,s0
    2ad4:	81dfd0ef          	jal	ra,2f0 <__clzsi2>
    2ad8:	ffb50793          	addi	a5,a0,-5
    2adc:	00f41433          	sll	s0,s0,a5
    2ae0:	f8a00793          	li	a5,-118
    2ae4:	40a78533          	sub	a0,a5,a0
    2ae8:	f69ff06f          	j	2a50 <__mulsf3+0x88>
    2aec:	0ff00513          	li	a0,255
    2af0:	00200793          	li	a5,2
    2af4:	f60400e3          	beqz	s0,2a54 <__mulsf3+0x8c>
    2af8:	00300793          	li	a5,3
    2afc:	f59ff06f          	j	2a54 <__mulsf3+0x8c>
    2b00:	00000513          	li	a0,0
    2b04:	00100793          	li	a5,1
    2b08:	f4dff06f          	j	2a54 <__mulsf3+0x8c>
    2b0c:	000107b7          	lui	a5,0x10
    2b10:	fff78313          	addi	t1,a5,-1 # ffff <z_interrupt_stacks+0x6bf>
    2b14:	0104d713          	srli	a4,s1,0x10
    2b18:	01045593          	srli	a1,s0,0x10
    2b1c:	0064f4b3          	and	s1,s1,t1
    2b20:	00647433          	and	s0,s0,t1
    2b24:	029408b3          	mul	a7,s0,s1
    2b28:	02870833          	mul	a6,a4,s0
    2b2c:	02b70433          	mul	s0,a4,a1
    2b30:	029585b3          	mul	a1,a1,s1
    2b34:	0108d493          	srli	s1,a7,0x10
    2b38:	010585b3          	add	a1,a1,a6
    2b3c:	00b484b3          	add	s1,s1,a1
    2b40:	0104f463          	bgeu	s1,a6,2b48 <__mulsf3+0x180>
    2b44:	00f40433          	add	s0,s0,a5
    2b48:	0064f7b3          	and	a5,s1,t1
    2b4c:	01079793          	slli	a5,a5,0x10
    2b50:	0068f8b3          	and	a7,a7,t1
    2b54:	011787b3          	add	a5,a5,a7
    2b58:	00679713          	slli	a4,a5,0x6
    2b5c:	0104d493          	srli	s1,s1,0x10
    2b60:	00e03733          	snez	a4,a4
    2b64:	01a7d793          	srli	a5,a5,0x1a
    2b68:	00848433          	add	s0,s1,s0
    2b6c:	00f767b3          	or	a5,a4,a5
    2b70:	00641413          	slli	s0,s0,0x6
    2b74:	00f46433          	or	s0,s0,a5
    2b78:	080007b7          	lui	a5,0x8000
    2b7c:	00f477b3          	and	a5,s0,a5
    2b80:	08078e63          	beqz	a5,2c1c <__mulsf3+0x254>
    2b84:	00145793          	srli	a5,s0,0x1
    2b88:	00147413          	andi	s0,s0,1
    2b8c:	0087e433          	or	s0,a5,s0
    2b90:	07f60713          	addi	a4,a2,127 # 7ff0007f <CONFIG_SYS_CLOCK_HW_CYCLES_PER_SEC+0x7cf50fff>
    2b94:	08e05863          	blez	a4,2c24 <__mulsf3+0x25c>
    2b98:	00747793          	andi	a5,s0,7
    2b9c:	00078a63          	beqz	a5,2bb0 <__mulsf3+0x1e8>
    2ba0:	00f47793          	andi	a5,s0,15
    2ba4:	00400593          	li	a1,4
    2ba8:	00b78463          	beq	a5,a1,2bb0 <__mulsf3+0x1e8>
    2bac:	00440413          	addi	s0,s0,4
    2bb0:	080007b7          	lui	a5,0x8000
    2bb4:	00f477b3          	and	a5,s0,a5
    2bb8:	00078a63          	beqz	a5,2bcc <__mulsf3+0x204>
    2bbc:	f80007b7          	lui	a5,0xf8000
    2bc0:	fff78793          	addi	a5,a5,-1 # f7ffffff <CONFIG_SYSTEM_WORKQUEUE_PRIORITY+0xf8000000>
    2bc4:	00f47433          	and	s0,s0,a5
    2bc8:	08060713          	addi	a4,a2,128
    2bcc:	0fe00793          	li	a5,254
    2bd0:	00345413          	srli	s0,s0,0x3
    2bd4:	0ae7da63          	bge	a5,a4,2c88 <__mulsf3+0x2c0>
    2bd8:	00000413          	li	s0,0
    2bdc:	0ff00713          	li	a4,255
    2be0:	0a80006f          	j	2c88 <__mulsf3+0x2c0>
    2be4:	00098693          	mv	a3,s3
    2be8:	00048413          	mv	s0,s1
    2bec:	000a8793          	mv	a5,s5
    2bf0:	00200713          	li	a4,2
    2bf4:	fee782e3          	beq	a5,a4,2bd8 <__mulsf3+0x210>
    2bf8:	00300713          	li	a4,3
    2bfc:	08e78063          	beq	a5,a4,2c7c <__mulsf3+0x2b4>
    2c00:	00100713          	li	a4,1
    2c04:	f8e796e3          	bne	a5,a4,2b90 <__mulsf3+0x1c8>
    2c08:	00000413          	li	s0,0
    2c0c:	00000713          	li	a4,0
    2c10:	0780006f          	j	2c88 <__mulsf3+0x2c0>
    2c14:	000a0693          	mv	a3,s4
    2c18:	fd9ff06f          	j	2bf0 <__mulsf3+0x228>
    2c1c:	00050613          	mv	a2,a0
    2c20:	f71ff06f          	j	2b90 <__mulsf3+0x1c8>
    2c24:	00100793          	li	a5,1
    2c28:	40e787b3          	sub	a5,a5,a4
    2c2c:	01b00713          	li	a4,27
    2c30:	fcf74ce3          	blt	a4,a5,2c08 <__mulsf3+0x240>
    2c34:	09e60613          	addi	a2,a2,158
    2c38:	00f457b3          	srl	a5,s0,a5
    2c3c:	00c41433          	sll	s0,s0,a2
    2c40:	00803433          	snez	s0,s0
    2c44:	0087e433          	or	s0,a5,s0
    2c48:	00747793          	andi	a5,s0,7
    2c4c:	00078a63          	beqz	a5,2c60 <__mulsf3+0x298>
    2c50:	00f47793          	andi	a5,s0,15
    2c54:	00400713          	li	a4,4
    2c58:	00e78463          	beq	a5,a4,2c60 <__mulsf3+0x298>
    2c5c:	00440413          	addi	s0,s0,4
    2c60:	040007b7          	lui	a5,0x4000
    2c64:	00f477b3          	and	a5,s0,a5
    2c68:	00345413          	srli	s0,s0,0x3
    2c6c:	fa0780e3          	beqz	a5,2c0c <__mulsf3+0x244>
    2c70:	00000413          	li	s0,0
    2c74:	00100713          	li	a4,1
    2c78:	0100006f          	j	2c88 <__mulsf3+0x2c0>
    2c7c:	00400437          	lui	s0,0x400
    2c80:	0ff00713          	li	a4,255
    2c84:	00000693          	li	a3,0
    2c88:	01771793          	slli	a5,a4,0x17
    2c8c:	00941413          	slli	s0,s0,0x9
    2c90:	7f800737          	lui	a4,0x7f800
    2c94:	00e7f7b3          	and	a5,a5,a4
    2c98:	00945413          	srli	s0,s0,0x9
    2c9c:	0087e433          	or	s0,a5,s0
    2ca0:	01f69513          	slli	a0,a3,0x1f
    2ca4:	01c12083          	lw	ra,28(sp)
    2ca8:	00a46533          	or	a0,s0,a0
    2cac:	01812403          	lw	s0,24(sp)
    2cb0:	01412483          	lw	s1,20(sp)
    2cb4:	01012903          	lw	s2,16(sp)
    2cb8:	00c12983          	lw	s3,12(sp)
    2cbc:	00812a03          	lw	s4,8(sp)
    2cc0:	00412a83          	lw	s5,4(sp)
    2cc4:	02010113          	addi	sp,sp,32
    2cc8:	00008067          	ret

00002ccc <__subsf3>:
    2ccc:	00800737          	lui	a4,0x800
    2cd0:	ff010113          	addi	sp,sp,-16
    2cd4:	fff70713          	addi	a4,a4,-1 # 7fffff <__data_region_end+0x5fc7cf>
    2cd8:	0175d613          	srli	a2,a1,0x17
    2cdc:	00a777b3          	and	a5,a4,a0
    2ce0:	00812423          	sw	s0,8(sp)
    2ce4:	00b77733          	and	a4,a4,a1
    2ce8:	00912223          	sw	s1,4(sp)
    2cec:	01755413          	srli	s0,a0,0x17
    2cf0:	00112623          	sw	ra,12(sp)
    2cf4:	01212023          	sw	s2,0(sp)
    2cf8:	0ff67613          	andi	a2,a2,255
    2cfc:	0ff00693          	li	a3,255
    2d00:	0ff47413          	andi	s0,s0,255
    2d04:	01f55493          	srli	s1,a0,0x1f
    2d08:	00379793          	slli	a5,a5,0x3
    2d0c:	01f5d593          	srli	a1,a1,0x1f
    2d10:	00371713          	slli	a4,a4,0x3
    2d14:	00d61463          	bne	a2,a3,2d1c <__subsf3+0x50>
    2d18:	00071463          	bnez	a4,2d20 <__subsf3+0x54>
    2d1c:	0015c593          	xori	a1,a1,1
    2d20:	40c406b3          	sub	a3,s0,a2
    2d24:	18959a63          	bne	a1,s1,2eb8 <__subsf3+0x1ec>
    2d28:	0ad05063          	blez	a3,2dc8 <__subsf3+0xfc>
    2d2c:	02061663          	bnez	a2,2d58 <__subsf3+0x8c>
    2d30:	18070063          	beqz	a4,2eb0 <__subsf3+0x1e4>
    2d34:	fff68613          	addi	a2,a3,-1 # 7fefffff <CONFIG_SYS_CLOCK_HW_CYCLES_PER_SEC+0x7cf50f7f>
    2d38:	00061863          	bnez	a2,2d48 <__subsf3+0x7c>
    2d3c:	00e787b3          	add	a5,a5,a4
    2d40:	00100413          	li	s0,1
    2d44:	0500006f          	j	2d94 <__subsf3+0xc8>
    2d48:	0ff00593          	li	a1,255
    2d4c:	02b69063          	bne	a3,a1,2d6c <__subsf3+0xa0>
    2d50:	0ff00413          	li	s0,255
    2d54:	1180006f          	j	2e6c <__subsf3+0x1a0>
    2d58:	0ff00613          	li	a2,255
    2d5c:	10c40863          	beq	s0,a2,2e6c <__subsf3+0x1a0>
    2d60:	04000637          	lui	a2,0x4000
    2d64:	00c76733          	or	a4,a4,a2
    2d68:	00068613          	mv	a2,a3
    2d6c:	01b00593          	li	a1,27
    2d70:	00100693          	li	a3,1
    2d74:	00c5ce63          	blt	a1,a2,2d90 <__subsf3+0xc4>
    2d78:	02000693          	li	a3,32
    2d7c:	40c686b3          	sub	a3,a3,a2
    2d80:	00c755b3          	srl	a1,a4,a2
    2d84:	00d71733          	sll	a4,a4,a3
    2d88:	00e03733          	snez	a4,a4
    2d8c:	00e5e6b3          	or	a3,a1,a4
    2d90:	00d787b3          	add	a5,a5,a3
    2d94:	04000737          	lui	a4,0x4000
    2d98:	00e7f733          	and	a4,a5,a4
    2d9c:	0c070863          	beqz	a4,2e6c <__subsf3+0x1a0>
    2da0:	00140413          	addi	s0,s0,1 # 400001 <__data_region_end+0x1fc7d1>
    2da4:	0ff00713          	li	a4,255
    2da8:	30e40263          	beq	s0,a4,30ac <__subsf3+0x3e0>
    2dac:	7e000737          	lui	a4,0x7e000
    2db0:	0017f693          	andi	a3,a5,1
    2db4:	fff70713          	addi	a4,a4,-1 # 7dffffff <CONFIG_SYS_CLOCK_HW_CYCLES_PER_SEC+0x7b050f7f>
    2db8:	0017d793          	srli	a5,a5,0x1
    2dbc:	00e7f7b3          	and	a5,a5,a4
    2dc0:	00d7e7b3          	or	a5,a5,a3
    2dc4:	0a80006f          	j	2e6c <__subsf3+0x1a0>
    2dc8:	06068663          	beqz	a3,2e34 <__subsf3+0x168>
    2dcc:	408606b3          	sub	a3,a2,s0
    2dd0:	02041063          	bnez	s0,2df0 <__subsf3+0x124>
    2dd4:	2c078263          	beqz	a5,3098 <__subsf3+0x3cc>
    2dd8:	fff68593          	addi	a1,a3,-1
    2ddc:	f60580e3          	beqz	a1,2d3c <__subsf3+0x70>
    2de0:	0ff00513          	li	a0,255
    2de4:	02a69063          	bne	a3,a0,2e04 <__subsf3+0x138>
    2de8:	00070793          	mv	a5,a4
    2dec:	f65ff06f          	j	2d50 <__subsf3+0x84>
    2df0:	0ff00593          	li	a1,255
    2df4:	feb60ae3          	beq	a2,a1,2de8 <__subsf3+0x11c>
    2df8:	040005b7          	lui	a1,0x4000
    2dfc:	00b7e7b3          	or	a5,a5,a1
    2e00:	00068593          	mv	a1,a3
    2e04:	01b00513          	li	a0,27
    2e08:	00100693          	li	a3,1
    2e0c:	00b54e63          	blt	a0,a1,2e28 <__subsf3+0x15c>
    2e10:	02000693          	li	a3,32
    2e14:	40b686b3          	sub	a3,a3,a1
    2e18:	00b7d533          	srl	a0,a5,a1
    2e1c:	00d797b3          	sll	a5,a5,a3
    2e20:	00f037b3          	snez	a5,a5
    2e24:	00f566b3          	or	a3,a0,a5
    2e28:	00e687b3          	add	a5,a3,a4
    2e2c:	00060413          	mv	s0,a2
    2e30:	f65ff06f          	j	2d94 <__subsf3+0xc8>
    2e34:	00140693          	addi	a3,s0,1
    2e38:	0fe6f613          	andi	a2,a3,254
    2e3c:	06061263          	bnez	a2,2ea0 <__subsf3+0x1d4>
    2e40:	04041463          	bnez	s0,2e88 <__subsf3+0x1bc>
    2e44:	24078e63          	beqz	a5,30a0 <__subsf3+0x3d4>
    2e48:	02070263          	beqz	a4,2e6c <__subsf3+0x1a0>
    2e4c:	00e787b3          	add	a5,a5,a4
    2e50:	04000737          	lui	a4,0x4000
    2e54:	00e7f733          	and	a4,a5,a4
    2e58:	00070a63          	beqz	a4,2e6c <__subsf3+0x1a0>
    2e5c:	fc000737          	lui	a4,0xfc000
    2e60:	fff70713          	addi	a4,a4,-1 # fbffffff <CONFIG_SYSTEM_WORKQUEUE_PRIORITY+0xfc000000>
    2e64:	00e7f7b3          	and	a5,a5,a4
    2e68:	00100413          	li	s0,1
    2e6c:	0077f713          	andi	a4,a5,7
    2e70:	24070063          	beqz	a4,30b0 <__subsf3+0x3e4>
    2e74:	00f7f713          	andi	a4,a5,15
    2e78:	00400693          	li	a3,4
    2e7c:	22d70a63          	beq	a4,a3,30b0 <__subsf3+0x3e4>
    2e80:	00478793          	addi	a5,a5,4 # 4000004 <CONFIG_SYS_CLOCK_HW_CYCLES_PER_SEC+0x1050f84>
    2e84:	22c0006f          	j	30b0 <__subsf3+0x3e4>
    2e88:	f60780e3          	beqz	a5,2de8 <__subsf3+0x11c>
    2e8c:	ec0702e3          	beqz	a4,2d50 <__subsf3+0x84>
    2e90:	00000493          	li	s1,0
    2e94:	020007b7          	lui	a5,0x2000
    2e98:	0ff00413          	li	s0,255
    2e9c:	2140006f          	j	30b0 <__subsf3+0x3e4>
    2ea0:	0ff00613          	li	a2,255
    2ea4:	20c68263          	beq	a3,a2,30a8 <__subsf3+0x3dc>
    2ea8:	00e787b3          	add	a5,a5,a4
    2eac:	0017d793          	srli	a5,a5,0x1
    2eb0:	00068413          	mv	s0,a3
    2eb4:	fb9ff06f          	j	2e6c <__subsf3+0x1a0>
    2eb8:	08d05063          	blez	a3,2f38 <__subsf3+0x26c>
    2ebc:	06061263          	bnez	a2,2f20 <__subsf3+0x254>
    2ec0:	fe0708e3          	beqz	a4,2eb0 <__subsf3+0x1e4>
    2ec4:	fff68613          	addi	a2,a3,-1
    2ec8:	00061863          	bnez	a2,2ed8 <__subsf3+0x20c>
    2ecc:	40e787b3          	sub	a5,a5,a4
    2ed0:	00100413          	li	s0,1
    2ed4:	0340006f          	j	2f08 <__subsf3+0x23c>
    2ed8:	0ff00593          	li	a1,255
    2edc:	e6b68ae3          	beq	a3,a1,2d50 <__subsf3+0x84>
    2ee0:	01b00593          	li	a1,27
    2ee4:	00100693          	li	a3,1
    2ee8:	00c5ce63          	blt	a1,a2,2f04 <__subsf3+0x238>
    2eec:	02000693          	li	a3,32
    2ef0:	40c686b3          	sub	a3,a3,a2
    2ef4:	00c755b3          	srl	a1,a4,a2
    2ef8:	00d71733          	sll	a4,a4,a3
    2efc:	00e03733          	snez	a4,a4
    2f00:	00e5e6b3          	or	a3,a1,a4
    2f04:	40d787b3          	sub	a5,a5,a3
    2f08:	04000937          	lui	s2,0x4000
    2f0c:	0127f733          	and	a4,a5,s2
    2f10:	f4070ee3          	beqz	a4,2e6c <__subsf3+0x1a0>
    2f14:	fff90913          	addi	s2,s2,-1 # 3ffffff <CONFIG_SYS_CLOCK_HW_CYCLES_PER_SEC+0x1050f7f>
    2f18:	0127f933          	and	s2,a5,s2
    2f1c:	1180006f          	j	3034 <__subsf3+0x368>
    2f20:	0ff00613          	li	a2,255
    2f24:	f4c404e3          	beq	s0,a2,2e6c <__subsf3+0x1a0>
    2f28:	04000637          	lui	a2,0x4000
    2f2c:	00c76733          	or	a4,a4,a2
    2f30:	00068613          	mv	a2,a3
    2f34:	fadff06f          	j	2ee0 <__subsf3+0x214>
    2f38:	08068063          	beqz	a3,2fb8 <__subsf3+0x2ec>
    2f3c:	408606b3          	sub	a3,a2,s0
    2f40:	02041863          	bnez	s0,2f70 <__subsf3+0x2a4>
    2f44:	1e078063          	beqz	a5,3124 <__subsf3+0x458>
    2f48:	fff68513          	addi	a0,a3,-1
    2f4c:	00051863          	bnez	a0,2f5c <__subsf3+0x290>
    2f50:	40f707b3          	sub	a5,a4,a5
    2f54:	00058493          	mv	s1,a1
    2f58:	f79ff06f          	j	2ed0 <__subsf3+0x204>
    2f5c:	0ff00813          	li	a6,255
    2f60:	03069263          	bne	a3,a6,2f84 <__subsf3+0x2b8>
    2f64:	00070793          	mv	a5,a4
    2f68:	0ff00413          	li	s0,255
    2f6c:	06c0006f          	j	2fd8 <__subsf3+0x30c>
    2f70:	0ff00513          	li	a0,255
    2f74:	fea608e3          	beq	a2,a0,2f64 <__subsf3+0x298>
    2f78:	04000537          	lui	a0,0x4000
    2f7c:	00a7e7b3          	or	a5,a5,a0
    2f80:	00068513          	mv	a0,a3
    2f84:	01b00813          	li	a6,27
    2f88:	00100693          	li	a3,1
    2f8c:	00a84e63          	blt	a6,a0,2fa8 <__subsf3+0x2dc>
    2f90:	02000693          	li	a3,32
    2f94:	40a686b3          	sub	a3,a3,a0
    2f98:	00a7d833          	srl	a6,a5,a0
    2f9c:	00d797b3          	sll	a5,a5,a3
    2fa0:	00f037b3          	snez	a5,a5
    2fa4:	00f866b3          	or	a3,a6,a5
    2fa8:	40d707b3          	sub	a5,a4,a3
    2fac:	00060413          	mv	s0,a2
    2fb0:	00058493          	mv	s1,a1
    2fb4:	f55ff06f          	j	2f08 <__subsf3+0x23c>
    2fb8:	00140693          	addi	a3,s0,1
    2fbc:	0fe6f693          	andi	a3,a3,254
    2fc0:	04069e63          	bnez	a3,301c <__subsf3+0x350>
    2fc4:	04041263          	bnez	s0,3008 <__subsf3+0x33c>
    2fc8:	00079c63          	bnez	a5,2fe0 <__subsf3+0x314>
    2fcc:	00000493          	li	s1,0
    2fd0:	0e070063          	beqz	a4,30b0 <__subsf3+0x3e4>
    2fd4:	00070793          	mv	a5,a4
    2fd8:	00058493          	mv	s1,a1
    2fdc:	e91ff06f          	j	2e6c <__subsf3+0x1a0>
    2fe0:	e80706e3          	beqz	a4,2e6c <__subsf3+0x1a0>
    2fe4:	40e786b3          	sub	a3,a5,a4
    2fe8:	04000637          	lui	a2,0x4000
    2fec:	00c6f633          	and	a2,a3,a2
    2ff0:	40f707b3          	sub	a5,a4,a5
    2ff4:	fe0612e3          	bnez	a2,2fd8 <__subsf3+0x30c>
    2ff8:	00000793          	li	a5,0
    2ffc:	08068063          	beqz	a3,307c <__subsf3+0x3b0>
    3000:	00068793          	mv	a5,a3
    3004:	e69ff06f          	j	2e6c <__subsf3+0x1a0>
    3008:	e80792e3          	bnez	a5,2e8c <__subsf3+0x1c0>
    300c:	e80702e3          	beqz	a4,2e90 <__subsf3+0x1c4>
    3010:	00070793          	mv	a5,a4
    3014:	00058493          	mv	s1,a1
    3018:	d39ff06f          	j	2d50 <__subsf3+0x84>
    301c:	40e78933          	sub	s2,a5,a4
    3020:	040006b7          	lui	a3,0x4000
    3024:	00d976b3          	and	a3,s2,a3
    3028:	04068463          	beqz	a3,3070 <__subsf3+0x3a4>
    302c:	40f70933          	sub	s2,a4,a5
    3030:	00058493          	mv	s1,a1
    3034:	00090513          	mv	a0,s2
    3038:	ab8fd0ef          	jal	ra,2f0 <__clzsi2>
    303c:	ffb50513          	addi	a0,a0,-5 # 3fffffb <CONFIG_SYS_CLOCK_HW_CYCLES_PER_SEC+0x1050f7b>
    3040:	00a91933          	sll	s2,s2,a0
    3044:	04854063          	blt	a0,s0,3084 <__subsf3+0x3b8>
    3048:	40850533          	sub	a0,a0,s0
    304c:	00150513          	addi	a0,a0,1
    3050:	02000413          	li	s0,32
    3054:	00a957b3          	srl	a5,s2,a0
    3058:	40a40533          	sub	a0,s0,a0
    305c:	00a91933          	sll	s2,s2,a0
    3060:	01203933          	snez	s2,s2
    3064:	0127e7b3          	or	a5,a5,s2
    3068:	00000413          	li	s0,0
    306c:	e01ff06f          	j	2e6c <__subsf3+0x1a0>
    3070:	fc0912e3          	bnez	s2,3034 <__subsf3+0x368>
    3074:	00000793          	li	a5,0
    3078:	00000413          	li	s0,0
    307c:	00000493          	li	s1,0
    3080:	0300006f          	j	30b0 <__subsf3+0x3e4>
    3084:	fc0007b7          	lui	a5,0xfc000
    3088:	fff78793          	addi	a5,a5,-1 # fbffffff <CONFIG_SYSTEM_WORKQUEUE_PRIORITY+0xfc000000>
    308c:	40a40433          	sub	s0,s0,a0
    3090:	00f977b3          	and	a5,s2,a5
    3094:	dd9ff06f          	j	2e6c <__subsf3+0x1a0>
    3098:	00070793          	mv	a5,a4
    309c:	e15ff06f          	j	2eb0 <__subsf3+0x1e4>
    30a0:	00070793          	mv	a5,a4
    30a4:	dc9ff06f          	j	2e6c <__subsf3+0x1a0>
    30a8:	0ff00413          	li	s0,255
    30ac:	00000793          	li	a5,0
    30b0:	04000737          	lui	a4,0x4000
    30b4:	00e7f733          	and	a4,a5,a4
    30b8:	00070e63          	beqz	a4,30d4 <__subsf3+0x408>
    30bc:	00140413          	addi	s0,s0,1
    30c0:	0ff00713          	li	a4,255
    30c4:	06e40663          	beq	s0,a4,3130 <__subsf3+0x464>
    30c8:	fc000737          	lui	a4,0xfc000
    30cc:	fff70713          	addi	a4,a4,-1 # fbffffff <CONFIG_SYSTEM_WORKQUEUE_PRIORITY+0xfc000000>
    30d0:	00e7f7b3          	and	a5,a5,a4
    30d4:	0ff00713          	li	a4,255
    30d8:	0037d793          	srli	a5,a5,0x3
    30dc:	00e41863          	bne	s0,a4,30ec <__subsf3+0x420>
    30e0:	00078663          	beqz	a5,30ec <__subsf3+0x420>
    30e4:	004007b7          	lui	a5,0x400
    30e8:	00000493          	li	s1,0
    30ec:	7f800537          	lui	a0,0x7f800
    30f0:	01741413          	slli	s0,s0,0x17
    30f4:	00979793          	slli	a5,a5,0x9
    30f8:	00a47433          	and	s0,s0,a0
    30fc:	0097d793          	srli	a5,a5,0x9
    3100:	00c12083          	lw	ra,12(sp)
    3104:	00f467b3          	or	a5,s0,a5
    3108:	00812403          	lw	s0,8(sp)
    310c:	01f49513          	slli	a0,s1,0x1f
    3110:	00012903          	lw	s2,0(sp)
    3114:	00412483          	lw	s1,4(sp)
    3118:	00a7e533          	or	a0,a5,a0
    311c:	01010113          	addi	sp,sp,16
    3120:	00008067          	ret
    3124:	00070793          	mv	a5,a4
    3128:	00068413          	mv	s0,a3
    312c:	eadff06f          	j	2fd8 <__subsf3+0x30c>
    3130:	00000793          	li	a5,0
    3134:	fa1ff06f          	j	30d4 <__subsf3+0x408>

00003138 <__floatsisf>:
    3138:	ff010113          	addi	sp,sp,-16
    313c:	00112623          	sw	ra,12(sp)
    3140:	00812423          	sw	s0,8(sp)
    3144:	00912223          	sw	s1,4(sp)
    3148:	0e050663          	beqz	a0,3234 <__floatsisf+0xfc>
    314c:	41f55793          	srai	a5,a0,0x1f
    3150:	00a7c433          	xor	s0,a5,a0
    3154:	40f40433          	sub	s0,s0,a5
    3158:	01f55493          	srli	s1,a0,0x1f
    315c:	00040513          	mv	a0,s0
    3160:	990fd0ef          	jal	ra,2f0 <__clzsi2>
    3164:	09e00793          	li	a5,158
    3168:	00050713          	mv	a4,a0
    316c:	40a78533          	sub	a0,a5,a0
    3170:	09600793          	li	a5,150
    3174:	04a7c063          	blt	a5,a0,31b4 <__floatsisf+0x7c>
    3178:	00800793          	li	a5,8
    317c:	00e7d663          	bge	a5,a4,3188 <__floatsisf+0x50>
    3180:	ff870713          	addi	a4,a4,-8
    3184:	00e41433          	sll	s0,s0,a4
    3188:	00941413          	slli	s0,s0,0x9
    318c:	01751513          	slli	a0,a0,0x17
    3190:	00945413          	srli	s0,s0,0x9
    3194:	00856433          	or	s0,a0,s0
    3198:	01f49513          	slli	a0,s1,0x1f
    319c:	00c12083          	lw	ra,12(sp)
    31a0:	00a46533          	or	a0,s0,a0
    31a4:	00812403          	lw	s0,8(sp)
    31a8:	00412483          	lw	s1,4(sp)
    31ac:	01010113          	addi	sp,sp,16
    31b0:	00008067          	ret
    31b4:	09900793          	li	a5,153
    31b8:	02a7d063          	bge	a5,a0,31d8 <__floatsisf+0xa0>
    31bc:	00500793          	li	a5,5
    31c0:	40e787b3          	sub	a5,a5,a4
    31c4:	01b70693          	addi	a3,a4,27
    31c8:	00f457b3          	srl	a5,s0,a5
    31cc:	00d41433          	sll	s0,s0,a3
    31d0:	00803433          	snez	s0,s0
    31d4:	0087e433          	or	s0,a5,s0
    31d8:	00500793          	li	a5,5
    31dc:	00e7d663          	bge	a5,a4,31e8 <__floatsisf+0xb0>
    31e0:	ffb70793          	addi	a5,a4,-5
    31e4:	00f41433          	sll	s0,s0,a5
    31e8:	fc0006b7          	lui	a3,0xfc000
    31ec:	fff68693          	addi	a3,a3,-1 # fbffffff <CONFIG_SYSTEM_WORKQUEUE_PRIORITY+0xfc000000>
    31f0:	00747793          	andi	a5,s0,7
    31f4:	00d476b3          	and	a3,s0,a3
    31f8:	00078a63          	beqz	a5,320c <__floatsisf+0xd4>
    31fc:	00f47413          	andi	s0,s0,15
    3200:	00400793          	li	a5,4
    3204:	00f40463          	beq	s0,a5,320c <__floatsisf+0xd4>
    3208:	00468693          	addi	a3,a3,4
    320c:	040007b7          	lui	a5,0x4000
    3210:	00f6f7b3          	and	a5,a3,a5
    3214:	00078c63          	beqz	a5,322c <__floatsisf+0xf4>
    3218:	fc0007b7          	lui	a5,0xfc000
    321c:	fff78793          	addi	a5,a5,-1 # fbffffff <CONFIG_SYSTEM_WORKQUEUE_PRIORITY+0xfc000000>
    3220:	00f6f6b3          	and	a3,a3,a5
    3224:	09f00793          	li	a5,159
    3228:	40e78533          	sub	a0,a5,a4
    322c:	0036d413          	srli	s0,a3,0x3
    3230:	f59ff06f          	j	3188 <__floatsisf+0x50>
    3234:	00000493          	li	s1,0
    3238:	00000413          	li	s0,0
    323c:	f4dff06f          	j	3188 <__floatsisf+0x50>

00003240 <__extendsfdf2>:
    3240:	01755713          	srli	a4,a0,0x17
    3244:	0ff77713          	andi	a4,a4,255
    3248:	ff010113          	addi	sp,sp,-16
    324c:	00170793          	addi	a5,a4,1
    3250:	00812423          	sw	s0,8(sp)
    3254:	00912223          	sw	s1,4(sp)
    3258:	00951413          	slli	s0,a0,0x9
    325c:	00112623          	sw	ra,12(sp)
    3260:	0fe7f793          	andi	a5,a5,254
    3264:	00945413          	srli	s0,s0,0x9
    3268:	01f55493          	srli	s1,a0,0x1f
    326c:	04078263          	beqz	a5,32b0 <__extendsfdf2+0x70>
    3270:	00345793          	srli	a5,s0,0x3
    3274:	38070713          	addi	a4,a4,896
    3278:	01d41413          	slli	s0,s0,0x1d
    327c:	00c79793          	slli	a5,a5,0xc
    3280:	01471713          	slli	a4,a4,0x14
    3284:	00c7d793          	srli	a5,a5,0xc
    3288:	01f49513          	slli	a0,s1,0x1f
    328c:	00f767b3          	or	a5,a4,a5
    3290:	00c12083          	lw	ra,12(sp)
    3294:	00a7e733          	or	a4,a5,a0
    3298:	00040513          	mv	a0,s0
    329c:	00812403          	lw	s0,8(sp)
    32a0:	00412483          	lw	s1,4(sp)
    32a4:	00070593          	mv	a1,a4
    32a8:	01010113          	addi	sp,sp,16
    32ac:	00008067          	ret
    32b0:	04071663          	bnez	a4,32fc <__extendsfdf2+0xbc>
    32b4:	00000793          	li	a5,0
    32b8:	fc0402e3          	beqz	s0,327c <__extendsfdf2+0x3c>
    32bc:	00040513          	mv	a0,s0
    32c0:	830fd0ef          	jal	ra,2f0 <__clzsi2>
    32c4:	00a00793          	li	a5,10
    32c8:	02a7c263          	blt	a5,a0,32ec <__extendsfdf2+0xac>
    32cc:	00b00793          	li	a5,11
    32d0:	40a787b3          	sub	a5,a5,a0
    32d4:	01550713          	addi	a4,a0,21 # 7f800015 <CONFIG_SYS_CLOCK_HW_CYCLES_PER_SEC+0x7c850f95>
    32d8:	00f457b3          	srl	a5,s0,a5
    32dc:	00e41433          	sll	s0,s0,a4
    32e0:	38900713          	li	a4,905
    32e4:	40a70733          	sub	a4,a4,a0
    32e8:	f95ff06f          	j	327c <__extendsfdf2+0x3c>
    32ec:	ff550793          	addi	a5,a0,-11
    32f0:	00f417b3          	sll	a5,s0,a5
    32f4:	00000413          	li	s0,0
    32f8:	fe9ff06f          	j	32e0 <__extendsfdf2+0xa0>
    32fc:	00000793          	li	a5,0
    3300:	00040a63          	beqz	s0,3314 <__extendsfdf2+0xd4>
    3304:	00345793          	srli	a5,s0,0x3
    3308:	00080737          	lui	a4,0x80
    330c:	01d41413          	slli	s0,s0,0x1d
    3310:	00e7e7b3          	or	a5,a5,a4
    3314:	7ff00713          	li	a4,2047
    3318:	f65ff06f          	j	327c <__extendsfdf2+0x3c>

0000331c <__truncdfsf2>:
    331c:	0145d613          	srli	a2,a1,0x14
    3320:	7ff67613          	andi	a2,a2,2047
    3324:	00c59693          	slli	a3,a1,0xc
    3328:	00160713          	addi	a4,a2,1 # 4000001 <CONFIG_SYS_CLOCK_HW_CYCLES_PER_SEC+0x1050f81>
    332c:	0096d793          	srli	a5,a3,0x9
    3330:	7fe77713          	andi	a4,a4,2046
    3334:	01d55693          	srli	a3,a0,0x1d
    3338:	00f6e6b3          	or	a3,a3,a5
    333c:	01f5d593          	srli	a1,a1,0x1f
    3340:	00351793          	slli	a5,a0,0x3
    3344:	0a070663          	beqz	a4,33f0 <__truncdfsf2+0xd4>
    3348:	c8060713          	addi	a4,a2,-896
    334c:	0fe00813          	li	a6,254
    3350:	0ce84263          	blt	a6,a4,3414 <__truncdfsf2+0xf8>
    3354:	08e04063          	bgtz	a4,33d4 <__truncdfsf2+0xb8>
    3358:	fe900513          	li	a0,-23
    335c:	12a74063          	blt	a4,a0,347c <__truncdfsf2+0x160>
    3360:	00800537          	lui	a0,0x800
    3364:	00a6e6b3          	or	a3,a3,a0
    3368:	01e00513          	li	a0,30
    336c:	40e50533          	sub	a0,a0,a4
    3370:	01f00813          	li	a6,31
    3374:	02a84863          	blt	a6,a0,33a4 <__truncdfsf2+0x88>
    3378:	c8260613          	addi	a2,a2,-894
    337c:	00a7d533          	srl	a0,a5,a0
    3380:	00c797b3          	sll	a5,a5,a2
    3384:	00f037b3          	snez	a5,a5
    3388:	00c696b3          	sll	a3,a3,a2
    338c:	00d7e7b3          	or	a5,a5,a3
    3390:	00f567b3          	or	a5,a0,a5
    3394:	00000713          	li	a4,0
    3398:	0077f693          	andi	a3,a5,7
    339c:	08068063          	beqz	a3,341c <__truncdfsf2+0x100>
    33a0:	0e40006f          	j	3484 <__truncdfsf2+0x168>
    33a4:	ffe00813          	li	a6,-2
    33a8:	40e80733          	sub	a4,a6,a4
    33ac:	02000893          	li	a7,32
    33b0:	00e6d733          	srl	a4,a3,a4
    33b4:	00000813          	li	a6,0
    33b8:	01150663          	beq	a0,a7,33c4 <__truncdfsf2+0xa8>
    33bc:	ca260613          	addi	a2,a2,-862
    33c0:	00c69833          	sll	a6,a3,a2
    33c4:	00f867b3          	or	a5,a6,a5
    33c8:	00f037b3          	snez	a5,a5
    33cc:	00f767b3          	or	a5,a4,a5
    33d0:	fc5ff06f          	j	3394 <__truncdfsf2+0x78>
    33d4:	00651513          	slli	a0,a0,0x6
    33d8:	00a03533          	snez	a0,a0
    33dc:	00369693          	slli	a3,a3,0x3
    33e0:	01d7d793          	srli	a5,a5,0x1d
    33e4:	00d566b3          	or	a3,a0,a3
    33e8:	00f6e7b3          	or	a5,a3,a5
    33ec:	fadff06f          	j	3398 <__truncdfsf2+0x7c>
    33f0:	00f6e7b3          	or	a5,a3,a5
    33f4:	00061663          	bnez	a2,3400 <__truncdfsf2+0xe4>
    33f8:	00f037b3          	snez	a5,a5
    33fc:	f99ff06f          	j	3394 <__truncdfsf2+0x78>
    3400:	0ff00713          	li	a4,255
    3404:	00078c63          	beqz	a5,341c <__truncdfsf2+0x100>
    3408:	00369693          	slli	a3,a3,0x3
    340c:	020007b7          	lui	a5,0x2000
    3410:	fd9ff06f          	j	33e8 <__truncdfsf2+0xcc>
    3414:	00000793          	li	a5,0
    3418:	0ff00713          	li	a4,255
    341c:	040006b7          	lui	a3,0x4000
    3420:	00d7f6b3          	and	a3,a5,a3
    3424:	00068e63          	beqz	a3,3440 <__truncdfsf2+0x124>
    3428:	00170713          	addi	a4,a4,1 # 80001 <digits+0x5291>
    342c:	0ff00693          	li	a3,255
    3430:	06d70463          	beq	a4,a3,3498 <__truncdfsf2+0x17c>
    3434:	fc0006b7          	lui	a3,0xfc000
    3438:	fff68693          	addi	a3,a3,-1 # fbffffff <CONFIG_SYSTEM_WORKQUEUE_PRIORITY+0xfc000000>
    343c:	00d7f7b3          	and	a5,a5,a3
    3440:	0ff00693          	li	a3,255
    3444:	0037d793          	srli	a5,a5,0x3
    3448:	00d71863          	bne	a4,a3,3458 <__truncdfsf2+0x13c>
    344c:	00078663          	beqz	a5,3458 <__truncdfsf2+0x13c>
    3450:	004007b7          	lui	a5,0x400
    3454:	00000593          	li	a1,0
    3458:	7f800537          	lui	a0,0x7f800
    345c:	01771713          	slli	a4,a4,0x17
    3460:	00979793          	slli	a5,a5,0x9
    3464:	00a77733          	and	a4,a4,a0
    3468:	0097d793          	srli	a5,a5,0x9
    346c:	00f767b3          	or	a5,a4,a5
    3470:	01f59513          	slli	a0,a1,0x1f
    3474:	00a7e533          	or	a0,a5,a0
    3478:	00008067          	ret
    347c:	00100793          	li	a5,1
    3480:	00000713          	li	a4,0
    3484:	00f7f693          	andi	a3,a5,15
    3488:	00400613          	li	a2,4
    348c:	f8c688e3          	beq	a3,a2,341c <__truncdfsf2+0x100>
    3490:	00478793          	addi	a5,a5,4 # 400004 <__data_region_end+0x1fc7d4>
    3494:	f89ff06f          	j	341c <__truncdfsf2+0x100>
    3498:	00000793          	li	a5,0
    349c:	fa5ff06f          	j	3440 <__truncdfsf2+0x124>

000034a0 <memcpy>:
    34a0:	00050313          	mv	t1,a0
    34a4:	00060e63          	beqz	a2,34c0 <memcpy+0x20>
    34a8:	00058383          	lb	t2,0(a1) # 4000000 <CONFIG_SYS_CLOCK_HW_CYCLES_PER_SEC+0x1050f80>
    34ac:	00730023          	sb	t2,0(t1) # 10000 <z_interrupt_stacks+0x6c0>
    34b0:	fff60613          	addi	a2,a2,-1
    34b4:	00130313          	addi	t1,t1,1
    34b8:	00158593          	addi	a1,a1,1
    34bc:	fe0616e3          	bnez	a2,34a8 <memcpy+0x8>
    34c0:	00008067          	ret

000034c4 <memset>:
    34c4:	00050313          	mv	t1,a0
    34c8:	00060a63          	beqz	a2,34dc <memset+0x18>
    34cc:	00b30023          	sb	a1,0(t1)
    34d0:	fff60613          	addi	a2,a2,-1
    34d4:	00130313          	addi	t1,t1,1
    34d8:	fe061ae3          	bnez	a2,34cc <memset+0x8>
    34dc:	00008067          	ret

000034e0 <__eqdf2>:
    34e0:	0145d713          	srli	a4,a1,0x14
    34e4:	001007b7          	lui	a5,0x100
    34e8:	fff78793          	addi	a5,a5,-1 # fffff <digits+0x8528f>
    34ec:	0146d813          	srli	a6,a3,0x14
    34f0:	00050313          	mv	t1,a0
    34f4:	00050e93          	mv	t4,a0
    34f8:	7ff77713          	andi	a4,a4,2047
    34fc:	7ff00513          	li	a0,2047
    3500:	00b7f8b3          	and	a7,a5,a1
    3504:	00060f13          	mv	t5,a2
    3508:	00d7f7b3          	and	a5,a5,a3
    350c:	01f5d593          	srli	a1,a1,0x1f
    3510:	7ff87813          	andi	a6,a6,2047
    3514:	01f6d693          	srli	a3,a3,0x1f
    3518:	00a71c63          	bne	a4,a0,3530 <__eqdf2+0x50>
    351c:	0068ee33          	or	t3,a7,t1
    3520:	00100513          	li	a0,1
    3524:	000e1463          	bnez	t3,352c <__eqdf2+0x4c>
    3528:	00e80663          	beq	a6,a4,3534 <__eqdf2+0x54>
    352c:	00008067          	ret
    3530:	00a81863          	bne	a6,a0,3540 <__eqdf2+0x60>
    3534:	00c7e633          	or	a2,a5,a2
    3538:	00100513          	li	a0,1
    353c:	fe0618e3          	bnez	a2,352c <__eqdf2+0x4c>
    3540:	00100513          	li	a0,1
    3544:	ff0714e3          	bne	a4,a6,352c <__eqdf2+0x4c>
    3548:	fef892e3          	bne	a7,a5,352c <__eqdf2+0x4c>
    354c:	ffee90e3          	bne	t4,t5,352c <__eqdf2+0x4c>
    3550:	00d58a63          	beq	a1,a3,3564 <__eqdf2+0x84>
    3554:	fc071ce3          	bnez	a4,352c <__eqdf2+0x4c>
    3558:	0068e533          	or	a0,a7,t1
    355c:	00a03533          	snez	a0,a0
    3560:	00008067          	ret
    3564:	00000513          	li	a0,0
    3568:	00008067          	ret

0000356c <__gedf2>:
    356c:	00100737          	lui	a4,0x100
    3570:	fff70713          	addi	a4,a4,-1 # fffff <digits+0x8528f>
    3574:	0145d813          	srli	a6,a1,0x14
    3578:	00b778b3          	and	a7,a4,a1
    357c:	00050793          	mv	a5,a0
    3580:	00050313          	mv	t1,a0
    3584:	7ff87813          	andi	a6,a6,2047
    3588:	01f5d513          	srli	a0,a1,0x1f
    358c:	7ff00e93          	li	t4,2047
    3590:	0146d593          	srli	a1,a3,0x14
    3594:	00d77733          	and	a4,a4,a3
    3598:	00060e13          	mv	t3,a2
    359c:	7ff5f593          	andi	a1,a1,2047
    35a0:	01f6d693          	srli	a3,a3,0x1f
    35a4:	01d81a63          	bne	a6,t4,35b8 <__gedf2+0x4c>
    35a8:	00f8eeb3          	or	t4,a7,a5
    35ac:	080e8a63          	beqz	t4,3640 <__gedf2+0xd4>
    35b0:	ffe00513          	li	a0,-2
    35b4:	00008067          	ret
    35b8:	01d59663          	bne	a1,t4,35c4 <__gedf2+0x58>
    35bc:	00c76eb3          	or	t4,a4,a2
    35c0:	fe0e98e3          	bnez	t4,35b0 <__gedf2+0x44>
    35c4:	08081063          	bnez	a6,3644 <__gedf2+0xd8>
    35c8:	00f8e7b3          	or	a5,a7,a5
    35cc:	0017b793          	seqz	a5,a5
    35d0:	00059663          	bnez	a1,35dc <__gedf2+0x70>
    35d4:	00c76633          	or	a2,a4,a2
    35d8:	04060c63          	beqz	a2,3630 <__gedf2+0xc4>
    35dc:	00079c63          	bnez	a5,35f4 <__gedf2+0x88>
    35e0:	00d51463          	bne	a0,a3,35e8 <__gedf2+0x7c>
    35e4:	0305d063          	bge	a1,a6,3604 <__gedf2+0x98>
    35e8:	04050063          	beqz	a0,3628 <__gedf2+0xbc>
    35ec:	fff00513          	li	a0,-1
    35f0:	00008067          	ret
    35f4:	fff00513          	li	a0,-1
    35f8:	00068a63          	beqz	a3,360c <__gedf2+0xa0>
    35fc:	00068513          	mv	a0,a3
    3600:	00008067          	ret
    3604:	00b85663          	bge	a6,a1,3610 <__gedf2+0xa4>
    3608:	fe0502e3          	beqz	a0,35ec <__gedf2+0x80>
    360c:	00008067          	ret
    3610:	fd176ce3          	bltu	a4,a7,35e8 <__gedf2+0x7c>
    3614:	02e89263          	bne	a7,a4,3638 <__gedf2+0xcc>
    3618:	fc6e68e3          	bltu	t3,t1,35e8 <__gedf2+0x7c>
    361c:	ffc366e3          	bltu	t1,t3,3608 <__gedf2+0x9c>
    3620:	00000513          	li	a0,0
    3624:	00008067          	ret
    3628:	00100513          	li	a0,1
    362c:	00008067          	ret
    3630:	fe0798e3          	bnez	a5,3620 <__gedf2+0xb4>
    3634:	fb5ff06f          	j	35e8 <__gedf2+0x7c>
    3638:	fce8e8e3          	bltu	a7,a4,3608 <__gedf2+0x9c>
    363c:	fe5ff06f          	j	3620 <__gedf2+0xb4>
    3640:	f7058ee3          	beq	a1,a6,35bc <__gedf2+0x50>
    3644:	f8059ee3          	bnez	a1,35e0 <__gedf2+0x74>
    3648:	00000793          	li	a5,0
    364c:	f89ff06f          	j	35d4 <__gedf2+0x68>

00003650 <__ledf2>:
    3650:	00100737          	lui	a4,0x100
    3654:	fff70713          	addi	a4,a4,-1 # fffff <digits+0x8528f>
    3658:	0145d813          	srli	a6,a1,0x14
    365c:	00b778b3          	and	a7,a4,a1
    3660:	00050793          	mv	a5,a0
    3664:	00050313          	mv	t1,a0
    3668:	7ff87813          	andi	a6,a6,2047
    366c:	01f5d513          	srli	a0,a1,0x1f
    3670:	7ff00e93          	li	t4,2047
    3674:	0146d593          	srli	a1,a3,0x14
    3678:	00d77733          	and	a4,a4,a3
    367c:	00060e13          	mv	t3,a2
    3680:	7ff5f593          	andi	a1,a1,2047
    3684:	01f6d693          	srli	a3,a3,0x1f
    3688:	01d81a63          	bne	a6,t4,369c <__ledf2+0x4c>
    368c:	00f8eeb3          	or	t4,a7,a5
    3690:	080e8a63          	beqz	t4,3724 <__ledf2+0xd4>
    3694:	00200513          	li	a0,2
    3698:	00008067          	ret
    369c:	01d59663          	bne	a1,t4,36a8 <__ledf2+0x58>
    36a0:	00c76eb3          	or	t4,a4,a2
    36a4:	fe0e98e3          	bnez	t4,3694 <__ledf2+0x44>
    36a8:	08081063          	bnez	a6,3728 <__ledf2+0xd8>
    36ac:	00f8e7b3          	or	a5,a7,a5
    36b0:	0017b793          	seqz	a5,a5
    36b4:	00059663          	bnez	a1,36c0 <__ledf2+0x70>
    36b8:	00c76633          	or	a2,a4,a2
    36bc:	04060c63          	beqz	a2,3714 <__ledf2+0xc4>
    36c0:	00079c63          	bnez	a5,36d8 <__ledf2+0x88>
    36c4:	00d51463          	bne	a0,a3,36cc <__ledf2+0x7c>
    36c8:	0305d063          	bge	a1,a6,36e8 <__ledf2+0x98>
    36cc:	04050063          	beqz	a0,370c <__ledf2+0xbc>
    36d0:	fff00513          	li	a0,-1
    36d4:	00008067          	ret
    36d8:	fff00513          	li	a0,-1
    36dc:	00068a63          	beqz	a3,36f0 <__ledf2+0xa0>
    36e0:	00068513          	mv	a0,a3
    36e4:	00008067          	ret
    36e8:	00b85663          	bge	a6,a1,36f4 <__ledf2+0xa4>
    36ec:	fe0502e3          	beqz	a0,36d0 <__ledf2+0x80>
    36f0:	00008067          	ret
    36f4:	fd176ce3          	bltu	a4,a7,36cc <__ledf2+0x7c>
    36f8:	02e89263          	bne	a7,a4,371c <__ledf2+0xcc>
    36fc:	fc6e68e3          	bltu	t3,t1,36cc <__ledf2+0x7c>
    3700:	ffc366e3          	bltu	t1,t3,36ec <__ledf2+0x9c>
    3704:	00000513          	li	a0,0
    3708:	00008067          	ret
    370c:	00100513          	li	a0,1
    3710:	00008067          	ret
    3714:	fe0798e3          	bnez	a5,3704 <__ledf2+0xb4>
    3718:	fb5ff06f          	j	36cc <__ledf2+0x7c>
    371c:	fce8e8e3          	bltu	a7,a4,36ec <__ledf2+0x9c>
    3720:	fe5ff06f          	j	3704 <__ledf2+0xb4>
    3724:	f7058ee3          	beq	a1,a6,36a0 <__ledf2+0x50>
    3728:	f8059ee3          	bnez	a1,36c4 <__ledf2+0x74>
    372c:	00000793          	li	a5,0
    3730:	f89ff06f          	j	36b8 <__ledf2+0x68>

00003734 <__unorddf2>:
    3734:	00100737          	lui	a4,0x100
    3738:	fff70793          	addi	a5,a4,-1 # fffff <digits+0x8528f>
    373c:	00b7f733          	and	a4,a5,a1
    3740:	0145d593          	srli	a1,a1,0x14
    3744:	00d7f7b3          	and	a5,a5,a3
    3748:	7ff5f593          	andi	a1,a1,2047
    374c:	0146d693          	srli	a3,a3,0x14
    3750:	7ff00813          	li	a6,2047
    3754:	7ff6f693          	andi	a3,a3,2047
    3758:	01059863          	bne	a1,a6,3768 <__unorddf2+0x34>
    375c:	00a76733          	or	a4,a4,a0
    3760:	00100513          	li	a0,1
    3764:	00071c63          	bnez	a4,377c <__unorddf2+0x48>
    3768:	7ff00713          	li	a4,2047
    376c:	00000513          	li	a0,0
    3770:	00e69663          	bne	a3,a4,377c <__unorddf2+0x48>
    3774:	00c7e7b3          	or	a5,a5,a2
    3778:	00f03533          	snez	a0,a5
    377c:	00008067          	ret

00003780 <__fixdfsi>:
    3780:	0145d713          	srli	a4,a1,0x14
    3784:	001006b7          	lui	a3,0x100
    3788:	fff68793          	addi	a5,a3,-1 # fffff <digits+0x8528f>
    378c:	7ff77713          	andi	a4,a4,2047
    3790:	3fe00613          	li	a2,1022
    3794:	00b7f7b3          	and	a5,a5,a1
    3798:	01f5d593          	srli	a1,a1,0x1f
    379c:	04e65e63          	bge	a2,a4,37f8 <__fixdfsi+0x78>
    37a0:	41d00613          	li	a2,1053
    37a4:	00e65a63          	bge	a2,a4,37b8 <__fixdfsi+0x38>
    37a8:	80000537          	lui	a0,0x80000
    37ac:	fff54513          	not	a0,a0
    37b0:	00a58533          	add	a0,a1,a0
    37b4:	00008067          	ret
    37b8:	00d7e7b3          	or	a5,a5,a3
    37bc:	43300693          	li	a3,1075
    37c0:	40e686b3          	sub	a3,a3,a4
    37c4:	01f00613          	li	a2,31
    37c8:	02d64063          	blt	a2,a3,37e8 <__fixdfsi+0x68>
    37cc:	bed70713          	addi	a4,a4,-1043
    37d0:	00e797b3          	sll	a5,a5,a4
    37d4:	00d55533          	srl	a0,a0,a3
    37d8:	00a7e533          	or	a0,a5,a0
    37dc:	02058063          	beqz	a1,37fc <__fixdfsi+0x7c>
    37e0:	40a00533          	neg	a0,a0
    37e4:	00008067          	ret
    37e8:	41300513          	li	a0,1043
    37ec:	40e50533          	sub	a0,a0,a4
    37f0:	00a7d533          	srl	a0,a5,a0
    37f4:	fe9ff06f          	j	37dc <__fixdfsi+0x5c>
    37f8:	00000513          	li	a0,0
    37fc:	00008067          	ret

00003800 <__floatsidf>:
    3800:	ff010113          	addi	sp,sp,-16
    3804:	00112623          	sw	ra,12(sp)
    3808:	00812423          	sw	s0,8(sp)
    380c:	00912223          	sw	s1,4(sp)
    3810:	08050663          	beqz	a0,389c <__floatsidf+0x9c>
    3814:	41f55793          	srai	a5,a0,0x1f
    3818:	00a7c433          	xor	s0,a5,a0
    381c:	40f40433          	sub	s0,s0,a5
    3820:	01f55493          	srli	s1,a0,0x1f
    3824:	00040513          	mv	a0,s0
    3828:	ac9fc0ef          	jal	ra,2f0 <__clzsi2>
    382c:	41e00713          	li	a4,1054
    3830:	00a00793          	li	a5,10
    3834:	40a70733          	sub	a4,a4,a0
    3838:	04a7c863          	blt	a5,a0,3888 <__floatsidf+0x88>
    383c:	00b00793          	li	a5,11
    3840:	40a787b3          	sub	a5,a5,a0
    3844:	01550513          	addi	a0,a0,21 # 80000015 <CONFIG_SYSTEM_WORKQUEUE_PRIORITY+0x80000016>
    3848:	00f457b3          	srl	a5,s0,a5
    384c:	00a41433          	sll	s0,s0,a0
    3850:	00048513          	mv	a0,s1
    3854:	00c79793          	slli	a5,a5,0xc
    3858:	01471713          	slli	a4,a4,0x14
    385c:	00c7d793          	srli	a5,a5,0xc
    3860:	01f51513          	slli	a0,a0,0x1f
    3864:	00f767b3          	or	a5,a4,a5
    3868:	00c12083          	lw	ra,12(sp)
    386c:	00a7e733          	or	a4,a5,a0
    3870:	00040513          	mv	a0,s0
    3874:	00812403          	lw	s0,8(sp)
    3878:	00412483          	lw	s1,4(sp)
    387c:	00070593          	mv	a1,a4
    3880:	01010113          	addi	sp,sp,16
    3884:	00008067          	ret
    3888:	ff550513          	addi	a0,a0,-11
    388c:	00a417b3          	sll	a5,s0,a0
    3890:	00048513          	mv	a0,s1
    3894:	00000413          	li	s0,0
    3898:	fbdff06f          	j	3854 <__floatsidf+0x54>
    389c:	00000713          	li	a4,0
    38a0:	00000793          	li	a5,0
    38a4:	ff1ff06f          	j	3894 <__floatsidf+0x94>

000038a8 <__trunctfdf2>:
    38a8:	fd010113          	addi	sp,sp,-48
    38ac:	00852783          	lw	a5,8(a0)
    38b0:	02812423          	sw	s0,40(sp)
    38b4:	00c52403          	lw	s0,12(a0)
    38b8:	00452703          	lw	a4,4(a0)
    38bc:	00052683          	lw	a3,0(a0)
    38c0:	00f12423          	sw	a5,8(sp)
    38c4:	00f12c23          	sw	a5,24(sp)
    38c8:	01041793          	slli	a5,s0,0x10
    38cc:	00e12223          	sw	a4,4(sp)
    38d0:	00e12a23          	sw	a4,20(sp)
    38d4:	0107d793          	srli	a5,a5,0x10
    38d8:	00141713          	slli	a4,s0,0x1
    38dc:	00812623          	sw	s0,12(sp)
    38e0:	02112623          	sw	ra,44(sp)
    38e4:	02912223          	sw	s1,36(sp)
    38e8:	00d12023          	sw	a3,0(sp)
    38ec:	00d12823          	sw	a3,16(sp)
    38f0:	00f12e23          	sw	a5,28(sp)
    38f4:	01175713          	srli	a4,a4,0x11
    38f8:	01f45413          	srli	s0,s0,0x1f
    38fc:	01010513          	addi	a0,sp,16
    3900:	01c10613          	addi	a2,sp,28
    3904:	00062783          	lw	a5,0(a2)
    3908:	ffc62683          	lw	a3,-4(a2)
    390c:	ffc60613          	addi	a2,a2,-4
    3910:	00379793          	slli	a5,a5,0x3
    3914:	01d6d693          	srli	a3,a3,0x1d
    3918:	00d7e7b3          	or	a5,a5,a3
    391c:	00f62223          	sw	a5,4(a2)
    3920:	fec512e3          	bne	a0,a2,3904 <__trunctfdf2+0x5c>
    3924:	01012683          	lw	a3,16(sp)
    3928:	00170793          	addi	a5,a4,1
    392c:	00369593          	slli	a1,a3,0x3
    3930:	000086b7          	lui	a3,0x8
    3934:	ffe68693          	addi	a3,a3,-2 # 7ffe <sys_clock_announce+0x13a>
    3938:	00b12823          	sw	a1,16(sp)
    393c:	00d7f7b3          	and	a5,a5,a3
    3940:	1c078063          	beqz	a5,3b00 <__trunctfdf2+0x258>
    3944:	ffffc7b7          	lui	a5,0xffffc
    3948:	40078793          	addi	a5,a5,1024 # ffffc400 <CONFIG_SYSTEM_WORKQUEUE_PRIORITY+0xffffc401>
    394c:	00f70733          	add	a4,a4,a5
    3950:	7fe00793          	li	a5,2046
    3954:	20e7c263          	blt	a5,a4,3b58 <__trunctfdf2+0x2b0>
    3958:	06e05863          	blez	a4,39c8 <__trunctfdf2+0x120>
    395c:	01812503          	lw	a0,24(sp)
    3960:	01c12603          	lw	a2,28(sp)
    3964:	01412783          	lw	a5,20(sp)
    3968:	01c55693          	srli	a3,a0,0x1c
    396c:	00461613          	slli	a2,a2,0x4
    3970:	00d66633          	or	a2,a2,a3
    3974:	00479693          	slli	a3,a5,0x4
    3978:	00b6e6b3          	or	a3,a3,a1
    397c:	01c7d793          	srli	a5,a5,0x1c
    3980:	00451513          	slli	a0,a0,0x4
    3984:	00d036b3          	snez	a3,a3
    3988:	00a7e7b3          	or	a5,a5,a0
    398c:	00f6e6b3          	or	a3,a3,a5
    3990:	00c12a23          	sw	a2,20(sp)
    3994:	00d12823          	sw	a3,16(sp)
    3998:	01012683          	lw	a3,16(sp)
    399c:	01412783          	lw	a5,20(sp)
    39a0:	0076f613          	andi	a2,a3,7
    39a4:	1c060063          	beqz	a2,3b64 <__trunctfdf2+0x2bc>
    39a8:	00f6f613          	andi	a2,a3,15
    39ac:	00400593          	li	a1,4
    39b0:	1ab60a63          	beq	a2,a1,3b64 <__trunctfdf2+0x2bc>
    39b4:	00468613          	addi	a2,a3,4
    39b8:	00d636b3          	sltu	a3,a2,a3
    39bc:	00d787b3          	add	a5,a5,a3
    39c0:	00060693          	mv	a3,a2
    39c4:	1a00006f          	j	3b64 <__trunctfdf2+0x2bc>
    39c8:	fcc00793          	li	a5,-52
    39cc:	00f75c63          	bge	a4,a5,39e4 <__trunctfdf2+0x13c>
    39d0:	00012a23          	sw	zero,20(sp)
    39d4:	00100793          	li	a5,1
    39d8:	00f12823          	sw	a5,16(sp)
    39dc:	00000713          	li	a4,0
    39e0:	fb9ff06f          	j	3998 <__trunctfdf2+0xf0>
    39e4:	01c12783          	lw	a5,28(sp)
    39e8:	000808b7          	lui	a7,0x80
    39ec:	00050593          	mv	a1,a0
    39f0:	00f8e8b3          	or	a7,a7,a5
    39f4:	03d00793          	li	a5,61
    39f8:	40e78733          	sub	a4,a5,a4
    39fc:	01112e23          	sw	a7,28(sp)
    3a00:	40575793          	srai	a5,a4,0x5
    3a04:	00000693          	li	a3,0
    3a08:	00000493          	li	s1,0
    3a0c:	0005a803          	lw	a6,0(a1)
    3a10:	00168693          	addi	a3,a3,1
    3a14:	00458593          	addi	a1,a1,4
    3a18:	0104e4b3          	or	s1,s1,a6
    3a1c:	fed798e3          	bne	a5,a3,3a0c <__trunctfdf2+0x164>
    3a20:	01f77713          	andi	a4,a4,31
    3a24:	00279693          	slli	a3,a5,0x2
    3a28:	02071863          	bnez	a4,3a58 <__trunctfdf2+0x1b0>
    3a2c:	00300593          	li	a1,3
    3a30:	40f585b3          	sub	a1,a1,a5
    3a34:	00d60833          	add	a6,a2,a3
    3a38:	00082803          	lw	a6,0(a6)
    3a3c:	00170713          	addi	a4,a4,1
    3a40:	00460613          	addi	a2,a2,4
    3a44:	ff062e23          	sw	a6,-4(a2)
    3a48:	fee5d6e3          	bge	a1,a4,3a34 <__trunctfdf2+0x18c>
    3a4c:	00400713          	li	a4,4
    3a50:	40f707b3          	sub	a5,a4,a5
    3a54:	0580006f          	j	3aac <__trunctfdf2+0x204>
    3a58:	ffc00e13          	li	t3,-4
    3a5c:	03c78e33          	mul	t3,a5,t3
    3a60:	02010613          	addi	a2,sp,32
    3a64:	00d60633          	add	a2,a2,a3
    3a68:	ff062603          	lw	a2,-16(a2)
    3a6c:	02000813          	li	a6,32
    3a70:	40e80833          	sub	a6,a6,a4
    3a74:	01061633          	sll	a2,a2,a6
    3a78:	00c4e4b3          	or	s1,s1,a2
    3a7c:	00300613          	li	a2,3
    3a80:	00d506b3          	add	a3,a0,a3
    3a84:	00000313          	li	t1,0
    3a88:	40f60633          	sub	a2,a2,a5
    3a8c:	04c34663          	blt	t1,a2,3ad8 <__trunctfdf2+0x230>
    3a90:	00400693          	li	a3,4
    3a94:	40f687b3          	sub	a5,a3,a5
    3a98:	00261613          	slli	a2,a2,0x2
    3a9c:	02010693          	addi	a3,sp,32
    3aa0:	00c68633          	add	a2,a3,a2
    3aa4:	00e8d733          	srl	a4,a7,a4
    3aa8:	fee62823          	sw	a4,-16(a2)
    3aac:	00400613          	li	a2,4
    3ab0:	40f60633          	sub	a2,a2,a5
    3ab4:	00279793          	slli	a5,a5,0x2
    3ab8:	00f50533          	add	a0,a0,a5
    3abc:	00261613          	slli	a2,a2,0x2
    3ac0:	00000593          	li	a1,0
    3ac4:	a01ff0ef          	jal	ra,34c4 <memset>
    3ac8:	01012703          	lw	a4,16(sp)
    3acc:	009037b3          	snez	a5,s1
    3ad0:	00f767b3          	or	a5,a4,a5
    3ad4:	f05ff06f          	j	39d8 <__trunctfdf2+0x130>
    3ad8:	0006a583          	lw	a1,0(a3)
    3adc:	0046ae83          	lw	t4,4(a3)
    3ae0:	01c68f33          	add	t5,a3,t3
    3ae4:	00e5d5b3          	srl	a1,a1,a4
    3ae8:	010e9eb3          	sll	t4,t4,a6
    3aec:	01d5e5b3          	or	a1,a1,t4
    3af0:	00bf2023          	sw	a1,0(t5)
    3af4:	00130313          	addi	t1,t1,1
    3af8:	00468693          	addi	a3,a3,4
    3afc:	f91ff06f          	j	3a8c <__trunctfdf2+0x1e4>
    3b00:	01412603          	lw	a2,20(sp)
    3b04:	01812783          	lw	a5,24(sp)
    3b08:	01c12503          	lw	a0,28(sp)
    3b0c:	00c7e6b3          	or	a3,a5,a2
    3b10:	00a6e6b3          	or	a3,a3,a0
    3b14:	00b6e6b3          	or	a3,a3,a1
    3b18:	00071863          	bnez	a4,3b28 <__trunctfdf2+0x280>
    3b1c:	00d036b3          	snez	a3,a3
    3b20:	00000793          	li	a5,0
    3b24:	e7dff06f          	j	39a0 <__trunctfdf2+0xf8>
    3b28:	0c068663          	beqz	a3,3bf4 <__trunctfdf2+0x34c>
    3b2c:	01c65693          	srli	a3,a2,0x1c
    3b30:	00451513          	slli	a0,a0,0x4
    3b34:	00479613          	slli	a2,a5,0x4
    3b38:	01c7d793          	srli	a5,a5,0x1c
    3b3c:	00400737          	lui	a4,0x400
    3b40:	00c6e6b3          	or	a3,a3,a2
    3b44:	00a7e7b3          	or	a5,a5,a0
    3b48:	00e7e7b3          	or	a5,a5,a4
    3b4c:	ff86f693          	andi	a3,a3,-8
    3b50:	7ff00713          	li	a4,2047
    3b54:	e4dff06f          	j	39a0 <__trunctfdf2+0xf8>
    3b58:	00000793          	li	a5,0
    3b5c:	00000693          	li	a3,0
    3b60:	7ff00713          	li	a4,2047
    3b64:	00800637          	lui	a2,0x800
    3b68:	00c7f633          	and	a2,a5,a2
    3b6c:	00060e63          	beqz	a2,3b88 <__trunctfdf2+0x2e0>
    3b70:	00170713          	addi	a4,a4,1 # 400001 <__data_region_end+0x1fc7d1>
    3b74:	7ff00613          	li	a2,2047
    3b78:	08c70263          	beq	a4,a2,3bfc <__trunctfdf2+0x354>
    3b7c:	ff800637          	lui	a2,0xff800
    3b80:	fff60613          	addi	a2,a2,-1 # ff7fffff <CONFIG_SYSTEM_WORKQUEUE_PRIORITY+0xff800000>
    3b84:	00c7f7b3          	and	a5,a5,a2
    3b88:	01d79613          	slli	a2,a5,0x1d
    3b8c:	0036d693          	srli	a3,a3,0x3
    3b90:	00d666b3          	or	a3,a2,a3
    3b94:	7ff00613          	li	a2,2047
    3b98:	0037d793          	srli	a5,a5,0x3
    3b9c:	00c71e63          	bne	a4,a2,3bb8 <__trunctfdf2+0x310>
    3ba0:	00f6e6b3          	or	a3,a3,a5
    3ba4:	00000793          	li	a5,0
    3ba8:	00068863          	beqz	a3,3bb8 <__trunctfdf2+0x310>
    3bac:	000807b7          	lui	a5,0x80
    3bb0:	00000693          	li	a3,0
    3bb4:	00000413          	li	s0,0
    3bb8:	01471713          	slli	a4,a4,0x14
    3bbc:	7ff00637          	lui	a2,0x7ff00
    3bc0:	00c79793          	slli	a5,a5,0xc
    3bc4:	00c77733          	and	a4,a4,a2
    3bc8:	00c7d793          	srli	a5,a5,0xc
    3bcc:	01f41413          	slli	s0,s0,0x1f
    3bd0:	00f767b3          	or	a5,a4,a5
    3bd4:	02c12083          	lw	ra,44(sp)
    3bd8:	0087e733          	or	a4,a5,s0
    3bdc:	02812403          	lw	s0,40(sp)
    3be0:	02412483          	lw	s1,36(sp)
    3be4:	00068513          	mv	a0,a3
    3be8:	00070593          	mv	a1,a4
    3bec:	03010113          	addi	sp,sp,48
    3bf0:	00008067          	ret
    3bf4:	00000793          	li	a5,0
    3bf8:	f69ff06f          	j	3b60 <__trunctfdf2+0x2b8>
    3bfc:	00000793          	li	a5,0
    3c00:	00000693          	li	a3,0
    3c04:	f85ff06f          	j	3b88 <__trunctfdf2+0x2e0>

00003c08 <_OffsetAbsSyms>:
 * point regs
 */
GEN_ABSOLUTE_SYM(_K_THREAD_NO_FLOAT_SIZEOF,
		 STACK_ROUND_UP(sizeof(struct k_thread)));

GEN_ABS_SYM_END
    3c08:	00008067          	ret

00003c0c <my_isr>:
 * @brief gives the semaphore for accelerator thread to procede
 * 
 * @param arg 
 */
void my_isr(const void *arg) {
    *acceleratorIP_ISR = 0x1;
    3c0c:	002037b7          	lui	a5,0x203
    3c10:	7447a783          	lw	a5,1860(a5) # 203744 <acceleratorIP_ISR>
    3c14:	00100713          	li	a4,1
    3c18:	00e7a023          	sw	a4,0(a5)
		arch_syscall_invoke1(*(uintptr_t *)&sem, K_SYSCALL_K_SEM_GIVE);
		return;
	}
#endif
	compiler_barrier();
	z_impl_k_sem_give(sem);
    3c1c:	00204537          	lui	a0,0x204
    3c20:	82050513          	addi	a0,a0,-2016 # 203820 <accel_sem>
    3c24:	3440306f          	j	6f68 <z_impl_k_sem_give>

00003c28 <my_isr_installer>:
    *acceleratorGIER = 0x1;
    3c28:	002037b7          	lui	a5,0x203
    3c2c:	73c7a703          	lw	a4,1852(a5) # 20373c <acceleratorGIER>
    3c30:	00100793          	li	a5,1
    arch_irq_enable(ACCEL_IRQ);
    3c34:	00f00513          	li	a0,15
    *acceleratorGIER = 0x1;
    3c38:	00f72023          	sw	a5,0(a4)
    *acceleratorIP_IER = 0x1;
    3c3c:	00203737          	lui	a4,0x203
    3c40:	74072703          	lw	a4,1856(a4) # 203740 <acceleratorIP_IER>
    3c44:	00f72023          	sw	a5,0(a4)
    arch_irq_enable(ACCEL_IRQ);
    3c48:	1b00206f          	j	5df8 <arch_irq_enable>

00003c4c <dot>:
    volatile int *acceleratorIP_ISR = (int *)(ACCELERATOR_BASE_ADDRESS + 0x0c);

    /* disable accelerator interrupts */
    *acceleratorGIER = 0x0;

    if(cols1*cols2 > MAX_MATRIX_SIZE) {
    3c4c:	02f708b3          	mul	a7,a4,a5
{
    3c50:	fd010113          	addi	sp,sp,-48
    *acceleratorGIER = 0x0;
    3c54:	90000837          	lui	a6,0x90000
{
    3c58:	02112623          	sw	ra,44(sp)
    3c5c:	02812423          	sw	s0,40(sp)
    3c60:	02912223          	sw	s1,36(sp)
    3c64:	03212023          	sw	s2,32(sp)
    3c68:	01312e23          	sw	s3,28(sp)
    3c6c:	01412c23          	sw	s4,24(sp)
    3c70:	01512a23          	sw	s5,20(sp)
    3c74:	01612823          	sw	s6,16(sp)
    3c78:	01712623          	sw	s7,12(sp)
    3c7c:	01812423          	sw	s8,8(sp)
    *acceleratorGIER = 0x0;
    3c80:	00082223          	sw	zero,4(a6) # 90000004 <CONFIG_SYSTEM_WORKQUEUE_PRIORITY+0x90000005>
    if(cols1*cols2 > MAX_MATRIX_SIZE) {
    3c84:	40000813          	li	a6,1024
    3c88:	07185e63          	bge	a6,a7,3d04 <dot+0xb8>
    3c8c:	00050a13          	mv	s4,a0
    3c90:	00058993          	mv	s3,a1
    3c94:	00060a93          	mv	s5,a2
    3c98:	00068b13          	mv	s6,a3
    3c9c:	00070413          	mv	s0,a4
    3ca0:	00078493          	mv	s1,a5
    3ca4:	00279b93          	slli	s7,a5,0x2
        for(int i=0; i<cols2; i++) {
    3ca8:	00000913          	li	s2,0
            for(int j=0; j<cols1; j++)
                column[j] = mat2[j*cols2+i];
    3cac:	05000c37          	lui	s8,0x5000
        for(int i=0; i<cols2; i++) {
    3cb0:	04995c63          	bge	s2,s1,3d08 <dot+0xbc>
    3cb4:	00291613          	slli	a2,s2,0x2
    3cb8:	00c98733          	add	a4,s3,a2
            for(int j=0; j<cols1; j++)
    3cbc:	00000793          	li	a5,0
    3cc0:	01c0006f          	j	3cdc <dot+0x90>
                column[j] = mat2[j*cols2+i];
    3cc4:	00072583          	lw	a1,0(a4)
    3cc8:	00279693          	slli	a3,a5,0x2
    3ccc:	00dc06b3          	add	a3,s8,a3
    3cd0:	00b6a023          	sw	a1,0(a3)
            for(int j=0; j<cols1; j++)
    3cd4:	00178793          	addi	a5,a5,1
    3cd8:	01770733          	add	a4,a4,s7
    3cdc:	fe87c4e3          	blt	a5,s0,3cc4 <dot+0x78>
                
            multiply_mat_hw_pool(mat1Address, COLUMN_BASE_ADDRESS, resultAddress+i*sizeof(float), rows1, cols1, 1);
    3ce0:	00100793          	li	a5,1
    3ce4:	00040713          	mv	a4,s0
    3ce8:	000b0693          	mv	a3,s6
    3cec:	00ca8633          	add	a2,s5,a2
    3cf0:	050005b7          	lui	a1,0x5000
    3cf4:	000a0513          	mv	a0,s4
    3cf8:	24d000ef          	jal	ra,4744 <multiply_mat_hw_pool>
        for(int i=0; i<cols2; i++) {
    3cfc:	00190913          	addi	s2,s2,1
    3d00:	fb1ff06f          	j	3cb0 <dot+0x64>
        }
    }else
        multiply_mat_hw_pool(mat1Address, mat2Address, resultAddress, rows1, cols1, cols2);
    3d04:	241000ef          	jal	ra,4744 <multiply_mat_hw_pool>

    /* enable accelerator interrupts */
    *acceleratorIP_ISR = 0x1;
    *acceleratorGIER = 0x1;
}
    3d08:	02c12083          	lw	ra,44(sp)
    3d0c:	02812403          	lw	s0,40(sp)
    *acceleratorIP_ISR = 0x1;
    3d10:	900007b7          	lui	a5,0x90000
    3d14:	00100713          	li	a4,1
    3d18:	00e7a623          	sw	a4,12(a5) # 9000000c <CONFIG_SYSTEM_WORKQUEUE_PRIORITY+0x9000000d>
    *acceleratorGIER = 0x1;
    3d1c:	00e7a223          	sw	a4,4(a5)
}
    3d20:	02412483          	lw	s1,36(sp)
    3d24:	02012903          	lw	s2,32(sp)
    3d28:	01c12983          	lw	s3,28(sp)
    3d2c:	01812a03          	lw	s4,24(sp)
    3d30:	01412a83          	lw	s5,20(sp)
    3d34:	01012b03          	lw	s6,16(sp)
    3d38:	00c12b83          	lw	s7,12(sp)
    3d3c:	00812c03          	lw	s8,8(sp)
    3d40:	03010113          	addi	sp,sp,48
    3d44:	00008067          	ret

00003d48 <main>:
    printf("*** Starting NN UC 3 with %d threads ***\n\n", NUM_THREADS);
    3d48:	0000d537          	lui	a0,0xd
{
    3d4c:	f3010113          	addi	sp,sp,-208
    printf("*** Starting NN UC 3 with %d threads ***\n\n", NUM_THREADS);
    3d50:	00400593          	li	a1,4
    3d54:	49850513          	addi	a0,a0,1176 # d498 <__mprec_tens+0xc8>
{
    3d58:	0c112623          	sw	ra,204(sp)
    3d5c:	0c812423          	sw	s0,200(sp)
    3d60:	0c912223          	sw	s1,196(sp)
    3d64:	0d212023          	sw	s2,192(sp)
    3d68:	0b312e23          	sw	s3,188(sp)
    3d6c:	0b412c23          	sw	s4,184(sp)
    3d70:	0b512a23          	sw	s5,180(sp)
    3d74:	0b612823          	sw	s6,176(sp)
    3d78:	0b712623          	sw	s7,172(sp)
    3d7c:	0b812423          	sw	s8,168(sp)
    3d80:	0b912223          	sw	s9,164(sp)
    3d84:	0ba12023          	sw	s10,160(sp)
    3d88:	09b12e23          	sw	s11,156(sp)
    printf("*** Starting NN UC 3 with %d threads ***\n\n", NUM_THREADS);
    3d8c:	1e5050ef          	jal	ra,9770 <iprintf>
    printf("Installing ISR...\n");
    3d90:	0000d537          	lui	a0,0xd
    3d94:	4c450513          	addi	a0,a0,1220 # d4c4 <__mprec_tens+0xf4>
    3d98:	1d9050ef          	jal	ra,9770 <iprintf>
    my_isr_installer();
    3d9c:	e8dff0ef          	jal	ra,3c28 <my_isr_installer>
    printf("\nPerforming feed forward neural network using the hardware accelerator with pooling\n");
    3da0:	0000d537          	lui	a0,0xd
    3da4:	4d850513          	addi	a0,a0,1240 # d4d8 <__mprec_tens+0x108>
    3da8:	1c9050ef          	jal	ra,9770 <iprintf>
		}
	} else if (mul_ratio) {
		if (result32) {
			return ((uint32_t)t) * (to_hz / from_hz);
		} else {
			return t * ((uint64_t)to_hz / from_hz);
    3dac:	00a00a93          	li	s5,10
	return z_impl_k_uptime_ticks();
    3db0:	2a0040ef          	jal	ra,8050 <z_impl_k_uptime_ticks>
    3db4:	02aa8ab3          	mul	s5,s5,a0
    for(int i=0; i<DIGITS; i++) {
    3db8:	00203437          	lui	s0,0x203
        dot((int)digit, (int)&W1, A1_BASE_ADDRESS, 1, DIGIT_SIZE, W1_COLS);
    3dbc:	040004b7          	lui	s1,0x4000
    3dc0:	d7040413          	addi	s0,s0,-656 # 202d70 <digitsy>
    3dc4:	0007b937          	lui	s2,0x7b
    for(int i=0; i<DIGITS; i++) {
    3dc8:	00001a37          	lui	s4,0x1
        dot(A1_BASE_ADDRESS, (int)&W2, A2_BASE_ADDRESS, 1, W1_COLS, W2_COLS);
    3dcc:	20048b13          	addi	s6,s1,512 # 4000200 <CONFIG_SYS_CLOCK_HW_CYCLES_PER_SEC+0x1051180>
    3dd0:	d7090913          	addi	s2,s2,-656 # 7ad70 <digits>
    3dd4:	40040b93          	addi	s7,s0,1024
    int accuracy_pool=0;
    3dd8:	00000993          	li	s3,0
        dot((int)digit, (int)&W1, A1_BASE_ADDRESS, 1, DIGIT_SIZE, W1_COLS);
    3ddc:	00010c37          	lui	s8,0x10
        dot(A1_BASE_ADDRESS, (int)&W2, A2_BASE_ADDRESS, 1, W1_COLS, W2_COLS);
    3de0:	00072cb7          	lui	s9,0x72
        dot(A2_BASE_ADDRESS, (int)&W3, YHAT_BASE_ADDRESS, 1, W2_COLS, W3_COLS);
    3de4:	30048493          	addi	s1,s1,768
    3de8:	0007ad37          	lui	s10,0x7a
    for(int i=0; i<DIGITS; i++) {
    3dec:	c40a0a13          	addi	s4,s4,-960 # c40 <__adddf3+0xcc>
        dot((int)digit, (int)&W1, A1_BASE_ADDRESS, 1, DIGIT_SIZE, W1_COLS);
    3df0:	08000793          	li	a5,128
    3df4:	31000713          	li	a4,784
    3df8:	00100693          	li	a3,1
    3dfc:	04000637          	lui	a2,0x4000
    3e00:	370c0593          	addi	a1,s8,880 # 10370 <W1>
    3e04:	00090513          	mv	a0,s2
 */
int get_digit(int num, float **digit)
{
    *digit = &digits[num][0];
    
    return digitsy[num];
    3e08:	00042d83          	lw	s11,0(s0)
        dot((int)digit, (int)&W1, A1_BASE_ADDRESS, 1, DIGIT_SIZE, W1_COLS);
    3e0c:	e41ff0ef          	jal	ra,3c4c <dot>
        relu(a1, W1_COLS);
    3e10:	08000593          	li	a1,128
    3e14:	04000537          	lui	a0,0x4000
    3e18:	710000ef          	jal	ra,4528 <relu>
        dot(A1_BASE_ADDRESS, (int)&W2, A2_BASE_ADDRESS, 1, W1_COLS, W2_COLS);
    3e1c:	04000793          	li	a5,64
    3e20:	08000713          	li	a4,128
    3e24:	00100693          	li	a3,1
    3e28:	000b0613          	mv	a2,s6
    3e2c:	370c8593          	addi	a1,s9,880 # 72370 <W2>
    3e30:	04000537          	lui	a0,0x4000
    3e34:	e19ff0ef          	jal	ra,3c4c <dot>
        relu(a2, W2_COLS);
    3e38:	04000593          	li	a1,64
    3e3c:	000b0513          	mv	a0,s6
    3e40:	6e8000ef          	jal	ra,4528 <relu>
        dot(A2_BASE_ADDRESS, (int)&W3, YHAT_BASE_ADDRESS, 1, W2_COLS, W3_COLS);
    3e44:	00a00793          	li	a5,10
    3e48:	04000713          	li	a4,64
    3e4c:	00100693          	li	a3,1
    3e50:	00048613          	mv	a2,s1
    3e54:	370d0593          	addi	a1,s10,880 # 7a370 <W3>
    3e58:	000b0513          	mv	a0,s6
    3e5c:	df1ff0ef          	jal	ra,3c4c <dot>
        softmax(yhat, W3_COLS);
    3e60:	00a00593          	li	a1,10
    3e64:	00048513          	mv	a0,s1
    3e68:	720000ef          	jal	ra,4588 <softmax>
        prediction = get_prediction(yhat, 10);
    3e6c:	00a00593          	li	a1,10
    3e70:	00048513          	mv	a0,s1
    3e74:	045000ef          	jal	ra,46b8 <get_prediction>
        if(prediction == digity) accuracy_pool++;
    3e78:	01b51463          	bne	a0,s11,3e80 <main+0x138>
    3e7c:	00198993          	addi	s3,s3,1
    for(int i=0; i<DIGITS; i++) {
    3e80:	00440413          	addi	s0,s0,4
    3e84:	01490933          	add	s2,s2,s4
    3e88:	f77414e3          	bne	s0,s7,3df0 <main+0xa8>
    3e8c:	1c4040ef          	jal	ra,8050 <z_impl_k_uptime_ticks>
    3e90:	00a00593          	li	a1,10
    3e94:	02a585b3          	mul	a1,a1,a0
    printf("Accuracy: %f\n", (float)accuracy_pool/DIGITS);
    3e98:	0000db37          	lui	s6,0xd
    3e9c:	0000da37          	lui	s4,0xd
    3ea0:	0000e437          	lui	s0,0xe
    3ea4:	b7840413          	addi	s0,s0,-1160 # db78 <threads>
    3ea8:	0000e937          	lui	s2,0xe
    3eac:	f0890913          	addi	s2,s2,-248 # df08 <thread_ids>
    for(int i=0; i<NUM_THREADS+1; i++) {
    3eb0:	00000493          	li	s1,0
    3eb4:	fff00b93          	li	s7,-1
	return z_impl_k_thread_create(new_thread, stack, stack_size, entry, p1, p2, p3, prio, options, delay);
    3eb8:	20040c13          	addi	s8,s0,512
    printf("Execution time: %d ms\n", time_pool);
    3ebc:	415585b3          	sub	a1,a1,s5
    3ec0:	0000dab7          	lui	s5,0xd
    3ec4:	530a8513          	addi	a0,s5,1328 # d530 <__mprec_tens+0x160>
    3ec8:	0a9050ef          	jal	ra,9770 <iprintf>
    printf("Accuracy: %f\n", (float)accuracy_pool/DIGITS);
    3ecc:	00098513          	mv	a0,s3
    3ed0:	a68ff0ef          	jal	ra,3138 <__floatsisf>
    3ed4:	1b0b2583          	lw	a1,432(s6) # d1b0 <__device_handles_end+0xc4>
    3ed8:	0000e9b7          	lui	s3,0xe
    3edc:	f4098993          	addi	s3,s3,-192 # df40 <sched_spinlock>
    3ee0:	ae9fe0ef          	jal	ra,29c8 <__mulsf3>
    3ee4:	b5cff0ef          	jal	ra,3240 <__extendsfdf2>
    3ee8:	00050613          	mv	a2,a0
    3eec:	00058693          	mv	a3,a1
    3ef0:	548a0513          	addi	a0,s4,1352 # d548 <__mprec_tens+0x178>
    3ef4:	07d050ef          	jal	ra,9770 <iprintf>
    3ef8:	00004cb7          	lui	s9,0x4
    3efc:	01612e23          	sw	s6,28(sp)
    3f00:	0000fd37          	lui	s10,0xf
    3f04:	fff00b13          	li	s6,-1
            snprintk(tname, CONFIG_THREAD_MAX_NAME_LEN, "accelerator");
    3f08:	0000ddb7          	lui	s11,0xd
        if(i == NUM_THREADS) {
    3f0c:	00400793          	li	a5,4
    3f10:	10f49e63          	bne	s1,a5,402c <main+0x2e4>
    3f14:	40000613          	li	a2,1024
    3f18:	f40d0593          	addi	a1,s10,-192 # ef40 <sched_spinlock+0x1000>
    3f1c:	01612423          	sw	s6,8(sp)
    3f20:	01712623          	sw	s7,12(sp)
    3f24:	00912023          	sw	s1,0(sp)
    3f28:	00500893          	li	a7,5
    3f2c:	00000813          	li	a6,0
    3f30:	00000793          	li	a5,0
    3f34:	00400713          	li	a4,4
    3f38:	1d4c8693          	addi	a3,s9,468 # 41d4 <thread_accelerator>
    3f3c:	000c0513          	mv	a0,s8
    3f40:	169020ef          	jal	ra,68a8 <z_impl_k_thread_create>
            snprintk(tname, CONFIG_THREAD_MAX_NAME_LEN, "accelerator");
    3f44:	558d8613          	addi	a2,s11,1368 # d558 <__mprec_tens+0x188>
    3f48:	06400593          	li	a1,100
    3f4c:	02c10513          	addi	a0,sp,44
    3f50:	17d000ef          	jal	ra,48cc <snprintk>
	return z_impl_k_thread_name_set(thread, str);
    3f54:	02c10593          	addi	a1,sp,44
    3f58:	00040513          	mv	a0,s0
    3f5c:	0bd020ef          	jal	ra,6818 <z_impl_k_thread_name_set>
	z_impl_k_thread_start(thread);
    3f60:	00040513          	mv	a0,s0
    3f64:	0bd020ef          	jal	ra,6820 <z_impl_k_thread_start>
    for(int i=0; i<NUM_THREADS+1; i++) {
    3f68:	00148493          	addi	s1,s1,1
    3f6c:	00500793          	li	a5,5
    3f70:	08040413          	addi	s0,s0,128
    3f74:	40098993          	addi	s3,s3,1024
    3f78:	00490913          	addi	s2,s2,4
    3f7c:	f8f498e3          	bne	s1,a5,3f0c <main+0x1c4>
    printf("\nPerforming feed forward neural network using the hardware accelerator\n");
    3f80:	0000d537          	lui	a0,0xd
    3f84:	57050513          	addi	a0,a0,1392 # d570 <__mprec_tens+0x1a0>
    3f88:	7e8050ef          	jal	ra,9770 <iprintf>
	return z_impl_k_uptime_ticks();
    3f8c:	0c4040ef          	jal	ra,8050 <z_impl_k_uptime_ticks>
    3f90:	00050413          	mv	s0,a0
	return z_impl_z_current_get();
    3f94:	2e1030ef          	jal	ra,7a74 <z_impl_z_current_get>
	z_impl_k_thread_suspend(thread);
    3f98:	09d030ef          	jal	ra,7834 <z_impl_k_thread_suspend>
	return z_impl_k_uptime_ticks();
    3f9c:	0b4040ef          	jal	ra,8050 <z_impl_k_uptime_ticks>
    3fa0:	40850533          	sub	a0,a0,s0
    printf("Execution time: %d ms\n", time_hw);
    3fa4:	00a00593          	li	a1,10
    3fa8:	02b505b3          	mul	a1,a0,a1
    3fac:	530a8513          	addi	a0,s5,1328
    3fb0:	7c0050ef          	jal	ra,9770 <iprintf>
    printf("Accuracy: %f\n", (float)accuracy_hw/DIGITS);
    3fb4:	0000e7b7          	lui	a5,0xe
    3fb8:	b407a503          	lw	a0,-1216(a5) # db40 <accuracy_hw>
    3fbc:	97cff0ef          	jal	ra,3138 <__floatsisf>
    3fc0:	01c12783          	lw	a5,28(sp)
    3fc4:	1b07a583          	lw	a1,432(a5)
    3fc8:	a01fe0ef          	jal	ra,29c8 <__mulsf3>
    3fcc:	a74ff0ef          	jal	ra,3240 <__extendsfdf2>
    3fd0:	00050613          	mv	a2,a0
    3fd4:	00058693          	mv	a3,a1
    3fd8:	548a0513          	addi	a0,s4,1352
    3fdc:	794050ef          	jal	ra,9770 <iprintf>
    printf("\n*** Exiting NN UC 3 ***\n");
    3fe0:	0000d537          	lui	a0,0xd
    3fe4:	5b850513          	addi	a0,a0,1464 # d5b8 <__mprec_tens+0x1e8>
    3fe8:	788050ef          	jal	ra,9770 <iprintf>
}
    3fec:	0cc12083          	lw	ra,204(sp)
    3ff0:	0c812403          	lw	s0,200(sp)
    3ff4:	0c412483          	lw	s1,196(sp)
    3ff8:	0c012903          	lw	s2,192(sp)
    3ffc:	0bc12983          	lw	s3,188(sp)
    4000:	0b812a03          	lw	s4,184(sp)
    4004:	0b412a83          	lw	s5,180(sp)
    4008:	0b012b03          	lw	s6,176(sp)
    400c:	0ac12b83          	lw	s7,172(sp)
    4010:	0a812c03          	lw	s8,168(sp)
    4014:	0a412c83          	lw	s9,164(sp)
    4018:	0a012d03          	lw	s10,160(sp)
    401c:	09c12d83          	lw	s11,156(sp)
    4020:	00000513          	li	a0,0
    4024:	0d010113          	addi	sp,sp,208
    4028:	00008067          	ret
	return z_impl_z_current_get();
    402c:	249030ef          	jal	ra,7a74 <z_impl_z_current_get>
    4030:	00050713          	mv	a4,a0
	return z_impl_k_thread_create(new_thread, stack, stack_size, entry, p1, p2, p3, prio, options, delay);
    4034:	00400793          	li	a5,4
    4038:	000046b7          	lui	a3,0x4
    403c:	00f12023          	sw	a5,0(sp)
    4040:	00098593          	mv	a1,s3
    4044:	00048793          	mv	a5,s1
    4048:	01612423          	sw	s6,8(sp)
    404c:	01712623          	sw	s7,12(sp)
    4050:	00a00893          	li	a7,10
    4054:	00000813          	li	a6,0
    4058:	2e068693          	addi	a3,a3,736 # 42e0 <thread_software>
    405c:	40000613          	li	a2,1024
    4060:	00040513          	mv	a0,s0
    4064:	045020ef          	jal	ra,68a8 <z_impl_k_thread_create>
            snprintk(tname, CONFIG_THREAD_MAX_NAME_LEN, "thread %d", i);
    4068:	0000d7b7          	lui	a5,0xd
            thread_ids[i] = k_thread_create(&threads[i], &stacks[i][0], STACKSIZE,
    406c:	00a92023          	sw	a0,0(s2)
            snprintk(tname, CONFIG_THREAD_MAX_NAME_LEN, "thread %d", i);
    4070:	00048693          	mv	a3,s1
    4074:	56478613          	addi	a2,a5,1380 # d564 <__mprec_tens+0x194>
    4078:	06400593          	li	a1,100
    407c:	02c10513          	addi	a0,sp,44
    4080:	04d000ef          	jal	ra,48cc <snprintk>
    4084:	ed1ff06f          	j	3f54 <main+0x20c>

00004088 <dot_>:
    if(cols1*cols2 > MAX_MATRIX_SIZE) {
    4088:	02f70333          	mul	t1,a4,a5
{
    408c:	fd010113          	addi	sp,sp,-48
    4090:	02112623          	sw	ra,44(sp)
    4094:	02812423          	sw	s0,40(sp)
    4098:	02912223          	sw	s1,36(sp)
    409c:	03212023          	sw	s2,32(sp)
    40a0:	01312e23          	sw	s3,28(sp)
    40a4:	01412c23          	sw	s4,24(sp)
    40a8:	01512a23          	sw	s5,20(sp)
    40ac:	01612823          	sw	s6,16(sp)
    40b0:	01712623          	sw	s7,12(sp)
    40b4:	01812423          	sw	s8,8(sp)
    40b8:	01912223          	sw	s9,4(sp)
    if(cols1*cols2 > MAX_MATRIX_SIZE) {
    40bc:	40000893          	li	a7,1024
    40c0:	0868dc63          	bge	a7,t1,4158 <dot_+0xd0>
    float *column = (float *)COLUMN_BASE_ADDRESS+myId*MAX_MATRIX_SIZE*sizeof(float);
    40c4:	00e81813          	slli	a6,a6,0xe
    40c8:	050009b7          	lui	s3,0x5000
    40cc:	00050a93          	mv	s5,a0
    40d0:	00058a13          	mv	s4,a1
    40d4:	00060b13          	mv	s6,a2
    40d8:	00068b93          	mv	s7,a3
    40dc:	00070413          	mv	s0,a4
    40e0:	00078493          	mv	s1,a5
    40e4:	010989b3          	add	s3,s3,a6
    40e8:	00279c93          	slli	s9,a5,0x2
        for(int i=0; i<cols2; i++) {
    40ec:	00000913          	li	s2,0
	return z_impl_k_sem_take(sem, timeout);
    40f0:	00204c37          	lui	s8,0x204
    40f4:	0a995663          	bge	s2,s1,41a0 <dot_+0x118>
    40f8:	00291613          	slli	a2,s2,0x2
    40fc:	00ca0733          	add	a4,s4,a2
            for(int j=0; j<cols1; j++)
    4100:	00000793          	li	a5,0
    4104:	01c0006f          	j	4120 <dot_+0x98>
                column[j] = mat2[j*cols2+i];
    4108:	00072583          	lw	a1,0(a4)
    410c:	00279693          	slli	a3,a5,0x2
    4110:	00d986b3          	add	a3,s3,a3
    4114:	00b6a023          	sw	a1,0(a3)
            for(int j=0; j<cols1; j++)
    4118:	00178793          	addi	a5,a5,1
    411c:	01970733          	add	a4,a4,s9
    4120:	fe87c4e3          	blt	a5,s0,4108 <dot_+0x80>
            multiply_mat_hw(mat1Address, (int)column, resultAddress+i*sizeof(float), rows1, cols1, 1);
    4124:	00100793          	li	a5,1
    4128:	00040713          	mv	a4,s0
    412c:	000b8693          	mv	a3,s7
    4130:	00cb0633          	add	a2,s6,a2
    4134:	00098593          	mv	a1,s3
    4138:	000a8513          	mv	a0,s5
    413c:	640000ef          	jal	ra,477c <multiply_mat_hw>
    4140:	fff00593          	li	a1,-1
    4144:	fff00613          	li	a2,-1
    4148:	820c0513          	addi	a0,s8,-2016 # 203820 <accel_sem>
    414c:	689020ef          	jal	ra,6fd4 <z_impl_k_sem_take>
        for(int i=0; i<cols2; i++) {
    4150:	00190913          	addi	s2,s2,1
    4154:	fa1ff06f          	j	40f4 <dot_+0x6c>
        multiply_mat_hw(mat1Address, mat2Address, resultAddress, rows1, cols1, cols2);
    4158:	624000ef          	jal	ra,477c <multiply_mat_hw>
}
    415c:	02812403          	lw	s0,40(sp)
    4160:	02c12083          	lw	ra,44(sp)
    4164:	02412483          	lw	s1,36(sp)
    4168:	02012903          	lw	s2,32(sp)
    416c:	01c12983          	lw	s3,28(sp)
    4170:	01812a03          	lw	s4,24(sp)
    4174:	01412a83          	lw	s5,20(sp)
    4178:	01012b03          	lw	s6,16(sp)
    417c:	00c12b83          	lw	s7,12(sp)
    4180:	00812c03          	lw	s8,8(sp)
    4184:	00412c83          	lw	s9,4(sp)
    4188:	00204537          	lui	a0,0x204
    418c:	fff00593          	li	a1,-1
    4190:	fff00613          	li	a2,-1
    4194:	82050513          	addi	a0,a0,-2016 # 203820 <accel_sem>
    4198:	03010113          	addi	sp,sp,48
    419c:	6390206f          	j	6fd4 <z_impl_k_sem_take>
    41a0:	02c12083          	lw	ra,44(sp)
    41a4:	02812403          	lw	s0,40(sp)
    41a8:	02412483          	lw	s1,36(sp)
    41ac:	02012903          	lw	s2,32(sp)
    41b0:	01c12983          	lw	s3,28(sp)
    41b4:	01812a03          	lw	s4,24(sp)
    41b8:	01412a83          	lw	s5,20(sp)
    41bc:	01012b03          	lw	s6,16(sp)
    41c0:	00c12b83          	lw	s7,12(sp)
    41c4:	00812c03          	lw	s8,8(sp)
    41c8:	00412c83          	lw	s9,4(sp)
    41cc:	03010113          	addi	sp,sp,48
    41d0:	00008067          	ret

000041d4 <thread_accelerator>:
{
    41d4:	fd010113          	addi	sp,sp,-48
    41d8:	02812423          	sw	s0,40(sp)
    41dc:	02912223          	sw	s1,36(sp)
    41e0:	02112623          	sw	ra,44(sp)
		/* coverity[OVERRUN] */
		return (int) arch_syscall_invoke4(*(uintptr_t *)&msgq, *(uintptr_t *)&data, parm0.split.lo, parm0.split.hi, K_SYSCALL_K_MSGQ_GET);
	}
#endif
	compiler_barrier();
	return z_impl_k_msgq_get(msgq, data, timeout);
    41e4:	00203437          	lui	s0,0x203
	return z_impl_k_msgq_put(msgq, data, timeout);
    41e8:	002034b7          	lui	s1,0x203
	return z_impl_k_msgq_get(msgq, data, timeout);
    41ec:	fff00613          	li	a2,-1
    41f0:	fff00693          	li	a3,-1
    41f4:	00410593          	addi	a1,sp,4
    41f8:	7d040513          	addi	a0,s0,2000 # 2037d0 <accel_msgq>
    41fc:	17d020ef          	jal	ra,6b78 <z_impl_k_msgq_get>
        dot_(msg.mat1_address, msg.mat2_address, msg.result_address, msg.rows1, msg.cols1, msg.cols2, msg.sender_id);
    4200:	00412803          	lw	a6,4(sp)
    4204:	01812783          	lw	a5,24(sp)
    4208:	01012703          	lw	a4,16(sp)
    420c:	00c12683          	lw	a3,12(sp)
    4210:	01c12603          	lw	a2,28(sp)
    4214:	01412583          	lw	a1,20(sp)
    4218:	00812503          	lw	a0,8(sp)
    421c:	e6dff0ef          	jal	ra,4088 <dot_>
	return z_impl_k_msgq_put(msgq, data, timeout);
    4220:	00000613          	li	a2,0
    4224:	00000693          	li	a3,0
    4228:	00410593          	addi	a1,sp,4
    422c:	7f848513          	addi	a0,s1,2040 # 2037f8 <reply_msgq>
    4230:	031020ef          	jal	ra,6a60 <z_impl_k_msgq_put>
        while (k_msgq_put(&reply_msgq, &msg, K_NO_WAIT) != 0)
    4234:	fa050ce3          	beqz	a0,41ec <thread_accelerator+0x18>
	z_impl_k_yield();
    4238:	764030ef          	jal	ra,799c <z_impl_k_yield>
}
    423c:	fe5ff06f          	j	4220 <thread_accelerator+0x4c>

00004240 <send_msg>:
 * @param rows1 
 * @param cols1 
 * @param cols2 
 */
void send_msg(int id, int resultAddress, int mat1Address, int mat2Address, int rows1, int cols1, int cols2)
{
    4240:	fd010113          	addi	sp,sp,-48
    4244:	02812423          	sw	s0,40(sp)
    4248:	02912223          	sw	s1,36(sp)
    424c:	02112623          	sw	ra,44(sp)
    4250:	00050413          	mv	s0,a0
    struct message msg;

    msg.sender_id = id;
    4254:	00a12223          	sw	a0,4(sp)
    msg.result_address = resultAddress;
    4258:	00b12e23          	sw	a1,28(sp)
    msg.mat1_address = mat1Address;
    425c:	00c12423          	sw	a2,8(sp)
    msg.mat2_address = mat2Address;
    4260:	00d12a23          	sw	a3,20(sp)
    msg.rows1 = rows1;
    4264:	00e12623          	sw	a4,12(sp)
    msg.cols1 = cols1;
    4268:	00f12823          	sw	a5,16(sp)
    msg.cols2 = cols2;
    426c:	01012c23          	sw	a6,24(sp)
	return z_impl_k_msgq_put(msgq, data, timeout);
    4270:	002034b7          	lui	s1,0x203
    4274:	00000613          	li	a2,0
    4278:	00000693          	li	a3,0
    427c:	00410593          	addi	a1,sp,4
    4280:	7d048513          	addi	a0,s1,2000 # 2037d0 <accel_msgq>
    4284:	7dc020ef          	jal	ra,6a60 <z_impl_k_msgq_put>

    while (k_msgq_put(&accel_msgq, &msg, K_NO_WAIT) != 0) {
    4288:	04051463          	bnez	a0,42d0 <send_msg+0x90>
		/* coverity[OVERRUN] */
		return (int) arch_syscall_invoke2(*(uintptr_t *)&msgq, *(uintptr_t *)&data, K_SYSCALL_K_MSGQ_PEEK);
	}
#endif
	compiler_barrier();
	return z_impl_k_msgq_peek(msgq, data);
    428c:	002034b7          	lui	s1,0x203
    4290:	00410593          	addi	a1,sp,4
    4294:	7f848513          	addi	a0,s1,2040 # 2037f8 <reply_msgq>
    4298:	22d020ef          	jal	ra,6cc4 <z_impl_k_msgq_peek>
        k_yield();
    }
    // printf("Thread %d sent message to central thread!\n", id);
    while (k_msgq_peek(&reply_msgq, &msg) != 0 || msg.sender_id != id) {
    429c:	02051e63          	bnez	a0,42d8 <send_msg+0x98>
    42a0:	00412783          	lw	a5,4(sp)
    42a4:	02879a63          	bne	a5,s0,42d8 <send_msg+0x98>
	return z_impl_k_msgq_get(msgq, data, timeout);
    42a8:	fff00613          	li	a2,-1
    42ac:	00410593          	addi	a1,sp,4
    42b0:	7f848513          	addi	a0,s1,2040
    42b4:	fff00693          	li	a3,-1
    42b8:	0c1020ef          	jal	ra,6b78 <z_impl_k_msgq_get>
        k_yield();
    }
    k_msgq_get(&reply_msgq, &msg, K_FOREVER);
    // printf("Thread %d received a reply: %d!\n", id, msg.sender_id);
}
    42bc:	02c12083          	lw	ra,44(sp)
    42c0:	02812403          	lw	s0,40(sp)
    42c4:	02412483          	lw	s1,36(sp)
    42c8:	03010113          	addi	sp,sp,48
    42cc:	00008067          	ret
	z_impl_k_yield();
    42d0:	6cc030ef          	jal	ra,799c <z_impl_k_yield>
}
    42d4:	fa1ff06f          	j	4274 <send_msg+0x34>
	z_impl_k_yield();
    42d8:	6c4030ef          	jal	ra,799c <z_impl_k_yield>
}
    42dc:	fb5ff06f          	j	4290 <send_msg+0x50>

000042e0 <thread_software>:
{
    42e0:	fb010113          	addi	sp,sp,-80
    42e4:	04912223          	sw	s1,68(sp)
    int my_a1_address = A1_BASE_ADDRESS+myId*addressOffset;
    42e8:	32800493          	li	s1,808
    42ec:	029584b3          	mul	s1,a1,s1
{
    42f0:	04812423          	sw	s0,72(sp)
    42f4:	00001437          	lui	s0,0x1
    42f8:	c4040413          	addi	s0,s0,-960 # c40 <__adddf3+0xcc>
    42fc:	05212023          	sw	s2,64(sp)
    completed[myId] = 0;
    4300:	0000e937          	lui	s2,0xe
{
    4304:	03612823          	sw	s6,48(sp)
    completed[myId] = 0;
    4308:	ef890793          	addi	a5,s2,-264 # def8 <completed>
    430c:	00259b13          	slli	s6,a1,0x2
{
    4310:	03312e23          	sw	s3,60(sp)
    4314:	02858433          	mul	s0,a1,s0
    4318:	03412c23          	sw	s4,56(sp)
    431c:	03512a23          	sw	s5,52(sp)
    4320:	03712623          	sw	s7,44(sp)
    4324:	03812423          	sw	s8,40(sp)
    4328:	03912223          	sw	s9,36(sp)
    432c:	03a12023          	sw	s10,32(sp)
    4330:	01b12e23          	sw	s11,28(sp)
    completed[myId] = 0;
    4334:	016787b3          	add	a5,a5,s6
{
    4338:	04112623          	sw	ra,76(sp)
    completed[myId] = 0;
    433c:	0007a023          	sw	zero,0(a5)
    int my_a1_address = A1_BASE_ADDRESS+myId*addressOffset;
    4340:	040007b7          	lui	a5,0x4000
    4344:	00f48c33          	add	s8,s1,a5
    int my_a2_address = A2_BASE_ADDRESS+myId*addressOffset;
    4348:	20078b93          	addi	s7,a5,512 # 4000200 <CONFIG_SYS_CLOCK_HW_CYCLES_PER_SEC+0x1051180>
    int my_yhat_address = YHAT_BASE_ADDRESS+myId*addressOffset;
    434c:	30078793          	addi	a5,a5,768
    int my_a2_address = A2_BASE_ADDRESS+myId*addressOffset;
    4350:	01748bb3          	add	s7,s1,s7
    4354:	00203ab7          	lui	s5,0x203
    int my_yhat_address = YHAT_BASE_ADDRESS+myId*addressOffset;
    4358:	00f484b3          	add	s1,s1,a5
    435c:	0007b7b7          	lui	a5,0x7b
    4360:	d70a8a93          	addi	s5,s5,-656 # 202d70 <digitsy>
    4364:	d7078793          	addi	a5,a5,-656 # 7ad70 <digits>
{
    4368:	00050993          	mv	s3,a0
    436c:	00058a13          	mv	s4,a1
    4370:	015b0ab3          	add	s5,s6,s5
    4374:	00f40433          	add	s0,s0,a5
    for(int i=0; i<DIGITS/NUM_THREADS; i++) {
    4378:	00000c93          	li	s9,0
    437c:	ef890913          	addi	s2,s2,-264
        send_msg(myId, my_a1_address, (int)digit, (int)&W1, 1, DIGIT_SIZE, W1_COLS);
    4380:	00010337          	lui	t1,0x10
        send_msg(myId, my_a2_address, my_a1_address, (int)&W2, 1, W1_COLS, W2_COLS);
    4384:	00072d37          	lui	s10,0x72
        send_msg(myId, my_yhat_address, my_a2_address, (int)&W3, 1, W2_COLS, W3_COLS);
    4388:	0007adb7          	lui	s11,0x7a
    return digitsy[num];
    438c:	000aae83          	lw	t4,0(s5)
        send_msg(myId, my_a1_address, (int)digit, (int)&W1, 1, DIGIT_SIZE, W1_COLS);
    4390:	37030693          	addi	a3,t1,880 # 10370 <W1>
    4394:	08000813          	li	a6,128
    4398:	31000793          	li	a5,784
    439c:	00100713          	li	a4,1
    43a0:	00040613          	mv	a2,s0
    43a4:	000c0593          	mv	a1,s8
    43a8:	000a0513          	mv	a0,s4
    return digitsy[num];
    43ac:	01d12623          	sw	t4,12(sp)
        send_msg(myId, my_a1_address, (int)digit, (int)&W1, 1, DIGIT_SIZE, W1_COLS);
    43b0:	e91ff0ef          	jal	ra,4240 <send_msg>
        relu(a1, W1_COLS);
    43b4:	08000593          	li	a1,128
    43b8:	000c0513          	mv	a0,s8
    43bc:	16c000ef          	jal	ra,4528 <relu>
        send_msg(myId, my_a2_address, my_a1_address, (int)&W2, 1, W1_COLS, W2_COLS);
    43c0:	04000813          	li	a6,64
    43c4:	08000793          	li	a5,128
    43c8:	00100713          	li	a4,1
    43cc:	370d0693          	addi	a3,s10,880 # 72370 <W2>
    43d0:	000c0613          	mv	a2,s8
    43d4:	000b8593          	mv	a1,s7
    43d8:	000a0513          	mv	a0,s4
    43dc:	e65ff0ef          	jal	ra,4240 <send_msg>
        relu(a2, W2_COLS);
    43e0:	04000593          	li	a1,64
    43e4:	000b8513          	mv	a0,s7
    43e8:	140000ef          	jal	ra,4528 <relu>
        send_msg(myId, my_yhat_address, my_a2_address, (int)&W3, 1, W2_COLS, W3_COLS);
    43ec:	04000793          	li	a5,64
    43f0:	00a00813          	li	a6,10
    43f4:	00100713          	li	a4,1
    43f8:	370d8693          	addi	a3,s11,880 # 7a370 <W3>
    43fc:	000b8613          	mv	a2,s7
    4400:	00048593          	mv	a1,s1
    4404:	000a0513          	mv	a0,s4
    4408:	e39ff0ef          	jal	ra,4240 <send_msg>
        softmax(yhat, W3_COLS);
    440c:	00a00593          	li	a1,10
    4410:	00048513          	mv	a0,s1
    4414:	174000ef          	jal	ra,4588 <softmax>
        prediction = get_prediction(yhat, 10);
    4418:	00a00593          	li	a1,10
    441c:	00048513          	mv	a0,s1
    4420:	298000ef          	jal	ra,46b8 <get_prediction>
        if(prediction == digity) accuracy_hw++;
    4424:	00c12e83          	lw	t4,12(sp)
    4428:	000037b7          	lui	a5,0x3
    442c:	00010337          	lui	t1,0x10
    4430:	10078893          	addi	a7,a5,256 # 3100 <__subsf3+0x434>
    4434:	0000ee37          	lui	t3,0xe
    4438:	01d51a63          	bne	a0,t4,444c <thread_software+0x16c>
    443c:	b40e0713          	addi	a4,t3,-1216 # db40 <accuracy_hw>
    4440:	00072783          	lw	a5,0(a4)
    4444:	00178793          	addi	a5,a5,1
    4448:	00f72023          	sw	a5,0(a4)
    for(int i=0; i<DIGITS/NUM_THREADS; i++) {
    444c:	001c8c93          	addi	s9,s9,1
    4450:	04000793          	li	a5,64
    4454:	010a8a93          	addi	s5,s5,16
    4458:	01140433          	add	s0,s0,a7
    445c:	f2fc98e3          	bne	s9,a5,438c <thread_software+0xac>
    completed[myId] = 1;
    4460:	016907b3          	add	a5,s2,s6
    4464:	00100713          	li	a4,1
    4468:	00e7a023          	sw	a4,0(a5)
	return z_impl_k_mutex_lock(mutex, timeout);
    446c:	002034b7          	lui	s1,0x203
    4470:	fff00593          	li	a1,-1
    4474:	fff00613          	li	a2,-1
    4478:	7bc48513          	addi	a0,s1,1980 # 2037bc <completed_mutex>
    447c:	0c5020ef          	jal	ra,6d40 <z_impl_k_mutex_lock>
        totalCompleted += completed[i];
    4480:	00492783          	lw	a5,4(s2)
    4484:	00092403          	lw	s0,0(s2)
    4488:	00f40433          	add	s0,s0,a5
    448c:	00892783          	lw	a5,8(s2)
    4490:	00f40433          	add	s0,s0,a5
    4494:	00c92783          	lw	a5,12(s2)
    4498:	00f40433          	add	s0,s0,a5
	return z_impl_k_mutex_unlock(mutex);
    449c:	7bc48513          	addi	a0,s1,1980
    44a0:	201020ef          	jal	ra,6ea0 <z_impl_k_mutex_unlock>
    if(totalCompleted == NUM_THREADS)
    44a4:	00400793          	li	a5,4
    44a8:	04f41263          	bne	s0,a5,44ec <thread_software+0x20c>
}
    44ac:	04812403          	lw	s0,72(sp)
    44b0:	04c12083          	lw	ra,76(sp)
    44b4:	04412483          	lw	s1,68(sp)
    44b8:	04012903          	lw	s2,64(sp)
    44bc:	03812a03          	lw	s4,56(sp)
    44c0:	03412a83          	lw	s5,52(sp)
    44c4:	03012b03          	lw	s6,48(sp)
    44c8:	02c12b83          	lw	s7,44(sp)
    44cc:	02812c03          	lw	s8,40(sp)
    44d0:	02412c83          	lw	s9,36(sp)
    44d4:	02012d03          	lw	s10,32(sp)
    44d8:	01c12d83          	lw	s11,28(sp)
	z_impl_k_thread_resume(thread);
    44dc:	00098513          	mv	a0,s3
    44e0:	03c12983          	lw	s3,60(sp)
    44e4:	05010113          	addi	sp,sp,80
    44e8:	0080306f          	j	74f0 <z_impl_k_thread_resume>
    44ec:	04c12083          	lw	ra,76(sp)
    44f0:	04812403          	lw	s0,72(sp)
    44f4:	04412483          	lw	s1,68(sp)
    44f8:	04012903          	lw	s2,64(sp)
    44fc:	03c12983          	lw	s3,60(sp)
    4500:	03812a03          	lw	s4,56(sp)
    4504:	03412a83          	lw	s5,52(sp)
    4508:	03012b03          	lw	s6,48(sp)
    450c:	02c12b83          	lw	s7,44(sp)
    4510:	02812c03          	lw	s8,40(sp)
    4514:	02412c83          	lw	s9,36(sp)
    4518:	02012d03          	lw	s10,32(sp)
    451c:	01c12d83          	lw	s11,28(sp)
    4520:	05010113          	addi	sp,sp,80
    4524:	00008067          	ret

00004528 <relu>:
#include "nn.h"

void relu(float *m, int size)
{
    4528:	ff010113          	addi	sp,sp,-16
    452c:	00812423          	sw	s0,8(sp)
    4530:	00912223          	sw	s1,4(sp)
    4534:	01212023          	sw	s2,0(sp)
    4538:	00112623          	sw	ra,12(sp)
    453c:	00058493          	mv	s1,a1
    4540:	00050413          	mv	s0,a0
    for (int i=0; i<size; i++) {
    4544:	00000913          	li	s2,0
    4548:	00994e63          	blt	s2,s1,4564 <relu+0x3c>
        if (m[i] < 0) {
            m[i] = 0;
        }
    }
}
    454c:	00c12083          	lw	ra,12(sp)
    4550:	00812403          	lw	s0,8(sp)
    4554:	00412483          	lw	s1,4(sp)
    4558:	00012903          	lw	s2,0(sp)
    455c:	01010113          	addi	sp,sp,16
    4560:	00008067          	ret
        if (m[i] < 0) {
    4564:	00042503          	lw	a0,0(s0)
    4568:	00000593          	li	a1,0
    456c:	ba8fe0ef          	jal	ra,2914 <__lesf2>
    4570:	00055663          	bgez	a0,457c <relu+0x54>
            m[i] = 0;
    4574:	00000793          	li	a5,0
    4578:	00f42023          	sw	a5,0(s0)
    for (int i=0; i<size; i++) {
    457c:	00190913          	addi	s2,s2,1
    4580:	00440413          	addi	s0,s0,4
    4584:	fc5ff06f          	j	4548 <relu+0x20>

00004588 <softmax>:

void softmax(float *m, int size)
{
    4588:	fe010113          	addi	sp,sp,-32
    458c:	00812c23          	sw	s0,24(sp)
    4590:	00912a23          	sw	s1,20(sp)
    4594:	01212823          	sw	s2,16(sp)
    4598:	01312623          	sw	s3,12(sp)
    459c:	00112e23          	sw	ra,28(sp)
    45a0:	01412423          	sw	s4,8(sp)
    45a4:	01512223          	sw	s5,4(sp)
    45a8:	01612023          	sw	s6,0(sp)
    45ac:	00050413          	mv	s0,a0
    45b0:	00058493          	mv	s1,a1
    float max = 0;
    for (int i = 0; i<size; i++) {
    45b4:	00000913          	li	s2,0
    float max = 0;
    45b8:	00000993          	li	s3,0
    for (int i = 0; i<size; i++) {
    45bc:	04994063          	blt	s2,s1,45fc <softmax+0x74>
            max = m[i];
        }
    }

    float sum = 0;
    for (int i=0; i<size; i++) {
    45c0:	00000a13          	li	s4,0
    float sum = 0;
    45c4:	00000913          	li	s2,0
    for (int i=0; i<size; i++) {
    45c8:	049a4e63          	blt	s4,s1,4624 <softmax+0x9c>
        sum += exp(m[i]-max);
    }

    for (int i=0; i<size; i++) {
    45cc:	00000a13          	li	s4,0
    45d0:	089a4e63          	blt	s4,s1,466c <softmax+0xe4>
        m[i] = exp(m[i]-max)/sum;
    }
}
    45d4:	01c12083          	lw	ra,28(sp)
    45d8:	01812403          	lw	s0,24(sp)
    45dc:	01412483          	lw	s1,20(sp)
    45e0:	01012903          	lw	s2,16(sp)
    45e4:	00c12983          	lw	s3,12(sp)
    45e8:	00812a03          	lw	s4,8(sp)
    45ec:	00412a83          	lw	s5,4(sp)
    45f0:	00012b03          	lw	s6,0(sp)
    45f4:	02010113          	addi	sp,sp,32
    45f8:	00008067          	ret
        if (m[i] > max) {
    45fc:	00291793          	slli	a5,s2,0x2
    4600:	00f407b3          	add	a5,s0,a5
    4604:	0007aa03          	lw	s4,0(a5)
    4608:	00098593          	mv	a1,s3
    460c:	000a0513          	mv	a0,s4
    4610:	a50fe0ef          	jal	ra,2860 <__gesf2>
    4614:	00a05463          	blez	a0,461c <softmax+0x94>
            max = m[i];
    4618:	000a0993          	mv	s3,s4
    for (int i = 0; i<size; i++) {
    461c:	00190913          	addi	s2,s2,1
    4620:	f9dff06f          	j	45bc <softmax+0x34>
        sum += exp(m[i]-max);
    4624:	002a1793          	slli	a5,s4,0x2
    4628:	00f407b3          	add	a5,s0,a5
    462c:	0007a503          	lw	a0,0(a5)
    4630:	00098593          	mv	a1,s3
    for (int i=0; i<size; i++) {
    4634:	001a0a13          	addi	s4,s4,1
        sum += exp(m[i]-max);
    4638:	e94fe0ef          	jal	ra,2ccc <__subsf3>
    463c:	c05fe0ef          	jal	ra,3240 <__extendsfdf2>
    4640:	295030ef          	jal	ra,80d4 <exp>
    4644:	00050b13          	mv	s6,a0
    4648:	00090513          	mv	a0,s2
    464c:	00058a93          	mv	s5,a1
    4650:	bf1fe0ef          	jal	ra,3240 <__extendsfdf2>
    4654:	000b0613          	mv	a2,s6
    4658:	000a8693          	mv	a3,s5
    465c:	d18fc0ef          	jal	ra,b74 <__adddf3>
    4660:	cbdfe0ef          	jal	ra,331c <__truncdfsf2>
    4664:	00050913          	mv	s2,a0
    for (int i=0; i<size; i++) {
    4668:	f61ff06f          	j	45c8 <softmax+0x40>
        m[i] = exp(m[i]-max)/sum;
    466c:	00042503          	lw	a0,0(s0)
    4670:	00098593          	mv	a1,s3
    for (int i=0; i<size; i++) {
    4674:	001a0a13          	addi	s4,s4,1
        m[i] = exp(m[i]-max)/sum;
    4678:	e54fe0ef          	jal	ra,2ccc <__subsf3>
    467c:	bc5fe0ef          	jal	ra,3240 <__extendsfdf2>
    4680:	255030ef          	jal	ra,80d4 <exp>
    4684:	00050b13          	mv	s6,a0
    4688:	00090513          	mv	a0,s2
    468c:	00058a93          	mv	s5,a1
    4690:	bb1fe0ef          	jal	ra,3240 <__extendsfdf2>
    4694:	00050613          	mv	a2,a0
    4698:	00058693          	mv	a3,a1
    469c:	000b0513          	mv	a0,s6
    46a0:	000a8593          	mv	a1,s5
    46a4:	ca9fc0ef          	jal	ra,134c <__divdf3>
    46a8:	c75fe0ef          	jal	ra,331c <__truncdfsf2>
    46ac:	00a42023          	sw	a0,0(s0)
    for (int i=0; i<size; i++) {
    46b0:	00440413          	addi	s0,s0,4
    46b4:	f1dff06f          	j	45d0 <softmax+0x48>

000046b8 <get_prediction>:

int get_prediction(float yhat[DIGITS], int size)
{
    46b8:	fe010113          	addi	sp,sp,-32
    46bc:	00812c23          	sw	s0,24(sp)
    46c0:	00912a23          	sw	s1,20(sp)
    46c4:	01212823          	sw	s2,16(sp)
    46c8:	01312623          	sw	s3,12(sp)
    46cc:	01412423          	sw	s4,8(sp)
    46d0:	00112e23          	sw	ra,28(sp)
    46d4:	01512223          	sw	s5,4(sp)
    46d8:	00050913          	mv	s2,a0
    46dc:	00058493          	mv	s1,a1
    int prediction = 0;
    float max = 0;
    for (int i=0; i<size; i++) {
    46e0:	00000413          	li	s0,0
    float max = 0;
    46e4:	00000a13          	li	s4,0
    int prediction = 0;
    46e8:	00000993          	li	s3,0
    for (int i=0; i<size; i++) {
    46ec:	02944663          	blt	s0,s1,4718 <get_prediction+0x60>
            prediction = i;
        }
    }

    return prediction;
    46f0:	01c12083          	lw	ra,28(sp)
    46f4:	01812403          	lw	s0,24(sp)
    46f8:	01412483          	lw	s1,20(sp)
    46fc:	01012903          	lw	s2,16(sp)
    4700:	00812a03          	lw	s4,8(sp)
    4704:	00412a83          	lw	s5,4(sp)
    4708:	00098513          	mv	a0,s3
    470c:	00c12983          	lw	s3,12(sp)
    4710:	02010113          	addi	sp,sp,32
    4714:	00008067          	ret
        if (yhat[i] > max) {
    4718:	00241793          	slli	a5,s0,0x2
    471c:	00f907b3          	add	a5,s2,a5
    4720:	0007aa83          	lw	s5,0(a5)
    4724:	000a0593          	mv	a1,s4
    4728:	000a8513          	mv	a0,s5
    472c:	934fe0ef          	jal	ra,2860 <__gesf2>
    4730:	00a05663          	blez	a0,473c <get_prediction+0x84>
            max = yhat[i];
    4734:	000a8a13          	mv	s4,s5
        if (yhat[i] > max) {
    4738:	00040993          	mv	s3,s0
    for (int i=0; i<size; i++) {
    473c:	00140413          	addi	s0,s0,1
    4740:	fadff06f          	j	46ec <get_prediction+0x34>

00004744 <multiply_mat_hw_pool>:
	volatile int *c = (int *)(ACCELERATOR_BASE_ADDRESS + 0x20);
	volatile int *rowsA = (int *)(ACCELERATOR_BASE_ADDRESS + 0x28);
	volatile int *colsA = (int *)(ACCELERATOR_BASE_ADDRESS + 0x30);
	volatile int *colsB = (int *)(ACCELERATOR_BASE_ADDRESS + 0x38);

    *a = mat1Address;
    4744:	90000837          	lui	a6,0x90000
    4748:	00a82823          	sw	a0,16(a6) # 90000010 <CONFIG_SYSTEM_WORKQUEUE_PRIORITY+0x90000011>
    *b = mat2Address;
    474c:	00b82c23          	sw	a1,24(a6)
    *c = resultAddress;
    4750:	02c82023          	sw	a2,32(a6)
    *rowsA = rows1;
    4754:	02d82423          	sw	a3,40(a6)
    *colsA = cols1;
    4758:	02e82823          	sw	a4,48(a6)
    *colsB = cols2;
    475c:	02f82c23          	sw	a5,56(a6)

    *do_matp_mem = 1;
    4760:	00100793          	li	a5,1
    4764:	00f82023          	sw	a5,0(a6)

    while ((*do_matp_mem & 4) == 0);
    4768:	90000737          	lui	a4,0x90000
    476c:	00072783          	lw	a5,0(a4) # 90000000 <CONFIG_SYSTEM_WORKQUEUE_PRIORITY+0x90000001>
    4770:	0047f793          	andi	a5,a5,4
    4774:	fe078ce3          	beqz	a5,476c <multiply_mat_hw_pool+0x28>
}
    4778:	00008067          	ret

0000477c <multiply_mat_hw>:
	volatile int *c = (int *)(ACCELERATOR_BASE_ADDRESS + 0x20);
	volatile int *rowsA = (int *)(ACCELERATOR_BASE_ADDRESS + 0x28);
	volatile int *colsA = (int *)(ACCELERATOR_BASE_ADDRESS + 0x30);
	volatile int *colsB = (int *)(ACCELERATOR_BASE_ADDRESS + 0x38);

    *a = mat1Address;
    477c:	90000837          	lui	a6,0x90000
    4780:	00a82823          	sw	a0,16(a6) # 90000010 <CONFIG_SYSTEM_WORKQUEUE_PRIORITY+0x90000011>
    *b = mat2Address;
    4784:	00b82c23          	sw	a1,24(a6)
    *c = resultAddress;
    4788:	02c82023          	sw	a2,32(a6)
    *rowsA = rows1;
    478c:	02d82423          	sw	a3,40(a6)
    *colsA = cols1;
    4790:	02e82823          	sw	a4,48(a6)
    *colsB = cols2;
    4794:	02f82c23          	sw	a5,56(a6)

    *do_matp_mem = 1;
    4798:	00100793          	li	a5,1
    479c:	00f82023          	sw	a5,0(a6)
    47a0:	00008067          	ret

000047a4 <arch_printk_char_out>:
{
	ARG_UNUSED(c);

	/* do nothing */
	return 0;
}
    47a4:	00000513          	li	a0,0
    47a8:	00008067          	ret

000047ac <char_out>:

static int char_out(int c, void *ctx_p)
{
	struct out_context *ctx = ctx_p;

	ctx->count++;
    47ac:	0005a783          	lw	a5,0(a1) # 5000000 <CONFIG_SYS_CLOCK_HW_CYCLES_PER_SEC+0x2050f80>
    47b0:	00178793          	addi	a5,a5,1
    47b4:	00f5a023          	sw	a5,0(a1)
	return _char_out(c);
    47b8:	002037b7          	lui	a5,0x203
    47bc:	7487a783          	lw	a5,1864(a5) # 203748 <_char_out>
    47c0:	00078067          	jr	a5

000047c4 <str_out>:
	int count;
};

static int str_out(int c, struct str_context *ctx)
{
	if (ctx->str == NULL || ctx->count >= ctx->max) {
    47c4:	0085a703          	lw	a4,8(a1)
    47c8:	0005a783          	lw	a5,0(a1)
		ctx->count++;
		return c;
	}

	if (ctx->count == ctx->max - 1) {
		ctx->str[ctx->count++] = '\0';
    47cc:	00170613          	addi	a2,a4,1
	if (ctx->str == NULL || ctx->count >= ctx->max) {
    47d0:	00078663          	beqz	a5,47dc <str_out+0x18>
    47d4:	0045a683          	lw	a3,4(a1)
    47d8:	00d74663          	blt	a4,a3,47e4 <str_out+0x20>
		ctx->count++;
    47dc:	00c5a423          	sw	a2,8(a1)
		return c;
    47e0:	00008067          	ret
	if (ctx->count == ctx->max - 1) {
    47e4:	fff68693          	addi	a3,a3,-1
		ctx->str[ctx->count++] = '\0';
    47e8:	00c5a423          	sw	a2,8(a1)
    47ec:	00e787b3          	add	a5,a5,a4
	if (ctx->count == ctx->max - 1) {
    47f0:	00e69663          	bne	a3,a4,47fc <str_out+0x38>
		ctx->str[ctx->count++] = '\0';
    47f4:	00078023          	sb	zero,0(a5)
    47f8:	00008067          	ret
	} else {
		ctx->str[ctx->count++] = c;
    47fc:	00a78023          	sb	a0,0(a5)
	}

	return c;
}
    4800:	00008067          	ret

00004804 <__printk_hook_install>:
	_char_out = fn;
    4804:	002037b7          	lui	a5,0x203
    4808:	74a7a423          	sw	a0,1864(a5) # 203748 <_char_out>
}
    480c:	00008067          	ret

00004810 <vprintk>:
{
    4810:	fe010113          	addi	sp,sp,-32
    4814:	00050613          	mv	a2,a0
		cbvprintf(char_out, &ctx, fmt, ap);
    4818:	00004537          	lui	a0,0x4
{
    481c:	00058693          	mv	a3,a1
		cbvprintf(char_out, &ctx, fmt, ap);
    4820:	7ac50513          	addi	a0,a0,1964 # 47ac <char_out>
    4824:	00c10593          	addi	a1,sp,12
{
    4828:	00112e23          	sw	ra,28(sp)
		struct out_context ctx = { 0 };
    482c:	00012623          	sw	zero,12(sp)
		cbvprintf(char_out, &ctx, fmt, ap);
    4830:	6a8000ef          	jal	ra,4ed8 <cbvprintf>
}
    4834:	01c12083          	lw	ra,28(sp)
    4838:	02010113          	addi	sp,sp,32
    483c:	00008067          	ret

00004840 <printk>:
{
    4840:	fc010113          	addi	sp,sp,-64
    4844:	02b12223          	sw	a1,36(sp)
	va_start(ap, fmt);
    4848:	02410593          	addi	a1,sp,36
{
    484c:	00112e23          	sw	ra,28(sp)
    4850:	02c12423          	sw	a2,40(sp)
    4854:	02d12623          	sw	a3,44(sp)
    4858:	02e12823          	sw	a4,48(sp)
    485c:	02f12a23          	sw	a5,52(sp)
    4860:	03012c23          	sw	a6,56(sp)
    4864:	03112e23          	sw	a7,60(sp)
	va_start(ap, fmt);
    4868:	00b12623          	sw	a1,12(sp)
	vprintk(fmt, ap);
    486c:	fa5ff0ef          	jal	ra,4810 <vprintk>
}
    4870:	01c12083          	lw	ra,28(sp)
    4874:	04010113          	addi	sp,sp,64
    4878:	00008067          	ret

0000487c <vsnprintk>:

	return ret;
}

int vsnprintk(char *str, size_t size, const char *fmt, va_list ap)
{
    487c:	fe010113          	addi	sp,sp,-32
    4880:	00812c23          	sw	s0,24(sp)
	struct str_context ctx = { str, size, 0 };
    4884:	00a12223          	sw	a0,4(sp)
{
    4888:	00050413          	mv	s0,a0

	cbvprintf(str_out, &ctx, fmt, ap);
    488c:	00004537          	lui	a0,0x4
	struct str_context ctx = { str, size, 0 };
    4890:	00b12423          	sw	a1,8(sp)
	cbvprintf(str_out, &ctx, fmt, ap);
    4894:	7c450513          	addi	a0,a0,1988 # 47c4 <str_out>
    4898:	00410593          	addi	a1,sp,4
{
    489c:	00112e23          	sw	ra,28(sp)
	struct str_context ctx = { str, size, 0 };
    48a0:	00012623          	sw	zero,12(sp)
	cbvprintf(str_out, &ctx, fmt, ap);
    48a4:	634000ef          	jal	ra,4ed8 <cbvprintf>

	if (ctx.count < ctx.max) {
    48a8:	00c12503          	lw	a0,12(sp)
    48ac:	00812783          	lw	a5,8(sp)
    48b0:	00f55663          	bge	a0,a5,48bc <vsnprintk+0x40>
		str[ctx.count] = '\0';
    48b4:	00a40433          	add	s0,s0,a0
    48b8:	00040023          	sb	zero,0(s0)
	}

	return ctx.count;
}
    48bc:	01c12083          	lw	ra,28(sp)
    48c0:	01812403          	lw	s0,24(sp)
    48c4:	02010113          	addi	sp,sp,32
    48c8:	00008067          	ret

000048cc <snprintk>:
{
    48cc:	fc010113          	addi	sp,sp,-64
    48d0:	02d12623          	sw	a3,44(sp)
	va_start(ap, fmt);
    48d4:	02c10693          	addi	a3,sp,44
{
    48d8:	00112e23          	sw	ra,28(sp)
    48dc:	02e12823          	sw	a4,48(sp)
    48e0:	02f12a23          	sw	a5,52(sp)
    48e4:	03012c23          	sw	a6,56(sp)
    48e8:	03112e23          	sw	a7,60(sp)
	va_start(ap, fmt);
    48ec:	00d12623          	sw	a3,12(sp)
	ret = vsnprintk(str, size, fmt, ap);
    48f0:	f8dff0ef          	jal	ra,487c <vsnprintk>
}
    48f4:	01c12083          	lw	ra,28(sp)
    48f8:	04010113          	addi	sp,sp,64
    48fc:	00008067          	ret

00004900 <z_thread_entry>:
 * This routine does not return, and is marked as such so the compiler won't
 * generate preamble code that is only used by functions that actually return.
 */
FUNC_NORETURN void z_thread_entry(k_thread_entry_t entry,
				 void *p1, void *p2, void *p3)
{
    4900:	ff010113          	addi	sp,sp,-16
    4904:	00050793          	mv	a5,a0
    4908:	00058513          	mv	a0,a1
    490c:	00060593          	mv	a1,a2
#ifdef CONFIG_THREAD_LOCAL_STORAGE
	z_tls_current = z_current_get();
#endif
	entry(p1, p2, p3);
    4910:	00068613          	mv	a2,a3
{
    4914:	00112623          	sw	ra,12(sp)
	entry(p1, p2, p3);
    4918:	000780e7          	jalr	a5
	return z_impl_z_current_get();
    491c:	158030ef          	jal	ra,7a74 <z_impl_z_current_get>
	z_impl_k_thread_abort(thread);
    4920:	254030ef          	jal	ra,7b74 <z_impl_k_thread_abort>

00004924 <chunk_field>:
				    enum chunk_fields f)
{
	chunk_unit_t *buf = chunk_buf(h);
	void *cmem = &buf[c];

	if (big_heap(h)) {
    4924:	00852703          	lw	a4,8(a0)
	void *cmem = &buf[c];
    4928:	00359593          	slli	a1,a1,0x3
	if (big_heap(h)) {
    492c:	000087b7          	lui	a5,0x8
	void *cmem = &buf[c];
    4930:	00b505b3          	add	a1,a0,a1
	if (big_heap(h)) {
    4934:	00f76a63          	bltu	a4,a5,4948 <chunk_field+0x24>
		return ((uint32_t *)cmem)[f];
    4938:	00261613          	slli	a2,a2,0x2
    493c:	00c585b3          	add	a1,a1,a2
    4940:	0005a503          	lw	a0,0(a1)
    4944:	00008067          	ret
	} else {
		return ((uint16_t *)cmem)[f];
    4948:	00161613          	slli	a2,a2,0x1
    494c:	00c585b3          	add	a1,a1,a2
    4950:	0005d503          	lhu	a0,0(a1)
	}
}
    4954:	00008067          	ret

00004958 <chunk_set>:
	CHECK(c <= h->end_chunk);

	chunk_unit_t *buf = chunk_buf(h);
	void *cmem = &buf[c];

	if (big_heap(h)) {
    4958:	00852703          	lw	a4,8(a0)
	void *cmem = &buf[c];
    495c:	00359593          	slli	a1,a1,0x3
	if (big_heap(h)) {
    4960:	000087b7          	lui	a5,0x8
	void *cmem = &buf[c];
    4964:	00b505b3          	add	a1,a0,a1
	if (big_heap(h)) {
    4968:	00f76a63          	bltu	a4,a5,497c <chunk_set+0x24>
		CHECK(val == (uint32_t)val);
		((uint32_t *)cmem)[f] = val;
    496c:	00261613          	slli	a2,a2,0x2
    4970:	00c585b3          	add	a1,a1,a2
    4974:	00d5a023          	sw	a3,0(a1)
    4978:	00008067          	ret
	} else {
		CHECK(val == (uint16_t)val);
		((uint16_t *)cmem)[f] = val;
    497c:	00161613          	slli	a2,a2,0x1
    4980:	00c585b3          	add	a1,a1,a2
    4984:	00d59023          	sh	a3,0(a1)
	}
}
    4988:	00008067          	ret

0000498c <chunk_size>:
{
	return chunk_field(h, c, SIZE_AND_USED) & 1U;
}

static inline chunksz_t chunk_size(struct z_heap *h, chunkid_t c)
{
    498c:	ff010113          	addi	sp,sp,-16
	return chunk_field(h, c, SIZE_AND_USED) >> 1;
    4990:	00100613          	li	a2,1
{
    4994:	00112623          	sw	ra,12(sp)
	return chunk_field(h, c, SIZE_AND_USED) >> 1;
    4998:	f8dff0ef          	jal	ra,4924 <chunk_field>
}
    499c:	00c12083          	lw	ra,12(sp)
    49a0:	00155513          	srli	a0,a0,0x1
    49a4:	01010113          	addi	sp,sp,16
    49a8:	00008067          	ret

000049ac <set_chunk_used>:
static inline void set_chunk_used(struct z_heap *h, chunkid_t c, bool used)
{
	chunk_unit_t *buf = chunk_buf(h);
	void *cmem = &buf[c];

	if (big_heap(h)) {
    49ac:	00852703          	lw	a4,8(a0)
	void *cmem = &buf[c];
    49b0:	00359593          	slli	a1,a1,0x3
	if (big_heap(h)) {
    49b4:	000087b7          	lui	a5,0x8
	void *cmem = &buf[c];
    49b8:	00b505b3          	add	a1,a0,a1
	if (big_heap(h)) {
    49bc:	02f76063          	bltu	a4,a5,49dc <set_chunk_used+0x30>
		if (used) {
			((uint32_t *)cmem)[SIZE_AND_USED] |= 1U;
    49c0:	0045a783          	lw	a5,4(a1)
		if (used) {
    49c4:	00060863          	beqz	a2,49d4 <set_chunk_used+0x28>
			((uint32_t *)cmem)[SIZE_AND_USED] |= 1U;
    49c8:	0017e793          	ori	a5,a5,1
		} else {
			((uint32_t *)cmem)[SIZE_AND_USED] &= ~1U;
    49cc:	00f5a223          	sw	a5,4(a1)
    49d0:	00008067          	ret
    49d4:	ffe7f793          	andi	a5,a5,-2
    49d8:	ff5ff06f          	j	49cc <set_chunk_used+0x20>
		}
	} else {
		if (used) {
			((uint16_t *)cmem)[SIZE_AND_USED] |= 1U;
    49dc:	0025d783          	lhu	a5,2(a1)
		if (used) {
    49e0:	00060863          	beqz	a2,49f0 <set_chunk_used+0x44>
			((uint16_t *)cmem)[SIZE_AND_USED] |= 1U;
    49e4:	0017e793          	ori	a5,a5,1
		} else {
			((uint16_t *)cmem)[SIZE_AND_USED] &= ~1U;
    49e8:	00f59123          	sh	a5,2(a1)
		}
	}
}
    49ec:	00008067          	ret
			((uint16_t *)cmem)[SIZE_AND_USED] &= ~1U;
    49f0:	ffe7f793          	andi	a5,a5,-2
    49f4:	ff5ff06f          	j	49e8 <set_chunk_used+0x3c>

000049f8 <set_chunk_size>:
 * when its size is modified, and potential set_chunk_used() is always
 * invoked after set_chunk_size().
 */
static inline void set_chunk_size(struct z_heap *h, chunkid_t c, chunksz_t size)
{
	chunk_set(h, c, SIZE_AND_USED, size << 1);
    49f8:	00161693          	slli	a3,a2,0x1
    49fc:	00100613          	li	a2,1
    4a00:	f59ff06f          	j	4958 <chunk_set>

00004a04 <bucket_idx.isra.0>:
static inline size_t chunksz_to_bytes(struct z_heap *h, chunksz_t chunksz_in)
{
	return chunksz_in * CHUNK_UNIT - chunk_header_bytes(h);
}

static inline int bucket_idx(struct z_heap *h, chunksz_t sz)
    4a04:	ff010113          	addi	sp,sp,-16
    4a08:	00112623          	sw	ra,12(sp)
	return big_heap(h) ? 8 : 4;
    4a0c:	000087b7          	lui	a5,0x8
    4a10:	02f57863          	bgeu	a0,a5,4a40 <bucket_idx.isra.0+0x3c>
    4a14:	00400793          	li	a5,4
	return (bytes + CHUNK_UNIT - 1U) / CHUNK_UNIT;
    4a18:	00878793          	addi	a5,a5,8 # 8008 <sys_clock_tick_get+0x8>
    4a1c:	0037d793          	srli	a5,a5,0x3
{
	unsigned int usable_sz = sz - min_chunk_size(h) + 1;
    4a20:	00158593          	addi	a1,a1,1
	return 31 - __builtin_clz(usable_sz);
    4a24:	40f58533          	sub	a0,a1,a5
    4a28:	8c9fb0ef          	jal	ra,2f0 <__clzsi2>
}
    4a2c:	00c12083          	lw	ra,12(sp)
    4a30:	01f00793          	li	a5,31
    4a34:	40a78533          	sub	a0,a5,a0
    4a38:	01010113          	addi	sp,sp,16
    4a3c:	00008067          	ret
	return big_heap(h) ? 8 : 4;
    4a40:	00800793          	li	a5,8
    4a44:	fd5ff06f          	j	4a18 <bucket_idx.isra.0+0x14>

00004a48 <free_list_add>:
		set_prev_free_chunk(h, second, c);
	}
}

static void free_list_add(struct z_heap *h, chunkid_t c)
{
    4a48:	fe010113          	addi	sp,sp,-32
    4a4c:	01212823          	sw	s2,16(sp)
	return big_heap_chunks(h->end_chunk);
    4a50:	00852903          	lw	s2,8(a0)
    4a54:	00812c23          	sw	s0,24(sp)
    4a58:	00912a23          	sw	s1,20(sp)
    4a5c:	00112e23          	sw	ra,28(sp)
    4a60:	00058493          	mv	s1,a1
    4a64:	01312623          	sw	s3,12(sp)
    4a68:	00050413          	mv	s0,a0
	return big_heap(h) && chunk_size(h, c) == 1U;
    4a6c:	f21ff0ef          	jal	ra,498c <chunk_size>
    4a70:	000087b7          	lui	a5,0x8
    4a74:	00050593          	mv	a1,a0
    4a78:	00f96663          	bltu	s2,a5,4a84 <free_list_add+0x3c>
	if (!solo_free_header(h, c)) {
    4a7c:	00100793          	li	a5,1
    4a80:	0cf50a63          	beq	a0,a5,4b54 <free_list_add+0x10c>
		int bidx = bucket_idx(h, chunk_size(h, c));
    4a84:	00090513          	mv	a0,s2
    4a88:	f7dff0ef          	jal	ra,4a04 <bucket_idx.isra.0>
	if (b->next == 0U) {
    4a8c:	00251793          	slli	a5,a0,0x2
    4a90:	00f407b3          	add	a5,s0,a5
    4a94:	0107a903          	lw	s2,16(a5) # 8010 <sys_clock_tick_get+0x10>
    4a98:	04091e63          	bnez	s2,4af4 <free_list_add+0xac>
		h->avail_buckets |= (1 << bidx);
    4a9c:	00100713          	li	a4,1
    4aa0:	00a71733          	sll	a4,a4,a0
    4aa4:	00c42503          	lw	a0,12(s0)
	chunk_set(h, c, FREE_PREV, prev);
    4aa8:	00048693          	mv	a3,s1
    4aac:	00200613          	li	a2,2
    4ab0:	00e56533          	or	a0,a0,a4
    4ab4:	00a42623          	sw	a0,12(s0)
    4ab8:	00048593          	mv	a1,s1
		b->next = c;
    4abc:	0097a823          	sw	s1,16(a5)
    4ac0:	00040513          	mv	a0,s0
    4ac4:	e95ff0ef          	jal	ra,4958 <chunk_set>
	chunk_set(h, c, FREE_NEXT, next);
    4ac8:	00048693          	mv	a3,s1
    4acc:	00300613          	li	a2,3
    4ad0:	00048593          	mv	a1,s1
	chunk_set(h, c, FREE_PREV, prev);
    4ad4:	00040513          	mv	a0,s0
		free_list_add_bidx(h, c, bidx);
	}
}
    4ad8:	01812403          	lw	s0,24(sp)
    4adc:	01c12083          	lw	ra,28(sp)
    4ae0:	01412483          	lw	s1,20(sp)
    4ae4:	01012903          	lw	s2,16(sp)
    4ae8:	00c12983          	lw	s3,12(sp)
    4aec:	02010113          	addi	sp,sp,32
    4af0:	e69ff06f          	j	4958 <chunk_set>
	return chunk_field(h, c, FREE_PREV);
    4af4:	00200613          	li	a2,2
    4af8:	00090593          	mv	a1,s2
    4afc:	00040513          	mv	a0,s0
    4b00:	e25ff0ef          	jal	ra,4924 <chunk_field>
	chunk_set(h, c, FREE_PREV, prev);
    4b04:	00050693          	mv	a3,a0
	return chunk_field(h, c, FREE_PREV);
    4b08:	00050993          	mv	s3,a0
	chunk_set(h, c, FREE_PREV, prev);
    4b0c:	00200613          	li	a2,2
    4b10:	00048593          	mv	a1,s1
    4b14:	00040513          	mv	a0,s0
    4b18:	e41ff0ef          	jal	ra,4958 <chunk_set>
	chunk_set(h, c, FREE_NEXT, next);
    4b1c:	00090693          	mv	a3,s2
    4b20:	00300613          	li	a2,3
    4b24:	00048593          	mv	a1,s1
    4b28:	00040513          	mv	a0,s0
    4b2c:	e2dff0ef          	jal	ra,4958 <chunk_set>
    4b30:	00048693          	mv	a3,s1
    4b34:	00300613          	li	a2,3
    4b38:	00098593          	mv	a1,s3
    4b3c:	00040513          	mv	a0,s0
    4b40:	e19ff0ef          	jal	ra,4958 <chunk_set>
	chunk_set(h, c, FREE_PREV, prev);
    4b44:	00048693          	mv	a3,s1
    4b48:	00200613          	li	a2,2
    4b4c:	00090593          	mv	a1,s2
    4b50:	f85ff06f          	j	4ad4 <free_list_add+0x8c>
    4b54:	01c12083          	lw	ra,28(sp)
    4b58:	01812403          	lw	s0,24(sp)
    4b5c:	01412483          	lw	s1,20(sp)
    4b60:	01012903          	lw	s2,16(sp)
    4b64:	00c12983          	lw	s3,12(sp)
    4b68:	02010113          	addi	sp,sp,32
    4b6c:	00008067          	ret

00004b70 <sys_heap_init>:
	}
	return ptr2;
}

void sys_heap_init(struct sys_heap *heap, void *mem, size_t bytes)
{
    4b70:	fe010113          	addi	sp,sp,-32
    4b74:	00812c23          	sw	s0,24(sp)
    4b78:	00112e23          	sw	ra,28(sp)
    4b7c:	00912a23          	sw	s1,20(sp)
    4b80:	01212823          	sw	s2,16(sp)
    4b84:	01312623          	sw	s3,12(sp)
	return big_heap_bytes(size) ? 8 : 4;
    4b88:	000407b7          	lui	a5,0x40
    4b8c:	00400413          	li	s0,4
    4b90:	00f66463          	bltu	a2,a5,4b98 <sys_heap_init+0x28>
    4b94:	00800413          	li	s0,8
	/* Must fit in a 31 bit count of HUNK_UNIT */
	__ASSERT(bytes / CHUNK_UNIT <= 0x7fffffffU, "heap size is too big");

	/* Reserve the end marker chunk's header */
	__ASSERT(bytes > heap_footer_bytes(bytes), "heap size is too small");
	bytes -= heap_footer_bytes(bytes);
    4b98:	40860433          	sub	s0,a2,s0

	/* Round the start up, the end down */
	uintptr_t addr = ROUND_UP(mem, CHUNK_UNIT);
    4b9c:	00758493          	addi	s1,a1,7
	uintptr_t end = ROUND_DOWN((uint8_t *)mem + bytes, CHUNK_UNIT);
    4ba0:	00858433          	add	s0,a1,s0
	uintptr_t addr = ROUND_UP(mem, CHUNK_UNIT);
    4ba4:	ff84f493          	andi	s1,s1,-8
	uintptr_t end = ROUND_DOWN((uint8_t *)mem + bytes, CHUNK_UNIT);
    4ba8:	ff847413          	andi	s0,s0,-8
	chunksz_t heap_sz = (end - addr) / CHUNK_UNIT;
    4bac:	40940433          	sub	s0,s0,s1

	CHECK(end > addr);
	__ASSERT(heap_sz > chunksz(sizeof(struct z_heap)), "heap size is too small");

	struct z_heap *h = (struct z_heap *)addr;
	heap->heap = h;
    4bb0:	00952023          	sw	s1,0(a0)
	chunksz_t heap_sz = (end - addr) / CHUNK_UNIT;
    4bb4:	00345413          	srli	s0,s0,0x3
	h->end_chunk = heap_sz;
    4bb8:	0084a423          	sw	s0,8(s1)
	h->avail_buckets = 0;
    4bbc:	0004a623          	sw	zero,12(s1)

	int nb_buckets = bucket_idx(h, heap_sz) + 1;
    4bc0:	00040593          	mv	a1,s0
    4bc4:	00040513          	mv	a0,s0
    4bc8:	e3dff0ef          	jal	ra,4a04 <bucket_idx.isra.0>
	chunksz_t chunk0_size = chunksz(sizeof(struct z_heap) +
    4bcc:	00251913          	slli	s2,a0,0x2
	return (bytes + CHUNK_UNIT - 1U) / CHUNK_UNIT;
    4bd0:	01b90913          	addi	s2,s2,27
	int nb_buckets = bucket_idx(h, heap_sz) + 1;
    4bd4:	00150693          	addi	a3,a0,1
    4bd8:	00395913          	srli	s2,s2,0x3
				     nb_buckets * sizeof(struct z_heap_bucket));

	__ASSERT(chunk0_size + min_chunk_size(h) <= heap_sz, "heap size is too small");

	for (int i = 0; i < nb_buckets; i++) {
    4bdc:	01048713          	addi	a4,s1,16
    4be0:	00000793          	li	a5,0
    4be4:	0ad7cc63          	blt	a5,a3,4c9c <sys_heap_init+0x12c>
		h->buckets[i].next = 0;
	}

	/* chunk containing our struct z_heap */
	set_chunk_size(h, 0, chunk0_size);
    4be8:	00090613          	mv	a2,s2
    4bec:	00048513          	mv	a0,s1
    4bf0:	00000593          	li	a1,0
    4bf4:	e05ff0ef          	jal	ra,49f8 <set_chunk_size>
	chunk_set(h, c, LEFT_SIZE, size);
    4bf8:	00000693          	li	a3,0
    4bfc:	00048513          	mv	a0,s1
    4c00:	00000613          	li	a2,0
    4c04:	00000593          	li	a1,0
    4c08:	d51ff0ef          	jal	ra,4958 <chunk_set>
	set_left_chunk_size(h, 0, 0);
	set_chunk_used(h, 0, true);
    4c0c:	00048513          	mv	a0,s1
    4c10:	00100613          	li	a2,1
    4c14:	00000593          	li	a1,0
    4c18:	d95ff0ef          	jal	ra,49ac <set_chunk_used>

	/* chunk containing the free heap */
	set_chunk_size(h, chunk0_size, heap_sz - chunk0_size);
    4c1c:	412409b3          	sub	s3,s0,s2
    4c20:	00098613          	mv	a2,s3
    4c24:	00090593          	mv	a1,s2
    4c28:	00048513          	mv	a0,s1
    4c2c:	dcdff0ef          	jal	ra,49f8 <set_chunk_size>
    4c30:	00090693          	mv	a3,s2
    4c34:	00090593          	mv	a1,s2
    4c38:	00048513          	mv	a0,s1
    4c3c:	00000613          	li	a2,0
    4c40:	d19ff0ef          	jal	ra,4958 <chunk_set>
	set_left_chunk_size(h, chunk0_size, chunk0_size);

	/* the end marker chunk */
	set_chunk_size(h, heap_sz, 0);
    4c44:	00040593          	mv	a1,s0
    4c48:	00048513          	mv	a0,s1
    4c4c:	00000613          	li	a2,0
    4c50:	da9ff0ef          	jal	ra,49f8 <set_chunk_size>
    4c54:	00098693          	mv	a3,s3
    4c58:	00040593          	mv	a1,s0
    4c5c:	00048513          	mv	a0,s1
    4c60:	00000613          	li	a2,0
    4c64:	cf5ff0ef          	jal	ra,4958 <chunk_set>
	set_left_chunk_size(h, heap_sz, heap_sz - chunk0_size);
	set_chunk_used(h, heap_sz, true);
    4c68:	00040593          	mv	a1,s0
    4c6c:	00048513          	mv	a0,s1
    4c70:	00100613          	li	a2,1
    4c74:	d39ff0ef          	jal	ra,49ac <set_chunk_used>

	free_list_add(h, chunk0_size);
}
    4c78:	01812403          	lw	s0,24(sp)
    4c7c:	01c12083          	lw	ra,28(sp)
    4c80:	00c12983          	lw	s3,12(sp)
	free_list_add(h, chunk0_size);
    4c84:	00090593          	mv	a1,s2
    4c88:	00048513          	mv	a0,s1
}
    4c8c:	01012903          	lw	s2,16(sp)
    4c90:	01412483          	lw	s1,20(sp)
    4c94:	02010113          	addi	sp,sp,32
	free_list_add(h, chunk0_size);
    4c98:	db1ff06f          	j	4a48 <free_list_add>
		h->buckets[i].next = 0;
    4c9c:	00072023          	sw	zero,0(a4)
	for (int i = 0; i < nb_buckets; i++) {
    4ca0:	00178793          	addi	a5,a5,1 # 40001 <W1+0x2fc91>
    4ca4:	00470713          	addi	a4,a4,4
    4ca8:	f3dff06f          	j	4be4 <sys_heap_init+0x74>

00004cac <extract_decimal>:
static size_t extract_decimal(const char **str)
{
	const char *sp = *str;
	size_t val = 0;

	while (isdigit((int)(unsigned char)*sp)) {
    4cac:	0000d637          	lui	a2,0xd
	const char *sp = *str;
    4cb0:	00052683          	lw	a3,0(a0)
{
    4cb4:	00050713          	mv	a4,a0
	while (isdigit((int)(unsigned char)*sp)) {
    4cb8:	7c560613          	addi	a2,a2,1989 # d7c5 <_ctype_+0x1>
	size_t val = 0;
    4cbc:	00000513          	li	a0,0
		val = 10U * val + *sp++ - '0';
    4cc0:	00a00813          	li	a6,10
	while (isdigit((int)(unsigned char)*sp)) {
    4cc4:	0006c583          	lbu	a1,0(a3)
    4cc8:	00c587b3          	add	a5,a1,a2
    4ccc:	0007c783          	lbu	a5,0(a5)
    4cd0:	0047f793          	andi	a5,a5,4
    4cd4:	00079663          	bnez	a5,4ce0 <extract_decimal+0x34>
	}
	*str = sp;
    4cd8:	00d72023          	sw	a3,0(a4)
	return val;
}
    4cdc:	00008067          	ret
		val = 10U * val + *sp++ - '0';
    4ce0:	03050533          	mul	a0,a0,a6
    4ce4:	00168693          	addi	a3,a3,1
    4ce8:	fd050793          	addi	a5,a0,-48
    4cec:	00b78533          	add	a0,a5,a1
    4cf0:	fd5ff06f          	j	4cc4 <extract_decimal+0x18>

00004cf4 <encode_uint>:
 */
static char *encode_uint(uint_value_type value,
			 struct conversion *conv,
			 char *bps,
			 const char *bpe)
{
    4cf4:	fd010113          	addi	sp,sp,-48
    4cf8:	02812423          	sw	s0,40(sp)
    4cfc:	02912223          	sw	s1,36(sp)
    4d00:	03212023          	sw	s2,32(sp)
    4d04:	01712623          	sw	s7,12(sp)
    4d08:	01812423          	sw	s8,8(sp)
    4d0c:	01912223          	sw	s9,4(sp)
    4d10:	02112623          	sw	ra,44(sp)
    4d14:	01312e23          	sw	s3,28(sp)
    4d18:	01412c23          	sw	s4,24(sp)
    4d1c:	01512a23          	sw	s5,20(sp)
    4d20:	01612823          	sw	s6,16(sp)
	bool upcase = isupper((int)conv->specifier);
    4d24:	00364783          	lbu	a5,3(a2)
{
    4d28:	00068913          	mv	s2,a3
	bool upcase = isupper((int)conv->specifier);
    4d2c:	0000d6b7          	lui	a3,0xd
    4d30:	7c568693          	addi	a3,a3,1989 # d7c5 <_ctype_+0x1>
    4d34:	00d786b3          	add	a3,a5,a3
    4d38:	0006c983          	lbu	s3,0(a3)
{
    4d3c:	00070413          	mv	s0,a4
	switch (specifier) {
    4d40:	06f00713          	li	a4,111
{
    4d44:	00050c13          	mv	s8,a0
    4d48:	00058c93          	mv	s9,a1
    4d4c:	00060b93          	mv	s7,a2
    4d50:	0039f993          	andi	s3,s3,3
	switch (specifier) {
    4d54:	00800493          	li	s1,8
    4d58:	00e78c63          	beq	a5,a4,4d70 <encode_uint+0x7c>
    4d5c:	0cf76263          	bltu	a4,a5,4e20 <encode_uint+0x12c>
    4d60:	05800713          	li	a4,88
		return 10;
    4d64:	00a00493          	li	s1,10
	switch (specifier) {
    4d68:	00e79463          	bne	a5,a4,4d70 <encode_uint+0x7c>
		return 16;
    4d6c:	01000493          	li	s1,16
	const unsigned int radix = conversion_radix(conv->specifier);
	char *bp = bps + (bpe - bps);

	do {
		unsigned int lsv = (unsigned int)(value % radix);
    4d70:	00000a93          	li	s5,0

		*--bp = (lsv <= 9) ? ('0' + lsv)
    4d74:	00900a13          	li	s4,9
    4d78:	00100b13          	li	s6,1
		unsigned int lsv = (unsigned int)(value % radix);
    4d7c:	00048613          	mv	a2,s1
    4d80:	00000693          	li	a3,0
    4d84:	000c0513          	mv	a0,s8
    4d88:	000c8593          	mv	a1,s9
    4d8c:	9e5fb0ef          	jal	ra,770 <__umoddi3>
		*--bp = (lsv <= 9) ? ('0' + lsv)
    4d90:	0ff57793          	andi	a5,a0,255
    4d94:	0aaa6263          	bltu	s4,a0,4e38 <encode_uint+0x144>
    4d98:	03078793          	addi	a5,a5,48
    4d9c:	0ff7f793          	andi	a5,a5,255
			: upcase ? ('A' + lsv - 10) : ('a' + lsv - 10);
		value /= radix;
    4da0:	00048613          	mv	a2,s1
    4da4:	00000693          	li	a3,0
    4da8:	000c0513          	mv	a0,s8
    4dac:	000c8593          	mv	a1,s9
		*--bp = (lsv <= 9) ? ('0' + lsv)
    4db0:	fef40fa3          	sb	a5,-1(s0)
    4db4:	fff40413          	addi	s0,s0,-1
		value /= radix;
    4db8:	d84fb0ef          	jal	ra,33c <__udivdi3>
	} while ((value != 0) && (bps < bp));
    4dbc:	019a9463          	bne	s5,s9,4dc4 <encode_uint+0xd0>
    4dc0:	009c6463          	bltu	s8,s1,4dc8 <encode_uint+0xd4>
    4dc4:	06896463          	bltu	s2,s0,4e2c <encode_uint+0x138>

	/* Record required alternate forms.  This can be determined
	 * from the radix without re-checking specifier.
	 */
	if (conv->flag_hash) {
    4dc8:	000bd783          	lhu	a5,0(s7)
    4dcc:	0207f793          	andi	a5,a5,32
    4dd0:	00078c63          	beqz	a5,4de8 <encode_uint+0xf4>
		if (radix == 8) {
    4dd4:	00800793          	li	a5,8
    4dd8:	06f49a63          	bne	s1,a5,4e4c <encode_uint+0x158>
			conv->altform_0 = true;
    4ddc:	002bc783          	lbu	a5,2(s7)
    4de0:	0087e793          	ori	a5,a5,8
		} else if (radix == 16) {
			conv->altform_0c = true;
    4de4:	00fb8123          	sb	a5,2(s7)
			;
		}
	}

	return bp;
}
    4de8:	02c12083          	lw	ra,44(sp)
    4dec:	00040513          	mv	a0,s0
    4df0:	02812403          	lw	s0,40(sp)
    4df4:	02412483          	lw	s1,36(sp)
    4df8:	02012903          	lw	s2,32(sp)
    4dfc:	01c12983          	lw	s3,28(sp)
    4e00:	01812a03          	lw	s4,24(sp)
    4e04:	01412a83          	lw	s5,20(sp)
    4e08:	01012b03          	lw	s6,16(sp)
    4e0c:	00c12b83          	lw	s7,12(sp)
    4e10:	00812c03          	lw	s8,8(sp)
    4e14:	00412c83          	lw	s9,4(sp)
    4e18:	03010113          	addi	sp,sp,48
    4e1c:	00008067          	ret
	switch (specifier) {
    4e20:	0f77f793          	andi	a5,a5,247
    4e24:	07000713          	li	a4,112
    4e28:	f3dff06f          	j	4d64 <encode_uint+0x70>
		value /= radix;
    4e2c:	00050c13          	mv	s8,a0
    4e30:	00058c93          	mv	s9,a1
    4e34:	f49ff06f          	j	4d7c <encode_uint+0x88>
		*--bp = (lsv <= 9) ? ('0' + lsv)
    4e38:	01699663          	bne	s3,s6,4e44 <encode_uint+0x150>
    4e3c:	03778793          	addi	a5,a5,55
    4e40:	f5dff06f          	j	4d9c <encode_uint+0xa8>
    4e44:	05778793          	addi	a5,a5,87
    4e48:	f55ff06f          	j	4d9c <encode_uint+0xa8>
		} else if (radix == 16) {
    4e4c:	01000793          	li	a5,16
    4e50:	f8f49ce3          	bne	s1,a5,4de8 <encode_uint+0xf4>
			conv->altform_0c = true;
    4e54:	002bc783          	lbu	a5,2(s7)
    4e58:	0107e793          	ori	a5,a5,16
    4e5c:	f89ff06f          	j	4de4 <encode_uint+0xf0>

00004e60 <outs>:
/* Outline function to emit all characters in [sp, ep). */
static int outs(cbprintf_cb out,
		void *ctx,
		const char *sp,
		const char *ep)
{
    4e60:	fe010113          	addi	sp,sp,-32
    4e64:	00812c23          	sw	s0,24(sp)
    4e68:	00912a23          	sw	s1,20(sp)
    4e6c:	01212823          	sw	s2,16(sp)
    4e70:	01312623          	sw	s3,12(sp)
    4e74:	01412423          	sw	s4,8(sp)
    4e78:	00112e23          	sw	ra,28(sp)
    4e7c:	00050993          	mv	s3,a0
    4e80:	00058a13          	mv	s4,a1
    4e84:	00060493          	mv	s1,a2
    4e88:	00068913          	mv	s2,a3
	size_t count = 0;

	while ((sp < ep) || ((ep == NULL) && *sp)) {
    4e8c:	00060413          	mv	s0,a2
    4e90:	40940533          	sub	a0,s0,s1
    4e94:	01246863          	bltu	s0,s2,4ea4 <outs+0x44>
    4e98:	02091063          	bnez	s2,4eb8 <outs+0x58>
    4e9c:	00044783          	lbu	a5,0(s0)
    4ea0:	00078c63          	beqz	a5,4eb8 <outs+0x58>
		int rc = out((int)*sp++, ctx);
    4ea4:	00044503          	lbu	a0,0(s0)
    4ea8:	000a0593          	mv	a1,s4
    4eac:	00140413          	addi	s0,s0,1
    4eb0:	000980e7          	jalr	s3 # 5000000 <CONFIG_SYS_CLOCK_HW_CYCLES_PER_SEC+0x2050f80>

		if (rc < 0) {
    4eb4:	fc055ee3          	bgez	a0,4e90 <outs+0x30>
		}
		++count;
	}

	return (int)count;
}
    4eb8:	01c12083          	lw	ra,28(sp)
    4ebc:	01812403          	lw	s0,24(sp)
    4ec0:	01412483          	lw	s1,20(sp)
    4ec4:	01012903          	lw	s2,16(sp)
    4ec8:	00c12983          	lw	s3,12(sp)
    4ecc:	00812a03          	lw	s4,8(sp)
    4ed0:	02010113          	addi	sp,sp,32
    4ed4:	00008067          	ret

00004ed8 <cbvprintf>:

int cbvprintf(cbprintf_cb out, void *ctx, const char *fp, va_list ap)
{
    4ed8:	f7010113          	addi	sp,sp,-144
    4edc:	07512a23          	sw	s5,116(sp)
	switch (conv->specifier) {
    4ee0:	0000dab7          	lui	s5,0xd
    4ee4:	5dca8793          	addi	a5,s5,1500 # d5dc <__mprec_tens+0x20c>
{
    4ee8:	07612823          	sw	s6,112(sp)
		}

		/* Do formatting, either into the buffer or
		 * referencing external data.
		 */
		switch (conv->specifier) {
    4eec:	0000db37          	lui	s6,0xd
{
    4ef0:	07712623          	sw	s7,108(sp)
    4ef4:	07812423          	sw	s8,104(sp)
	switch (conv->specifier) {
    4ef8:	00f12223          	sw	a5,4(sp)
	switch ((enum length_mod_enum)conv->length_mod) {
    4efc:	0000dbb7          	lui	s7,0xd
		switch (conv->specifier) {
    4f00:	660b0793          	addi	a5,s6,1632 # d660 <__mprec_tens+0x290>

				goto prec_int_pad0;
			}

			bps = "(nil)";
			bpe = bps + 5;
    4f04:	0000dc37          	lui	s8,0xd
{
    4f08:	08812423          	sw	s0,136(sp)
    4f0c:	09212023          	sw	s2,128(sp)
    4f10:	07312e23          	sw	s3,124(sp)
    4f14:	07912223          	sw	s9,100(sp)
    4f18:	05b12e23          	sw	s11,92(sp)
    4f1c:	08112623          	sw	ra,140(sp)
    4f20:	08912223          	sw	s1,132(sp)
    4f24:	07412c23          	sw	s4,120(sp)
    4f28:	07a12023          	sw	s10,96(sp)
    4f2c:	00050913          	mv	s2,a0
    4f30:	00058993          	mv	s3,a1
    4f34:	00060c93          	mv	s9,a2
    4f38:	00068413          	mv	s0,a3
	size_t count = 0;
    4f3c:	00000d93          	li	s11,0
		switch (conv->specifier) {
    4f40:	00f12423          	sw	a5,8(sp)
	switch ((enum length_mod_enum)conv->length_mod) {
    4f44:	6b8b8b93          	addi	s7,s7,1720 # d6b8 <__mprec_tens+0x2e8>
			bpe = bps + 5;
    4f48:	5d9c0c13          	addi	s8,s8,1497 # d5d9 <__mprec_tens+0x209>
	while (*fp != 0) {
    4f4c:	000cc483          	lbu	s1,0(s9)
    4f50:	00049663          	bnez	s1,4f5c <cbvprintf+0x84>
			OUTC(' ');
			--width;
		}
	}

	return count;
    4f54:	000d8513          	mv	a0,s11
    4f58:	1990006f          	j	58f0 <cbvprintf+0xa18>
		if (*fp != '%') {
    4f5c:	02500793          	li	a5,37
			OUTC(*fp++);
    4f60:	001c8a13          	addi	s4,s9,1
		if (*fp != '%') {
    4f64:	00f48e63          	beq	s1,a5,4f80 <cbvprintf+0xa8>
			OUTC(*fp++);
    4f68:	00098593          	mv	a1,s3
    4f6c:	00048513          	mv	a0,s1
			OUTC('%');
    4f70:	000900e7          	jalr	s2
    4f74:	16054ee3          	bltz	a0,58f0 <cbvprintf+0xa18>
    4f78:	001d8d93          	addi	s11,s11,1
			break;
    4f7c:	5200006f          	j	549c <cbvprintf+0x5c4>
		} state = {
    4f80:	02000613          	li	a2,32
    4f84:	00000593          	li	a1,0
    4f88:	03010513          	addi	a0,sp,48
    4f8c:	d38fe0ef          	jal	ra,34c4 <memset>
	if (*sp == '%') {
    4f90:	001cc783          	lbu	a5,1(s9)
    4f94:	10978263          	beq	a5,s1,5098 <cbvprintf+0x1c0>
		switch (*sp) {
    4f98:	02b00693          	li	a3,43
    4f9c:	02d00613          	li	a2,45
    4fa0:	03000593          	li	a1,48
    4fa4:	02000513          	li	a0,32
    4fa8:	02300813          	li	a6,35
    4fac:	000a4703          	lbu	a4,0(s4)
    4fb0:	04015783          	lhu	a5,64(sp)
    4fb4:	14d70c63          	beq	a4,a3,510c <cbvprintf+0x234>
    4fb8:	12e6ea63          	bltu	a3,a4,50ec <cbvprintf+0x214>
    4fbc:	14a70c63          	beq	a4,a0,5114 <cbvprintf+0x23c>
    4fc0:	15070e63          	beq	a4,a6,511c <cbvprintf+0x244>
	if (conv->flag_zero && conv->flag_dash) {
    4fc4:	04012703          	lw	a4,64(sp)
    4fc8:	04400693          	li	a3,68
    4fcc:	04477713          	andi	a4,a4,68
    4fd0:	00d71663          	bne	a4,a3,4fdc <cbvprintf+0x104>
		conv->flag_zero = false;
    4fd4:	fbf7f793          	andi	a5,a5,-65
    4fd8:	04f11023          	sh	a5,64(sp)
	conv->width_present = true;
    4fdc:	04015783          	lhu	a5,64(sp)
    4fe0:	01412a23          	sw	s4,20(sp)
    4fe4:	0807e713          	ori	a4,a5,128
    4fe8:	04e11023          	sh	a4,64(sp)
	if (*sp == '*') {
    4fec:	000a4683          	lbu	a3,0(s4)
    4ff0:	02a00713          	li	a4,42
    4ff4:	12e69863          	bne	a3,a4,5124 <cbvprintf+0x24c>
		conv->width_star = true;
    4ff8:	1807e793          	ori	a5,a5,384
    4ffc:	04f11023          	sh	a5,64(sp)
		return ++sp;
    5000:	001a0793          	addi	a5,s4,1
	sp = extract_prec(conv, sp);
    5004:	00f12a23          	sw	a5,20(sp)
	conv->prec_present = (*sp == '.');
    5008:	0007c603          	lbu	a2,0(a5)
    500c:	fd260713          	addi	a4,a2,-46
    5010:	00173713          	seqz	a4,a4
    5014:	00971693          	slli	a3,a4,0x9
    5018:	04015703          	lhu	a4,64(sp)
    501c:	dff77713          	andi	a4,a4,-513
    5020:	00d76733          	or	a4,a4,a3
    5024:	04e11023          	sh	a4,64(sp)
	if (!conv->prec_present) {
    5028:	02e00693          	li	a3,46
    502c:	02d61263          	bne	a2,a3,5050 <cbvprintf+0x178>
	++sp;
    5030:	00178693          	addi	a3,a5,1
    5034:	00d12a23          	sw	a3,20(sp)
	if (*sp == '*') {
    5038:	0017c603          	lbu	a2,1(a5)
    503c:	02a00693          	li	a3,42
    5040:	12d61463          	bne	a2,a3,5168 <cbvprintf+0x290>
		conv->prec_star = true;
    5044:	40076713          	ori	a4,a4,1024
    5048:	04e11023          	sh	a4,64(sp)
		return ++sp;
    504c:	00278793          	addi	a5,a5,2
	switch (*sp) {
    5050:	0007c603          	lbu	a2,0(a5)
    5054:	06c00713          	li	a4,108
		if (*++sp == 'h') {
    5058:	00178593          	addi	a1,a5,1
	switch (*sp) {
    505c:	22e60263          	beq	a2,a4,5280 <cbvprintf+0x3a8>
    5060:	14c76263          	bltu	a4,a2,51a4 <cbvprintf+0x2cc>
    5064:	06800713          	li	a4,104
    5068:	16e60663          	beq	a2,a4,51d4 <cbvprintf+0x2fc>
    506c:	06a00713          	li	a4,106
    5070:	22e60e63          	beq	a2,a4,52ac <cbvprintf+0x3d4>
    5074:	04c00713          	li	a4,76
    5078:	26e60263          	beq	a2,a4,52dc <cbvprintf+0x404>
		conv->length_mod = LENGTH_NONE;
    507c:	04015703          	lhu	a4,64(sp)
    5080:	ffff86b7          	lui	a3,0xffff8
    5084:	7ff68693          	addi	a3,a3,2047 # ffff87ff <CONFIG_SYSTEM_WORKQUEUE_PRIORITY+0xffff8800>
    5088:	00d77733          	and	a4,a4,a3
    508c:	04e11023          	sh	a4,64(sp)
		break;
    5090:	00078593          	mv	a1,a5
    5094:	16c0006f          	j	5200 <cbvprintf+0x328>
		conv->specifier = *sp++;
    5098:	002c8a13          	addi	s4,s9,2
    509c:	04f101a3          	sb	a5,67(sp)
		if (conv->width_star) {
    50a0:	04015783          	lhu	a5,64(sp)
    50a4:	1007f713          	andi	a4,a5,256
    50a8:	32070c63          	beqz	a4,53e0 <cbvprintf+0x508>
			width = va_arg(ap, int);
    50ac:	00042483          	lw	s1,0(s0)
    50b0:	00440693          	addi	a3,s0,4
			if (width < 0) {
    50b4:	0004d863          	bgez	s1,50c4 <cbvprintf+0x1ec>
				conv->flag_dash = true;
    50b8:	0047e793          	ori	a5,a5,4
    50bc:	04f11023          	sh	a5,64(sp)
				width = -width;
    50c0:	409004b3          	neg	s1,s1
		if (conv->prec_star) {
    50c4:	04015703          	lhu	a4,64(sp)
    50c8:	40077793          	andi	a5,a4,1024
    50cc:	32078a63          	beqz	a5,5400 <cbvprintf+0x528>
			int arg = va_arg(ap, int);
    50d0:	0006aa83          	lw	s5,0(a3)
    50d4:	00468413          	addi	s0,a3,4
			if (arg < 0) {
    50d8:	320adc63          	bgez	s5,5410 <cbvprintf+0x538>
				conv->prec_present = false;
    50dc:	dff77713          	andi	a4,a4,-513
    50e0:	04e11023          	sh	a4,64(sp)
		int precision = -1;
    50e4:	fff00a93          	li	s5,-1
    50e8:	3280006f          	j	5410 <cbvprintf+0x538>
		switch (*sp) {
    50ec:	00c70863          	beq	a4,a2,50fc <cbvprintf+0x224>
    50f0:	ecb71ae3          	bne	a4,a1,4fc4 <cbvprintf+0xec>
			conv->flag_zero = true;
    50f4:	0407e793          	ori	a5,a5,64
    50f8:	0080006f          	j	5100 <cbvprintf+0x228>
			conv->flag_dash = true;
    50fc:	0047e793          	ori	a5,a5,4
			conv->flag_zero = true;
    5100:	04f11023          	sh	a5,64(sp)
			++sp;
    5104:	001a0a13          	addi	s4,s4,1
	} while (loop);
    5108:	ea5ff06f          	j	4fac <cbvprintf+0xd4>
			conv->flag_plus = true;
    510c:	0087e793          	ori	a5,a5,8
    5110:	ff1ff06f          	j	5100 <cbvprintf+0x228>
			conv->flag_space = true;
    5114:	0107e793          	ori	a5,a5,16
    5118:	fe9ff06f          	j	5100 <cbvprintf+0x228>
			conv->flag_hash = true;
    511c:	0207e793          	ori	a5,a5,32
    5120:	fe1ff06f          	j	5100 <cbvprintf+0x228>
	size_t width = extract_decimal(&sp);
    5124:	01410513          	addi	a0,sp,20
    5128:	b85ff0ef          	jal	ra,4cac <extract_decimal>
	if (sp != wp) {
    512c:	01412783          	lw	a5,20(sp)
    5130:	ed478ae3          	beq	a5,s4,5004 <cbvprintf+0x12c>
		conv->unsupported |= ((conv->width_value < 0)
    5134:	04012703          	lw	a4,64(sp)
    5138:	04014683          	lbu	a3,64(sp)
		conv->width_value = width;
    513c:	04a12223          	sw	a0,68(sp)
		conv->unsupported |= ((conv->width_value < 0)
    5140:	00175713          	srli	a4,a4,0x1
    5144:	00177713          	andi	a4,a4,1
				      || (width != (size_t)conv->width_value));
    5148:	01f55513          	srli	a0,a0,0x1f
		conv->unsupported |= ((conv->width_value < 0)
    514c:	00a76733          	or	a4,a4,a0
    5150:	00171713          	slli	a4,a4,0x1
    5154:	f8076713          	ori	a4,a4,-128
    5158:	07d6f693          	andi	a3,a3,125
    515c:	00d76733          	or	a4,a4,a3
    5160:	04e10023          	sb	a4,64(sp)
    5164:	ea1ff06f          	j	5004 <cbvprintf+0x12c>
	size_t prec = extract_decimal(&sp);
    5168:	01410513          	addi	a0,sp,20
    516c:	b41ff0ef          	jal	ra,4cac <extract_decimal>
	conv->unsupported |= ((conv->prec_value < 0)
    5170:	04012783          	lw	a5,64(sp)
    5174:	04015703          	lhu	a4,64(sp)
	conv->prec_value = prec;
    5178:	04a12423          	sw	a0,72(sp)
	conv->unsupported |= ((conv->prec_value < 0)
    517c:	0017d793          	srli	a5,a5,0x1
    5180:	0017f793          	andi	a5,a5,1
			      || (prec != (size_t)conv->prec_value));
    5184:	01f55513          	srli	a0,a0,0x1f
	conv->unsupported |= ((conv->prec_value < 0)
    5188:	00a7e7b3          	or	a5,a5,a0
    518c:	00179793          	slli	a5,a5,0x1
    5190:	ffd77713          	andi	a4,a4,-3
    5194:	00f767b3          	or	a5,a4,a5
    5198:	04f11023          	sh	a5,64(sp)
	return sp;
    519c:	01412783          	lw	a5,20(sp)
    51a0:	eb1ff06f          	j	5050 <cbvprintf+0x178>
	switch (*sp) {
    51a4:	07400693          	li	a3,116
    51a8:	04015703          	lhu	a4,64(sp)
    51ac:	10d60e63          	beq	a2,a3,52c8 <cbvprintf+0x3f0>
    51b0:	07a00693          	li	a3,122
    51b4:	ecd614e3          	bne	a2,a3,507c <cbvprintf+0x1a4>
		conv->length_mod = LENGTH_Z;
    51b8:	ffff87b7          	lui	a5,0xffff8
    51bc:	7ff78793          	addi	a5,a5,2047 # ffff87ff <CONFIG_SYSTEM_WORKQUEUE_PRIORITY+0xffff8800>
    51c0:	00e7f7b3          	and	a5,a5,a4
    51c4:	00003737          	lui	a4,0x3
		conv->unsupported = true;
    51c8:	00e7e7b3          	or	a5,a5,a4
    51cc:	04f11023          	sh	a5,64(sp)
		break;
    51d0:	0300006f          	j	5200 <cbvprintf+0x328>
		if (*++sp == 'h') {
    51d4:	04015503          	lhu	a0,64(sp)
    51d8:	0017c803          	lbu	a6,1(a5)
    51dc:	ffff86b7          	lui	a3,0xffff8
    51e0:	7ff68713          	addi	a4,a3,2047 # ffff87ff <CONFIG_SYSTEM_WORKQUEUE_PRIORITY+0xffff8800>
			conv->length_mod = LENGTH_HH;
    51e4:	00a77733          	and	a4,a4,a0
		if (*++sp == 'h') {
    51e8:	08c81463          	bne	a6,a2,5270 <cbvprintf+0x398>
			conv->length_mod = LENGTH_HH;
    51ec:	000016b7          	lui	a3,0x1
    51f0:	80068693          	addi	a3,a3,-2048 # 800 <CONFIG_ISR_STACK_SIZE>
			conv->length_mod = LENGTH_LL;
    51f4:	00d76733          	or	a4,a4,a3
    51f8:	04e11023          	sh	a4,64(sp)
			++sp;
    51fc:	00278593          	addi	a1,a5,2
	conv->specifier = *sp++;
    5200:	0005c703          	lbu	a4,0(a1)
	switch (conv->specifier) {
    5204:	07800793          	li	a5,120
	conv->specifier = *sp++;
    5208:	00158a13          	addi	s4,a1,1
    520c:	04e101a3          	sb	a4,67(sp)
	switch (conv->specifier) {
    5210:	1ae7ee63          	bltu	a5,a4,53cc <cbvprintf+0x4f4>
    5214:	05700793          	li	a5,87
    5218:	0ee7e063          	bltu	a5,a4,52f8 <cbvprintf+0x420>
    521c:	04100793          	li	a5,65
    5220:	00f70a63          	beq	a4,a5,5234 <cbvprintf+0x35c>
    5224:	fbb70713          	addi	a4,a4,-69 # 2fbb <__subsf3+0x2ef>
    5228:	0ff77713          	andi	a4,a4,255
    522c:	00200793          	li	a5,2
    5230:	18e7ee63          	bltu	a5,a4,53cc <cbvprintf+0x4f4>
		conv->specifier_cat = SPECIFIER_FP;
    5234:	04214783          	lbu	a5,66(sp)
    5238:	ff87f793          	andi	a5,a5,-8
    523c:	0047e793          	ori	a5,a5,4
    5240:	04f10123          	sb	a5,66(sp)
			unsupported = true;
    5244:	00100793          	li	a5,1
	conv->unsupported |= unsupported;
    5248:	04012703          	lw	a4,64(sp)
    524c:	00175713          	srli	a4,a4,0x1
    5250:	00177713          	andi	a4,a4,1
    5254:	00e7e7b3          	or	a5,a5,a4
    5258:	04015703          	lhu	a4,64(sp)
    525c:	00179793          	slli	a5,a5,0x1
    5260:	ffd77713          	andi	a4,a4,-3
    5264:	00f767b3          	or	a5,a4,a5
    5268:	04f11023          	sh	a5,64(sp)
	return sp;
    526c:	e35ff06f          	j	50a0 <cbvprintf+0x1c8>
			conv->length_mod = LENGTH_H;
    5270:	000017b7          	lui	a5,0x1
			conv->length_mod = LENGTH_L;
    5274:	00f76733          	or	a4,a4,a5
    5278:	04e11023          	sh	a4,64(sp)
    527c:	f85ff06f          	j	5200 <cbvprintf+0x328>
		if (*++sp == 'l') {
    5280:	04015503          	lhu	a0,64(sp)
    5284:	0017c803          	lbu	a6,1(a5) # 1001 <__adddf3+0x48d>
    5288:	ffff86b7          	lui	a3,0xffff8
    528c:	7ff68713          	addi	a4,a3,2047 # ffff87ff <CONFIG_SYSTEM_WORKQUEUE_PRIORITY+0xffff8800>
			conv->length_mod = LENGTH_LL;
    5290:	00a77733          	and	a4,a4,a0
		if (*++sp == 'l') {
    5294:	00c81663          	bne	a6,a2,52a0 <cbvprintf+0x3c8>
			conv->length_mod = LENGTH_LL;
    5298:	000026b7          	lui	a3,0x2
    529c:	f59ff06f          	j	51f4 <cbvprintf+0x31c>
			conv->length_mod = LENGTH_L;
    52a0:	000027b7          	lui	a5,0x2
    52a4:	80078793          	addi	a5,a5,-2048 # 1800 <__divdf3+0x4b4>
    52a8:	fcdff06f          	j	5274 <cbvprintf+0x39c>
		conv->length_mod = LENGTH_J;
    52ac:	04015783          	lhu	a5,64(sp)
    52b0:	ffff8737          	lui	a4,0xffff8
    52b4:	7ff70713          	addi	a4,a4,2047 # ffff87ff <CONFIG_SYSTEM_WORKQUEUE_PRIORITY+0xffff8800>
    52b8:	00e7f7b3          	and	a5,a5,a4
    52bc:	00003737          	lui	a4,0x3
		conv->length_mod = LENGTH_T;
    52c0:	80070713          	addi	a4,a4,-2048 # 2800 <__floatunsidf+0x20>
    52c4:	f05ff06f          	j	51c8 <cbvprintf+0x2f0>
    52c8:	ffff87b7          	lui	a5,0xffff8
    52cc:	7ff78793          	addi	a5,a5,2047 # ffff87ff <CONFIG_SYSTEM_WORKQUEUE_PRIORITY+0xffff8800>
    52d0:	00e7f7b3          	and	a5,a5,a4
    52d4:	00004737          	lui	a4,0x4
    52d8:	fe9ff06f          	j	52c0 <cbvprintf+0x3e8>
		conv->unsupported = true;
    52dc:	04015783          	lhu	a5,64(sp)
    52e0:	ffff8737          	lui	a4,0xffff8
    52e4:	7fd70713          	addi	a4,a4,2045 # ffff87fd <CONFIG_SYSTEM_WORKQUEUE_PRIORITY+0xffff87fe>
    52e8:	00e7f7b3          	and	a5,a5,a4
    52ec:	00004737          	lui	a4,0x4
    52f0:	00270713          	addi	a4,a4,2 # 4002 <main+0x2ba>
    52f4:	ed5ff06f          	j	51c8 <cbvprintf+0x2f0>
	switch (conv->specifier) {
    52f8:	fa870793          	addi	a5,a4,-88
    52fc:	0ff7f793          	andi	a5,a5,255
    5300:	02000693          	li	a3,32
    5304:	0cf6e463          	bltu	a3,a5,53cc <cbvprintf+0x4f4>
    5308:	00412683          	lw	a3,4(sp)
    530c:	00279793          	slli	a5,a5,0x2
    5310:	00d787b3          	add	a5,a5,a3
    5314:	0007a783          	lw	a5,0(a5)
    5318:	00078067          	jr	a5
		conv->specifier_cat = SPECIFIER_SINT;
    531c:	04214783          	lbu	a5,66(sp)
    5320:	ff87f793          	andi	a5,a5,-8
    5324:	0017e793          	ori	a5,a5,1
		if (conv->length_mod == LENGTH_UPPER_L) {
    5328:	04015683          	lhu	a3,64(sp)
		conv->specifier_cat = SPECIFIER_UINT;
    532c:	04f10123          	sb	a5,66(sp)
		if (conv->length_mod == LENGTH_UPPER_L) {
    5330:	000087b7          	lui	a5,0x8
    5334:	80078793          	addi	a5,a5,-2048 # 7800 <z_set_prio+0xc8>
    5338:	00f6f7b3          	and	a5,a3,a5
    533c:	01079793          	slli	a5,a5,0x10
    5340:	0107d793          	srli	a5,a5,0x10
    5344:	00004637          	lui	a2,0x4
    5348:	00c79663          	bne	a5,a2,5354 <cbvprintf+0x47c>
			conv->invalid = true;
    534c:	0016e693          	ori	a3,a3,1
    5350:	04d11023          	sh	a3,64(sp)
		if (conv->specifier == 'c') {
    5354:	06300693          	li	a3,99
	bool unsupported = false;
    5358:	00000793          	li	a5,0
		if (conv->specifier == 'c') {
    535c:	eed716e3          	bne	a4,a3,5248 <cbvprintf+0x370>
		if (conv->length_mod != LENGTH_NONE) {
    5360:	04015703          	lhu	a4,64(sp)
    5364:	000087b7          	lui	a5,0x8
    5368:	80078793          	addi	a5,a5,-2048 # 7800 <z_set_prio+0xc8>
    536c:	00e7f7b3          	and	a5,a5,a4
    5370:	00f037b3          	snez	a5,a5
    5374:	ed5ff06f          	j	5248 <cbvprintf+0x370>
		conv->specifier_cat = SPECIFIER_UINT;
    5378:	04214783          	lbu	a5,66(sp)
    537c:	ff87f793          	andi	a5,a5,-8
    5380:	0027e793          	ori	a5,a5,2
    5384:	fa5ff06f          	j	5328 <cbvprintf+0x450>
		conv->specifier_cat = SPECIFIER_PTR;
    5388:	04214783          	lbu	a5,66(sp)
		if (conv->length_mod == LENGTH_UPPER_L) {
    538c:	04015703          	lhu	a4,64(sp)
		conv->specifier_cat = SPECIFIER_PTR;
    5390:	ff87f793          	andi	a5,a5,-8
    5394:	0037e793          	ori	a5,a5,3
    5398:	04f10123          	sb	a5,66(sp)
		if (conv->length_mod == LENGTH_UPPER_L) {
    539c:	000087b7          	lui	a5,0x8
    53a0:	80078793          	addi	a5,a5,-2048 # 7800 <z_set_prio+0xc8>
    53a4:	00e7f7b3          	and	a5,a5,a4
    53a8:	ffffc737          	lui	a4,0xffffc
    53ac:	00e787b3          	add	a5,a5,a4
    53b0:	0017b793          	seqz	a5,a5
    53b4:	e95ff06f          	j	5248 <cbvprintf+0x370>
		conv->specifier_cat = SPECIFIER_PTR;
    53b8:	04214783          	lbu	a5,66(sp)
    53bc:	ff87f793          	andi	a5,a5,-8
    53c0:	0037e793          	ori	a5,a5,3
    53c4:	04f10123          	sb	a5,66(sp)
    53c8:	f99ff06f          	j	5360 <cbvprintf+0x488>
		conv->invalid = true;
    53cc:	04015783          	lhu	a5,64(sp)
    53d0:	0017e793          	ori	a5,a5,1
    53d4:	04f11023          	sh	a5,64(sp)
	bool unsupported = false;
    53d8:	00000793          	li	a5,0
		break;
    53dc:	e6dff06f          	j	5248 <cbvprintf+0x370>
		} else if (conv->width_present) {
    53e0:	0807f793          	andi	a5,a5,128
    53e4:	00078863          	beqz	a5,53f4 <cbvprintf+0x51c>
			width = conv->width_value;
    53e8:	04412483          	lw	s1,68(sp)
    53ec:	00040693          	mv	a3,s0
    53f0:	cd5ff06f          	j	50c4 <cbvprintf+0x1ec>
    53f4:	00040693          	mv	a3,s0
		int width = -1;
    53f8:	fff00493          	li	s1,-1
    53fc:	cc9ff06f          	j	50c4 <cbvprintf+0x1ec>
		} else if (conv->prec_present) {
    5400:	20077713          	andi	a4,a4,512
    5404:	0a070063          	beqz	a4,54a4 <cbvprintf+0x5cc>
			precision = conv->prec_value;
    5408:	04812a83          	lw	s5,72(sp)
    540c:	00068413          	mv	s0,a3
			= (enum specifier_cat_enum)conv->specifier_cat;
    5410:	04012583          	lw	a1,64(sp)
		conv->pad0_value = 0;
    5414:	04012223          	sw	zero,68(sp)
		conv->pad0_pre_exp = 0;
    5418:	04012423          	sw	zero,72(sp)
			= (enum specifier_cat_enum)conv->specifier_cat;
    541c:	0105d693          	srli	a3,a1,0x10
			= (enum length_mod_enum)conv->length_mod;
    5420:	00b5d713          	srli	a4,a1,0xb
		enum specifier_cat_enum specifier_cat
    5424:	0076f693          	andi	a3,a3,7
		if (specifier_cat == SPECIFIER_SINT) {
    5428:	00100613          	li	a2,1
			= (enum length_mod_enum)conv->length_mod;
    542c:	00f77713          	andi	a4,a4,15
		if (specifier_cat == SPECIFIER_SINT) {
    5430:	0cc69863          	bne	a3,a2,5500 <cbvprintf+0x628>
			switch (length_mod) {
    5434:	00500613          	li	a2,5
    5438:	08c70863          	beq	a4,a2,54c8 <cbvprintf+0x5f0>
    543c:	00e66a63          	bltu	a2,a4,5450 <cbvprintf+0x578>
    5440:	00300693          	li	a3,3
    5444:	06d70463          	beq	a4,a3,54ac <cbvprintf+0x5d4>
    5448:	00400693          	li	a3,4
    544c:	06d70e63          	beq	a4,a3,54c8 <cbvprintf+0x5f0>
					(sint_value_type)va_arg(ap, ptrdiff_t);
    5450:	00042683          	lw	a3,0(s0)
    5454:	00440413          	addi	s0,s0,4
    5458:	02d12823          	sw	a3,48(sp)
    545c:	41f6d693          	srai	a3,a3,0x1f
    5460:	02d12a23          	sw	a3,52(sp)
			if (length_mod == LENGTH_HH) {
    5464:	00100693          	li	a3,1
    5468:	06d71e63          	bne	a4,a3,54e4 <cbvprintf+0x60c>
				value->uint = (unsigned char)value->uint;
    546c:	03014683          	lbu	a3,48(sp)
				value->uint = (unsigned short)value->uint;
    5470:	02d12823          	sw	a3,48(sp)
    5474:	02012a23          	sw	zero,52(sp)
		if (conv->invalid || conv->unsupported) {
    5478:	0035f593          	andi	a1,a1,3
    547c:	14058863          	beqz	a1,55cc <cbvprintf+0x6f4>
			OUTS(sp, fp);
    5480:	000a0693          	mv	a3,s4
    5484:	000c8613          	mv	a2,s9
    5488:	00098593          	mv	a1,s3
    548c:	00090513          	mv	a0,s2
    5490:	9d1ff0ef          	jal	ra,4e60 <outs>
    5494:	44054e63          	bltz	a0,58f0 <cbvprintf+0xa18>
    5498:	00ad8db3          	add	s11,s11,a0
			OUTS(bps, bpe);
    549c:	000a0c93          	mv	s9,s4
    54a0:	aadff06f          	j	4f4c <cbvprintf+0x74>
    54a4:	00068413          	mv	s0,a3
    54a8:	c3dff06f          	j	50e4 <cbvprintf+0x20c>
					value->sint = va_arg(ap, long);
    54ac:	00042683          	lw	a3,0(s0)
				value->sint = va_arg(ap, int);
    54b0:	00440513          	addi	a0,s0,4
					value->sint = va_arg(ap, long);
    54b4:	02d12823          	sw	a3,48(sp)
    54b8:	41f6d693          	srai	a3,a3,0x1f
				value->sint =
    54bc:	02d12a23          	sw	a3,52(sp)
					(uint_value_type)va_arg(ap, size_t);
    54c0:	00050413          	mv	s0,a0
    54c4:	fb5ff06f          	j	5478 <cbvprintf+0x5a0>
					(sint_value_type)va_arg(ap, long long);
    54c8:	00740413          	addi	s0,s0,7
    54cc:	ff847413          	andi	s0,s0,-8
				value->sint =
    54d0:	00042603          	lw	a2,0(s0)
    54d4:	00442683          	lw	a3,4(s0)
					(sint_value_type)va_arg(ap, long long);
    54d8:	00840513          	addi	a0,s0,8
				value->sint =
    54dc:	02c12823          	sw	a2,48(sp)
    54e0:	fddff06f          	j	54bc <cbvprintf+0x5e4>
			} else if (length_mod == LENGTH_H) {
    54e4:	00200693          	li	a3,2
    54e8:	f8d718e3          	bne	a4,a3,5478 <cbvprintf+0x5a0>
				value->sint = (short)value->sint;
    54ec:	03011683          	lh	a3,48(sp)
    54f0:	02d12823          	sw	a3,48(sp)
    54f4:	41f6d693          	srai	a3,a3,0x1f
				value->dbl = va_arg(ap, double);
    54f8:	02d12a23          	sw	a3,52(sp)
    54fc:	f7dff06f          	j	5478 <cbvprintf+0x5a0>
		} else if (specifier_cat == SPECIFIER_UINT) {
    5500:	00200513          	li	a0,2
    5504:	04a69e63          	bne	a3,a0,5560 <cbvprintf+0x688>
			switch (length_mod) {
    5508:	00500693          	li	a3,5
    550c:	fad70ee3          	beq	a4,a3,54c8 <cbvprintf+0x5f0>
    5510:	00e6ea63          	bltu	a3,a4,5524 <cbvprintf+0x64c>
    5514:	00300693          	li	a3,3
    5518:	02d70a63          	beq	a4,a3,554c <cbvprintf+0x674>
    551c:	00400693          	li	a3,4
    5520:	fad704e3          	beq	a4,a3,54c8 <cbvprintf+0x5f0>
					(uint_value_type)va_arg(ap, size_t);
    5524:	00042683          	lw	a3,0(s0)
    5528:	02012a23          	sw	zero,52(sp)
    552c:	00440413          	addi	s0,s0,4
    5530:	02d12823          	sw	a3,48(sp)
			if (length_mod == LENGTH_HH) {
    5534:	00100693          	li	a3,1
    5538:	f2d70ae3          	beq	a4,a3,546c <cbvprintf+0x594>
			} else if (length_mod == LENGTH_H) {
    553c:	00200693          	li	a3,2
    5540:	f2d71ce3          	bne	a4,a3,5478 <cbvprintf+0x5a0>
				value->uint = (unsigned short)value->uint;
    5544:	03015683          	lhu	a3,48(sp)
    5548:	f29ff06f          	j	5470 <cbvprintf+0x598>
					value->uint = va_arg(ap, unsigned long);
    554c:	00042683          	lw	a3,0(s0)
    5550:	00440513          	addi	a0,s0,4
    5554:	02012a23          	sw	zero,52(sp)
    5558:	02d12823          	sw	a3,48(sp)
				break;
    555c:	f65ff06f          	j	54c0 <cbvprintf+0x5e8>
		} else if (specifier_cat == SPECIFIER_FP) {
    5560:	00400613          	li	a2,4
    5564:	04c69a63          	bne	a3,a2,55b8 <cbvprintf+0x6e0>
			if (length_mod == LENGTH_UPPER_L) {
    5568:	00800693          	li	a3,8
    556c:	02d71863          	bne	a4,a3,559c <cbvprintf+0x6c4>
				value->ldbl = va_arg(ap, long double);
    5570:	00042683          	lw	a3,0(s0)
    5574:	0006a803          	lw	a6,0(a3) # 2000 <CONFIG_SRAM_SIZE>
    5578:	0046a503          	lw	a0,4(a3)
    557c:	0086a603          	lw	a2,8(a3)
    5580:	00c6a683          	lw	a3,12(a3)
    5584:	03012823          	sw	a6,48(sp)
    5588:	02a12a23          	sw	a0,52(sp)
    558c:	02c12c23          	sw	a2,56(sp)
    5590:	02d12e23          	sw	a3,60(sp)
			value->ptr = va_arg(ap, void *);
    5594:	00440413          	addi	s0,s0,4
    5598:	ee1ff06f          	j	5478 <cbvprintf+0x5a0>
				value->dbl = va_arg(ap, double);
    559c:	00740693          	addi	a3,s0,7
    55a0:	ff86f693          	andi	a3,a3,-8
    55a4:	0006a603          	lw	a2,0(a3)
    55a8:	00868413          	addi	s0,a3,8
    55ac:	0046a683          	lw	a3,4(a3)
    55b0:	02c12823          	sw	a2,48(sp)
    55b4:	f45ff06f          	j	54f8 <cbvprintf+0x620>
		} else if (specifier_cat == SPECIFIER_PTR) {
    55b8:	00300613          	li	a2,3
    55bc:	eac69ee3          	bne	a3,a2,5478 <cbvprintf+0x5a0>
			value->ptr = va_arg(ap, void *);
    55c0:	00042683          	lw	a3,0(s0)
    55c4:	02d12823          	sw	a3,48(sp)
    55c8:	fcdff06f          	j	5594 <cbvprintf+0x6bc>
		switch (conv->specifier) {
    55cc:	04314683          	lbu	a3,67(sp)
    55d0:	07800613          	li	a2,120
    55d4:	ecd664e3          	bltu	a2,a3,549c <cbvprintf+0x5c4>
    55d8:	06200613          	li	a2,98
    55dc:	00d66e63          	bltu	a2,a3,55f8 <cbvprintf+0x720>
    55e0:	02500713          	li	a4,37
    55e4:	02e68c63          	beq	a3,a4,561c <cbvprintf+0x744>
    55e8:	05800713          	li	a4,88
    55ec:	eae698e3          	bne	a3,a4,549c <cbvprintf+0x5c4>
    55f0:	00000b13          	li	s6,0
    55f4:	1fc0006f          	j	57f0 <cbvprintf+0x918>
    55f8:	f9d68693          	addi	a3,a3,-99
    55fc:	0ff6f693          	andi	a3,a3,255
    5600:	01500613          	li	a2,21
    5604:	e8d66ce3          	bltu	a2,a3,549c <cbvprintf+0x5c4>
    5608:	00812783          	lw	a5,8(sp)
    560c:	00269693          	slli	a3,a3,0x2
    5610:	00f686b3          	add	a3,a3,a5
    5614:	0006a683          	lw	a3,0(a3)
    5618:	00068067          	jr	a3
			OUTC('%');
    561c:	00098593          	mv	a1,s3
    5620:	02500513          	li	a0,37
    5624:	94dff06f          	j	4f70 <cbvprintf+0x98>
			bps = (const char *)value->ptr;
    5628:	03012c83          	lw	s9,48(sp)
			if (precision >= 0) {
    562c:	160ac063          	bltz	s5,578c <cbvprintf+0x8b4>
				len = strnlen(bps, precision);
    5630:	000a8593          	mv	a1,s5
    5634:	000c8513          	mv	a0,s9
    5638:	210040ef          	jal	ra,9848 <strnlen>
			bpe = bps + len;
    563c:	00ac8d33          	add	s10,s9,a0
		char sign = 0;
    5640:	00000b13          	li	s6,0
		if (bps == NULL) {
    5644:	e40c8ce3          	beqz	s9,549c <cbvprintf+0x5c4>
		size_t nj_len = (bpe - bps);
    5648:	419d07b3          	sub	a5,s10,s9
		if (sign != 0) {
    564c:	000b0463          	beqz	s6,5654 <cbvprintf+0x77c>
			nj_len += 1U;
    5650:	00178793          	addi	a5,a5,1
		if (conv->altform_0c) {
    5654:	04214703          	lbu	a4,66(sp)
    5658:	01077693          	andi	a3,a4,16
    565c:	26068663          	beqz	a3,58c8 <cbvprintf+0x9f0>
			nj_len += 2U;
    5660:	00278793          	addi	a5,a5,2
		nj_len += conv->pad0_value;
    5664:	04412683          	lw	a3,68(sp)
		if (conv->pad_fp) {
    5668:	04077713          	andi	a4,a4,64
		nj_len += conv->pad0_value;
    566c:	00d787b3          	add	a5,a5,a3
		if (conv->pad_fp) {
    5670:	00070663          	beqz	a4,567c <cbvprintf+0x7a4>
			nj_len += conv->pad0_pre_exp;
    5674:	04812703          	lw	a4,72(sp)
    5678:	00e787b3          	add	a5,a5,a4
		if (width > 0) {
    567c:	04905c63          	blez	s1,56d4 <cbvprintf+0x7fc>
			width -= (int)nj_len;
    5680:	40f484b3          	sub	s1,s1,a5
			if (!conv->flag_dash) {
    5684:	04012783          	lw	a5,64(sp)
    5688:	0027d793          	srli	a5,a5,0x2
    568c:	0017f793          	andi	a5,a5,1
    5690:	04079263          	bnez	a5,56d4 <cbvprintf+0x7fc>
				if (conv->flag_zero) {
    5694:	04015783          	lhu	a5,64(sp)
    5698:	0407f793          	andi	a5,a5,64
    569c:	28078863          	beqz	a5,592c <cbvprintf+0xa54>
					if (sign != 0) {
    56a0:	280b0a63          	beqz	s6,5934 <cbvprintf+0xa5c>
						OUTC(sign);
    56a4:	00098593          	mv	a1,s3
    56a8:	000b0513          	mv	a0,s6
    56ac:	000900e7          	jalr	s2
    56b0:	24054063          	bltz	a0,58f0 <cbvprintf+0xa18>
    56b4:	001d8d93          	addi	s11,s11,1
					pad = '0';
    56b8:	03000793          	li	a5,48
						sign = 0;
    56bc:	00000b13          	li	s6,0
    56c0:	01b48ab3          	add	s5,s1,s11
    56c4:	00048713          	mv	a4,s1
    56c8:	409a8db3          	sub	s11,s5,s1
				while (width-- > 0) {
    56cc:	fff48493          	addi	s1,s1,-1
    56d0:	20e04463          	bgtz	a4,58d8 <cbvprintf+0xa00>
		if (sign != 0) {
    56d4:	000b0c63          	beqz	s6,56ec <cbvprintf+0x814>
			OUTC(sign);
    56d8:	00098593          	mv	a1,s3
    56dc:	000b0513          	mv	a0,s6
    56e0:	000900e7          	jalr	s2
    56e4:	20054663          	bltz	a0,58f0 <cbvprintf+0xa18>
    56e8:	001d8d93          	addi	s11,s11,1
			if (conv->altform_0c | conv->altform_0) {
    56ec:	04012783          	lw	a5,64(sp)
    56f0:	0147d713          	srli	a4,a5,0x14
    56f4:	00177713          	andi	a4,a4,1
    56f8:	00071863          	bnez	a4,5708 <cbvprintf+0x830>
    56fc:	0137d793          	srli	a5,a5,0x13
    5700:	0017f793          	andi	a5,a5,1
    5704:	00078c63          	beqz	a5,571c <cbvprintf+0x844>
				OUTC('0');
    5708:	00098593          	mv	a1,s3
    570c:	03000513          	li	a0,48
    5710:	000900e7          	jalr	s2
    5714:	1c054e63          	bltz	a0,58f0 <cbvprintf+0xa18>
    5718:	001d8d93          	addi	s11,s11,1
			if (conv->altform_0c) {
    571c:	04214783          	lbu	a5,66(sp)
    5720:	0107f793          	andi	a5,a5,16
    5724:	00078c63          	beqz	a5,573c <cbvprintf+0x864>
				OUTC(conv->specifier);
    5728:	04314503          	lbu	a0,67(sp)
    572c:	00098593          	mv	a1,s3
    5730:	000900e7          	jalr	s2
    5734:	1a054e63          	bltz	a0,58f0 <cbvprintf+0xa18>
    5738:	001d8d93          	addi	s11,s11,1
			while (pad_len-- > 0) {
    573c:	04412783          	lw	a5,68(sp)
    5740:	01b78ab3          	add	s5,a5,s11
    5744:	41ba8733          	sub	a4,s5,s11
    5748:	1ee04a63          	bgtz	a4,593c <cbvprintf+0xa64>
			OUTS(bps, bpe);
    574c:	000d0693          	mv	a3,s10
    5750:	000c8613          	mv	a2,s9
    5754:	00098593          	mv	a1,s3
    5758:	00090513          	mv	a0,s2
    575c:	f04ff0ef          	jal	ra,4e60 <outs>
    5760:	18054863          	bltz	a0,58f0 <cbvprintf+0xa18>
    5764:	01b50db3          	add	s11,a0,s11
		while (width > 0) {
    5768:	01b484b3          	add	s1,s1,s11
    576c:	41b487b3          	sub	a5,s1,s11
    5770:	d2f056e3          	blez	a5,549c <cbvprintf+0x5c4>
			OUTC(' ');
    5774:	00098593          	mv	a1,s3
    5778:	02000513          	li	a0,32
    577c:	000900e7          	jalr	s2
    5780:	16054863          	bltz	a0,58f0 <cbvprintf+0xa18>
    5784:	001d8d93          	addi	s11,s11,1
			--width;
    5788:	fe5ff06f          	j	576c <cbvprintf+0x894>
				len = strlen(bps);
    578c:	000c8513          	mv	a0,s9
    5790:	09c040ef          	jal	ra,982c <strlen>
    5794:	ea9ff06f          	j	563c <cbvprintf+0x764>
			buf[0] = CHAR_IS_SIGNED ? value->sint : value->uint;
    5798:	03012783          	lw	a5,48(sp)
			bpe = buf + 1;
    579c:	01910d13          	addi	s10,sp,25
			bps = buf;
    57a0:	01810c93          	addi	s9,sp,24
			buf[0] = CHAR_IS_SIGNED ? value->sint : value->uint;
    57a4:	00f10c23          	sb	a5,24(sp)
			break;
    57a8:	00000b13          	li	s6,0
    57ac:	e9dff06f          	j	5648 <cbvprintf+0x770>
			if (conv->flag_plus) {
    57b0:	04015703          	lhu	a4,64(sp)
				sign = '+';
    57b4:	02b00b13          	li	s6,43
			if (conv->flag_plus) {
    57b8:	00877693          	andi	a3,a4,8
    57bc:	00069663          	bnez	a3,57c8 <cbvprintf+0x8f0>
				sign = ' ';
    57c0:	00171b13          	slli	s6,a4,0x1
    57c4:	020b7b13          	andi	s6,s6,32
			sint = value->sint;
    57c8:	03412703          	lw	a4,52(sp)
    57cc:	03012683          	lw	a3,48(sp)
			if (sint < 0) {
    57d0:	02075063          	bgez	a4,57f0 <cbvprintf+0x918>
				value->uint = (uint_value_type)-sint;
    57d4:	40d00633          	neg	a2,a3
    57d8:	40e00733          	neg	a4,a4
    57dc:	00d036b3          	snez	a3,a3
    57e0:	40d70733          	sub	a4,a4,a3
    57e4:	02c12823          	sw	a2,48(sp)
    57e8:	02e12a23          	sw	a4,52(sp)
				sign = '-';
    57ec:	02d00b13          	li	s6,45
			bps = encode_uint(value->uint, conv, buf, bpe);
    57f0:	03012503          	lw	a0,48(sp)
    57f4:	03412583          	lw	a1,52(sp)
    57f8:	02e10713          	addi	a4,sp,46
    57fc:	01810693          	addi	a3,sp,24
    5800:	04010613          	addi	a2,sp,64
    5804:	cf0ff0ef          	jal	ra,4cf4 <encode_uint>
    5808:	00050c93          	mv	s9,a0
			if (precision >= 0) {
    580c:	02e10d13          	addi	s10,sp,46
    5810:	e20acae3          	bltz	s5,5644 <cbvprintf+0x76c>
				conv->flag_zero = false;
    5814:	04015683          	lhu	a3,64(sp)
				size_t len = bpe - bps;
    5818:	419d0733          	sub	a4,s10,s9
				conv->flag_zero = false;
    581c:	fbf6f693          	andi	a3,a3,-65
    5820:	04d11023          	sh	a3,64(sp)
				if (len < (size_t)precision) {
    5824:	e35770e3          	bgeu	a4,s5,5644 <cbvprintf+0x76c>
					conv->pad0_value = precision - (int)len;
    5828:	40ea87b3          	sub	a5,s5,a4
    582c:	04f12223          	sw	a5,68(sp)
    5830:	e15ff06f          	j	5644 <cbvprintf+0x76c>
			if (value->ptr != NULL) {
    5834:	03012503          	lw	a0,48(sp)
    5838:	08050063          	beqz	a0,58b8 <cbvprintf+0x9e0>
				bps = encode_uint((uintptr_t)value->ptr, conv,
    583c:	02e10713          	addi	a4,sp,46
    5840:	01810693          	addi	a3,sp,24
    5844:	04010613          	addi	a2,sp,64
    5848:	00000593          	li	a1,0
    584c:	ca8ff0ef          	jal	ra,4cf4 <encode_uint>
				conv->altform_0c = true;
    5850:	04215703          	lhu	a4,66(sp)
    5854:	000086b7          	lui	a3,0x8
    5858:	81068693          	addi	a3,a3,-2032 # 7810 <z_set_prio+0xd8>
    585c:	0ef77713          	andi	a4,a4,239
    5860:	00d76733          	or	a4,a4,a3
				bps = encode_uint((uintptr_t)value->ptr, conv,
    5864:	00050c93          	mv	s9,a0
				conv->altform_0c = true;
    5868:	04e11123          	sh	a4,66(sp)
		char sign = 0;
    586c:	00000b13          	li	s6,0
				goto prec_int_pad0;
    5870:	f9dff06f          	j	580c <cbvprintf+0x934>
	switch ((enum length_mod_enum)conv->length_mod) {
    5874:	00700693          	li	a3,7
				store_count(conv, value->ptr, count);
    5878:	03012783          	lw	a5,48(sp)
	switch ((enum length_mod_enum)conv->length_mod) {
    587c:	c2e6e0e3          	bltu	a3,a4,549c <cbvprintf+0x5c4>
    5880:	00271713          	slli	a4,a4,0x2
    5884:	01770733          	add	a4,a4,s7
    5888:	00072703          	lw	a4,0(a4) # ffffc000 <CONFIG_SYSTEM_WORKQUEUE_PRIORITY+0xffffc001>
    588c:	00070067          	jr	a4
		*(signed char *)dp = (signed char)count;
    5890:	01b78023          	sb	s11,0(a5)
		break;
    5894:	c09ff06f          	j	549c <cbvprintf+0x5c4>
		*(short *)dp = (short)count;
    5898:	01b79023          	sh	s11,0(a5)
		break;
    589c:	c01ff06f          	j	549c <cbvprintf+0x5c4>
		*(intmax_t *)dp = (intmax_t)count;
    58a0:	41fdd713          	srai	a4,s11,0x1f
    58a4:	01b7a023          	sw	s11,0(a5)
    58a8:	00e7a223          	sw	a4,4(a5)
		break;
    58ac:	bf1ff06f          	j	549c <cbvprintf+0x5c4>
		*(ptrdiff_t *)dp = (ptrdiff_t)count;
    58b0:	01b7a023          	sw	s11,0(a5)
		break;
    58b4:	be9ff06f          	j	549c <cbvprintf+0x5c4>
			bps = "(nil)";
    58b8:	0000dcb7          	lui	s9,0xd
			bpe = bps + 5;
    58bc:	000c0d13          	mv	s10,s8
			bps = "(nil)";
    58c0:	5d4c8c93          	addi	s9,s9,1492 # d5d4 <__mprec_tens+0x204>
    58c4:	ee5ff06f          	j	57a8 <cbvprintf+0x8d0>
		} else if (conv->altform_0) {
    58c8:	00877693          	andi	a3,a4,8
    58cc:	d8068ce3          	beqz	a3,5664 <cbvprintf+0x78c>
			nj_len += 1U;
    58d0:	00178793          	addi	a5,a5,1
    58d4:	d91ff06f          	j	5664 <cbvprintf+0x78c>
					OUTC(pad);
    58d8:	00078513          	mv	a0,a5
    58dc:	00098593          	mv	a1,s3
    58e0:	00f12623          	sw	a5,12(sp)
    58e4:	000900e7          	jalr	s2
    58e8:	00c12783          	lw	a5,12(sp)
    58ec:	dc055ce3          	bgez	a0,56c4 <cbvprintf+0x7ec>
#undef OUTS
#undef OUTC
}
    58f0:	08c12083          	lw	ra,140(sp)
    58f4:	08812403          	lw	s0,136(sp)
    58f8:	08412483          	lw	s1,132(sp)
    58fc:	08012903          	lw	s2,128(sp)
    5900:	07c12983          	lw	s3,124(sp)
    5904:	07812a03          	lw	s4,120(sp)
    5908:	07412a83          	lw	s5,116(sp)
    590c:	07012b03          	lw	s6,112(sp)
    5910:	06c12b83          	lw	s7,108(sp)
    5914:	06812c03          	lw	s8,104(sp)
    5918:	06412c83          	lw	s9,100(sp)
    591c:	06012d03          	lw	s10,96(sp)
    5920:	05c12d83          	lw	s11,92(sp)
    5924:	09010113          	addi	sp,sp,144
    5928:	00008067          	ret
				char pad = ' ';
    592c:	02000793          	li	a5,32
    5930:	d91ff06f          	j	56c0 <cbvprintf+0x7e8>
					pad = '0';
    5934:	03000793          	li	a5,48
    5938:	d89ff06f          	j	56c0 <cbvprintf+0x7e8>
				OUTC('0');
    593c:	00098593          	mv	a1,s3
    5940:	03000513          	li	a0,48
    5944:	000900e7          	jalr	s2
    5948:	fa0544e3          	bltz	a0,58f0 <cbvprintf+0xa18>
    594c:	001d8d93          	addi	s11,s11,1
    5950:	df5ff06f          	j	5744 <cbvprintf+0x86c>

00005954 <_ConfigAbsSyms>:
GEN_ABSOLUTE_SYM_KCONFIG(CONFIG_OUTPUT_DISASSEMBLY, 1);
GEN_ABSOLUTE_SYM_KCONFIG(CONFIG_OUTPUT_PRINT_MEMORY_USAGE, 1);
GEN_ABSOLUTE_SYM_KCONFIG(CONFIG_BUILD_OUTPUT_BIN, 1);
GEN_ABSOLUTE_SYM_KCONFIG(CONFIG_COMPAT_INCLUDES, 1);

GEN_ABS_SYM_END
    5954:	00008067          	ret

00005958 <soc_interrupt_init>:
static ALWAYS_INLINE unsigned int arch_irq_lock(void)
{
	unsigned int key;
	ulong_t mstatus;

	__asm__ volatile ("csrrc %0, mstatus, %1"
    5958:	00800793          	li	a5,8
    595c:	3007b7f3          	csrrc	a5,mstatus,a5
void soc_interrupt_init(void)
{
	/* ensure that all interrupts are disabled */
	(void)irq_lock();

	__asm__ volatile ("csrwi mie, 0\n"
    5960:	30405073          	csrwi	mie,0
    5964:	34405073          	csrwi	mip,0
			  "csrwi mip, 0\n");
}
    5968:	00008067          	ret

0000596c <fix_baud_rate>:
	*(volatile uint16_t *)addr = data;
}

static ALWAYS_INLINE uint32_t sys_read32(mem_addr_t addr)
{
	return *(volatile uint32_t *)addr;
    596c:	800017b7          	lui	a5,0x80001
    5970:	03c7a783          	lw	a5,60(a5) # 8000103c <CONFIG_SYSTEM_WORKQUEUE_PRIORITY+0x8000103d>

	/*
	 * calculate baud rate divisor. a variant of
	 * (uint32_t)(dev_cfg->sys_clk_freq / (16.0 * baud_rate) + 0.5)
	 */
	divisor = ((sys_clk_freq + (baud_rate << 3))
    5974:	000e1737          	lui	a4,0xe1
	return *(volatile uint8_t *)addr;
    5978:	800026b7          	lui	a3,0x80002
    597c:	00e787b3          	add	a5,a5,a4
		   / baud_rate) >> 4;
    5980:	0001c737          	lui	a4,0x1c
    5984:	20070713          	addi	a4,a4,512 # 1c200 <W1+0xbe90>
    5988:	02e7d7b3          	divu	a5,a5,a4
    598c:	00c6c703          	lbu	a4,12(a3) # 8000200c <CONFIG_SYSTEM_WORKQUEUE_PRIORITY+0x8000200d>
	sys_write8((divisor >> 8) & 0xff, REG_BRDH);

	sys_write8(lcr_cache, REG_LCR);

	return 0;
}
    5990:	00000513          	li	a0,0
    5994:	0ff77613          	andi	a2,a4,255
	sys_write8(lcr_cache | LCR_DLAB, REG_LCR);
    5998:	f8076713          	ori	a4,a4,-128
    599c:	0ff77713          	andi	a4,a4,255
	*(volatile uint8_t *)addr = data;
    59a0:	00e68623          	sb	a4,12(a3)
	divisor = ((sys_clk_freq + (baud_rate << 3))
    59a4:	0047d713          	srli	a4,a5,0x4
	sys_write8( divisor       & 0xff, REG_BRDL);
    59a8:	0ff77713          	andi	a4,a4,255
	sys_write8((divisor >> 8) & 0xff, REG_BRDH);
    59ac:	00c7d793          	srli	a5,a5,0xc
    59b0:	00e68023          	sb	a4,0(a3)
    59b4:	0ff7f793          	andi	a5,a5,255
    59b8:	00f68223          	sb	a5,4(a3)
    59bc:	00c68623          	sb	a2,12(a3)
}
    59c0:	00008067          	ret

000059c4 <arch_cpu_idle>:
 */
static ALWAYS_INLINE void arch_irq_unlock(unsigned int key)
{
	ulong_t mstatus;

	__asm__ volatile ("csrrs %0, mstatus, %1"
    59c4:	00800793          	li	a5,8
    59c8:	3007a7f3          	csrrs	a5,mstatus,a5
 */

void __weak arch_cpu_idle(void)
{
	irq_unlock(MSTATUS_IEN);
}
    59cc:	00008067          	ret

000059d0 <z_riscv_fatal_error>:
 #define NO_REG "                "
#endif

FUNC_NORETURN void z_riscv_fatal_error(unsigned int reason,
				       const z_arch_esf_t *esf)
{
    59d0:	ff010113          	addi	sp,sp,-16
    59d4:	00112623          	sw	ra,12(sp)
		LOG_ERR("   mepc: " PR_REG, esf->mepc);
		LOG_ERR("mstatus: " PR_REG, esf->mstatus);
		LOG_ERR("");
	}

	z_fatal_error(reason, esf);
    59d8:	415000ef          	jal	ra,65ec <z_fatal_error>

000059dc <_Fault>:
		return "unknown";
	}
}

void _Fault(z_arch_esf_t *esf)
{
    59dc:	ff010113          	addi	sp,sp,-16
    59e0:	00112623          	sw	ra,12(sp)
    59e4:	00050593          	mv	a1,a0
		}
	}
#endif /* CONFIG_USERSPACE */
	ulong_t mcause;

	__asm__ volatile("csrr %0, mcause" : "=r" (mcause));
    59e8:	342027f3          	csrr	a5,mcause

#ifndef CONFIG_SOC_OPENISA_RV32M1_RISCV32
	ulong_t mtval;
	__asm__ volatile("csrr %0, mtval" : "=r" (mtval));
    59ec:	343027f3          	csrr	a5,mtval
	z_fatal_error(reason, esf);
    59f0:	00000513          	li	a0,0
    59f4:	3f9000ef          	jal	ra,65ec <z_fatal_error>

000059f8 <z_irq_spurious>:
#include <kernel_internal.h>
#include <logging/log.h>
LOG_MODULE_DECLARE(os, CONFIG_KERNEL_LOG_LEVEL);

FUNC_NORETURN void z_irq_spurious(const void *unused)
{
    59f8:	ff010113          	addi	sp,sp,-16
    59fc:	00112623          	sw	ra,12(sp)
	ulong_t mcause;

	ARG_UNUSED(unused);

	__asm__ volatile("csrr %0, mcause" : "=r" (mcause));
    5a00:	342027f3          	csrr	a5,mcause
	if (mcause == RISCV_MACHINE_EXT_IRQ) {
		LOG_ERR("PLIC interrupt line causing the IRQ: %d",
			riscv_plic_get_irq());
	}
#endif
	z_riscv_fatal_error(K_ERR_SPURIOUS_IRQ, NULL);
    5a04:	00000593          	li	a1,0
    5a08:	00100513          	li	a0,1
    5a0c:	fc5ff0ef          	jal	ra,59d0 <z_riscv_fatal_error>

00005a10 <_PrepC>:
 *
 * @return N/A
 */

void _PrepC(void)
{
    5a10:	ff010113          	addi	sp,sp,-16
    5a14:	00112623          	sw	ra,12(sp)
	z_bss_zero();
    5a18:	509000ef          	jal	ra,6720 <z_bss_zero>
#ifdef CONFIG_XIP
	z_data_copy();
#endif
#if defined(CONFIG_RISCV_SOC_INTERRUPT_INIT)
	soc_interrupt_init();
    5a1c:	f3dff0ef          	jal	ra,5958 <soc_interrupt_init>
#endif
#ifdef CONFIG_PMP_STACK_GUARD
	z_riscv_configure_interrupt_stack_guard();
#endif
	z_cstart();
    5a20:	521000ef          	jal	ra,6740 <z_cstart>

00005a24 <__initialize>:
SECTION_FUNC(TEXT, __initialize)
	/*
	 * This will boot master core, just halt other cores.
	 * Note: need to be updated for complete SMP support
	 */
	csrr a0, mhartid
    5a24:	f1402573          	csrr	a0,mhartid
	beqz a0, boot_master_core
    5a28:	00050663          	beqz	a0,5a34 <boot_master_core>

00005a2c <loop_slave_core>:

loop_slave_core:
	wfi
    5a2c:	10500073          	wfi
	j loop_slave_core
    5a30:	ffdff06f          	j	5a2c <loop_slave_core>

00005a34 <boot_master_core>:

	/*
	 * Initially, setup stack pointer to
	 * z_interrupt_stacks + CONFIG_ISR_STACK_SIZE
	 */
	la sp, z_interrupt_stacks
    5a34:	0000a117          	auipc	sp,0xa
    5a38:	f0c10113          	addi	sp,sp,-244 # f940 <z_interrupt_stacks>
	li t0, CONFIG_ISR_STACK_SIZE
    5a3c:	000012b7          	lui	t0,0x1
    5a40:	80028293          	addi	t0,t0,-2048 # 800 <CONFIG_ISR_STACK_SIZE>
	add sp, sp, t0
    5a44:	00510133          	add	sp,sp,t0

	csrw mscratch, sp
    5a48:	34011073          	csrw	mscratch,sp

	/*
	 * Jump into C domain. _PrepC zeroes BSS, copies rw data into RAM,
	 * and then enters kernel z_cstart
	 */
	call _PrepC
    5a4c:	fc5ff0ef          	jal	ra,5a10 <_PrepC>

00005a50 <z_thread_entry_wrapper>:
	 * in registers a0, a1, a2 and a3. These registers are used as arguments
	 * to function z_thread_entry. Hence, just call z_thread_entry with
	 * return address set to 0 to indicate a non-returning function call.
	 */

	jal x0, z_thread_entry
    5a50:	eb1fe06f          	j	4900 <z_thread_entry>

00005a54 <arch_new_thread>:
#ifdef CONFIG_RISCV_SOC_CONTEXT_SAVE
	const struct soc_esf soc_esf_init = {SOC_ESF_INIT};
#endif

	/* Initial stack frame for thread */
	stack_init = (struct __esf *)Z_STACK_PTR_ALIGN(
    5a54:	fb460613          	addi	a2,a2,-76 # 3fb4 <main+0x26c>
 * @param ptr Proposed stack pointer address
 * @return Properly aligned stack pointer address
 */
static inline char *z_stack_ptr_align(char *ptr)
{
	return (char *)ROUND_DOWN(ptr, ARCH_STACK_PTR_ALIGN);
    5a58:	ff067613          	andi	a2,a2,-16
				);

	/* Setup the initial stack frame */
	stack_init->a0 = (ulong_t)entry;
	stack_init->a1 = (ulong_t)p1;
	stack_init->a2 = (ulong_t)p2;
    5a5c:	02f62623          	sw	a5,44(a2)
	 *    restored following the MSTATUS value set within the thread stack;
	 * 2) the core will jump to z_thread_entry_wrapper, as the program
	 *    counter will be restored following the MEPC value set within the
	 *    thread stack.
	 */
	stack_init->mstatus = MSTATUS_DEF_RESTORE;
    5a60:	000027b7          	lui	a5,0x2
    5a64:	88078793          	addi	a5,a5,-1920 # 1880 <__divdf3+0x534>
    5a68:	04f62423          	sw	a5,72(a2)
#elif defined(CONFIG_FPU)
	/* Unshared FP mode: enable FPU of each thread. */
	stack_init->mstatus |= MSTATUS_FS_INIT;
#endif

	stack_init->mepc = (ulong_t)z_thread_entry_wrapper;
    5a6c:	000067b7          	lui	a5,0x6
    5a70:	a5078793          	addi	a5,a5,-1456 # 5a50 <z_thread_entry_wrapper>
	stack_init->a0 = (ulong_t)entry;
    5a74:	02d62223          	sw	a3,36(a2)
	stack_init->a1 = (ulong_t)p1;
    5a78:	02e62423          	sw	a4,40(a2)
	stack_init->a3 = (ulong_t)p3;
    5a7c:	03062823          	sw	a6,48(a2)
	stack_init->mepc = (ulong_t)z_thread_entry_wrapper;
    5a80:	04f62223          	sw	a5,68(a2)

#ifdef CONFIG_RISCV_SOC_CONTEXT_SAVE
	stack_init->soc_context = soc_esf_init;
#endif

	thread->callee_saved.sp = (ulong_t)stack_init;
    5a84:	02c52823          	sw	a2,48(a0)
}
    5a88:	00008067          	ret

00005a8c <malloc_prepare>:
		 "memory space available for newlib heap is less than the "
		 "minimum required size specified by "
		 "CONFIG_NEWLIB_LIBC_MIN_REQUIRED_HEAP_SIZE");

	return 0;
}
    5a8c:	00000513          	li	a0,0
    5a90:	00008067          	ret

00005a94 <_stdout_hook_default>:
static int _stdout_hook_default(int c)
{
	(void)(c);  /* Prevent warning about unused argument */

	return EOF;
}
    5a94:	fff00513          	li	a0,-1
    5a98:	00008067          	ret

00005a9c <_stdin_hook_default>:
}

static unsigned char _stdin_hook_default(void)
{
	return 0;
}
    5a9c:	00000513          	li	a0,0
    5aa0:	00008067          	ret

00005aa4 <__stdout_hook_install>:
	_stdout_hook = hook;
    5aa4:	002037b7          	lui	a5,0x203
    5aa8:	74a7a823          	sw	a0,1872(a5) # 203750 <_stdout_hook>
}
    5aac:	00008067          	ret

00005ab0 <z_impl_zephyr_read_stdin>:
{
	_stdin_hook = hook;
}

int z_impl_zephyr_read_stdin(char *buf, int nbytes)
{
    5ab0:	fe010113          	addi	sp,sp,-32
    5ab4:	00812c23          	sw	s0,24(sp)
    5ab8:	00912a23          	sw	s1,20(sp)
    5abc:	01212823          	sw	s2,16(sp)
    5ac0:	01312623          	sw	s3,12(sp)
    5ac4:	01412423          	sw	s4,8(sp)
    5ac8:	01512223          	sw	s5,4(sp)
    5acc:	00112e23          	sw	ra,28(sp)
    5ad0:	00050913          	mv	s2,a0
    5ad4:	00058493          	mv	s1,a1
	int i = 0;

	for (i = 0; i < nbytes; i++) {
    5ad8:	00000413          	li	s0,0
		*(buf + i) = _stdin_hook();
    5adc:	002039b7          	lui	s3,0x203
		if ((*(buf + i) == '\n') || (*(buf + i) == '\r')) {
    5ae0:	00a00a13          	li	s4,10
    5ae4:	00d00a93          	li	s5,13
	for (i = 0; i < nbytes; i++) {
    5ae8:	02945063          	bge	s0,s1,5b08 <z_impl_zephyr_read_stdin+0x58>
		*(buf + i) = _stdin_hook();
    5aec:	74c9a783          	lw	a5,1868(s3) # 20374c <_stdin_hook>
    5af0:	000780e7          	jalr	a5
    5af4:	008907b3          	add	a5,s2,s0
    5af8:	00a78023          	sb	a0,0(a5)
	for (i = 0; i < nbytes; i++) {
    5afc:	00140413          	addi	s0,s0,1
		if ((*(buf + i) == '\n') || (*(buf + i) == '\r')) {
    5b00:	01450463          	beq	a0,s4,5b08 <z_impl_zephyr_read_stdin+0x58>
    5b04:	ff5512e3          	bne	a0,s5,5ae8 <z_impl_zephyr_read_stdin+0x38>
			i++;
			break;
		}
	}
	return i;
}
    5b08:	01c12083          	lw	ra,28(sp)
    5b0c:	00040513          	mv	a0,s0
    5b10:	01812403          	lw	s0,24(sp)
    5b14:	01412483          	lw	s1,20(sp)
    5b18:	01012903          	lw	s2,16(sp)
    5b1c:	00c12983          	lw	s3,12(sp)
    5b20:	00812a03          	lw	s4,8(sp)
    5b24:	00412a83          	lw	s5,4(sp)
    5b28:	02010113          	addi	sp,sp,32
    5b2c:	00008067          	ret

00005b30 <z_impl_zephyr_write_stdout>:
}
#include <syscalls/zephyr_read_stdin_mrsh.c>
#endif

int z_impl_zephyr_write_stdout(const void *buffer, int nbytes)
{
    5b30:	fe010113          	addi	sp,sp,-32
    5b34:	00812c23          	sw	s0,24(sp)
    5b38:	00912a23          	sw	s1,20(sp)
    5b3c:	01212823          	sw	s2,16(sp)
    5b40:	01512223          	sw	s5,4(sp)
    5b44:	01612023          	sw	s6,0(sp)
    5b48:	00112e23          	sw	ra,28(sp)
    5b4c:	01312623          	sw	s3,12(sp)
    5b50:	01412423          	sw	s4,8(sp)
    5b54:	00050913          	mv	s2,a0
    5b58:	00058413          	mv	s0,a1
	const char *buf = buffer;
	int i;

	for (i = 0; i < nbytes; i++) {
    5b5c:	00000493          	li	s1,0
		if (*(buf + i) == '\n') {
    5b60:	00a00a93          	li	s5,10
    5b64:	00203b37          	lui	s6,0x203
	for (i = 0; i < nbytes; i++) {
    5b68:	0284c863          	blt	s1,s0,5b98 <z_impl_zephyr_write_stdout+0x68>
			_stdout_hook('\r');
		}
		_stdout_hook(*(buf + i));
	}
	return nbytes;
}
    5b6c:	01c12083          	lw	ra,28(sp)
    5b70:	00040513          	mv	a0,s0
    5b74:	01812403          	lw	s0,24(sp)
    5b78:	01412483          	lw	s1,20(sp)
    5b7c:	01012903          	lw	s2,16(sp)
    5b80:	00c12983          	lw	s3,12(sp)
    5b84:	00812a03          	lw	s4,8(sp)
    5b88:	00412a83          	lw	s5,4(sp)
    5b8c:	00012b03          	lw	s6,0(sp)
    5b90:	02010113          	addi	sp,sp,32
    5b94:	00008067          	ret
		if (*(buf + i) == '\n') {
    5b98:	009909b3          	add	s3,s2,s1
    5b9c:	0009c783          	lbu	a5,0(s3)
    5ba0:	750b0a13          	addi	s4,s6,1872 # 203750 <_stdout_hook>
    5ba4:	01579863          	bne	a5,s5,5bb4 <z_impl_zephyr_write_stdout+0x84>
			_stdout_hook('\r');
    5ba8:	000a2783          	lw	a5,0(s4)
    5bac:	00d00513          	li	a0,13
    5bb0:	000780e7          	jalr	a5
		_stdout_hook(*(buf + i));
    5bb4:	000a2783          	lw	a5,0(s4)
    5bb8:	0009c503          	lbu	a0,0(s3)
	for (i = 0; i < nbytes; i++) {
    5bbc:	00148493          	addi	s1,s1,1
		_stdout_hook(*(buf + i));
    5bc0:	000780e7          	jalr	a5
	for (i = 0; i < nbytes; i++) {
    5bc4:	fa5ff06f          	j	5b68 <z_impl_zephyr_write_stdout+0x38>

00005bc8 <_read>:
#include <syscalls/zephyr_write_stdout_mrsh.c>
#endif

#ifndef CONFIG_POSIX_API
int _read(int fd, char *buf, int nbytes)
{
    5bc8:	00058513          	mv	a0,a1
    5bcc:	00060593          	mv	a1,a2
		/* coverity[OVERRUN] */
		return (int) arch_syscall_invoke2(*(uintptr_t *)&buf, *(uintptr_t *)&nbytes, K_SYSCALL_ZEPHYR_READ_STDIN);
	}
#endif
	compiler_barrier();
	return z_impl_zephyr_read_stdin(buf, nbytes);
    5bd0:	ee1ff06f          	j	5ab0 <z_impl_zephyr_read_stdin>

00005bd4 <_write>:
	return zephyr_read_stdin(buf, nbytes);
}
__weak FUNC_ALIAS(_read, read, int);

int _write(int fd, const void *buf, int nbytes)
{
    5bd4:	00058513          	mv	a0,a1
    5bd8:	00060593          	mv	a1,a2
		/* coverity[OVERRUN] */
		return (int) arch_syscall_invoke2(*(uintptr_t *)&buf, *(uintptr_t *)&nbytes, K_SYSCALL_ZEPHYR_WRITE_STDOUT);
	}
#endif
	compiler_barrier();
	return z_impl_zephyr_write_stdout(buf, nbytes);
    5bdc:	f55ff06f          	j	5b30 <z_impl_zephyr_write_stdout>

00005be0 <_close>:
    5be0:	fff00513          	li	a0,-1
    5be4:	00008067          	ret

00005be8 <_lseek>:
__weak FUNC_ALIAS(_close, close, int);

int _lseek(int file, int ptr, int dir)
{
	return 0;
}
    5be8:	00000513          	li	a0,0
    5bec:	00008067          	ret

00005bf0 <_isatty>:
#endif

int _isatty(int file)
{
	return file <= 2;
}
    5bf0:	00352513          	slti	a0,a0,3
    5bf4:	00008067          	ret

00005bf8 <_kill>:
__weak FUNC_ALIAS(_isatty, isatty, int);

int _kill(int i, int j)
{
	return 0;
}
    5bf8:	00000513          	li	a0,0
    5bfc:	00008067          	ret

00005c00 <_getpid>:
__weak FUNC_ALIAS(_kill, kill, int);

int _getpid(void)
{
	return 0;
}
    5c00:	00000513          	li	a0,0
    5c04:	00008067          	ret

00005c08 <_fstat>:
__weak FUNC_ALIAS(_getpid, getpid, int);

int _fstat(int file, struct stat *st)
{
	st->st_mode = S_IFCHR;
    5c08:	000027b7          	lui	a5,0x2
    5c0c:	00f5a223          	sw	a5,4(a1)
	return 0;
}
    5c10:	00000513          	li	a0,0
    5c14:	00008067          	ret

00005c18 <_exit>:
__weak FUNC_ALIAS(_fstat, fstat, int);

__weak void _exit(int status)
{
    5c18:	ff010113          	addi	sp,sp,-16
    5c1c:	00112623          	sw	ra,12(sp)
    5c20:	0000d537          	lui	a0,0xd
    5c24:	00500593          	li	a1,5
    5c28:	6ec50513          	addi	a0,a0,1772 # d6ec <dts_ord_9_cfg+0xc>
    5c2c:	f05ff0ef          	jal	ra,5b30 <z_impl_zephyr_write_stdout>
	_write(1, "exit\n", 5);
	while (1) {
    5c30:	0000006f          	j	5c30 <_exit+0x18>

00005c34 <_sbrk>:

void *_sbrk(intptr_t count)
{
	void *ret, *ptr;

	ptr = ((char *)HEAP_BASE) + heap_sz;
    5c34:	0000e737          	lui	a4,0xe
    5c38:	b4c70713          	addi	a4,a4,-1204 # db4c <heap_sz>
    5c3c:	00072783          	lw	a5,0(a4)

	if ((heap_sz + count) < MAX_HEAP_SIZE) {
    5c40:	00800637          	lui	a2,0x800
    5c44:	00f506b3          	add	a3,a0,a5
    5c48:	00204537          	lui	a0,0x204
    5c4c:	83050513          	addi	a0,a0,-2000 # 203830 <__data_region_end>
    5c50:	40a60633          	sub	a2,a2,a0
    5c54:	00c6f863          	bgeu	a3,a2,5c64 <_sbrk+0x30>
	ptr = ((char *)HEAP_BASE) + heap_sz;
    5c58:	00a78533          	add	a0,a5,a0
		heap_sz += count;
    5c5c:	00d72023          	sw	a3,0(a4)
		ret = ptr;
    5c60:	00008067          	ret
	} else {
		ret = (void *)-1;
    5c64:	fff00513          	li	a0,-1
	}

	return ret;
}
    5c68:	00008067          	ret

00005c6c <__retarget_lock_init_recursive>:
	k_sem_init((struct k_sem *)*lock, 1, 1);
}

/* Create a new dynamic recursive lock */
void __retarget_lock_init_recursive(_LOCK_T *lock)
{
    5c6c:	ff010113          	addi	sp,sp,-16
    5c70:	00812423          	sw	s0,8(sp)
    5c74:	00050413          	mv	s0,a0
	__ASSERT_NO_MSG(lock != NULL);

	/* Allocate mutex object */
#ifndef CONFIG_USERSPACE
	*lock = malloc(sizeof(struct k_mutex));
    5c78:	01400513          	li	a0,20
{
    5c7c:	00112623          	sw	ra,12(sp)
	*lock = malloc(sizeof(struct k_mutex));
    5c80:	189020ef          	jal	ra,8608 <malloc>
    5c84:	00a42023          	sw	a0,0(s0)
	*lock = k_object_alloc(K_OBJ_MUTEX);
#endif /* !CONFIG_USERSPACE */
	__ASSERT(*lock != NULL, "recursive lock allocation failed");

	k_mutex_init((struct k_mutex *)*lock);
}
    5c88:	00812403          	lw	s0,8(sp)
    5c8c:	00c12083          	lw	ra,12(sp)
    5c90:	01010113          	addi	sp,sp,16
	return z_impl_k_mutex_init(mutex);
    5c94:	0940106f          	j	6d28 <z_impl_k_mutex_init>

00005c98 <__retarget_lock_acquire_recursive>:
	return z_impl_k_mutex_lock(mutex, timeout);
    5c98:	fff00593          	li	a1,-1
    5c9c:	fff00613          	li	a2,-1
    5ca0:	0a00106f          	j	6d40 <z_impl_k_mutex_lock>

00005ca4 <__retarget_lock_release_recursive>:
	return z_impl_k_mutex_unlock(mutex);
    5ca4:	1fc0106f          	j	6ea0 <z_impl_k_mutex_unlock>

00005ca8 <__errno>:
		/* coverity[OVERRUN] */
		return (int *) arch_syscall_invoke0(K_SYSCALL_Z_ERRNO);
	}
#endif
	compiler_barrier();
	return z_impl_z_errno();
    5ca8:	11d0006f          	j	65c4 <z_impl_z_errno>

00005cac <swerv_pic_init>:
	return *(volatile uint32_t *)(DT_INST_REG_ADDR(0) + reg);
}

static void swerv_pic_write(uint32_t reg, uint32_t val)
{
	*(volatile uint32_t *)(DT_INST_REG_ADDR(0) + reg) = val;
    5cac:	f00c37b7          	lui	a5,0xf00c3
    5cb0:	0007a023          	sw	zero,0(a5) # f00c3000 <CONFIG_SYSTEM_WORKQUEUE_PRIORITY+0xf00c3001>
    5cb4:	f00c27b7          	lui	a5,0xf00c2
    5cb8:	00478713          	addi	a4,a5,4 # f00c2004 <CONFIG_SYSTEM_WORKQUEUE_PRIORITY+0xf00c2005>

	/* Init priority order to 0, 0=lowest to 15=highest */
	swerv_pic_write(SWERV_PIC_mpiccfg, 0);

	/* Ensure that all interrupts are disabled initially */
	for (i = 1; i < SWERV_PIC_MAX_ID; i++) {
    5cbc:	12c78793          	addi	a5,a5,300
	*(volatile uint32_t *)(DT_INST_REG_ADDR(0) + reg) = val;
    5cc0:	00072023          	sw	zero,0(a4)
	for (i = 1; i < SWERV_PIC_MAX_ID; i++) {
    5cc4:	00470713          	addi	a4,a4,4
    5cc8:	fef71ce3          	bne	a4,a5,5cc0 <swerv_pic_init+0x14>
    5ccc:	f00c07b7          	lui	a5,0xf00c0
    5cd0:	00478713          	addi	a4,a5,4 # f00c0004 <CONFIG_SYSTEM_WORKQUEUE_PRIORITY+0xf00c0005>
	*(volatile uint32_t *)(DT_INST_REG_ADDR(0) + reg) = val;
    5cd4:	00f00693          	li	a3,15
		swerv_pic_write(SWERV_PIC_meie(i), 0);
	}

	/* Set priority of each interrupt line to 0 initially */
	for (i = 1; i < SWERV_PIC_MAX_ID; i++) {
    5cd8:	12c78793          	addi	a5,a5,300
	*(volatile uint32_t *)(DT_INST_REG_ADDR(0) + reg) = val;
    5cdc:	00d72023          	sw	a3,0(a4)
	for (i = 1; i < SWERV_PIC_MAX_ID; i++) {
    5ce0:	00470713          	addi	a4,a4,4
    5ce4:	fef71ce3          	bne	a4,a5,5cdc <swerv_pic_init+0x30>
    5ce8:	f00c47b7          	lui	a5,0xf00c4
    5cec:	00478713          	addi	a4,a5,4 # f00c4004 <CONFIG_SYSTEM_WORKQUEUE_PRIORITY+0xf00c4005>
		swerv_pic_write(SWERV_PIC_meipl(i), 15);
	}

	/* Set property of each interrupt line to level-triggered/high */
	for (i = 1; i < SWERV_PIC_MAX_ID; i++) {
    5cf0:	12c78793          	addi	a5,a5,300
	*(volatile uint32_t *)(DT_INST_REG_ADDR(0) + reg) = val;
    5cf4:	00072023          	sw	zero,0(a4)
	for (i = 1; i < SWERV_PIC_MAX_ID; i++) {
    5cf8:	00470713          	addi	a4,a4,4
    5cfc:	fef71ce3          	bne	a4,a5,5cf4 <swerv_pic_init+0x48>
    5d00:	f00c57b7          	lui	a5,0xf00c5
    5d04:	00478713          	addi	a4,a5,4 # f00c5004 <CONFIG_SYSTEM_WORKQUEUE_PRIORITY+0xf00c5005>
		swerv_pic_write(SWERV_PIC_meigwctrl(i), (0<<1)|(0<<0));
	}

	/* clear pending of each interrupt line */
	for (i = 1; i < SWERV_PIC_MAX_ID; i++) {
    5d08:	12c78793          	addi	a5,a5,300
	*(volatile uint32_t *)(DT_INST_REG_ADDR(0) + reg) = val;
    5d0c:	00072023          	sw	zero,0(a4)
	for (i = 1; i < SWERV_PIC_MAX_ID; i++) {
    5d10:	00470713          	addi	a4,a4,4
    5d14:	fef71ce3          	bne	a4,a5,5d0c <swerv_pic_init+0x60>
		swerv_pic_write(SWERV_PIC_meigwclr(i), 0);
	}

	/* No interrupts masked */
	__asm__ swerv_pic_writecsr(meipt, 0);
    5d18:	bc905073          	csrwi	0xbc9,0
	__asm__ swerv_pic_writecsr(meicidpl, 0);
    5d1c:	bcb05073          	csrwi	0xbcb,0
	__asm__ swerv_pic_writecsr(meicurpl, 0);
    5d20:	bcc05073          	csrwi	0xbcc,0

	/*
	 * CSR mie register is updated using atomic instruction csrrs
	 * (atomic read and set bits in CSR register)
	 */
	__asm__ volatile ("csrrs %0, mie, %1\n"
    5d24:	000017b7          	lui	a5,0x1
    5d28:	80078793          	addi	a5,a5,-2048 # 800 <CONFIG_ISR_STACK_SIZE>
    5d2c:	3047a7f3          	csrrs	a5,mie,a5
}
    5d30:	00000513          	li	a0,0
    5d34:	00008067          	ret

00005d38 <swerv_pic_irq_handler>:
{
    5d38:	ff010113          	addi	sp,sp,-16
    5d3c:	00112623          	sw	ra,12(sp)
    5d40:	00812423          	sw	s0,8(sp)
	__asm__ swerv_pic_writecsr(meicpct, 0);
    5d44:	bca05073          	csrwi	0xbca,0
	__asm__ swerv_pic_readcsr(meihap, tmp);
    5d48:	fc802473          	csrr	s0,0xfc8
	irq = (tmp >> 2) & 0xff;
    5d4c:	00245413          	srli	s0,s0,0x2
    5d50:	0ff47413          	andi	s0,s0,255
	save_irq = irq;
    5d54:	0000e7b7          	lui	a5,0xe
    5d58:	b487a823          	sw	s0,-1200(a5) # db50 <save_irq>
	if (irq == 0U || irq >= 64) {
    5d5c:	fff40713          	addi	a4,s0,-1
    5d60:	03e00793          	li	a5,62
    5d64:	00e7f663          	bgeu	a5,a4,5d70 <swerv_pic_irq_handler+0x38>
		z_irq_spurious(NULL);
    5d68:	00000513          	li	a0,0
    5d6c:	c8dff0ef          	jal	ra,59f8 <z_irq_spurious>
	irq += RISCV_MAX_GENERIC_IRQ;
    5d70:	00b40713          	addi	a4,s0,11
	if (ite->isr)
    5d74:	0000d7b7          	lui	a5,0xd
    5d78:	00371713          	slli	a4,a4,0x3
    5d7c:	ed478793          	addi	a5,a5,-300 # ced4 <_sw_isr_table>
    5d80:	00e787b3          	add	a5,a5,a4
    5d84:	0047a703          	lw	a4,4(a5)
    5d88:	00070663          	beqz	a4,5d94 <swerv_pic_irq_handler+0x5c>
		ite->isr(ite->arg);
    5d8c:	0007a503          	lw	a0,0(a5)
    5d90:	000700e7          	jalr	a4
	swerv_pic_write(SWERV_PIC_meigwclr(irq), 0);
    5d94:	000017b7          	lui	a5,0x1
    5d98:	40b78793          	addi	a5,a5,1035 # 140b <__divdf3+0xbf>
    5d9c:	00f40433          	add	s0,s0,a5
    5da0:	00241413          	slli	s0,s0,0x2
	*(volatile uint32_t *)(DT_INST_REG_ADDR(0) + reg) = val;
    5da4:	f00c07b7          	lui	a5,0xf00c0
    5da8:	00f40433          	add	s0,s0,a5
}
    5dac:	00c12083          	lw	ra,12(sp)
	*(volatile uint32_t *)(DT_INST_REG_ADDR(0) + reg) = val;
    5db0:	00042023          	sw	zero,0(s0)
}
    5db4:	00812403          	lw	s0,8(sp)
    5db8:	01010113          	addi	sp,sp,16
    5dbc:	00008067          	ret

00005dc0 <swerv_pic_irq_enable>:
	if ((irq >= SWERV_PIC_MAX_ID) || (irq < RISCV_MAX_GENERIC_IRQ)) {
    5dc0:	ff550713          	addi	a4,a0,-11
    5dc4:	03f00793          	li	a5,63
    5dc8:	02e7e663          	bltu	a5,a4,5df4 <swerv_pic_irq_enable+0x34>
	__asm__ volatile ("csrrc %0, mstatus, %1"
    5dcc:	00800793          	li	a5,8
    5dd0:	3007b7f3          	csrrc	a5,mstatus,a5
	swerv_pic_write(SWERV_PIC_meie(irq - RISCV_MAX_GENERIC_IRQ), 1);
    5dd4:	7f550513          	addi	a0,a0,2037
	*(volatile uint32_t *)(DT_INST_REG_ADDR(0) + reg) = val;
    5dd8:	f00c0737          	lui	a4,0xf00c0
	swerv_pic_write(SWERV_PIC_meie(irq - RISCV_MAX_GENERIC_IRQ), 1);
    5ddc:	00251513          	slli	a0,a0,0x2
	*(volatile uint32_t *)(DT_INST_REG_ADDR(0) + reg) = val;
    5de0:	00e50533          	add	a0,a0,a4
    5de4:	00100713          	li	a4,1
    5de8:	00e52023          	sw	a4,0(a0)
	key = (mstatus & MSTATUS_IEN);
    5dec:	0087f793          	andi	a5,a5,8
	__asm__ volatile ("csrrs %0, mstatus, %1"
    5df0:	3007a7f3          	csrrs	a5,mstatus,a5
}
    5df4:	00008067          	ret

00005df8 <arch_irq_enable>:
	if (irq > RISCV_MAX_GENERIC_IRQ) {
    5df8:	00b00793          	li	a5,11
    5dfc:	00a7f463          	bgeu	a5,a0,5e04 <arch_irq_enable+0xc>
		swerv_pic_irq_enable(irq);
    5e00:	fc1ff06f          	j	5dc0 <swerv_pic_irq_enable>
			  : "=r" (mie)
			  : "r" (1 << irq));
    5e04:	00100793          	li	a5,1
    5e08:	00a79533          	sll	a0,a5,a0
	__asm__ volatile ("csrrs %0, mie, %1\n"
    5e0c:	30452573          	csrrs	a0,mie,a0
}
    5e10:	00008067          	ret

00005e14 <uart_console_init>:
{

	ARG_UNUSED(arg);

	/* Claim console device */
	uart_console_dev = DEVICE_DT_GET(DT_CHOSEN(zephyr_console));
    5e14:	0000d537          	lui	a0,0xd
{
    5e18:	ff010113          	addi	sp,sp,-16
	uart_console_dev = DEVICE_DT_GET(DT_CHOSEN(zephyr_console));
    5e1c:	e8c50713          	addi	a4,a0,-372 # ce8c <__device_dts_ord_11>
    5e20:	0000e7b7          	lui	a5,0xe
{
    5e24:	00112623          	sw	ra,12(sp)
    5e28:	00812423          	sw	s0,8(sp)
	uart_console_dev = DEVICE_DT_GET(DT_CHOSEN(zephyr_console));
    5e2c:	b4e7aa23          	sw	a4,-1196(a5) # db54 <uart_console_dev>
 *
 * @return a non-positive integer as documented in device_usable_check().
 */
static inline int z_device_usable_check(const struct device *dev)
{
	return z_device_ready(dev) ? 0 : -ENODEV;
    5e30:	e8c50513          	addi	a0,a0,-372
    5e34:	76c000ef          	jal	ra,65a0 <z_device_ready>
    5e38:	fed00793          	li	a5,-19
    5e3c:	00050e63          	beqz	a0,5e58 <uart_console_init+0x44>
	__stdout_hook_install(console_out);
    5e40:	00006437          	lui	s0,0x6
    5e44:	e6c40513          	addi	a0,s0,-404 # 5e6c <console_out>
    5e48:	c5dff0ef          	jal	ra,5aa4 <__stdout_hook_install>
	__printk_hook_install(console_out);
    5e4c:	e6c40513          	addi	a0,s0,-404
    5e50:	9b5fe0ef          	jal	ra,4804 <__printk_hook_install>
		return -ENODEV;
	}

	uart_console_hook_install();

	return 0;
    5e54:	00000793          	li	a5,0
}
    5e58:	00c12083          	lw	ra,12(sp)
    5e5c:	00812403          	lw	s0,8(sp)
    5e60:	00078513          	mv	a0,a5
    5e64:	01010113          	addi	sp,sp,16
    5e68:	00008067          	ret

00005e6c <console_out>:
{
    5e6c:	ff010113          	addi	sp,sp,-16
    5e70:	00812423          	sw	s0,8(sp)
    5e74:	00912223          	sw	s1,4(sp)
    5e78:	00112623          	sw	ra,12(sp)
    5e7c:	0000e4b7          	lui	s1,0xe
	if ('\n' == c) {
    5e80:	00a00793          	li	a5,10
{
    5e84:	00050413          	mv	s0,a0
    5e88:	b5448493          	addi	s1,s1,-1196 # db54 <uart_console_dev>
	if ('\n' == c) {
    5e8c:	00f51c63          	bne	a0,a5,5ea4 <console_out+0x38>
		uart_poll_out(uart_console_dev, '\r');
    5e90:	0004a503          	lw	a0,0(s1)
						unsigned char out_char)
{
	const struct uart_driver_api *api =
		(const struct uart_driver_api *)dev->api;

	api->poll_out(dev, out_char);
    5e94:	00852783          	lw	a5,8(a0)
    5e98:	00d00593          	li	a1,13
    5e9c:	0047a783          	lw	a5,4(a5)
    5ea0:	000780e7          	jalr	a5
	uart_poll_out(uart_console_dev, c);
    5ea4:	0004a503          	lw	a0,0(s1)
    5ea8:	00852783          	lw	a5,8(a0)
    5eac:	0ff47593          	andi	a1,s0,255
    5eb0:	0047a783          	lw	a5,4(a5)
    5eb4:	000780e7          	jalr	a5
}
    5eb8:	00c12083          	lw	ra,12(sp)
    5ebc:	00040513          	mv	a0,s0
    5ec0:	00812403          	lw	s0,8(sp)
    5ec4:	00412483          	lw	s1,4(sp)
    5ec8:	01010113          	addi	sp,sp,16
    5ecc:	00008067          	ret

00005ed0 <gpio_mmio32_config>:

static int gpio_mmio32_config(const struct device *dev,
			      gpio_pin_t pin, gpio_flags_t flags)
{
	struct gpio_mmio32_context *context = dev->data;
	const struct gpio_mmio32_config *config = context->config;
    5ed0:	01052783          	lw	a5,16(a0)
    5ed4:	0047a683          	lw	a3,4(a5)

	if ((config->mask & (1 << pin)) == 0) {
    5ed8:	00100793          	li	a5,1
    5edc:	00b795b3          	sll	a1,a5,a1
    5ee0:	0086a783          	lw	a5,8(a3)
    5ee4:	00f5f7b3          	and	a5,a1,a5
    5ee8:	06078c63          	beqz	a5,5f60 <gpio_mmio32_config+0x90>
		return -EINVAL; /* Pin not in our validity mask */
	}

	if (flags & ~(GPIO_INPUT | GPIO_OUTPUT |
    5eec:	fffff7b7          	lui	a5,0xfffff
    5ef0:	0fe78793          	addi	a5,a5,254 # fffff0fe <CONFIG_SYSTEM_WORKQUEUE_PRIORITY+0xfffff0ff>
    5ef4:	00f677b3          	and	a5,a2,a5
		      GPIO_OUTPUT_INIT_LOW | GPIO_OUTPUT_INIT_HIGH |
		      GPIO_ACTIVE_LOW)) {
		/* We ignore direction and fake polarity, rest is unsupported */
		return -ENOTSUP;
    5ef8:	f7a00513          	li	a0,-134
	if (flags & ~(GPIO_INPUT | GPIO_OUTPUT |
    5efc:	06079463          	bnez	a5,5f64 <gpio_mmio32_config+0x94>
	}

	if ((flags & GPIO_OUTPUT) != 0) {
    5f00:	20067793          	andi	a5,a2,512
			*reg = (*reg & (config->mask & ~(1 << pin)));
		}
		irq_unlock(key);
	}

	return 0;
    5f04:	00000513          	li	a0,0
	if ((flags & GPIO_OUTPUT) != 0) {
    5f08:	04078e63          	beqz	a5,5f64 <gpio_mmio32_config+0x94>
		volatile uint32_t *reg = config->reg;
    5f0c:	0046a703          	lw	a4,4(a3)
	__asm__ volatile ("csrrc %0, mstatus, %1"
    5f10:	00800793          	li	a5,8
    5f14:	3007b7f3          	csrrc	a5,mstatus,a5
		if ((flags & GPIO_OUTPUT_INIT_HIGH) != 0) {
    5f18:	00b65513          	srli	a0,a2,0xb
    5f1c:	00157513          	andi	a0,a0,1
	key = (mstatus & MSTATUS_IEN);
    5f20:	0087f793          	andi	a5,a5,8
    5f24:	00050e63          	beqz	a0,5f40 <gpio_mmio32_config+0x70>
			*reg = (*reg | (1 << pin));
    5f28:	00072683          	lw	a3,0(a4) # f00c0000 <CONFIG_SYSTEM_WORKQUEUE_PRIORITY+0xf00c0001>
    5f2c:	00d5e5b3          	or	a1,a1,a3
			*reg = (*reg & (config->mask & ~(1 << pin)));
    5f30:	00b72023          	sw	a1,0(a4)
	__asm__ volatile ("csrrs %0, mstatus, %1"
    5f34:	3007a7f3          	csrrs	a5,mstatus,a5
	return 0;
    5f38:	00000513          	li	a0,0
			  : "=r" (mstatus)
			  : "r" (key & MSTATUS_IEN)
			  : "memory");
}
    5f3c:	00008067          	ret
		} else if ((flags & GPIO_OUTPUT_INIT_LOW) != 0) {
    5f40:	40067613          	andi	a2,a2,1024
    5f44:	fe0608e3          	beqz	a2,5f34 <gpio_mmio32_config+0x64>
			*reg = (*reg & (config->mask & ~(1 << pin)));
    5f48:	0086a683          	lw	a3,8(a3)
    5f4c:	00072603          	lw	a2,0(a4)
    5f50:	fff5c593          	not	a1,a1
    5f54:	00d5f5b3          	and	a1,a1,a3
    5f58:	00c5f5b3          	and	a1,a1,a2
    5f5c:	fd5ff06f          	j	5f30 <gpio_mmio32_config+0x60>
		return -EINVAL; /* Pin not in our validity mask */
    5f60:	fea00513          	li	a0,-22
}
    5f64:	00008067          	ret

00005f68 <gpio_mmio32_port_get_raw>:

static int gpio_mmio32_port_get_raw(const struct device *dev, uint32_t *value)
{
	struct gpio_mmio32_context *context = dev->data;
	const struct gpio_mmio32_config *config = context->config;
    5f68:	01052783          	lw	a5,16(a0)

	*value = *config->reg & config->mask;

	return 0;
}
    5f6c:	00000513          	li	a0,0
	const struct gpio_mmio32_config *config = context->config;
    5f70:	0047a703          	lw	a4,4(a5)
	*value = *config->reg & config->mask;
    5f74:	00472783          	lw	a5,4(a4)
    5f78:	0007a683          	lw	a3,0(a5)
    5f7c:	00872783          	lw	a5,8(a4)
    5f80:	00d7f7b3          	and	a5,a5,a3
    5f84:	00f5a023          	sw	a5,0(a1)
}
    5f88:	00008067          	ret

00005f8c <gpio_mmio32_port_set_masked_raw>:
static int gpio_mmio32_port_set_masked_raw(const struct device *dev,
					   uint32_t mask,
					   uint32_t value)
{
	struct gpio_mmio32_context *context = dev->data;
	const struct gpio_mmio32_config *config = context->config;
    5f8c:	01052783          	lw	a5,16(a0)
    5f90:	0047a783          	lw	a5,4(a5)
	volatile uint32_t *reg = config->reg;
    5f94:	0047a703          	lw	a4,4(a5)
	unsigned int key;

	mask &= config->mask;
    5f98:	0087a783          	lw	a5,8(a5)
    5f9c:	00f5f5b3          	and	a1,a1,a5
	__asm__ volatile ("csrrc %0, mstatus, %1"
    5fa0:	00800793          	li	a5,8
    5fa4:	3007b7f3          	csrrc	a5,mstatus,a5
	value &= mask;

	/* Update pin state atomically */
	key = irq_lock();
	*reg = (*reg & ~mask) | value;
    5fa8:	00072683          	lw	a3,0(a4)
	key = (mstatus & MSTATUS_IEN);
    5fac:	0087f793          	andi	a5,a5,8
    5fb0:	00c6c633          	xor	a2,a3,a2
    5fb4:	00b67633          	and	a2,a2,a1
    5fb8:	00d64633          	xor	a2,a2,a3
    5fbc:	00c72023          	sw	a2,0(a4)
	__asm__ volatile ("csrrs %0, mstatus, %1"
    5fc0:	3007a7f3          	csrrs	a5,mstatus,a5
	irq_unlock(key);

	return 0;
}
    5fc4:	00000513          	li	a0,0
    5fc8:	00008067          	ret

00005fcc <gpio_mmio32_port_set_bits_raw>:

static int gpio_mmio32_port_set_bits_raw(const struct device *dev,
					 uint32_t mask)
{
	struct gpio_mmio32_context *context = dev->data;
	const struct gpio_mmio32_config *config = context->config;
    5fcc:	01052783          	lw	a5,16(a0)
    5fd0:	0047a783          	lw	a5,4(a5)
	volatile uint32_t *reg = config->reg;
	unsigned int key;

	mask &= config->mask;
    5fd4:	0087a703          	lw	a4,8(a5)
	volatile uint32_t *reg = config->reg;
    5fd8:	0047a683          	lw	a3,4(a5)
	__asm__ volatile ("csrrc %0, mstatus, %1"
    5fdc:	00800793          	li	a5,8
	mask &= config->mask;
    5fe0:	00e5f733          	and	a4,a1,a4
    5fe4:	3007b7f3          	csrrc	a5,mstatus,a5

	/* Update pin state atomically */
	key = irq_lock();
	*reg = (*reg | mask);
    5fe8:	0006a583          	lw	a1,0(a3)
	key = (mstatus & MSTATUS_IEN);
    5fec:	0087f793          	andi	a5,a5,8
    5ff0:	00e5e5b3          	or	a1,a1,a4
    5ff4:	00b6a023          	sw	a1,0(a3)
	__asm__ volatile ("csrrs %0, mstatus, %1"
    5ff8:	3007a7f3          	csrrs	a5,mstatus,a5
	irq_unlock(key);

	return 0;
}
    5ffc:	00000513          	li	a0,0
    6000:	00008067          	ret

00006004 <gpio_mmio32_port_clear_bits_raw>:

static int gpio_mmio32_port_clear_bits_raw(const struct device *dev,
					   uint32_t mask)
{
	struct gpio_mmio32_context *context = dev->data;
	const struct gpio_mmio32_config *config = context->config;
    6004:	01052783          	lw	a5,16(a0)
    6008:	0047a783          	lw	a5,4(a5)
	volatile uint32_t *reg = config->reg;
    600c:	0047a703          	lw	a4,4(a5)
	unsigned int key;

	mask &= config->mask;
    6010:	0087a783          	lw	a5,8(a5)
    6014:	00f5f5b3          	and	a1,a1,a5
	__asm__ volatile ("csrrc %0, mstatus, %1"
    6018:	00800793          	li	a5,8
    601c:	3007b7f3          	csrrc	a5,mstatus,a5

	/* Update pin state atomically */
	key = irq_lock();
	*reg = (*reg & ~mask);
    6020:	00072683          	lw	a3,0(a4)
    6024:	fff5c593          	not	a1,a1
	key = (mstatus & MSTATUS_IEN);
    6028:	0087f793          	andi	a5,a5,8
    602c:	00d5f5b3          	and	a1,a1,a3
    6030:	00b72023          	sw	a1,0(a4)
	__asm__ volatile ("csrrs %0, mstatus, %1"
    6034:	3007a7f3          	csrrs	a5,mstatus,a5
	irq_unlock(key);

	return 0;
}
    6038:	00000513          	li	a0,0
    603c:	00008067          	ret

00006040 <gpio_mmio32_port_toggle_bits>:

static int gpio_mmio32_port_toggle_bits(const struct device *dev,
					uint32_t mask)
{
	struct gpio_mmio32_context *context = dev->data;
	const struct gpio_mmio32_config *config = context->config;
    6040:	01052783          	lw	a5,16(a0)
    6044:	0047a783          	lw	a5,4(a5)
	volatile uint32_t *reg = config->reg;
	unsigned int key;

	mask &= config->mask;
    6048:	0087a703          	lw	a4,8(a5)
	volatile uint32_t *reg = config->reg;
    604c:	0047a683          	lw	a3,4(a5)
	__asm__ volatile ("csrrc %0, mstatus, %1"
    6050:	00800793          	li	a5,8
	mask &= config->mask;
    6054:	00e5f733          	and	a4,a1,a4
    6058:	3007b7f3          	csrrc	a5,mstatus,a5

	/* Update pin state atomically */
	key = irq_lock();
	*reg = (*reg ^ mask);
    605c:	0006a583          	lw	a1,0(a3)
	key = (mstatus & MSTATUS_IEN);
    6060:	0087f793          	andi	a5,a5,8
    6064:	00e5c5b3          	xor	a1,a1,a4
    6068:	00b6a023          	sw	a1,0(a3)
	__asm__ volatile ("csrrs %0, mstatus, %1"
    606c:	3007a7f3          	csrrs	a5,mstatus,a5
	irq_unlock(key);

	return 0;
}
    6070:	00000513          	li	a0,0
    6074:	00008067          	ret

00006078 <gpio_mmio32_pin_interrupt_configure>:
static int gpio_mmio32_pin_interrupt_configure(const struct device *dev,
					       gpio_pin_t pin,
					       enum gpio_int_mode mode,
					       enum gpio_int_trig trig)
{
	if (mode != GPIO_INT_MODE_DISABLED) {
    6078:	000027b7          	lui	a5,0x2
		return -ENOTSUP;
	}

	return 0;
    607c:	00000513          	li	a0,0
	if (mode != GPIO_INT_MODE_DISABLED) {
    6080:	00f60463          	beq	a2,a5,6088 <gpio_mmio32_pin_interrupt_configure+0x10>
		return -ENOTSUP;
    6084:	f7a00513          	li	a0,-134
}
    6088:	00008067          	ret

0000608c <gpio_mmio32_init>:
int gpio_mmio32_init(const struct device *dev)
{
	struct gpio_mmio32_context *context = dev->data;
	const struct gpio_mmio32_config *config = dev->config;

	context->config = config;
    608c:	01052783          	lw	a5,16(a0)
    6090:	00452703          	lw	a4,4(a0)

	return 0;
}
    6094:	00000513          	li	a0,0
	context->config = config;
    6098:	00e7a223          	sw	a4,4(a5) # 2004 <CONFIG_SRAM_SIZE+0x4>
}
    609c:	00008067          	ret

000060a0 <gpio_veerwolf_init>:
/* Driver functions */

static int gpio_veerwolf_init(const struct device *dev)
{
	return 0;
}
    60a0:	00000513          	li	a0,0
    60a4:	00008067          	ret

000060a8 <gpio_veerwolf_configure>:

static int gpio_veerwolf_configure(const struct device *dev,
				gpio_pin_t pin, gpio_flags_t flags)
{
	return 0;
}
    60a8:	00000513          	li	a0,0
    60ac:	00008067          	ret

000060b0 <gpio_veerwolf_port_get_raw>:

static int gpio_veerwolf_port_get_raw(const struct device *dev,
				   gpio_port_value_t *value)
{
	mem_addr_t addr = DEV_GPIO_ADDR(dev);
    60b0:	00452783          	lw	a5,4(a0)

	*value = sys_read32(addr);
	return 0;
}
    60b4:	00000513          	li	a0,0
	mem_addr_t addr = DEV_GPIO_ADDR(dev);
    60b8:	0007a783          	lw	a5,0(a5)
	return *(volatile uint32_t *)addr;
    60bc:	0007a783          	lw	a5,0(a5)
	*value = sys_read32(addr);
    60c0:	00f5a023          	sw	a5,0(a1)
}
    60c4:	00008067          	ret

000060c8 <gpio_veerwolf_port_set_masked_raw>:

static int gpio_veerwolf_port_set_masked_raw(const struct device *dev,
					  gpio_port_pins_t mask,
					  gpio_port_value_t value)
{
	mem_addr_t addr = DEV_GPIO_ADDR(dev);
    60c8:	00452783          	lw	a5,4(a0)
	port_val = sys_read32(addr);
	port_val = (port_val & ~mask) | (value & mask);
	sys_write32(port_val, addr);

	return 0;
}
    60cc:	00000513          	li	a0,0
	mem_addr_t addr = DEV_GPIO_ADDR(dev);
    60d0:	0007a783          	lw	a5,0(a5)
    60d4:	0007a703          	lw	a4,0(a5)
	port_val = (port_val & ~mask) | (value & mask);
    60d8:	00e64633          	xor	a2,a2,a4
    60dc:	00b67633          	and	a2,a2,a1
    60e0:	00e64633          	xor	a2,a2,a4
}

static ALWAYS_INLINE void sys_write32(uint32_t data, mem_addr_t addr)
{
	*(volatile uint32_t *)addr = data;
    60e4:	00c7a023          	sw	a2,0(a5)
}
    60e8:	00008067          	ret

000060ec <gpio_veerwolf_port_set_bits_raw>:

static int gpio_veerwolf_port_set_bits_raw(const struct device *dev,
					gpio_port_pins_t pins)
{
	mem_addr_t addr = DEV_GPIO_ADDR(dev);
    60ec:	00452783          	lw	a5,4(a0)

	port_val = sys_read32(addr) | pins;
	sys_write32(port_val, addr);

	return 0;
}
    60f0:	00000513          	li	a0,0
	mem_addr_t addr = DEV_GPIO_ADDR(dev);
    60f4:	0007a783          	lw	a5,0(a5)
	return *(volatile uint32_t *)addr;
    60f8:	0007a703          	lw	a4,0(a5)
	port_val = sys_read32(addr) | pins;
    60fc:	00e5e5b3          	or	a1,a1,a4
	*(volatile uint32_t *)addr = data;
    6100:	00b7a023          	sw	a1,0(a5)
}
    6104:	00008067          	ret

00006108 <gpio_veerwolf_port_clear_bits_raw>:

static int gpio_veerwolf_port_clear_bits_raw(const struct device *dev,
					  gpio_port_pins_t pins)
{
	mem_addr_t addr = DEV_GPIO_ADDR(dev);
    6108:	00452783          	lw	a5,4(a0)
	uint32_t port_val;

	port_val = sys_read32(addr) & ~pins;
    610c:	fff5c593          	not	a1,a1
	sys_write32(port_val, addr);

	return 0;
}
    6110:	00000513          	li	a0,0
	mem_addr_t addr = DEV_GPIO_ADDR(dev);
    6114:	0007a783          	lw	a5,0(a5)
	return *(volatile uint32_t *)addr;
    6118:	0007a703          	lw	a4,0(a5)
	port_val = sys_read32(addr) & ~pins;
    611c:	00e5f5b3          	and	a1,a1,a4
	*(volatile uint32_t *)addr = data;
    6120:	00b7a023          	sw	a1,0(a5)
}
    6124:	00008067          	ret

00006128 <gpio_veerwolf_port_toggle_bits>:

static int gpio_veerwolf_port_toggle_bits(const struct device *dev,
				       gpio_port_pins_t pins)
{
	mem_addr_t addr = DEV_GPIO_ADDR(dev);
    6128:	00452783          	lw	a5,4(a0)

	port_val = sys_read32(addr) ^ pins;
	sys_write32(port_val, addr);

	return 0;
}
    612c:	00000513          	li	a0,0
	mem_addr_t addr = DEV_GPIO_ADDR(dev);
    6130:	0007a783          	lw	a5,0(a5)
	return *(volatile uint32_t *)addr;
    6134:	0007a703          	lw	a4,0(a5)
	port_val = sys_read32(addr) ^ pins;
    6138:	00e5c5b3          	xor	a1,a1,a4
	*(volatile uint32_t *)addr = data;
    613c:	00b7a023          	sw	a1,0(a5)
}
    6140:	00008067          	ret

00006144 <gpio_veerwolf_pin_interrupt_configure>:
					      enum gpio_int_mode mode,
					      enum gpio_int_trig trig)
{
	int ret = 0;

	if (mode != GPIO_INT_MODE_DISABLED) {
    6144:	000027b7          	lui	a5,0x2
	int ret = 0;
    6148:	00000513          	li	a0,0
	if (mode != GPIO_INT_MODE_DISABLED) {
    614c:	00f60463          	beq	a2,a5,6154 <gpio_veerwolf_pin_interrupt_configure+0x10>
		ret = -ENOTSUP;
    6150:	f7a00513          	li	a0,-134
	}
	return ret;
}
    6154:	00008067          	ret

00006158 <uart_ns16550_configure>:
}

static int uart_ns16550_configure(const struct device *dev,
				  const struct uart_config *cfg)
{
	struct uart_ns16550_dev_data * const dev_data = DEV_DATA(dev);
    6158:	01052883          	lw	a7,16(a0)
{
    615c:	00050793          	mv	a5,a0
	__asm__ volatile ("csrrc %0, mstatus, %1"
    6160:	00800693          	li	a3,8
    6164:	3006b6f3          	csrrc	a3,mstatus,a3
		OUTWORD(PCP(dev), pcp & ~PCP_UPDATE);
		OUTWORD(PCP(dev), pcp | PCP_UPDATE);
	}
#endif

	set_baud_rate(dev, cfg->baudrate);
    6168:	0005a503          	lw	a0,0(a1)
	key = (mstatus & MSTATUS_IEN);
    616c:	0086f693          	andi	a3,a3,8
	if ((baud_rate != 0U) && (dev_cfg->sys_clk_freq != 0U)) {
    6170:	06050863          	beqz	a0,61e0 <uart_ns16550_configure+0x88>
	const struct uart_ns16550_device_config * const dev_cfg = DEV_CFG(dev);
    6174:	0047a603          	lw	a2,4(a5) # 2004 <CONFIG_SRAM_SIZE+0x4>
	if ((baud_rate != 0U) && (dev_cfg->sys_clk_freq != 0U)) {
    6178:	00462803          	lw	a6,4(a2) # 800004 <__data_region_end+0x5fc7d4>
    617c:	06080263          	beqz	a6,61e0 <uart_ns16550_configure+0x88>
		divisor = ((dev_cfg->sys_clk_freq + (baud_rate << 3))
    6180:	00351713          	slli	a4,a0,0x3
    6184:	01070733          	add	a4,a4,a6
					/ baud_rate) >> 4;
    6188:	02a75733          	divu	a4,a4,a0
		lcr_cache = INBYTE(LCR(dev));
    618c:	00062803          	lw	a6,0(a2)
	struct uart_ns16550_dev_data * const dev_data = DEV_DATA(dev);
    6190:	0107a303          	lw	t1,16(a5)
	return *(volatile uint8_t *)addr;
    6194:	00c84603          	lbu	a2,12(a6)
    6198:	0ff67e13          	andi	t3,a2,255
		OUTBYTE(LCR(dev), LCR_DLAB | lcr_cache);
    619c:	f8066613          	ori	a2,a2,-128
    61a0:	0ff67613          	andi	a2,a2,255
	*(volatile uint8_t *)addr = data;
    61a4:	00c80623          	sb	a2,12(a6)
	return DEVICE_MMIO_GET(dev);
    61a8:	0047a803          	lw	a6,4(a5)
    61ac:	00082803          	lw	a6,0(a6)
		divisor = ((dev_cfg->sys_clk_freq + (baud_rate << 3))
    61b0:	00475613          	srli	a2,a4,0x4
		OUTBYTE(BRDL(dev), (unsigned char)(divisor & 0xff));
    61b4:	0ff67613          	andi	a2,a2,255
    61b8:	00c80023          	sb	a2,0(a6)
	return DEVICE_MMIO_GET(dev);
    61bc:	0047a603          	lw	a2,4(a5)
		OUTBYTE(BRDH(dev), (unsigned char)((divisor >> 8) & 0xff));
    61c0:	00c75713          	srli	a4,a4,0xc
    61c4:	0ff77713          	andi	a4,a4,255
    61c8:	00062603          	lw	a2,0(a2)
    61cc:	00e60223          	sb	a4,4(a2)
	return DEVICE_MMIO_GET(dev);
    61d0:	0047a703          	lw	a4,4(a5)
		OUTBYTE(LCR(dev), lcr_cache);
    61d4:	00072703          	lw	a4,0(a4)
    61d8:	01c70623          	sb	t3,12(a4)
		dev_data->uart_config.baudrate = baud_rate;
    61dc:	00a32023          	sw	a0,0(t1) # 10000 <z_interrupt_stacks+0x6c0>

	/* Local structure to hold temporary values to pass to OUTBYTE() */
	struct uart_config uart_cfg;

	switch (cfg->data_bits) {
    61e0:	0065c603          	lbu	a2,6(a1)
    61e4:	00300713          	li	a4,3
		break;
	case UART_CFG_DATA_BITS_8:
		uart_cfg.data_bits = LCR_CS8;
		break;
	default:
		ret = -ENOTSUP;
    61e8:	f7a00513          	li	a0,-134
    61ec:	08c76663          	bltu	a4,a2,6278 <uart_ns16550_configure+0x120>
		goto out;
	}

	switch (cfg->stop_bits) {
    61f0:	0055c803          	lbu	a6,5(a1)
    61f4:	00100513          	li	a0,1
    61f8:	08a80463          	beq	a6,a0,6280 <uart_ns16550_configure+0x128>
    61fc:	f7a00513          	li	a0,-134
    6200:	06e81c63          	bne	a6,a4,6278 <uart_ns16550_configure+0x120>
    6204:	00400813          	li	a6,4
	default:
		ret = -ENOTSUP;
		goto out;
	}

	switch (cfg->parity) {
    6208:	0045c703          	lbu	a4,4(a1)
    620c:	00070a63          	beqz	a4,6220 <uart_ns16550_configure+0xc8>
    6210:	00200313          	li	t1,2
    6214:	f7a00513          	li	a0,-134
    6218:	06671063          	bne	a4,t1,6278 <uart_ns16550_configure+0x120>
    621c:	01000713          	li	a4,16
	default:
		ret = -ENOTSUP;
		goto out;
	}

	dev_data->uart_config = *cfg;
    6220:	0005a503          	lw	a0,0(a1)

	/* data bits, stop bits, parity, clear DLAB */
	OUTBYTE(LCR(dev),
    6224:	01066633          	or	a2,a2,a6
    6228:	00c76733          	or	a4,a4,a2
	return DEVICE_MMIO_GET(dev);
    622c:	0047a603          	lw	a2,4(a5)
	dev_data->uart_config = *cfg;
    6230:	00a8a023          	sw	a0,0(a7) # 80000 <digits+0x5290>
    6234:	0045a583          	lw	a1,4(a1)
	OUTBYTE(LCR(dev),
    6238:	00062603          	lw	a2,0(a2)
	int ret = 0;
    623c:	00000513          	li	a0,0
	dev_data->uart_config = *cfg;
    6240:	00b8a223          	sw	a1,4(a7)
    6244:	00e60623          	sb	a4,12(a2)
	return DEVICE_MMIO_GET(dev);
    6248:	0047a703          	lw	a4,4(a5)
    624c:	00b00613          	li	a2,11
	if (cfg->flow_ctrl == UART_CFG_FLOW_CTRL_RTS_CTS) {
		mdc |= MCR_AFCE;
	}
#endif

	OUTBYTE(MDC(dev), mdc);
    6250:	00072703          	lw	a4,0(a4)
    6254:	00c70823          	sb	a2,16(a4)
	return DEVICE_MMIO_GET(dev);
    6258:	0047a703          	lw	a4,4(a5)
    625c:	f8700613          	li	a2,-121
	/*
	 * Program FIFO: enabled, mode 0 (set for compatibility with quark),
	 * generate the interrupt at 8th byte
	 * Clear TX and RX FIFO
	 */
	OUTBYTE(FCR(dev),
    6260:	00072703          	lw	a4,0(a4)
    6264:	00c70423          	sb	a2,8(a4)
	return DEVICE_MMIO_GET(dev);
    6268:	0047a783          	lw	a5,4(a5)
    626c:	0007a783          	lw	a5,0(a5)
	return *(volatile uint8_t *)addr;
    6270:	0007c703          	lbu	a4,0(a5)
	*(volatile uint8_t *)addr = data;
    6274:	00078223          	sb	zero,4(a5)
	__asm__ volatile ("csrrs %0, mstatus, %1"
    6278:	3006a6f3          	csrrs	a3,mstatus,a3
	OUTBYTE(IER(dev), 0x00);

out:
	k_spin_unlock(&dev_data->lock, key);
	return ret;
};
    627c:	00008067          	ret
		uart_cfg.stop_bits = LCR_1_STB;
    6280:	00000813          	li	a6,0
    6284:	f85ff06f          	j	6208 <uart_ns16550_configure+0xb0>

00006288 <uart_ns16550_config_get>:

#ifdef CONFIG_UART_USE_RUNTIME_CONFIGURE
static int uart_ns16550_config_get(const struct device *dev,
				   struct uart_config *cfg)
{
	struct uart_ns16550_dev_data *data = DEV_DATA(dev);
    6288:	01052783          	lw	a5,16(a0)
	cfg->stop_bits = data->uart_config.stop_bits;
	cfg->data_bits = data->uart_config.data_bits;
	cfg->flow_ctrl = data->uart_config.flow_ctrl;

	return 0;
}
    628c:	00000513          	li	a0,0
	cfg->baudrate = data->uart_config.baudrate;
    6290:	0007a703          	lw	a4,0(a5)
    6294:	00e5a023          	sw	a4,0(a1)
	cfg->parity = data->uart_config.parity;
    6298:	0047c703          	lbu	a4,4(a5)
    629c:	00e58223          	sb	a4,4(a1)
	cfg->stop_bits = data->uart_config.stop_bits;
    62a0:	0057c703          	lbu	a4,5(a5)
    62a4:	00e582a3          	sb	a4,5(a1)
	cfg->data_bits = data->uart_config.data_bits;
    62a8:	0067c703          	lbu	a4,6(a5)
    62ac:	00e58323          	sb	a4,6(a1)
	cfg->flow_ctrl = data->uart_config.flow_ctrl;
    62b0:	0077c783          	lbu	a5,7(a5)
    62b4:	00f583a3          	sb	a5,7(a1)
}
    62b8:	00008067          	ret

000062bc <uart_ns16550_init>:
 */
static int uart_ns16550_init(const struct device *dev)
{
	int ret;

	ret = uart_ns16550_configure(dev, &DEV_DATA(dev)->uart_config);
    62bc:	01052583          	lw	a1,16(a0)
    62c0:	e99ff06f          	j	6158 <uart_ns16550_configure>

000062c4 <uart_ns16550_poll_in>:
	__asm__ volatile ("csrrc %0, mstatus, %1"
    62c4:	00800793          	li	a5,8
    62c8:	3007b7f3          	csrrc	a5,mstatus,a5
	return DEVICE_MMIO_GET(dev);
    62cc:	00452703          	lw	a4,4(a0)
	key = (mstatus & MSTATUS_IEN);
    62d0:	0087f793          	andi	a5,a5,8
 *
 * @return 0 if a character arrived, -1 if the input buffer if empty.
 */
static int uart_ns16550_poll_in(const struct device *dev, unsigned char *c)
{
	int ret = -1;
    62d4:	fff00513          	li	a0,-1
	return DEVICE_MMIO_GET(dev);
    62d8:	00072683          	lw	a3,0(a4)
	return *(volatile uint8_t *)addr;
    62dc:	0146c703          	lbu	a4,20(a3)
	k_spinlock_key_t key = k_spin_lock(&DEV_DATA(dev)->lock);

	if ((INBYTE(LSR(dev)) & LSR_RXRDY) != 0) {
    62e0:	00177713          	andi	a4,a4,1
    62e4:	00070863          	beqz	a4,62f4 <uart_ns16550_poll_in+0x30>
    62e8:	0006c703          	lbu	a4,0(a3)
		/* got a character */
		*c = INBYTE(RDR(dev));
		ret = 0;
    62ec:	00000513          	li	a0,0
		*c = INBYTE(RDR(dev));
    62f0:	00e58023          	sb	a4,0(a1)
	__asm__ volatile ("csrrs %0, mstatus, %1"
    62f4:	3007a7f3          	csrrs	a5,mstatus,a5
	}

	k_spin_unlock(&DEV_DATA(dev)->lock, key);

	return ret;
}
    62f8:	00008067          	ret

000062fc <uart_ns16550_poll_out>:
	__asm__ volatile ("csrrc %0, mstatus, %1"
    62fc:	00800793          	li	a5,8
    6300:	3007b7f3          	csrrc	a5,mstatus,a5
	return DEVICE_MMIO_GET(dev);
    6304:	00452703          	lw	a4,4(a0)
	key = (mstatus & MSTATUS_IEN);
    6308:	0087f793          	andi	a5,a5,8
    630c:	00072683          	lw	a3,0(a4)
static void uart_ns16550_poll_out(const struct device *dev,
					   unsigned char c)
{
	k_spinlock_key_t key = k_spin_lock(&DEV_DATA(dev)->lock);

	while ((INBYTE(LSR(dev)) & LSR_THRE) == 0) {
    6310:	01468613          	addi	a2,a3,20
    6314:	00064703          	lbu	a4,0(a2)
    6318:	02077713          	andi	a4,a4,32
    631c:	fe070ce3          	beqz	a4,6314 <uart_ns16550_poll_out+0x18>
	*(volatile uint8_t *)addr = data;
    6320:	00b68023          	sb	a1,0(a3)
	__asm__ volatile ("csrrs %0, mstatus, %1"
    6324:	3007a7f3          	csrrs	a5,mstatus,a5
	}

	OUTBYTE(THR(dev), c);

	k_spin_unlock(&DEV_DATA(dev)->lock, key);
}
    6328:	00008067          	ret

0000632c <uart_ns16550_err_check>:
	__asm__ volatile ("csrrc %0, mstatus, %1"
    632c:	00800793          	li	a5,8
    6330:	3007b7f3          	csrrc	a5,mstatus,a5
	return DEVICE_MMIO_GET(dev);
    6334:	00452703          	lw	a4,4(a0)
	key = (mstatus & MSTATUS_IEN);
    6338:	0087f793          	andi	a5,a5,8
 * UART_BREAK if an error was detected, 0 otherwise.
 */
static int uart_ns16550_err_check(const struct device *dev)
{
	k_spinlock_key_t key = k_spin_lock(&DEV_DATA(dev)->lock);
	int check = (INBYTE(LSR(dev)) & LSR_EOB_MASK);
    633c:	00072703          	lw	a4,0(a4)
	return *(volatile uint8_t *)addr;
    6340:	01474503          	lbu	a0,20(a4)
    6344:	0ff57513          	andi	a0,a0,255
	__asm__ volatile ("csrrs %0, mstatus, %1"
    6348:	3007a7f3          	csrrs	a5,mstatus,a5
    634c:	01e57513          	andi	a0,a0,30

	k_spin_unlock(&DEV_DATA(dev)->lock, key);

	return check >> 1;
}
    6350:	00155513          	srli	a0,a0,0x1
    6354:	00008067          	ret

00006358 <mtime>:
	volatile uint32_t *r = (uint32_t *)RISCV_MTIME_BASE;
	uint32_t lo, hi;

	/* Likewise, must guard against rollover when reading */
	do {
		hi = r[1];
    6358:	800017b7          	lui	a5,0x80001
    635c:	0247a703          	lw	a4,36(a5) # 80001024 <CONFIG_SYSTEM_WORKQUEUE_PRIORITY+0x80001025>
		lo = r[0];
    6360:	0207a503          	lw	a0,32(a5)
	} while (r[1] != hi);
    6364:	0247a583          	lw	a1,36(a5)
    6368:	fee59ae3          	bne	a1,a4,635c <mtime+0x4>

	return (((uint64_t)hi) << 32) | lo;
#endif
}
    636c:	00008067          	ret

00006370 <timer_isr>:

static void timer_isr(const void *arg)
{
    6370:	fe010113          	addi	sp,sp,-32
    6374:	01312623          	sw	s3,12(sp)
    6378:	00112e23          	sw	ra,28(sp)
    637c:	00812c23          	sw	s0,24(sp)
    6380:	00912a23          	sw	s1,20(sp)
    6384:	01212823          	sw	s2,16(sp)
    6388:	01412423          	sw	s4,8(sp)
    638c:	01512223          	sw	s5,4(sp)
	__asm__ volatile ("csrrc %0, mstatus, %1"
    6390:	00800993          	li	s3,8
    6394:	3009b9f3          	csrrc	s3,mstatus,s3
	ARG_UNUSED(arg);

	k_spinlock_key_t key = k_spin_lock(&lock);
	uint64_t now = mtime();
    6398:	fc1ff0ef          	jal	ra,6358 <mtime>
	key = (mstatus & MSTATUS_IEN);
    639c:	0089f993          	andi	s3,s3,8
    63a0:	00050a13          	mv	s4,a0
    63a4:	00058913          	mv	s2,a1
	uint32_t dticks = (uint32_t)((now - last_count) / CYC_PER_TICK);

	last_count = now;
    63a8:	0000e437          	lui	s0,0xe
    63ac:	b3040413          	addi	s0,s0,-1232 # db30 <last_count>
    63b0:	00a42023          	sw	a0,0(s0)
    63b4:	00b42223          	sw	a1,4(s0)
	return z_clock_hw_cycles_per_sec;
    63b8:	00203ab7          	lui	s5,0x203

	if (!TICKLESS) {
		uint64_t next = last_count + CYC_PER_TICK;
    63bc:	764aa503          	lw	a0,1892(s5) # 203764 <z_clock_hw_cycles_per_sec>
    63c0:	00000693          	li	a3,0
    63c4:	06400613          	li	a2,100
    63c8:	41f55593          	srai	a1,a0,0x1f
    63cc:	f71f90ef          	jal	ra,33c <__udivdi3>
    63d0:	00042483          	lw	s1,0(s0)
    63d4:	00442783          	lw	a5,4(s0)
    63d8:	009504b3          	add	s1,a0,s1
    63dc:	00a4b433          	sltu	s0,s1,a0
    63e0:	00f40433          	add	s0,s0,a5

		if ((int64_t)(next - now) < MIN_DELAY) {
    63e4:	41448a33          	sub	s4,s1,s4
    63e8:	0144b5b3          	sltu	a1,s1,s4
    63ec:	41240933          	sub	s2,s0,s2
    63f0:	40b90933          	sub	s2,s2,a1
		uint64_t next = last_count + CYC_PER_TICK;
    63f4:	00048793          	mv	a5,s1
    63f8:	00040693          	mv	a3,s0
		if ((int64_t)(next - now) < MIN_DELAY) {
    63fc:	03204863          	bgtz	s2,642c <timer_isr+0xbc>
    6400:	00091663          	bnez	s2,640c <timer_isr+0x9c>
    6404:	3e700713          	li	a4,999
    6408:	03476263          	bltu	a4,s4,642c <timer_isr+0xbc>
			next += CYC_PER_TICK;
    640c:	764aa503          	lw	a0,1892(s5)
    6410:	00000693          	li	a3,0
    6414:	06400613          	li	a2,100
    6418:	41f55593          	srai	a1,a0,0x1f
    641c:	f21f90ef          	jal	ra,33c <__udivdi3>
    6420:	00a487b3          	add	a5,s1,a0
    6424:	0097b4b3          	sltu	s1,a5,s1
    6428:	008486b3          	add	a3,s1,s0
	r[1] = 0xffffffff;
    642c:	80001737          	lui	a4,0x80001
    6430:	fff00613          	li	a2,-1
    6434:	02c72623          	sw	a2,44(a4) # 8000102c <CONFIG_SYSTEM_WORKQUEUE_PRIORITY+0x8000102d>
	r[0] = (uint32_t)time;
    6438:	02f72423          	sw	a5,40(a4)
	r[1] = (uint32_t)(time >> 32);
    643c:	02d72623          	sw	a3,44(a4)
	__asm__ volatile ("csrrs %0, mstatus, %1"
    6440:	3009a9f3          	csrrs	s3,mstatus,s3
		set_mtimecmp(next);
	}

	k_spin_unlock(&lock, key);
	sys_clock_announce(IS_ENABLED(CONFIG_TICKLESS_KERNEL) ? dticks : 1);
}
    6444:	01812403          	lw	s0,24(sp)
    6448:	01c12083          	lw	ra,28(sp)
    644c:	01412483          	lw	s1,20(sp)
    6450:	01012903          	lw	s2,16(sp)
    6454:	00c12983          	lw	s3,12(sp)
    6458:	00812a03          	lw	s4,8(sp)
    645c:	00412a83          	lw	s5,4(sp)
	sys_clock_announce(IS_ENABLED(CONFIG_TICKLESS_KERNEL) ? dticks : 1);
    6460:	00100513          	li	a0,1
}
    6464:	02010113          	addi	sp,sp,32
	sys_clock_announce(IS_ENABLED(CONFIG_TICKLESS_KERNEL) ? dticks : 1);
    6468:	25d0106f          	j	7ec4 <sys_clock_announce>

0000646c <sys_clock_driver_init>:

int sys_clock_driver_init(const struct device *dev)
{
    646c:	ff010113          	addi	sp,sp,-16
    6470:	00812423          	sw	s0,8(sp)
	ARG_UNUSED(dev);

	IRQ_CONNECT(RISCV_MACHINE_TIMER_IRQ, 0, timer_isr, NULL, 0);
	last_count = mtime();
    6474:	0000e437          	lui	s0,0xe
{
    6478:	00112623          	sw	ra,12(sp)
	last_count = mtime();
    647c:	b3040413          	addi	s0,s0,-1232 # db30 <last_count>
    6480:	ed9ff0ef          	jal	ra,6358 <mtime>
    6484:	00a42023          	sw	a0,0(s0)
    6488:	00b42223          	sw	a1,4(s0)
    648c:	002037b7          	lui	a5,0x203
	set_mtimecmp(last_count + CYC_PER_TICK);
    6490:	7647a503          	lw	a0,1892(a5) # 203764 <z_clock_hw_cycles_per_sec>
    6494:	06400613          	li	a2,100
    6498:	00000693          	li	a3,0
    649c:	41f55593          	srai	a1,a0,0x1f
    64a0:	e9df90ef          	jal	ra,33c <__udivdi3>
    64a4:	00042783          	lw	a5,0(s0)
    64a8:	00442703          	lw	a4,4(s0)
	r[1] = 0xffffffff;
    64ac:	fff00693          	li	a3,-1
	set_mtimecmp(last_count + CYC_PER_TICK);
    64b0:	00f507b3          	add	a5,a0,a5
    64b4:	00a7b533          	sltu	a0,a5,a0
    64b8:	00e50533          	add	a0,a0,a4
	r[1] = 0xffffffff;
    64bc:	80001737          	lui	a4,0x80001
    64c0:	02d72623          	sw	a3,44(a4) # 8000102c <CONFIG_SYSTEM_WORKQUEUE_PRIORITY+0x8000102d>
	r[0] = (uint32_t)time;
    64c4:	02f72423          	sw	a5,40(a4)
	r[1] = (uint32_t)(time >> 32);
    64c8:	02a72623          	sw	a0,44(a4)
	irq_enable(RISCV_MACHINE_TIMER_IRQ);
    64cc:	00700513          	li	a0,7
    64d0:	929ff0ef          	jal	ra,5df8 <arch_irq_enable>
	return 0;
}
    64d4:	00c12083          	lw	ra,12(sp)
    64d8:	00812403          	lw	s0,8(sp)
    64dc:	00000513          	li	a0,0
    64e0:	01010113          	addi	sp,sp,16
    64e4:	00008067          	ret

000064e8 <sys_clock_set_timeout>:
	}

	set_mtimecmp(cyc + last_count);
	k_spin_unlock(&lock, key);
#endif
}
    64e8:	00008067          	ret

000064ec <sys_clock_elapsed>:
	k_spinlock_key_t key = k_spin_lock(&lock);
	uint32_t ret = ((uint32_t)mtime() - (uint32_t)last_count) / CYC_PER_TICK;

	k_spin_unlock(&lock, key);
	return ret;
}
    64ec:	00000513          	li	a0,0
    64f0:	00008067          	ret

000064f4 <z_device_state_init>:

	while (dev < __device_end) {
		z_object_init(dev);
		++dev;
	}
}
    64f4:	00008067          	ret

000064f8 <z_sys_init_run_level>:
		/* End marker */
		__init_end,
	};
	const struct init_entry *entry;

	for (entry = levels[level]; entry < levels[level+1]; entry++) {
    64f8:	00251713          	slli	a4,a0,0x2
    64fc:	0000d7b7          	lui	a5,0xd
    6500:	00150513          	addi	a0,a0,1
    6504:	77878793          	addi	a5,a5,1912 # d778 <levels.0>
    6508:	00251513          	slli	a0,a0,0x2
{
    650c:	fe010113          	addi	sp,sp,-32
	for (entry = levels[level]; entry < levels[level+1]; entry++) {
    6510:	00e78733          	add	a4,a5,a4
    6514:	00a78533          	add	a0,a5,a0
{
    6518:	00812c23          	sw	s0,24(sp)
    651c:	01212823          	sw	s2,16(sp)
	for (entry = levels[level]; entry < levels[level+1]; entry++) {
    6520:	00072403          	lw	s0,0(a4)
    6524:	00052903          	lw	s2,0(a0)
{
    6528:	01312623          	sw	s3,12(sp)
    652c:	00112e23          	sw	ra,28(sp)
    6530:	00912a23          	sw	s1,20(sp)
					rc = -rc;
				}
				if (rc > UINT8_MAX) {
					rc = UINT8_MAX;
				}
				dev->state->init_res = rc;
    6534:	0ff00993          	li	s3,255
	for (entry = levels[level]; entry < levels[level+1]; entry++) {
    6538:	03246063          	bltu	s0,s2,6558 <z_sys_init_run_level+0x60>
			}
			dev->state->initialized = true;
		}
	}
}
    653c:	01c12083          	lw	ra,28(sp)
    6540:	01812403          	lw	s0,24(sp)
    6544:	01412483          	lw	s1,20(sp)
    6548:	01012903          	lw	s2,16(sp)
    654c:	00c12983          	lw	s3,12(sp)
    6550:	02010113          	addi	sp,sp,32
    6554:	00008067          	ret
		const struct device *dev = entry->dev;
    6558:	00442483          	lw	s1,4(s0)
		int rc = entry->init(dev);
    655c:	00042783          	lw	a5,0(s0)
    6560:	00048513          	mv	a0,s1
    6564:	000780e7          	jalr	a5
		if (dev != NULL) {
    6568:	02048863          	beqz	s1,6598 <z_sys_init_run_level+0xa0>
				dev->state->init_res = rc;
    656c:	00c4a783          	lw	a5,12(s1)
			if (rc != 0) {
    6570:	00050e63          	beqz	a0,658c <z_sys_init_run_level+0x94>
				if (rc < 0) {
    6574:	41f55713          	srai	a4,a0,0x1f
    6578:	00a74533          	xor	a0,a4,a0
    657c:	40e50533          	sub	a0,a0,a4
				dev->state->init_res = rc;
    6580:	00a9d463          	bge	s3,a0,6588 <z_sys_init_run_level+0x90>
    6584:	0ff00513          	li	a0,255
    6588:	00a78023          	sb	a0,0(a5)
			dev->state->initialized = true;
    658c:	0007d703          	lhu	a4,0(a5)
    6590:	10076713          	ori	a4,a4,256
    6594:	00e79023          	sh	a4,0(a5)
	for (entry = levels[level]; entry < levels[level+1]; entry++) {
    6598:	00840413          	addi	s0,s0,8
    659c:	f9dff06f          	j	6538 <z_sys_init_run_level+0x40>

000065a0 <z_device_ready>:
{
	/*
	 * if an invalid device pointer is passed as argument, this call
	 * reports the `device` as not ready for usage.
	 */
	if (dev == NULL) {
    65a0:	00050e63          	beqz	a0,65bc <z_device_ready+0x1c>
		return false;
	}

	return dev->state->initialized && (dev->state->init_res == 0U);
    65a4:	00c52783          	lw	a5,12(a0)
    65a8:	0007a503          	lw	a0,0(a5)
    65ac:	1ff57513          	andi	a0,a0,511
    65b0:	f0050513          	addi	a0,a0,-256
    65b4:	00153513          	seqz	a0,a0
    65b8:	00008067          	ret
		return false;
    65bc:	00000513          	li	a0,0
}
    65c0:	00008067          	ret

000065c4 <z_impl_z_errno>:
#include <syscalls/z_errno_mrsh.c>

#else
int *z_impl_z_errno(void)
{
	return &_current->errno_var;
    65c4:	0000e7b7          	lui	a5,0xe
    65c8:	f247a503          	lw	a0,-220(a5) # df24 <_kernel+0x8>
}
    65cc:	07050513          	addi	a0,a0,112
    65d0:	00008067          	ret

000065d4 <arch_system_halt>:
	__asm__ volatile ("csrrc %0, mstatus, %1"
    65d4:	00800793          	li	a5,8
    65d8:	3007b7f3          	csrrc	a5,mstatus,a5
	/* TODO: What's the best way to totally halt the system if SMP
	 * is enabled?
	 */

	(void)arch_irq_lock();
	for (;;) {
    65dc:	0000006f          	j	65dc <arch_system_halt+0x8>

000065e0 <k_sys_fatal_error_handler>:
/* LCOV_EXCL_STOP */

/* LCOV_EXCL_START */
__weak void k_sys_fatal_error_handler(unsigned int reason,
				      const z_arch_esf_t *esf)
{
    65e0:	ff010113          	addi	sp,sp,-16
    65e4:	00112623          	sw	ra,12(sp)
	ARG_UNUSED(esf);

	LOG_PANIC();
	LOG_ERR("Halting system");
	arch_system_halt(reason);
    65e8:	fedff0ef          	jal	ra,65d4 <arch_system_halt>

000065ec <z_fatal_error>:
	return 0;
#endif
}

void z_fatal_error(unsigned int reason, const z_arch_esf_t *esf)
{
    65ec:	fe010113          	addi	sp,sp,-32
    65f0:	00812c23          	sw	s0,24(sp)
    65f4:	01212823          	sw	s2,16(sp)
    65f8:	00112e23          	sw	ra,28(sp)
    65fc:	00912a23          	sw	s1,20(sp)
    6600:	00050913          	mv	s2,a0
    6604:	00b12623          	sw	a1,12(sp)
    6608:	00800413          	li	s0,8
    660c:	30043473          	csrrc	s0,mstatus,s0
	return z_impl_z_current_get();
    6610:	464010ef          	jal	ra,7a74 <z_impl_z_current_get>
	LOG_ERR("Current thread: %p (%s)", thread,
		log_strdup(thread_name_get(thread)));

	coredump(reason, esf, thread);

	k_sys_fatal_error_handler(reason, esf);
    6614:	00c12583          	lw	a1,12(sp)
    6618:	00050493          	mv	s1,a0
    661c:	00090513          	mv	a0,s2
    6620:	fc1ff0ef          	jal	ra,65e0 <k_sys_fatal_error_handler>
	key = (mstatus & MSTATUS_IEN);
    6624:	00847413          	andi	s0,s0,8
	__asm__ volatile ("csrrs %0, mstatus, %1"
    6628:	30042473          	csrrs	s0,mstatus,s0
	arch_irq_unlock(key);

	if (IS_ENABLED(CONFIG_MULTITHREADING)) {
		k_thread_abort(thread);
	}
}
    662c:	01812403          	lw	s0,24(sp)
    6630:	01c12083          	lw	ra,28(sp)
    6634:	01012903          	lw	s2,16(sp)
	z_impl_k_thread_abort(thread);
    6638:	00048513          	mv	a0,s1
    663c:	01412483          	lw	s1,20(sp)
    6640:	02010113          	addi	sp,sp,32
    6644:	5300106f          	j	7b74 <z_impl_k_thread_abort>

00006648 <init_idle_thread>:
#else
	char *tname = NULL;
#endif /* CONFIG_THREAD_NAME */

	z_setup_new_thread(thread, stack,
			  CONFIG_IDLE_STACK_SIZE, idle, &_kernel.cpus[i],
    6648:	01800693          	li	a3,24
    664c:	02d506b3          	mul	a3,a0,a3
{
    6650:	fe010113          	addi	sp,sp,-32
    6654:	00812c23          	sw	s0,24(sp)
	z_setup_new_thread(thread, stack,
    6658:	0000e737          	lui	a4,0xe
	struct k_thread *thread = &z_idle_threads[i];
    665c:	0000e437          	lui	s0,0xe
	k_thread_stack_t *stack = z_idle_stacks[i];
    6660:	00951313          	slli	t1,a0,0x9
	struct k_thread *thread = &z_idle_threads[i];
    6664:	df840413          	addi	s0,s0,-520 # ddf8 <z_idle_threads>
    6668:	00751513          	slli	a0,a0,0x7
	z_setup_new_thread(thread, stack,
    666c:	f1c70713          	addi	a4,a4,-228 # df1c <_kernel>
    6670:	0000f5b7          	lui	a1,0xf
	struct k_thread *thread = &z_idle_threads[i];
    6674:	00a40433          	add	s0,s0,a0
	z_setup_new_thread(thread, stack,
    6678:	00100793          	li	a5,1
    667c:	00d70733          	add	a4,a4,a3
    6680:	74058593          	addi	a1,a1,1856 # f740 <z_idle_stacks>
    6684:	000076b7          	lui	a3,0x7
    6688:	00f12023          	sw	a5,0(sp)
    668c:	00012223          	sw	zero,4(sp)
    6690:	00000793          	li	a5,0
    6694:	00040513          	mv	a0,s0
    6698:	00f00893          	li	a7,15
    669c:	00000813          	li	a6,0
    66a0:	a4468693          	addi	a3,a3,-1468 # 6a44 <idle>
    66a4:	20000613          	li	a2,512
    66a8:	006585b3          	add	a1,a1,t1
{
    66ac:	00112e23          	sw	ra,28(sp)
	z_setup_new_thread(thread, stack,
    66b0:	174000ef          	jal	ra,6824 <z_setup_new_thread>
	SYS_PORT_TRACING_FUNC(k_thread, sched_resume, thread);
}

static inline void z_mark_thread_as_started(struct k_thread *thread)
{
	thread->base.thread_state &= ~_THREAD_PRESTART;
    66b4:	00d44783          	lbu	a5,13(s0)
	z_mark_thread_as_started(thread);

#ifdef CONFIG_SMP
	thread->base.is_idle = 1U;
#endif
}
    66b8:	01c12083          	lw	ra,28(sp)
    66bc:	ffb7f793          	andi	a5,a5,-5
    66c0:	00f406a3          	sb	a5,13(s0)
    66c4:	01812403          	lw	s0,24(sp)
    66c8:	02010113          	addi	sp,sp,32
    66cc:	00008067          	ret

000066d0 <bg_thread_main>:
{
    66d0:	ff010113          	addi	sp,sp,-16
	z_sys_post_kernel = true;
    66d4:	0000e7b7          	lui	a5,0xe
    66d8:	00100713          	li	a4,1
	z_sys_init_run_level(_SYS_INIT_LEVEL_POST_KERNEL);
    66dc:	00200513          	li	a0,2
{
    66e0:	00112623          	sw	ra,12(sp)
	z_sys_post_kernel = true;
    66e4:	b6e78a23          	sb	a4,-1164(a5) # db74 <z_sys_post_kernel>
	z_sys_init_run_level(_SYS_INIT_LEVEL_POST_KERNEL);
    66e8:	e11ff0ef          	jal	ra,64f8 <z_sys_init_run_level>
	boot_banner();
    66ec:	169010ef          	jal	ra,8054 <boot_banner>
	z_sys_init_run_level(_SYS_INIT_LEVEL_APPLICATION);
    66f0:	00300513          	li	a0,3
    66f4:	e05ff0ef          	jal	ra,64f8 <z_sys_init_run_level>
	z_init_static_threads();
    66f8:	234000ef          	jal	ra,692c <z_init_static_threads>
	main();
    66fc:	e4cfd0ef          	jal	ra,3d48 <main>
	z_main_thread.base.user_options &= ~K_ESSENTIAL;
    6700:	0000e7b7          	lui	a5,0xe
    6704:	e7878793          	addi	a5,a5,-392 # de78 <z_main_thread>
    6708:	00c7c703          	lbu	a4,12(a5)
    670c:	ffe77713          	andi	a4,a4,-2
    6710:	00e78623          	sb	a4,12(a5)
} /* LCOV_EXCL_LINE ... because we just dumped final coverage data */
    6714:	00c12083          	lw	ra,12(sp)
    6718:	01010113          	addi	sp,sp,16
    671c:	00008067          	ret

00006720 <z_bss_zero>:
	(void)memset(__bss_start, 0, __bss_end - __bss_start);
    6720:	0000e537          	lui	a0,0xe

__BEGIN_DECLS
__ssp_bos_icheck3_restrict(memcpy, void *, const void *)
__ssp_bos_icheck3(memmove, void *, const void *)
__ssp_bos_icheck3_restrict(mempcpy, void *, const void *)
__ssp_bos_icheck3(memset, void *, int)
    6724:	0000e7b7          	lui	a5,0xe
    6728:	b3050613          	addi	a2,a0,-1232 # db30 <last_count>
    672c:	f4078793          	addi	a5,a5,-192 # df40 <sched_spinlock>
    6730:	40c78633          	sub	a2,a5,a2
    6734:	00000593          	li	a1,0
    6738:	b3050513          	addi	a0,a0,-1232
    673c:	d89fc06f          	j	34c4 <memset>

00006740 <z_cstart>:
 *
 * @return Does not return
 */
__boot_func
FUNC_NORETURN void z_cstart(void)
{
    6740:	f6010113          	addi	sp,sp,-160
    6744:	08812c23          	sw	s0,152(sp)
{
	dummy_thread->base.thread_state = _THREAD_DUMMY;
#ifdef CONFIG_SCHED_CPU_MASK
	dummy_thread->base.cpu_mask = -1;
#endif
	dummy_thread->base.user_options = K_ESSENTIAL;
    6748:	10100793          	li	a5,257
#endif
#ifdef CONFIG_USERSPACE
	dummy_thread->mem_domain_info.mem_domain = &k_mem_domain_default;
#endif

	_current_cpu->current = dummy_thread;
    674c:	0000e437          	lui	s0,0xe
    6750:	f1c40413          	addi	s0,s0,-228 # df1c <_kernel>
	dummy_thread->base.user_options = K_ESSENTIAL;
    6754:	00f11e23          	sh	a5,28(sp)
	_current_cpu->current = dummy_thread;
    6758:	01010793          	addi	a5,sp,16
    675c:	08112e23          	sw	ra,156(sp)
    6760:	00f42423          	sw	a5,8(s0)
    6764:	08912a23          	sw	s1,148(sp)
    6768:	09212823          	sw	s2,144(sp)
	struct k_thread dummy_thread;

	z_dummy_thread_init(&dummy_thread);
#endif
	/* do any necessary initialization of static devices */
	z_device_state_init();
    676c:	d89ff0ef          	jal	ra,64f4 <z_device_state_init>

	/* perform basic hardware initialization */
	z_sys_init_run_level(_SYS_INIT_LEVEL_PRE_KERNEL_1);
    6770:	00000513          	li	a0,0
    6774:	d85ff0ef          	jal	ra,64f8 <z_sys_init_run_level>
	z_sys_init_run_level(_SYS_INIT_LEVEL_PRE_KERNEL_2);
    6778:	00100513          	li	a0,1
    677c:	d7dff0ef          	jal	ra,64f8 <z_sys_init_run_level>
	z_sched_init();
    6780:	1f8010ef          	jal	ra,7978 <z_sched_init>
	stack_ptr = z_setup_new_thread(&z_main_thread, z_main_stack,
    6784:	0000d7b7          	lui	a5,0xd
    6788:	78c78793          	addi	a5,a5,1932 # d78c <levels.0+0x14>
	_kernel.ready_q.cache = &z_main_thread;
    678c:	0000e4b7          	lui	s1,0xe
	stack_ptr = z_setup_new_thread(&z_main_thread, z_main_stack,
    6790:	00f12223          	sw	a5,4(sp)
    6794:	000066b7          	lui	a3,0x6
    6798:	00100793          	li	a5,1
    679c:	0000f5b7          	lui	a1,0xf
	_kernel.ready_q.cache = &z_main_thread;
    67a0:	e7848913          	addi	s2,s1,-392 # de78 <z_main_thread>
	stack_ptr = z_setup_new_thread(&z_main_thread, z_main_stack,
    67a4:	00000893          	li	a7,0
    67a8:	00000813          	li	a6,0
    67ac:	00000713          	li	a4,0
    67b0:	6d068693          	addi	a3,a3,1744 # 66d0 <bg_thread_main>
    67b4:	40000613          	li	a2,1024
    67b8:	34058593          	addi	a1,a1,832 # f340 <z_main_stack>
    67bc:	00f12023          	sw	a5,0(sp)
    67c0:	e7848513          	addi	a0,s1,-392
    67c4:	00000793          	li	a5,0
	_kernel.ready_q.cache = &z_main_thread;
    67c8:	01242c23          	sw	s2,24(s0)
	stack_ptr = z_setup_new_thread(&z_main_thread, z_main_stack,
    67cc:	058000ef          	jal	ra,6824 <z_setup_new_thread>
    67d0:	00d94783          	lbu	a5,13(s2)
	z_ready_thread(&z_main_thread);
    67d4:	e7848513          	addi	a0,s1,-392
    67d8:	ffb7f793          	andi	a5,a5,-5
    67dc:	00f906a3          	sb	a5,13(s2)
    67e0:	491000ef          	jal	ra,7470 <z_ready_thread>
		init_idle_thread(i);
    67e4:	00000513          	li	a0,0
    67e8:	e61ff0ef          	jal	ra,6648 <init_idle_thread>
		_kernel.cpus[i].idle_thread = &z_idle_threads[i];
    67ec:	0000e7b7          	lui	a5,0xe
    67f0:	df878793          	addi	a5,a5,-520 # ddf8 <z_idle_threads>
    67f4:	00f42623          	sw	a5,12(s0)
		_kernel.cpus[i].irq_stack =
    67f8:	000107b7          	lui	a5,0x10
    67fc:	14078793          	addi	a5,a5,320 # 10140 <_k_fifo_buf_accel_msgq>
		_kernel.cpus[i].id = i;
    6800:	00040a23          	sb	zero,20(s0)
		_kernel.cpus[i].irq_stack =
    6804:	00f42223          	sw	a5,4(s0)
	__asm__ volatile ("csrrc %0, mstatus, %1"
    6808:	00800513          	li	a0,8
    680c:	30053573          	csrrc	a0,mstatus,a0
	ret = arch_swap(key);
    6810:	00857513          	andi	a0,a0,8
    6814:	ab9f90ef          	jal	ra,2cc <arch_swap>

00006818 <z_impl_k_thread_name_set>:

	SYS_PORT_TRACING_OBJ_FUNC(k_thread, name_set, thread, -ENOSYS);

	return -ENOSYS;
#endif /* CONFIG_THREAD_NAME */
}
    6818:	fa800513          	li	a0,-88
    681c:	00008067          	ret

00006820 <z_impl_k_thread_start>:

void z_impl_k_thread_start(struct k_thread *thread)
{
	SYS_PORT_TRACING_OBJ_FUNC(k_thread, start, thread);

	z_sched_start(thread);
    6820:	4810006f          	j	74a0 <z_sched_start>

00006824 <z_setup_new_thread>:
char *z_setup_new_thread(struct k_thread *new_thread,
			 k_thread_stack_t *stack, size_t stack_size,
			 k_thread_entry_t entry,
			 void *p1, void *p2, void *p3,
			 int prio, uint32_t options, const char *name)
{
    6824:	ff010113          	addi	sp,sp,-16
    6828:	00812423          	sw	s0,8(sp)
    682c:	00912223          	sw	s1,4(sp)
    6830:	00112623          	sw	ra,12(sp)
	SYS_DLIST_FOR_EACH_CONTAINER(&((wq)->waitq), thread_ptr, \
				     base.qnode_dlist)

static inline void z_waitq_init(_wait_q_t *w)
{
	sys_dlist_init(&w->waitq);
    6834:	06850313          	addi	t1,a0,104
 * @return N/A
 */

static inline void sys_dlist_init(sys_dlist_t *list)
{
	list->head = (sys_dnode_t *)list;
    6838:	06652423          	sw	t1,104(a0)
	list->tail = (sys_dnode_t *)list;
    683c:	06652623          	sw	t1,108(a0)
void z_init_thread_base(struct _thread_base *thread_base, int priority,
		       uint32_t initial_state, unsigned int options)
{
	/* k_q_node is initialized upon first insertion in a list */
	thread_base->pended_on = NULL;
	thread_base->user_options = (uint8_t)options;
    6840:	01012303          	lw	t1,16(sp)
		stack_obj_size = Z_KERNEL_STACK_SIZE_ADJUST(stack_size);
    6844:	00f60613          	addi	a2,a2,15
    6848:	ff067613          	andi	a2,a2,-16
	stack_ptr = (char *)stack + stack_obj_size;
    684c:	00c584b3          	add	s1,a1,a2
	thread_base->user_options = (uint8_t)options;
    6850:	00650623          	sb	t1,12(a0)
	thread_base->thread_state = (uint8_t)initial_state;
    6854:	00400313          	li	t1,4
	thread_base->pended_on = NULL;
    6858:	00052423          	sw	zero,8(a0)
	thread_base->thread_state = (uint8_t)initial_state;
    685c:	006506a3          	sb	t1,13(a0)

	thread_base->prio = priority;
    6860:	01150723          	sb	a7,14(a0)

	thread_base->sched_locked = 0U;
    6864:	000507a3          	sb	zero,15(a0)
 * @return N/A
 */

static inline void sys_dnode_init(sys_dnode_t *node)
{
	node->next = NULL;
    6868:	00052c23          	sw	zero,24(a0)
	node->prev = NULL;
    686c:	00052e23          	sw	zero,28(a0)
	arch_new_thread(new_thread, stack, stack_ptr, entry, p1, p2, p3);
    6870:	00048613          	mv	a2,s1
{
    6874:	00050413          	mv	s0,a0
	arch_new_thread(new_thread, stack, stack_ptr, entry, p1, p2, p3);
    6878:	9dcff0ef          	jal	ra,5a54 <arch_new_thread>
	new_thread->resource_pool = _current->resource_pool;
    687c:	0000e7b7          	lui	a5,0xe
    6880:	f247a783          	lw	a5,-220(a5) # df24 <_kernel+0x8>
}
    6884:	00c12083          	lw	ra,12(sp)
	new_thread->init_data = NULL;
    6888:	06042223          	sw	zero,100(s0)
	new_thread->resource_pool = _current->resource_pool;
    688c:	0747a783          	lw	a5,116(a5)
}
    6890:	00048513          	mv	a0,s1
    6894:	00412483          	lw	s1,4(sp)
	new_thread->resource_pool = _current->resource_pool;
    6898:	06f42a23          	sw	a5,116(s0)
}
    689c:	00812403          	lw	s0,8(sp)
    68a0:	01010113          	addi	sp,sp,16
    68a4:	00008067          	ret

000068a8 <z_impl_k_thread_create>:
{
    68a8:	fe010113          	addi	sp,sp,-32
	z_setup_new_thread(new_thread, stack, stack_size, entry, p1, p2, p3,
    68ac:	02012303          	lw	t1,32(sp)
{
    68b0:	01212823          	sw	s2,16(sp)
	z_setup_new_thread(new_thread, stack, stack_size, entry, p1, p2, p3,
    68b4:	00012223          	sw	zero,4(sp)
{
    68b8:	02812903          	lw	s2,40(sp)
	z_setup_new_thread(new_thread, stack, stack_size, entry, p1, p2, p3,
    68bc:	00612023          	sw	t1,0(sp)
{
    68c0:	00812c23          	sw	s0,24(sp)
    68c4:	00912a23          	sw	s1,20(sp)
    68c8:	00112e23          	sw	ra,28(sp)
    68cc:	02c12483          	lw	s1,44(sp)
    68d0:	00050413          	mv	s0,a0
	z_setup_new_thread(new_thread, stack, stack_size, entry, p1, p2, p3,
    68d4:	f51ff0ef          	jal	ra,6824 <z_setup_new_thread>
	if (!K_TIMEOUT_EQ(delay, K_FOREVER)) {
    68d8:	fff00693          	li	a3,-1
    68dc:	00d91463          	bne	s2,a3,68e4 <z_impl_k_thread_create+0x3c>
    68e0:	01248a63          	beq	s1,s2,68f4 <z_impl_k_thread_create+0x4c>
	if (K_TIMEOUT_EQ(delay, K_NO_WAIT)) {
    68e4:	0124e7b3          	or	a5,s1,s2
    68e8:	02079463          	bnez	a5,6910 <z_impl_k_thread_create+0x68>
	z_sched_start(thread);
    68ec:	00040513          	mv	a0,s0
    68f0:	3b1000ef          	jal	ra,74a0 <z_sched_start>
}
    68f4:	01c12083          	lw	ra,28(sp)
    68f8:	00040513          	mv	a0,s0
    68fc:	01812403          	lw	s0,24(sp)
    6900:	01412483          	lw	s1,20(sp)
    6904:	01012903          	lw	s2,16(sp)
    6908:	02010113          	addi	sp,sp,32
    690c:	00008067          	ret

extern void z_thread_timeout(struct _timeout *timeout);

static inline void z_add_thread_timeout(struct k_thread *thread, k_timeout_t ticks)
{
	z_add_timeout(&thread->base.timeout, z_thread_timeout, ticks);
    6910:	000075b7          	lui	a1,0x7
    6914:	00090613          	mv	a2,s2
    6918:	00048693          	mv	a3,s1
    691c:	54058593          	addi	a1,a1,1344 # 7540 <z_thread_timeout>
    6920:	01840513          	addi	a0,s0,24
    6924:	354010ef          	jal	ra,7c78 <z_add_timeout>
    6928:	fcdff06f          	j	68f4 <z_impl_k_thread_create+0x4c>

0000692c <z_init_static_threads>:
{
    692c:	fd010113          	addi	sp,sp,-48
	_FOREACH_STATIC_THREAD(thread_data) {
    6930:	002037b7          	lui	a5,0x203
{
    6934:	03212023          	sw	s2,32(sp)
	_FOREACH_STATIC_THREAD(thread_data) {
    6938:	00203937          	lui	s2,0x203
{
    693c:	02812423          	sw	s0,40(sp)
    6940:	02912223          	sw	s1,36(sp)
    6944:	02112623          	sw	ra,44(sp)
    6948:	01312e23          	sw	s3,28(sp)
    694c:	01412c23          	sw	s4,24(sp)
    6950:	01512a23          	sw	s5,20(sp)
	_FOREACH_STATIC_THREAD(thread_data) {
    6954:	78078413          	addi	s0,a5,1920 # 203780 <__lock___malloc_recursive_mutex>
    6958:	78078493          	addi	s1,a5,1920
    695c:	78090913          	addi	s2,s2,1920 # 203780 <__lock___malloc_recursive_mutex>
    6960:	05246063          	bltu	s0,s2,69a0 <z_init_static_threads+0x74>
	k_sched_lock();
    6964:	04d000ef          	jal	ra,71b0 <k_sched_lock>
	_FOREACH_STATIC_THREAD(thread_data) {
    6968:	00048413          	mv	s0,s1
		if (thread_data->init_delay != K_TICKS_FOREVER) {
    696c:	fff00993          	li	s3,-1
		t += off;
    6970:	00900a13          	li	s4,9
    6974:	00007ab7          	lui	s5,0x7
	_FOREACH_STATIC_THREAD(thread_data) {
    6978:	07246663          	bltu	s0,s2,69e4 <z_init_static_threads+0xb8>
}
    697c:	02812403          	lw	s0,40(sp)
    6980:	02c12083          	lw	ra,44(sp)
    6984:	02412483          	lw	s1,36(sp)
    6988:	02012903          	lw	s2,32(sp)
    698c:	01c12983          	lw	s3,28(sp)
    6990:	01812a03          	lw	s4,24(sp)
    6994:	01412a83          	lw	s5,20(sp)
    6998:	03010113          	addi	sp,sp,48
	k_sched_unlock();
    699c:	7450006f          	j	78e0 <k_sched_unlock>
		z_setup_new_thread(
    69a0:	02c42783          	lw	a5,44(s0)
    69a4:	00f12223          	sw	a5,4(sp)
    69a8:	02042783          	lw	a5,32(s0)
    69ac:	00f12023          	sw	a5,0(sp)
    69b0:	01442783          	lw	a5,20(s0)
    69b4:	01c42883          	lw	a7,28(s0)
    69b8:	01842803          	lw	a6,24(s0)
    69bc:	01042703          	lw	a4,16(s0)
    69c0:	00c42683          	lw	a3,12(s0)
    69c4:	00842603          	lw	a2,8(s0)
    69c8:	00442583          	lw	a1,4(s0)
    69cc:	00042503          	lw	a0,0(s0)
    69d0:	e55ff0ef          	jal	ra,6824 <z_setup_new_thread>
		thread_data->init_thread->init_data = thread_data;
    69d4:	00042783          	lw	a5,0(s0)
    69d8:	0687a223          	sw	s0,100(a5)
	_FOREACH_STATIC_THREAD(thread_data) {
    69dc:	03040413          	addi	s0,s0,48
    69e0:	f81ff06f          	j	6960 <z_init_static_threads+0x34>
		if (thread_data->init_delay != K_TICKS_FOREVER) {
    69e4:	02442783          	lw	a5,36(s0)
    69e8:	03378863          	beq	a5,s3,6a18 <z_init_static_threads+0xec>
			schedule_new_thread(thread_data->init_thread,
    69ec:	00042483          	lw	s1,0(s0)
					    K_MSEC(thread_data->init_delay));
    69f0:	0007d463          	bgez	a5,69f8 <z_init_static_threads+0xcc>
    69f4:	00000793          	li	a5,0
    69f8:	00978513          	addi	a0,a5,9
    69fc:	41f7d593          	srai	a1,a5,0x1f
    6a00:	00f537b3          	sltu	a5,a0,a5
    6a04:	00b785b3          	add	a1,a5,a1
	if (K_TIMEOUT_EQ(delay, K_NO_WAIT)) {
    6a08:	01451c63          	bne	a0,s4,6a20 <z_init_static_threads+0xf4>
    6a0c:	00059a63          	bnez	a1,6a20 <z_init_static_threads+0xf4>
	z_sched_start(thread);
    6a10:	00048513          	mv	a0,s1
    6a14:	28d000ef          	jal	ra,74a0 <z_sched_start>
	_FOREACH_STATIC_THREAD(thread_data) {
    6a18:	03040413          	addi	s0,s0,48
    6a1c:	f5dff06f          	j	6978 <z_init_static_threads+0x4c>
			return t / ((uint64_t)from_hz / to_hz);
    6a20:	00a00613          	li	a2,10
    6a24:	00000693          	li	a3,0
    6a28:	915f90ef          	jal	ra,33c <__udivdi3>
    6a2c:	00050613          	mv	a2,a0
    6a30:	00058693          	mv	a3,a1
    6a34:	01848513          	addi	a0,s1,24
    6a38:	540a8593          	addi	a1,s5,1344 # 7540 <z_thread_timeout>
    6a3c:	23c010ef          	jal	ra,7c78 <z_add_timeout>
    6a40:	fd9ff06f          	j	6a18 <z_init_static_threads+0xec>

00006a44 <idle>:
#endif	/* CONFIG_PM */
	sys_clock_idle_exit();
}

void idle(void *unused1, void *unused2, void *unused3)
{
    6a44:	ff010113          	addi	sp,sp,-16
    6a48:	00812423          	sw	s0,8(sp)
    6a4c:	00112623          	sw	ra,12(sp)
    6a50:	00800413          	li	s0,8
    6a54:	300437f3          	csrrc	a5,mstatus,s0
 *
 * @return N/A
 */
static inline void k_cpu_idle(void)
{
	arch_cpu_idle();
    6a58:	f6dfe0ef          	jal	ra,59c4 <arch_cpu_idle>
    6a5c:	ff9ff06f          	j	6a54 <idle+0x10>

00006a60 <z_impl_k_msgq_put>:
	return 0;
}


int z_impl_k_msgq_put(struct k_msgq *msgq, const void *data, k_timeout_t timeout)
{
    6a60:	fd010113          	addi	sp,sp,-48
    6a64:	02812423          	sw	s0,40(sp)
    6a68:	02912223          	sw	s1,36(sp)
    6a6c:	01312e23          	sw	s3,28(sp)
    6a70:	02112623          	sw	ra,44(sp)
    6a74:	03212023          	sw	s2,32(sp)
    6a78:	00050413          	mv	s0,a0
    6a7c:	00068713          	mv	a4,a3

	struct k_thread *pending_thread;
	k_spinlock_key_t key;
	int result;

	key = k_spin_lock(&msgq->lock);
    6a80:	00850993          	addi	s3,a0,8
    6a84:	00800493          	li	s1,8
    6a88:	3004b4f3          	csrrc	s1,mstatus,s1

	SYS_PORT_TRACING_OBJ_FUNC_ENTER(k_msgq, put, msgq, timeout);

	if (msgq->used_msgs < msgq->max_msgs) {
    6a8c:	02052683          	lw	a3,32(a0)
    6a90:	00c52783          	lw	a5,12(a0)
	key = (mstatus & MSTATUS_IEN);
    6a94:	0084f493          	andi	s1,s1,8
    6a98:	08f6fe63          	bgeu	a3,a5,6b34 <z_impl_k_msgq_put+0xd4>
    6a9c:	00b12623          	sw	a1,12(sp)
		/* message queue isn't full */
		pending_thread = z_unpend_first_thread(&msgq->wait_q);
    6aa0:	689000ef          	jal	ra,7928 <z_unpend_first_thread>
    6aa4:	00842603          	lw	a2,8(s0)
		if (pending_thread != NULL) {
    6aa8:	00c12583          	lw	a1,12(sp)
		pending_thread = z_unpend_first_thread(&msgq->wait_q);
    6aac:	00050913          	mv	s2,a0
		if (pending_thread != NULL) {
    6ab0:	04050263          	beqz	a0,6af4 <z_impl_k_msgq_put+0x94>
__ssp_bos_icheck3_restrict(memcpy, void *, const void *)
    6ab4:	01452503          	lw	a0,20(a0)
    6ab8:	9e9fc0ef          	jal	ra,34a0 <memcpy>
			/* give message to waiting thread */
			(void)memcpy(pending_thread->base.swap_data, data,
			       msgq->msg_size);
			/* wake up waiting thread */
			arch_thread_return_value_set(pending_thread, 0);
			z_ready_thread(pending_thread);
    6abc:	00090513          	mv	a0,s2
}

static ALWAYS_INLINE void
arch_thread_return_value_set(struct k_thread *thread, unsigned int value)
{
	thread->arch.swap_return_value = value;
    6ac0:	06092c23          	sw	zero,120(s2)
    6ac4:	1ad000ef          	jal	ra,7470 <z_ready_thread>
			z_reschedule(&msgq->lock, key);
    6ac8:	00098513          	mv	a0,s3
    6acc:	00048593          	mv	a1,s1
    6ad0:	67c000ef          	jal	ra,714c <z_reschedule>
			return 0;
    6ad4:	00000513          	li	a0,0
	SYS_PORT_TRACING_OBJ_FUNC_EXIT(k_msgq, put, msgq, timeout, result);

	k_spin_unlock(&msgq->lock, key);

	return result;
}
    6ad8:	02c12083          	lw	ra,44(sp)
    6adc:	02812403          	lw	s0,40(sp)
    6ae0:	02412483          	lw	s1,36(sp)
    6ae4:	02012903          	lw	s2,32(sp)
    6ae8:	01c12983          	lw	s3,28(sp)
    6aec:	03010113          	addi	sp,sp,48
    6af0:	00008067          	ret
    6af4:	01c42503          	lw	a0,28(s0)
    6af8:	9a9fc0ef          	jal	ra,34a0 <memcpy>
			msgq->write_ptr += msgq->msg_size;
    6afc:	01c42783          	lw	a5,28(s0)
    6b00:	00842703          	lw	a4,8(s0)
    6b04:	00e787b3          	add	a5,a5,a4
			if (msgq->write_ptr == msgq->buffer_end) {
    6b08:	01442703          	lw	a4,20(s0)
			msgq->write_ptr += msgq->msg_size;
    6b0c:	00f42e23          	sw	a5,28(s0)
			if (msgq->write_ptr == msgq->buffer_end) {
    6b10:	00e79663          	bne	a5,a4,6b1c <z_impl_k_msgq_put+0xbc>
				msgq->write_ptr = msgq->buffer_start;
    6b14:	01042783          	lw	a5,16(s0)
    6b18:	00f42e23          	sw	a5,28(s0)
			msgq->used_msgs++;
    6b1c:	02042783          	lw	a5,32(s0)
		result = 0;
    6b20:	00000513          	li	a0,0
			msgq->used_msgs++;
    6b24:	00178793          	addi	a5,a5,1
    6b28:	02f42023          	sw	a5,32(s0)
	__asm__ volatile ("csrrs %0, mstatus, %1"
    6b2c:	3004a4f3          	csrrs	s1,mstatus,s1
	return result;
    6b30:	fa9ff06f          	j	6ad8 <z_impl_k_msgq_put+0x78>
	} else if (K_TIMEOUT_EQ(timeout, K_NO_WAIT)) {
    6b34:	00e667b3          	or	a5,a2,a4
		result = -ENOMSG;
    6b38:	fdd00513          	li	a0,-35
	} else if (K_TIMEOUT_EQ(timeout, K_NO_WAIT)) {
    6b3c:	fe0788e3          	beqz	a5,6b2c <z_impl_k_msgq_put+0xcc>
		_current->base.swap_data = (void *) data;
    6b40:	0000e7b7          	lui	a5,0xe
    6b44:	f247a783          	lw	a5,-220(a5) # df24 <_kernel+0x8>
		result = z_pend_curr(&msgq->lock, key, &msgq->wait_q, timeout);
    6b48:	00060693          	mv	a3,a2
    6b4c:	00040613          	mv	a2,s0
}
    6b50:	02812403          	lw	s0,40(sp)
    6b54:	02c12083          	lw	ra,44(sp)
    6b58:	02012903          	lw	s2,32(sp)
		_current->base.swap_data = (void *) data;
    6b5c:	00b7aa23          	sw	a1,20(a5)
		result = z_pend_curr(&msgq->lock, key, &msgq->wait_q, timeout);
    6b60:	00098513          	mv	a0,s3
    6b64:	00048593          	mv	a1,s1
}
    6b68:	01c12983          	lw	s3,28(sp)
    6b6c:	02412483          	lw	s1,36(sp)
    6b70:	03010113          	addi	sp,sp,48
		result = z_pend_curr(&msgq->lock, key, &msgq->wait_q, timeout);
    6b74:	3810006f          	j	76f4 <z_pend_curr>

00006b78 <z_impl_k_msgq_get>:
}
#include <syscalls/k_msgq_get_attrs_mrsh.c>
#endif

int z_impl_k_msgq_get(struct k_msgq *msgq, void *data, k_timeout_t timeout)
{
    6b78:	fe010113          	addi	sp,sp,-32
    6b7c:	00812c23          	sw	s0,24(sp)
    6b80:	00050413          	mv	s0,a0
    6b84:	00912a23          	sw	s1,20(sp)
    6b88:	01312623          	sw	s3,12(sp)
    6b8c:	00112e23          	sw	ra,28(sp)
    6b90:	01212823          	sw	s2,16(sp)
    6b94:	00058513          	mv	a0,a1

	k_spinlock_key_t key;
	struct k_thread *pending_thread;
	int result;

	key = k_spin_lock(&msgq->lock);
    6b98:	00840993          	addi	s3,s0,8
	__asm__ volatile ("csrrc %0, mstatus, %1"
    6b9c:	00800493          	li	s1,8
    6ba0:	3004b4f3          	csrrc	s1,mstatus,s1

	SYS_PORT_TRACING_OBJ_FUNC_ENTER(k_msgq, get, msgq, timeout);

	if (msgq->used_msgs > 0U) {
    6ba4:	02042783          	lw	a5,32(s0)
	key = (mstatus & MSTATUS_IEN);
    6ba8:	0084f493          	andi	s1,s1,8
    6bac:	0c078263          	beqz	a5,6c70 <z_impl_k_msgq_get+0xf8>
    6bb0:	00842603          	lw	a2,8(s0)
    6bb4:	01842583          	lw	a1,24(s0)
    6bb8:	8e9fc0ef          	jal	ra,34a0 <memcpy>
		/* take first available message from queue */
		(void)memcpy(data, msgq->read_ptr, msgq->msg_size);
		msgq->read_ptr += msgq->msg_size;
    6bbc:	01842783          	lw	a5,24(s0)
    6bc0:	00842703          	lw	a4,8(s0)
    6bc4:	00e787b3          	add	a5,a5,a4
		if (msgq->read_ptr == msgq->buffer_end) {
    6bc8:	01442703          	lw	a4,20(s0)
		msgq->read_ptr += msgq->msg_size;
    6bcc:	00f42c23          	sw	a5,24(s0)
		if (msgq->read_ptr == msgq->buffer_end) {
    6bd0:	00e79663          	bne	a5,a4,6bdc <z_impl_k_msgq_get+0x64>
			msgq->read_ptr = msgq->buffer_start;
    6bd4:	01042783          	lw	a5,16(s0)
    6bd8:	00f42c23          	sw	a5,24(s0)
		}
		msgq->used_msgs--;
    6bdc:	02042783          	lw	a5,32(s0)

		/* handle first thread waiting to write (if any) */
		pending_thread = z_unpend_first_thread(&msgq->wait_q);
    6be0:	00040513          	mv	a0,s0
		msgq->used_msgs--;
    6be4:	fff78793          	addi	a5,a5,-1
    6be8:	02f42023          	sw	a5,32(s0)
		pending_thread = z_unpend_first_thread(&msgq->wait_q);
    6bec:	53d000ef          	jal	ra,7928 <z_unpend_first_thread>
    6bf0:	00050913          	mv	s2,a0
		if (pending_thread != NULL) {
    6bf4:	0c050263          	beqz	a0,6cb8 <z_impl_k_msgq_get+0x140>
    6bf8:	01452583          	lw	a1,20(a0)
    6bfc:	00842603          	lw	a2,8(s0)
    6c00:	01c42503          	lw	a0,28(s0)
    6c04:	89dfc0ef          	jal	ra,34a0 <memcpy>
			SYS_PORT_TRACING_OBJ_FUNC_BLOCKING(k_msgq, get, msgq, timeout);

			/* add thread's message to queue */
			(void)memcpy(msgq->write_ptr, pending_thread->base.swap_data,
			       msgq->msg_size);
			msgq->write_ptr += msgq->msg_size;
    6c08:	01c42783          	lw	a5,28(s0)
    6c0c:	00842703          	lw	a4,8(s0)
    6c10:	00e787b3          	add	a5,a5,a4
			if (msgq->write_ptr == msgq->buffer_end) {
    6c14:	01442703          	lw	a4,20(s0)
			msgq->write_ptr += msgq->msg_size;
    6c18:	00f42e23          	sw	a5,28(s0)
			if (msgq->write_ptr == msgq->buffer_end) {
    6c1c:	00e79663          	bne	a5,a4,6c28 <z_impl_k_msgq_get+0xb0>
				msgq->write_ptr = msgq->buffer_start;
    6c20:	01042783          	lw	a5,16(s0)
    6c24:	00f42e23          	sw	a5,28(s0)
			}
			msgq->used_msgs++;
    6c28:	02042783          	lw	a5,32(s0)

			/* wake up waiting thread */
			arch_thread_return_value_set(pending_thread, 0);
			z_ready_thread(pending_thread);
    6c2c:	00090513          	mv	a0,s2
			msgq->used_msgs++;
    6c30:	00178793          	addi	a5,a5,1
    6c34:	02f42023          	sw	a5,32(s0)
    6c38:	06092c23          	sw	zero,120(s2)
			z_ready_thread(pending_thread);
    6c3c:	035000ef          	jal	ra,7470 <z_ready_thread>
			z_reschedule(&msgq->lock, key);
    6c40:	00048593          	mv	a1,s1
    6c44:	00098513          	mv	a0,s3
    6c48:	504000ef          	jal	ra,714c <z_reschedule>

			SYS_PORT_TRACING_OBJ_FUNC_EXIT(k_msgq, get, msgq, timeout, 0);

			return 0;
    6c4c:	00000793          	li	a5,0
	SYS_PORT_TRACING_OBJ_FUNC_EXIT(k_msgq, get, msgq, timeout, result);

	k_spin_unlock(&msgq->lock, key);

	return result;
}
    6c50:	01c12083          	lw	ra,28(sp)
    6c54:	01812403          	lw	s0,24(sp)
    6c58:	01412483          	lw	s1,20(sp)
    6c5c:	01012903          	lw	s2,16(sp)
    6c60:	00c12983          	lw	s3,12(sp)
    6c64:	00078513          	mv	a0,a5
    6c68:	02010113          	addi	sp,sp,32
    6c6c:	00008067          	ret
    6c70:	00068713          	mv	a4,a3
	} else if (K_TIMEOUT_EQ(timeout, K_NO_WAIT)) {
    6c74:	00d666b3          	or	a3,a2,a3
		result = -ENOMSG;
    6c78:	fdd00793          	li	a5,-35
	} else if (K_TIMEOUT_EQ(timeout, K_NO_WAIT)) {
    6c7c:	04068063          	beqz	a3,6cbc <z_impl_k_msgq_get+0x144>
		_current->base.swap_data = data;
    6c80:	0000e7b7          	lui	a5,0xe
    6c84:	f247a783          	lw	a5,-220(a5) # df24 <_kernel+0x8>
		result = z_pend_curr(&msgq->lock, key, &msgq->wait_q, timeout);
    6c88:	00060693          	mv	a3,a2
    6c8c:	00040613          	mv	a2,s0
}
    6c90:	01812403          	lw	s0,24(sp)
    6c94:	01c12083          	lw	ra,28(sp)
    6c98:	01012903          	lw	s2,16(sp)
		_current->base.swap_data = data;
    6c9c:	00b7aa23          	sw	a1,20(a5)
		result = z_pend_curr(&msgq->lock, key, &msgq->wait_q, timeout);
    6ca0:	00098513          	mv	a0,s3
    6ca4:	00048593          	mv	a1,s1
}
    6ca8:	00c12983          	lw	s3,12(sp)
    6cac:	01412483          	lw	s1,20(sp)
    6cb0:	02010113          	addi	sp,sp,32
		result = z_pend_curr(&msgq->lock, key, &msgq->wait_q, timeout);
    6cb4:	2410006f          	j	76f4 <z_pend_curr>
		result = 0;
    6cb8:	00000793          	li	a5,0
	__asm__ volatile ("csrrs %0, mstatus, %1"
    6cbc:	3004a4f3          	csrrs	s1,mstatus,s1
	return result;
    6cc0:	f91ff06f          	j	6c50 <z_impl_k_msgq_get+0xd8>

00006cc4 <z_impl_k_msgq_peek>:
}
#include <syscalls/k_msgq_get_mrsh.c>
#endif

int z_impl_k_msgq_peek(struct k_msgq *msgq, void *data)
{
    6cc4:	ff010113          	addi	sp,sp,-16
    6cc8:	00812423          	sw	s0,8(sp)
    6ccc:	00112623          	sw	ra,12(sp)
    6cd0:	00050793          	mv	a5,a0
	__asm__ volatile ("csrrc %0, mstatus, %1"
    6cd4:	00800413          	li	s0,8
    6cd8:	30043473          	csrrc	s0,mstatus,s0
	k_spinlock_key_t key;
	int result;

	key = k_spin_lock(&msgq->lock);

	if (msgq->used_msgs > 0U) {
    6cdc:	02052703          	lw	a4,32(a0)
	key = (mstatus & MSTATUS_IEN);
    6ce0:	00847413          	andi	s0,s0,8
		/* take first available message from queue */
		(void)memcpy(data, msgq->read_ptr, msgq->msg_size);
		result = 0;
	} else {
		/* don't wait for a message to become available */
		result = -ENOMSG;
    6ce4:	fdd00513          	li	a0,-35
	if (msgq->used_msgs > 0U) {
    6ce8:	00070c63          	beqz	a4,6d00 <z_impl_k_msgq_peek+0x3c>
    6cec:	00058513          	mv	a0,a1
    6cf0:	0087a603          	lw	a2,8(a5)
    6cf4:	0187a583          	lw	a1,24(a5)
    6cf8:	fa8fc0ef          	jal	ra,34a0 <memcpy>
		result = 0;
    6cfc:	00000513          	li	a0,0
	__asm__ volatile ("csrrs %0, mstatus, %1"
    6d00:	30042473          	csrrs	s0,mstatus,s0
	SYS_PORT_TRACING_OBJ_FUNC(k_msgq, peek, msgq, result);

	k_spin_unlock(&msgq->lock, key);

	return result;
}
    6d04:	00c12083          	lw	ra,12(sp)
    6d08:	00812403          	lw	s0,8(sp)
    6d0c:	01010113          	addi	sp,sp,16
    6d10:	00008067          	ret

00006d14 <adjust_owner_prio.isra.0>:
	return new_prio;
}

static bool adjust_owner_prio(struct k_mutex *mutex, int32_t new_prio)
{
	if (mutex->owner->base.prio != new_prio) {
    6d14:	00e50783          	lb	a5,14(a0)
    6d18:	00b78463          	beq	a5,a1,6d20 <adjust_owner_prio.isra.0+0xc>
		LOG_DBG("%p (ready (y/n): %c) prio changed to %d (was %d)",
			mutex->owner, z_is_thread_ready(mutex->owner) ?
			'y' : 'n',
			new_prio, mutex->owner->base.prio);

		return z_set_prio(mutex->owner, new_prio);
    6d1c:	21d0006f          	j	7738 <z_set_prio>
	}
	return false;
}
    6d20:	00000513          	li	a0,0
    6d24:	00008067          	ret

00006d28 <z_impl_k_mutex_init>:
	mutex->owner = NULL;
    6d28:	00052423          	sw	zero,8(a0)
	mutex->lock_count = 0U;
    6d2c:	00052623          	sw	zero,12(a0)
	list->head = (sys_dnode_t *)list;
    6d30:	00a52023          	sw	a0,0(a0)
	list->tail = (sys_dnode_t *)list;
    6d34:	00a52223          	sw	a0,4(a0)
}
    6d38:	00000513          	li	a0,0
    6d3c:	00008067          	ret

00006d40 <z_impl_k_mutex_lock>:

int z_impl_k_mutex_lock(struct k_mutex *mutex, k_timeout_t timeout)
{
    6d40:	fd010113          	addi	sp,sp,-48
    6d44:	02812423          	sw	s0,40(sp)
    6d48:	02912223          	sw	s1,36(sp)
    6d4c:	02112623          	sw	ra,44(sp)
    6d50:	03212023          	sw	s2,32(sp)
    6d54:	01312e23          	sw	s3,28(sp)
    6d58:	00050413          	mv	s0,a0
    6d5c:	00060713          	mv	a4,a2
	__asm__ volatile ("csrrc %0, mstatus, %1"
    6d60:	00800493          	li	s1,8
    6d64:	3004b4f3          	csrrc	s1,mstatus,s1

	SYS_PORT_TRACING_OBJ_FUNC_ENTER(k_mutex, lock, mutex, timeout);

	key = k_spin_lock(&lock);

	if (likely((mutex->lock_count == 0U) || (mutex->owner == _current))) {
    6d68:	00c52603          	lw	a2,12(a0)
    6d6c:	0000e7b7          	lui	a5,0xe
	key = (mstatus & MSTATUS_IEN);
    6d70:	0084f493          	andi	s1,s1,8
    6d74:	f1c78793          	addi	a5,a5,-228 # df1c <_kernel>
    6d78:	02060463          	beqz	a2,6da0 <z_impl_k_mutex_lock+0x60>
    6d7c:	00058693          	mv	a3,a1
    6d80:	00852503          	lw	a0,8(a0)
    6d84:	0087a583          	lw	a1,8(a5)
    6d88:	04b50c63          	beq	a0,a1,6de0 <z_impl_k_mutex_lock+0xa0>
		SYS_PORT_TRACING_OBJ_FUNC_EXIT(k_mutex, lock, mutex, timeout, 0);

		return 0;
	}

	if (unlikely(K_TIMEOUT_EQ(timeout, K_NO_WAIT))) {
    6d8c:	00e6e7b3          	or	a5,a3,a4
    6d90:	04079c63          	bnez	a5,6de8 <z_impl_k_mutex_lock+0xa8>
	__asm__ volatile ("csrrs %0, mstatus, %1"
    6d94:	3004a4f3          	csrrs	s1,mstatus,s1
		k_spin_unlock(&lock, key);

		SYS_PORT_TRACING_OBJ_FUNC_EXIT(k_mutex, lock, mutex, timeout, -EBUSY);

		return -EBUSY;
    6d98:	ff000513          	li	a0,-16
    6d9c:	0280006f          	j	6dc4 <z_impl_k_mutex_lock+0x84>
					_current->base.prio :
    6da0:	0087a703          	lw	a4,8(a5)
    6da4:	00e70703          	lb	a4,14(a4)
		mutex->owner = _current;
    6da8:	0087a783          	lw	a5,8(a5)
		mutex->lock_count++;
    6dac:	00160613          	addi	a2,a2,1
		mutex->owner_orig_prio = (mutex->lock_count == 0U) ?
    6db0:	00e42823          	sw	a4,16(s0)
		mutex->lock_count++;
    6db4:	00c42623          	sw	a2,12(s0)
		mutex->owner = _current;
    6db8:	00f42423          	sw	a5,8(s0)
    6dbc:	3004a4f3          	csrrs	s1,mstatus,s1
		return 0;
    6dc0:	00000513          	li	a0,0
	}

	SYS_PORT_TRACING_OBJ_FUNC_EXIT(k_mutex, lock, mutex, timeout, -EAGAIN);

	return -EAGAIN;
}
    6dc4:	02c12083          	lw	ra,44(sp)
    6dc8:	02812403          	lw	s0,40(sp)
    6dcc:	02412483          	lw	s1,36(sp)
    6dd0:	02012903          	lw	s2,32(sp)
    6dd4:	01c12983          	lw	s3,28(sp)
    6dd8:	03010113          	addi	sp,sp,48
    6ddc:	00008067          	ret
					_current->base.prio :
    6de0:	01042703          	lw	a4,16(s0)
    6de4:	fc5ff06f          	j	6da8 <z_impl_k_mutex_lock+0x68>
	new_prio = new_prio_for_inheritance(_current->base.prio,
    6de8:	00e50783          	lb	a5,14(a0)
    6dec:	00e58583          	lb	a1,14(a1)
    6df0:	00b7d463          	bge	a5,a1,6df8 <z_impl_k_mutex_lock+0xb8>
    6df4:	00078593          	mv	a1,a5
    6df8:	f8100613          	li	a2,-127
    6dfc:	00c5d463          	bge	a1,a2,6e04 <z_impl_k_mutex_lock+0xc4>
    6e00:	f8100593          	li	a1,-127
	bool resched = false;
    6e04:	00000993          	li	s3,0
	if (z_is_prio_higher(new_prio, mutex->owner->base.prio)) {
    6e08:	00f5de63          	bge	a1,a5,6e24 <z_impl_k_mutex_lock+0xe4>
    6e0c:	00e12623          	sw	a4,12(sp)
    6e10:	00d12423          	sw	a3,8(sp)
		resched = adjust_owner_prio(mutex, new_prio);
    6e14:	f01ff0ef          	jal	ra,6d14 <adjust_owner_prio.isra.0>
    6e18:	00c12703          	lw	a4,12(sp)
    6e1c:	00812683          	lw	a3,8(sp)
    6e20:	00050993          	mv	s3,a0
	int got_mutex = z_pend_curr(&lock, key, &mutex->wait_q, timeout);
    6e24:	0000e937          	lui	s2,0xe
    6e28:	00040613          	mv	a2,s0
    6e2c:	00048593          	mv	a1,s1
    6e30:	f4090513          	addi	a0,s2,-192 # df40 <sched_spinlock>
    6e34:	0c1000ef          	jal	ra,76f4 <z_pend_curr>
	if (got_mutex == 0) {
    6e38:	f80506e3          	beqz	a0,6dc4 <z_impl_k_mutex_lock+0x84>
	__asm__ volatile ("csrrc %0, mstatus, %1"
    6e3c:	00800493          	li	s1,8
    6e40:	3004b4f3          	csrrc	s1,mstatus,s1
	if (likely(mutex->owner != NULL)) {
    6e44:	00842503          	lw	a0,8(s0)
	key = (mstatus & MSTATUS_IEN);
    6e48:	0084f493          	andi	s1,s1,8
    6e4c:	02050a63          	beqz	a0,6e80 <z_impl_k_mutex_lock+0x140>
 * @return true if empty, false otherwise
 */

static inline bool sys_dlist_is_empty(sys_dlist_t *list)
{
	return list->head == list;
    6e50:	00042783          	lw	a5,0(s0)
			new_prio_for_inheritance(waiter->base.prio, mutex->owner_orig_prio) :
    6e54:	01042583          	lw	a1,16(s0)
 * @return a pointer to the head element, NULL if list is empty
 */

static inline sys_dnode_t *sys_dlist_peek_head(sys_dlist_t *list)
{
	return sys_dlist_is_empty(list) ? NULL : list->head;
    6e58:	02f40063          	beq	s0,a5,6e78 <z_impl_k_mutex_lock+0x138>
    6e5c:	00078e63          	beqz	a5,6e78 <z_impl_k_mutex_lock+0x138>
    6e60:	00e78783          	lb	a5,14(a5)
    6e64:	00b7d463          	bge	a5,a1,6e6c <z_impl_k_mutex_lock+0x12c>
    6e68:	00078593          	mv	a1,a5
    6e6c:	f8100793          	li	a5,-127
    6e70:	00f5d463          	bge	a1,a5,6e78 <z_impl_k_mutex_lock+0x138>
    6e74:	f8100593          	li	a1,-127
		resched = adjust_owner_prio(mutex, new_prio) || resched;
    6e78:	e9dff0ef          	jal	ra,6d14 <adjust_owner_prio.isra.0>
    6e7c:	00051463          	bnez	a0,6e84 <z_impl_k_mutex_lock+0x144>
	if (resched) {
    6e80:	00098c63          	beqz	s3,6e98 <z_impl_k_mutex_lock+0x158>
		z_reschedule(&lock, key);
    6e84:	00048593          	mv	a1,s1
    6e88:	f4090513          	addi	a0,s2,-192
    6e8c:	2c0000ef          	jal	ra,714c <z_reschedule>
	return -EAGAIN;
    6e90:	ff500513          	li	a0,-11
    6e94:	f31ff06f          	j	6dc4 <z_impl_k_mutex_lock+0x84>
	__asm__ volatile ("csrrs %0, mstatus, %1"
    6e98:	3004a4f3          	csrrs	s1,mstatus,s1
    6e9c:	ff5ff06f          	j	6e90 <z_impl_k_mutex_lock+0x150>

00006ea0 <z_impl_k_mutex_unlock>:

	__ASSERT(!arch_is_in_isr(), "mutexes cannot be used inside ISRs");

	SYS_PORT_TRACING_OBJ_FUNC_ENTER(k_mutex, unlock, mutex);

	CHECKIF(mutex->owner == NULL) {
    6ea0:	00852783          	lw	a5,8(a0)
    6ea4:	0a078e63          	beqz	a5,6f60 <z_impl_k_mutex_unlock+0xc0>
		return -EINVAL;
	}
	/*
	 * The current thread does not own the mutex.
	 */
	CHECKIF(mutex->owner != _current) {
    6ea8:	0000e737          	lui	a4,0xe
    6eac:	f2472703          	lw	a4,-220(a4) # df24 <_kernel+0x8>
{
    6eb0:	ff010113          	addi	sp,sp,-16
    6eb4:	00812423          	sw	s0,8(sp)
    6eb8:	00112623          	sw	ra,12(sp)
    6ebc:	00912223          	sw	s1,4(sp)
    6ec0:	00050413          	mv	s0,a0
		SYS_PORT_TRACING_OBJ_FUNC_EXIT(k_mutex, unlock, mutex, -EPERM);

		return -EPERM;
    6ec4:	fff00513          	li	a0,-1
	CHECKIF(mutex->owner != _current) {
    6ec8:	02e79663          	bne	a5,a4,6ef4 <z_impl_k_mutex_unlock+0x54>
static inline void z_sched_lock(void)
{
	__ASSERT(!arch_is_in_isr(), "");
	__ASSERT(_current->base.sched_locked != 1U, "");

	--_current->base.sched_locked;
    6ecc:	00f7c703          	lbu	a4,15(a5)
    6ed0:	fff70713          	addi	a4,a4,-1
    6ed4:	00e787a3          	sb	a4,15(a5)

	/*
	 * If we are the owner and count is greater than 1, then decrement
	 * the count and return and keep current thread as the owner.
	 */
	if (mutex->lock_count > 1U) {
    6ed8:	00c42783          	lw	a5,12(s0)
    6edc:	00100713          	li	a4,1
    6ee0:	02f77463          	bgeu	a4,a5,6f08 <z_impl_k_mutex_unlock+0x68>
		mutex->lock_count--;
    6ee4:	fff78793          	addi	a5,a5,-1
    6ee8:	00f42623          	sw	a5,12(s0)


k_mutex_unlock_return:
	SYS_PORT_TRACING_OBJ_FUNC_EXIT(k_mutex, unlock, mutex, 0);

	k_sched_unlock();
    6eec:	1f5000ef          	jal	ra,78e0 <k_sched_unlock>

	return 0;
    6ef0:	00000513          	li	a0,0
}
    6ef4:	00c12083          	lw	ra,12(sp)
    6ef8:	00812403          	lw	s0,8(sp)
    6efc:	00412483          	lw	s1,4(sp)
    6f00:	01010113          	addi	sp,sp,16
    6f04:	00008067          	ret
	__asm__ volatile ("csrrc %0, mstatus, %1"
    6f08:	00800493          	li	s1,8
    6f0c:	3004b4f3          	csrrc	s1,mstatus,s1
	adjust_owner_prio(mutex, mutex->owner_orig_prio);
    6f10:	01042583          	lw	a1,16(s0)
    6f14:	00842503          	lw	a0,8(s0)
	key = (mstatus & MSTATUS_IEN);
    6f18:	0084f493          	andi	s1,s1,8
    6f1c:	df9ff0ef          	jal	ra,6d14 <adjust_owner_prio.isra.0>
	new_owner = z_unpend_first_thread(&mutex->wait_q);
    6f20:	00040513          	mv	a0,s0
    6f24:	205000ef          	jal	ra,7928 <z_unpend_first_thread>
	mutex->owner = new_owner;
    6f28:	00a42423          	sw	a0,8(s0)
	if (new_owner != NULL) {
    6f2c:	02050463          	beqz	a0,6f54 <z_impl_k_mutex_unlock+0xb4>
		mutex->owner_orig_prio = new_owner->base.prio;
    6f30:	00e50703          	lb	a4,14(a0)
    6f34:	00e42823          	sw	a4,16(s0)
    6f38:	06052c23          	sw	zero,120(a0)
		z_ready_thread(new_owner);
    6f3c:	534000ef          	jal	ra,7470 <z_ready_thread>
		z_reschedule(&lock, key);
    6f40:	0000e537          	lui	a0,0xe
    6f44:	00048593          	mv	a1,s1
    6f48:	f4050513          	addi	a0,a0,-192 # df40 <sched_spinlock>
    6f4c:	200000ef          	jal	ra,714c <z_reschedule>
    6f50:	f9dff06f          	j	6eec <z_impl_k_mutex_unlock+0x4c>
		mutex->lock_count = 0U;
    6f54:	00042623          	sw	zero,12(s0)
	__asm__ volatile ("csrrs %0, mstatus, %1"
    6f58:	3004a4f3          	csrrs	s1,mstatus,s1
    6f5c:	f91ff06f          	j	6eec <z_impl_k_mutex_unlock+0x4c>
		return -EINVAL;
    6f60:	fea00513          	li	a0,-22
}
    6f64:	00008067          	ret

00006f68 <z_impl_k_sem_give>:
	ARG_UNUSED(sem);
#endif
}

void z_impl_k_sem_give(struct k_sem *sem)
{
    6f68:	ff010113          	addi	sp,sp,-16
    6f6c:	00812423          	sw	s0,8(sp)
    6f70:	00912223          	sw	s1,4(sp)
    6f74:	00112623          	sw	ra,12(sp)
    6f78:	00050493          	mv	s1,a0
	__asm__ volatile ("csrrc %0, mstatus, %1"
    6f7c:	00800413          	li	s0,8
    6f80:	30043473          	csrrc	s0,mstatus,s0
	key = (mstatus & MSTATUS_IEN);
    6f84:	00847413          	andi	s0,s0,8
	k_spinlock_key_t key = k_spin_lock(&lock);
	struct k_thread *thread;

	SYS_PORT_TRACING_OBJ_FUNC_ENTER(k_sem, give, sem);

	thread = z_unpend_first_thread(&sem->wait_q);
    6f88:	1a1000ef          	jal	ra,7928 <z_unpend_first_thread>

	if (thread != NULL) {
    6f8c:	02050663          	beqz	a0,6fb8 <z_impl_k_sem_give+0x50>
    6f90:	06052c23          	sw	zero,120(a0)
		arch_thread_return_value_set(thread, 0);
		z_ready_thread(thread);
    6f94:	4dc000ef          	jal	ra,7470 <z_ready_thread>
	} else {
		sem->count += (sem->count != sem->limit) ? 1U : 0U;
		handle_poll_events(sem);
	}

	z_reschedule(&lock, key);
    6f98:	00040593          	mv	a1,s0

	SYS_PORT_TRACING_OBJ_FUNC_EXIT(k_sem, give, sem);
}
    6f9c:	00812403          	lw	s0,8(sp)
    6fa0:	00c12083          	lw	ra,12(sp)
    6fa4:	00412483          	lw	s1,4(sp)
	z_reschedule(&lock, key);
    6fa8:	0000e537          	lui	a0,0xe
    6fac:	f4050513          	addi	a0,a0,-192 # df40 <sched_spinlock>
}
    6fb0:	01010113          	addi	sp,sp,16
	z_reschedule(&lock, key);
    6fb4:	1980006f          	j	714c <z_reschedule>
		sem->count += (sem->count != sem->limit) ? 1U : 0U;
    6fb8:	0084a703          	lw	a4,8(s1)
    6fbc:	00c4a783          	lw	a5,12(s1)
    6fc0:	40e787b3          	sub	a5,a5,a4
    6fc4:	00f037b3          	snez	a5,a5
    6fc8:	00e787b3          	add	a5,a5,a4
    6fcc:	00f4a423          	sw	a5,8(s1)
}
    6fd0:	fc9ff06f          	j	6f98 <z_impl_k_sem_give+0x30>

00006fd4 <z_impl_k_sem_take>:
}
#include <syscalls/k_sem_give_mrsh.c>
#endif

int z_impl_k_sem_take(struct k_sem *sem, k_timeout_t timeout)
{
    6fd4:	00058693          	mv	a3,a1
    6fd8:	00060713          	mv	a4,a2
	__asm__ volatile ("csrrc %0, mstatus, %1"
    6fdc:	00800793          	li	a5,8
    6fe0:	3007b7f3          	csrrc	a5,mstatus,a5
	key = (mstatus & MSTATUS_IEN);
    6fe4:	0087f593          	andi	a1,a5,8

	k_spinlock_key_t key = k_spin_lock(&lock);

	SYS_PORT_TRACING_OBJ_FUNC_ENTER(k_sem, take, sem, timeout);

	if (likely(sem->count > 0U)) {
    6fe8:	00852783          	lw	a5,8(a0)
    6fec:	00078c63          	beqz	a5,7004 <z_impl_k_sem_take+0x30>
		sem->count--;
    6ff0:	fff78793          	addi	a5,a5,-1
    6ff4:	00f52423          	sw	a5,8(a0)
	__asm__ volatile ("csrrs %0, mstatus, %1"
    6ff8:	3005a5f3          	csrrs	a1,mstatus,a1
		k_spin_unlock(&lock, key);
		ret = 0;
    6ffc:	00000513          	li	a0,0
		goto out;
    7000:	00008067          	ret
	}

	if (K_TIMEOUT_EQ(timeout, K_NO_WAIT)) {
    7004:	00c6e7b3          	or	a5,a3,a2
    7008:	00079863          	bnez	a5,7018 <z_impl_k_sem_take+0x44>
    700c:	3005a5f3          	csrrs	a1,mstatus,a1
		k_spin_unlock(&lock, key);
		ret = -EBUSY;
    7010:	ff000513          	li	a0,-16

out:
	SYS_PORT_TRACING_OBJ_FUNC_EXIT(k_sem, take, sem, timeout, ret);

	return ret;
}
    7014:	00008067          	ret
	ret = z_pend_curr(&lock, key, &sem->wait_q, timeout);
    7018:	00050613          	mv	a2,a0
    701c:	0000e537          	lui	a0,0xe
    7020:	f4050513          	addi	a0,a0,-192 # df40 <sched_spinlock>
    7024:	6d00006f          	j	76f4 <z_pend_curr>

00007028 <sys_dlist_remove>:
 * @return N/A
 */

static inline void sys_dlist_remove(sys_dnode_t *node)
{
	sys_dnode_t *const prev = node->prev;
    7028:	00452703          	lw	a4,4(a0)
	sys_dnode_t *const next = node->next;
    702c:	00052783          	lw	a5,0(a0)

	prev->next = next;
    7030:	00f72023          	sw	a5,0(a4)
	next->prev = prev;
    7034:	00e7a223          	sw	a4,4(a5)
	node->next = NULL;
    7038:	00052023          	sw	zero,0(a0)
	node->prev = NULL;
    703c:	00052223          	sw	zero,4(a0)
	sys_dnode_init(node);
}
    7040:	00008067          	ret

00007044 <unpend_thread_no_timeout>:
		pend_locked(thread, wait_q, timeout);
	}
}

static inline void unpend_thread_no_timeout(struct k_thread *thread)
{
    7044:	ff010113          	addi	sp,sp,-16
    7048:	00812423          	sw	s0,8(sp)
    704c:	00112623          	sw	ra,12(sp)
    7050:	00050413          	mv	s0,a0

void z_priq_dumb_remove(sys_dlist_t *pq, struct k_thread *thread)
{
	__ASSERT_NO_MSG(!z_is_idle_thread_object(thread));

	sys_dlist_remove(&thread->base.qnode_dlist);
    7054:	fd5ff0ef          	jal	ra,7028 <sys_dlist_remove>
	thread->base.thread_state &= ~_THREAD_PENDING;
    7058:	00d44783          	lbu	a5,13(s0)
}
    705c:	00c12083          	lw	ra,12(sp)
	thread->base.pended_on = NULL;
    7060:	00042423          	sw	zero,8(s0)
    7064:	ffd7f793          	andi	a5,a5,-3
    7068:	00f406a3          	sb	a5,13(s0)
}
    706c:	00812403          	lw	s0,8(sp)
    7070:	01010113          	addi	sp,sp,16
    7074:	00008067          	ret

00007078 <z_reset_time_slice>:
{
    7078:	ff010113          	addi	sp,sp,-16
    707c:	00812423          	sw	s0,8(sp)
	if (slice_time != 0) {
    7080:	0000e437          	lui	s0,0xe
    7084:	b6040413          	addi	s0,s0,-1184 # db60 <slice_time>
    7088:	00042783          	lw	a5,0(s0)
{
    708c:	00112623          	sw	ra,12(sp)
	if (slice_time != 0) {
    7090:	02078863          	beqz	a5,70c0 <z_reset_time_slice+0x48>
		_current_cpu->slice_ticks = slice_time + sys_clock_elapsed();
    7094:	c58ff0ef          	jal	ra,64ec <sys_clock_elapsed>
    7098:	00050793          	mv	a5,a0
    709c:	00042503          	lw	a0,0(s0)
}
    70a0:	00812403          	lw	s0,8(sp)
    70a4:	00c12083          	lw	ra,12(sp)
		_current_cpu->slice_ticks = slice_time + sys_clock_elapsed();
    70a8:	00f507b3          	add	a5,a0,a5
    70ac:	0000e737          	lui	a4,0xe
    70b0:	f2f72623          	sw	a5,-212(a4) # df2c <_kernel+0x10>
		z_set_timeout_expiry(slice_time, false);
    70b4:	00000593          	li	a1,0
}
    70b8:	01010113          	addi	sp,sp,16
		z_set_timeout_expiry(slice_time, false);
    70bc:	5b10006f          	j	7e6c <z_set_timeout_expiry>
}
    70c0:	00c12083          	lw	ra,12(sp)
    70c4:	00812403          	lw	s0,8(sp)
    70c8:	01010113          	addi	sp,sp,16
    70cc:	00008067          	ret

000070d0 <k_sched_time_slice_set>:
{
    70d0:	ff010113          	addi	sp,sp,-16
    70d4:	00812423          	sw	s0,8(sp)
    70d8:	00912223          	sw	s1,4(sp)
    70dc:	00112623          	sw	ra,12(sp)
    70e0:	00050793          	mv	a5,a0
    70e4:	00058493          	mv	s1,a1
	__asm__ volatile ("csrrc %0, mstatus, %1"
    70e8:	00800413          	li	s0,8
    70ec:	30043473          	csrrc	s0,mstatus,s0
		_current_cpu->slice_ticks = 0;
    70f0:	0000e737          	lui	a4,0xe
		t += off;
    70f4:	00950513          	addi	a0,a0,9
    70f8:	f2072623          	sw	zero,-212(a4) # df2c <_kernel+0x10>
	key = (mstatus & MSTATUS_IEN);
    70fc:	00847413          	andi	s0,s0,8
    7100:	00f535b3          	sltu	a1,a0,a5
		if (result32 && (t < BIT64(32))) {
    7104:	02f56c63          	bltu	a0,a5,713c <k_sched_time_slice_set+0x6c>
			return ((uint32_t)t) / (from_hz / to_hz);
    7108:	00a00793          	li	a5,10
    710c:	02f55533          	divu	a0,a0,a5
		slice_time = k_ms_to_ticks_ceil32(slice);
    7110:	0000e7b7          	lui	a5,0xe
    7114:	b6a7a023          	sw	a0,-1184(a5) # db60 <slice_time>
		slice_max_prio = prio;
    7118:	0000e7b7          	lui	a5,0xe
    711c:	b497ae23          	sw	s1,-1188(a5) # db5c <slice_max_prio>
		z_reset_time_slice();
    7120:	f59ff0ef          	jal	ra,7078 <z_reset_time_slice>
	__asm__ volatile ("csrrs %0, mstatus, %1"
    7124:	30042473          	csrrs	s0,mstatus,s0
}
    7128:	00c12083          	lw	ra,12(sp)
    712c:	00812403          	lw	s0,8(sp)
    7130:	00412483          	lw	s1,4(sp)
    7134:	01010113          	addi	sp,sp,16
    7138:	00008067          	ret
			return t / ((uint64_t)from_hz / to_hz);
    713c:	00a00613          	li	a2,10
    7140:	00000693          	li	a3,0
    7144:	9f8f90ef          	jal	ra,33c <__udivdi3>
    7148:	fc9ff06f          	j	7110 <k_sched_time_slice_set+0x40>

0000714c <z_reschedule>:
	 * have the single bit set).  But there is a mask applied to
	 * the argument in arch_irq_unlock() that has me worried
	 * that something elseswhere might try to set a bit?  Do it
	 * the safe way for now.
	 */
	return (key & MSTATUS_IEN) == MSTATUS_IEN;
    714c:	0085f713          	andi	a4,a1,8
{
    7150:	00058513          	mv	a0,a1
	return arch_irq_unlocked(key) && !arch_is_in_isr();
    7154:	02070263          	beqz	a4,7178 <z_reschedule+0x2c>
FUNC_NORETURN void z_riscv_fatal_error(unsigned int reason,
				       const z_arch_esf_t *esf);

static inline bool arch_is_in_isr(void)
{
	return _kernel.cpus[0].nested != 0U;
    7158:	0000e7b7          	lui	a5,0xe
    715c:	f1c78793          	addi	a5,a5,-228 # df1c <_kernel>
	if (resched(key.key) && need_swap()) {
    7160:	0007a683          	lw	a3,0(a5)
    7164:	00069a63          	bnez	a3,7178 <z_reschedule+0x2c>
    7168:	0187a683          	lw	a3,24(a5)
    716c:	0087a783          	lw	a5,8(a5)
    7170:	00f68463          	beq	a3,a5,7178 <z_reschedule+0x2c>
    7174:	958f906f          	j	2cc <arch_swap>
	__asm__ volatile ("csrrs %0, mstatus, %1"
    7178:	30072773          	csrrs	a4,mstatus,a4
}
    717c:	00008067          	ret

00007180 <z_reschedule_irqlock>:
	return (key & MSTATUS_IEN) == MSTATUS_IEN;
    7180:	00857793          	andi	a5,a0,8
	return arch_irq_unlocked(key) && !arch_is_in_isr();
    7184:	00078a63          	beqz	a5,7198 <z_reschedule_irqlock+0x18>
	if (resched(key)) {
    7188:	0000e737          	lui	a4,0xe
    718c:	f1c72703          	lw	a4,-228(a4) # df1c <_kernel>
    7190:	00071463          	bnez	a4,7198 <z_reschedule_irqlock+0x18>
    7194:	938f906f          	j	2cc <arch_swap>
	__asm__ volatile ("csrrs %0, mstatus, %1"
    7198:	3007a7f3          	csrrs	a5,mstatus,a5
}
    719c:	00008067          	ret

000071a0 <z_reschedule_unlocked>:
	__asm__ volatile ("csrrc %0, mstatus, %1"
    71a0:	00800513          	li	a0,8
    71a4:	30053573          	csrrc	a0,mstatus,a0
	(void) z_reschedule_irqlock(arch_irq_lock());
    71a8:	00857513          	andi	a0,a0,8
    71ac:	fd5ff06f          	j	7180 <z_reschedule_irqlock>

000071b0 <k_sched_lock>:
    71b0:	00800793          	li	a5,8
    71b4:	3007b7f3          	csrrc	a5,mstatus,a5
	--_current->base.sched_locked;
    71b8:	0000e737          	lui	a4,0xe
    71bc:	f2472683          	lw	a3,-220(a4) # df24 <_kernel+0x8>
    71c0:	00f6c703          	lbu	a4,15(a3)
    71c4:	fff70713          	addi	a4,a4,-1
    71c8:	00e687a3          	sb	a4,15(a3)
	key = (mstatus & MSTATUS_IEN);
    71cc:	0087f793          	andi	a5,a5,8
	__asm__ volatile ("csrrs %0, mstatus, %1"
    71d0:	3007a7f3          	csrrs	a5,mstatus,a5
}
    71d4:	00008067          	ret

000071d8 <z_priq_dumb_best>:
}

struct k_thread *z_priq_dumb_best(sys_dlist_t *pq)
{
    71d8:	00050793          	mv	a5,a0
	return list->head == list;
    71dc:	00052503          	lw	a0,0(a0)
	return sys_dlist_is_empty(list) ? NULL : list->head;
    71e0:	00a79463          	bne	a5,a0,71e8 <z_priq_dumb_best+0x10>
	struct k_thread *thread = NULL;
    71e4:	00000513          	li	a0,0

	if (n != NULL) {
		thread = CONTAINER_OF(n, struct k_thread, base.qnode_dlist);
	}
	return thread;
}
    71e8:	00008067          	ret

000071ec <update_cache>:
{
    71ec:	ff010113          	addi	sp,sp,-16
    71f0:	01212023          	sw	s2,0(sp)
    71f4:	00050913          	mv	s2,a0
	thread = _priq_run_best(&_kernel.ready_q.runq);
    71f8:	0000e537          	lui	a0,0xe
    71fc:	f3850513          	addi	a0,a0,-200 # df38 <_kernel+0x1c>
{
    7200:	00812423          	sw	s0,8(sp)
    7204:	00912223          	sw	s1,4(sp)
    7208:	00112623          	sw	ra,12(sp)
    720c:	0000e437          	lui	s0,0xe
	thread = _priq_run_best(&_kernel.ready_q.runq);
    7210:	fc9ff0ef          	jal	ra,71d8 <z_priq_dumb_best>
	return (thread != NULL) ? thread : _current_cpu->idle_thread;
    7214:	f1c40413          	addi	s0,s0,-228 # df1c <_kernel>
    7218:	00050493          	mv	s1,a0
    721c:	00051463          	bnez	a0,7224 <update_cache+0x38>
    7220:	00c42483          	lw	s1,12(s0)
	if (z_is_thread_prevented_from_running(_current)) {
    7224:	00842783          	lw	a5,8(s0)
	if (preempt_ok != 0) {
    7228:	02091c63          	bnez	s2,7260 <update_cache+0x74>
	if (z_is_thread_prevented_from_running(_current)) {
    722c:	00d7c703          	lbu	a4,13(a5)
    7230:	01f77713          	andi	a4,a4,31
    7234:	02071663          	bnez	a4,7260 <update_cache+0x74>
	if (is_preempt(_current) || is_metairq(thread)) {
    7238:	00e7d683          	lhu	a3,14(a5)
    723c:	07f00713          	li	a4,127
    7240:	02d77063          	bgeu	a4,a3,7260 <update_cache+0x74>
		_kernel.ready_q.cache = _current;
    7244:	00f42c23          	sw	a5,24(s0)
}
    7248:	00c12083          	lw	ra,12(sp)
    724c:	00812403          	lw	s0,8(sp)
    7250:	00412483          	lw	s1,4(sp)
    7254:	00012903          	lw	s2,0(sp)
    7258:	01010113          	addi	sp,sp,16
    725c:	00008067          	ret
		if (thread != _current) {
    7260:	00f48463          	beq	s1,a5,7268 <update_cache+0x7c>
			z_reset_time_slice();
    7264:	e15ff0ef          	jal	ra,7078 <z_reset_time_slice>
		_kernel.ready_q.cache = thread;
    7268:	00942c23          	sw	s1,24(s0)
}
    726c:	fddff06f          	j	7248 <update_cache+0x5c>

00007270 <move_thread_to_end_of_prio_q>:
{
    7270:	ff010113          	addi	sp,sp,-16
    7274:	00812423          	sw	s0,8(sp)
    7278:	00112623          	sw	ra,12(sp)
	return (thread->base.thread_state & state) != 0U;
    727c:	00d54783          	lbu	a5,13(a0)
    7280:	00050413          	mv	s0,a0
	if (z_is_thread_queued(thread)) {
    7284:	01879713          	slli	a4,a5,0x18
    7288:	41875713          	srai	a4,a4,0x18
    728c:	00075863          	bgez	a4,729c <move_thread_to_end_of_prio_q+0x2c>
	thread->base.thread_state &= ~_THREAD_QUEUED;
    7290:	07f7f793          	andi	a5,a5,127
    7294:	00f506a3          	sb	a5,13(a0)
	sys_dlist_remove(&thread->base.qnode_dlist);
    7298:	d91ff0ef          	jal	ra,7028 <sys_dlist_remove>
	thread->base.thread_state |= _THREAD_QUEUED;
    729c:	00d44783          	lbu	a5,13(s0)
	return list->head == list;
    72a0:	0000e737          	lui	a4,0xe
    72a4:	f1c70693          	addi	a3,a4,-228 # df1c <_kernel>
    72a8:	f807e793          	ori	a5,a5,-128
    72ac:	00f406a3          	sb	a5,13(s0)
    72b0:	01c6a783          	lw	a5,28(a3)
	return (node == list->tail) ? NULL : node->next;
    72b4:	0206a583          	lw	a1,32(a3)
    72b8:	0000e6b7          	lui	a3,0xe
    72bc:	f3868693          	addi	a3,a3,-200 # df38 <_kernel+0x1c>
    72c0:	f1c70713          	addi	a4,a4,-228
	return sys_dlist_is_empty(list) ? NULL : list->head;
    72c4:	04d78c63          	beq	a5,a3,731c <move_thread_to_end_of_prio_q+0xac>
	SYS_DLIST_FOR_EACH_CONTAINER(pq, t, base.qnode_dlist) {
    72c8:	04078a63          	beqz	a5,731c <move_thread_to_end_of_prio_q+0xac>
	int32_t b1 = thread_1->base.prio;
    72cc:	00e40503          	lb	a0,14(s0)
	int32_t b2 = thread_2->base.prio;
    72d0:	00e78603          	lb	a2,14(a5)
	if (b1 != b2) {
    72d4:	02c50e63          	beq	a0,a2,7310 <move_thread_to_end_of_prio_q+0xa0>
		return b2 - b1;
    72d8:	40a60633          	sub	a2,a2,a0
		if (z_sched_prio_cmp(thread, t) > 0) {
    72dc:	02c05a63          	blez	a2,7310 <move_thread_to_end_of_prio_q+0xa0>
	sys_dnode_t *const prev = successor->prev;
    72e0:	0047a683          	lw	a3,4(a5)
	node->next = successor;
    72e4:	00f42023          	sw	a5,0(s0)
	node->prev = prev;
    72e8:	00d42223          	sw	a3,4(s0)
	prev->next = node;
    72ec:	0086a023          	sw	s0,0(a3)
	successor->prev = node;
    72f0:	0087a223          	sw	s0,4(a5)
	update_cache(thread == _current);
    72f4:	00872503          	lw	a0,8(a4)
}
    72f8:	00c12083          	lw	ra,12(sp)
	update_cache(thread == _current);
    72fc:	40850533          	sub	a0,a0,s0
}
    7300:	00812403          	lw	s0,8(sp)
	update_cache(thread == _current);
    7304:	00153513          	seqz	a0,a0
}
    7308:	01010113          	addi	sp,sp,16
	update_cache(thread == _current);
    730c:	ee1ff06f          	j	71ec <update_cache>
	return (node == list->tail) ? NULL : node->next;
    7310:	00b78663          	beq	a5,a1,731c <move_thread_to_end_of_prio_q+0xac>
    7314:	0007a783          	lw	a5,0(a5)
	SYS_DLIST_FOR_EACH_CONTAINER(pq, t, base.qnode_dlist) {
    7318:	fa079ce3          	bnez	a5,72d0 <move_thread_to_end_of_prio_q+0x60>
	node->next = list;
    731c:	00d42023          	sw	a3,0(s0)
	node->prev = tail;
    7320:	00b42223          	sw	a1,4(s0)
	tail->next = node;
    7324:	0085a023          	sw	s0,0(a1)
	list->tail = node;
    7328:	02872023          	sw	s0,32(a4)
}
    732c:	fc9ff06f          	j	72f4 <move_thread_to_end_of_prio_q+0x84>

00007330 <z_time_slice>:
{
    7330:	ff010113          	addi	sp,sp,-16
    7334:	00812423          	sw	s0,8(sp)
    7338:	00112623          	sw	ra,12(sp)
	__asm__ volatile ("csrrc %0, mstatus, %1"
    733c:	00800413          	li	s0,8
    7340:	30043473          	csrrc	s0,mstatus,s0
	if (slice_time && sliceable(_current)) {
    7344:	0000e7b7          	lui	a5,0xe
    7348:	b607a703          	lw	a4,-1184(a5) # db60 <slice_time>
    734c:	0000e7b7          	lui	a5,0xe
	key = (mstatus & MSTATUS_IEN);
    7350:	00847413          	andi	s0,s0,8
    7354:	f1c78793          	addi	a5,a5,-228 # df1c <_kernel>
    7358:	06070863          	beqz	a4,73c8 <z_time_slice+0x98>
    735c:	00050693          	mv	a3,a0
    7360:	0087a503          	lw	a0,8(a5)
		&& !z_is_idle_thread_object(thread);
    7364:	07f00713          	li	a4,127
    7368:	00e55603          	lhu	a2,14(a0)
    736c:	04c76e63          	bltu	a4,a2,73c8 <z_time_slice+0x98>
		&& !z_is_thread_prevented_from_running(thread)
    7370:	00d54703          	lbu	a4,13(a0)
    7374:	01f77713          	andi	a4,a4,31
    7378:	04071863          	bnez	a4,73c8 <z_time_slice+0x98>
		&& !z_is_prio_higher(thread->base.prio, slice_max_prio)
    737c:	0000e737          	lui	a4,0xe
    7380:	00e50603          	lb	a2,14(a0)
    7384:	b5c72703          	lw	a4,-1188(a4) # db5c <slice_max_prio>
    7388:	04e64063          	blt	a2,a4,73c8 <z_time_slice+0x98>
		&& !z_is_idle_thread_object(thread);
    738c:	0000e737          	lui	a4,0xe
    7390:	df870713          	addi	a4,a4,-520 # ddf8 <z_idle_threads>
    7394:	02e50a63          	beq	a0,a4,73c8 <z_time_slice+0x98>
		if (ticks >= _current_cpu->slice_ticks) {
    7398:	0107a703          	lw	a4,16(a5)
    739c:	02e6c063          	blt	a3,a4,73bc <z_time_slice+0x8c>
			move_thread_to_end_of_prio_q(_current);
    73a0:	ed1ff0ef          	jal	ra,7270 <move_thread_to_end_of_prio_q>
			z_reset_time_slice();
    73a4:	cd5ff0ef          	jal	ra,7078 <z_reset_time_slice>
	__asm__ volatile ("csrrs %0, mstatus, %1"
    73a8:	30042473          	csrrs	s0,mstatus,s0
}
    73ac:	00c12083          	lw	ra,12(sp)
    73b0:	00812403          	lw	s0,8(sp)
    73b4:	01010113          	addi	sp,sp,16
    73b8:	00008067          	ret
			_current_cpu->slice_ticks -= ticks;
    73bc:	40d70733          	sub	a4,a4,a3
    73c0:	00e7a823          	sw	a4,16(a5)
    73c4:	fe5ff06f          	j	73a8 <z_time_slice+0x78>
		_current_cpu->slice_ticks = 0;
    73c8:	0007a823          	sw	zero,16(a5)
    73cc:	fddff06f          	j	73a8 <z_time_slice+0x78>

000073d0 <ready_thread>:
    73d0:	00d54783          	lbu	a5,13(a0)
	if (!z_is_thread_queued(thread) && z_is_thread_ready(thread)) {
    73d4:	01879713          	slli	a4,a5,0x18
    73d8:	41875713          	srai	a4,a4,0x18
    73dc:	08074863          	bltz	a4,746c <ready_thread+0x9c>
	return !((z_is_thread_prevented_from_running(thread)) != 0U ||
    73e0:	01f7f713          	andi	a4,a5,31
    73e4:	08071463          	bnez	a4,746c <ready_thread+0x9c>
    73e8:	01852703          	lw	a4,24(a0)
    73ec:	08071063          	bnez	a4,746c <ready_thread+0x9c>
	thread->base.thread_state |= _THREAD_QUEUED;
    73f0:	f807e793          	ori	a5,a5,-128
	return list->head == list;
    73f4:	0000e737          	lui	a4,0xe
    73f8:	f1c70693          	addi	a3,a4,-228 # df1c <_kernel>
    73fc:	00f506a3          	sb	a5,13(a0)
    7400:	01c6a783          	lw	a5,28(a3)
	return (node == list->tail) ? NULL : node->next;
    7404:	0206a583          	lw	a1,32(a3)
    7408:	0000e6b7          	lui	a3,0xe
    740c:	f3868693          	addi	a3,a3,-200 # df38 <_kernel+0x1c>
    7410:	f1c70713          	addi	a4,a4,-228
	return sys_dlist_is_empty(list) ? NULL : list->head;
    7414:	04d78263          	beq	a5,a3,7458 <ready_thread+0x88>
	SYS_DLIST_FOR_EACH_CONTAINER(pq, t, base.qnode_dlist) {
    7418:	04078063          	beqz	a5,7458 <ready_thread+0x88>
	int32_t b1 = thread_1->base.prio;
    741c:	00e50803          	lb	a6,14(a0)
	int32_t b2 = thread_2->base.prio;
    7420:	00e78603          	lb	a2,14(a5)
	if (b1 != b2) {
    7424:	02c80463          	beq	a6,a2,744c <ready_thread+0x7c>
		return b2 - b1;
    7428:	41060633          	sub	a2,a2,a6
		if (z_sched_prio_cmp(thread, t) > 0) {
    742c:	02c05063          	blez	a2,744c <ready_thread+0x7c>
	sys_dnode_t *const prev = successor->prev;
    7430:	0047a703          	lw	a4,4(a5)
	node->next = successor;
    7434:	00f52023          	sw	a5,0(a0)
	node->prev = prev;
    7438:	00e52223          	sw	a4,4(a0)
	prev->next = node;
    743c:	00a72023          	sw	a0,0(a4)
	successor->prev = node;
    7440:	00a7a223          	sw	a0,4(a5)
		update_cache(0);
    7444:	00000513          	li	a0,0
    7448:	da5ff06f          	j	71ec <update_cache>
	return (node == list->tail) ? NULL : node->next;
    744c:	00b78663          	beq	a5,a1,7458 <ready_thread+0x88>
    7450:	0007a783          	lw	a5,0(a5)
	SYS_DLIST_FOR_EACH_CONTAINER(pq, t, base.qnode_dlist) {
    7454:	fc0796e3          	bnez	a5,7420 <ready_thread+0x50>
	node->next = list;
    7458:	00d52023          	sw	a3,0(a0)
	node->prev = tail;
    745c:	00b52223          	sw	a1,4(a0)
	tail->next = node;
    7460:	00a5a023          	sw	a0,0(a1)
	list->tail = node;
    7464:	02a72023          	sw	a0,32(a4)
}
    7468:	fddff06f          	j	7444 <ready_thread+0x74>
}
    746c:	00008067          	ret

00007470 <z_ready_thread>:
{
    7470:	ff010113          	addi	sp,sp,-16
    7474:	00812423          	sw	s0,8(sp)
    7478:	00112623          	sw	ra,12(sp)
	__asm__ volatile ("csrrc %0, mstatus, %1"
    747c:	00800413          	li	s0,8
    7480:	30043473          	csrrc	s0,mstatus,s0
			ready_thread(thread);
    7484:	f4dff0ef          	jal	ra,73d0 <ready_thread>
	key = (mstatus & MSTATUS_IEN);
    7488:	00847413          	andi	s0,s0,8
	__asm__ volatile ("csrrs %0, mstatus, %1"
    748c:	30042473          	csrrs	s0,mstatus,s0
}
    7490:	00c12083          	lw	ra,12(sp)
    7494:	00812403          	lw	s0,8(sp)
    7498:	01010113          	addi	sp,sp,16
    749c:	00008067          	ret

000074a0 <z_sched_start>:
	__asm__ volatile ("csrrc %0, mstatus, %1"
    74a0:	00800593          	li	a1,8
    74a4:	3005b5f3          	csrrc	a1,mstatus,a1
	return (thread->base.thread_state & _THREAD_PRESTART) == 0U;
    74a8:	00d54703          	lbu	a4,13(a0)
	key = (mstatus & MSTATUS_IEN);
    74ac:	0085f593          	andi	a1,a1,8
	if (z_has_thread_started(thread)) {
    74b0:	00477693          	andi	a3,a4,4
    74b4:	00069663          	bnez	a3,74c0 <z_sched_start+0x20>
	__asm__ volatile ("csrrs %0, mstatus, %1"
    74b8:	3005a5f3          	csrrs	a1,mstatus,a1
		return;
    74bc:	00008067          	ret
{
    74c0:	fe010113          	addi	sp,sp,-32
    74c4:	00112e23          	sw	ra,28(sp)
	thread->base.thread_state &= ~_THREAD_PRESTART;
    74c8:	ffb77713          	andi	a4,a4,-5
    74cc:	00e506a3          	sb	a4,13(a0)
    74d0:	00b12623          	sw	a1,12(sp)
	ready_thread(thread);
    74d4:	efdff0ef          	jal	ra,73d0 <ready_thread>
	z_reschedule(&sched_spinlock, key);
    74d8:	00c12583          	lw	a1,12(sp)
}
    74dc:	01c12083          	lw	ra,28(sp)
	z_reschedule(&sched_spinlock, key);
    74e0:	0000e537          	lui	a0,0xe
    74e4:	f4050513          	addi	a0,a0,-192 # df40 <sched_spinlock>
}
    74e8:	02010113          	addi	sp,sp,32
	z_reschedule(&sched_spinlock, key);
    74ec:	c61ff06f          	j	714c <z_reschedule>

000074f0 <z_impl_k_thread_resume>:
	__asm__ volatile ("csrrc %0, mstatus, %1"
    74f0:	00800593          	li	a1,8
    74f4:	3005b5f3          	csrrc	a1,mstatus,a1
	return (thread->base.thread_state & _THREAD_SUSPENDED) != 0U;
    74f8:	00d54703          	lbu	a4,13(a0)
	key = (mstatus & MSTATUS_IEN);
    74fc:	0085f593          	andi	a1,a1,8
	if (!z_is_thread_suspended(thread)) {
    7500:	01077693          	andi	a3,a4,16
    7504:	00069663          	bnez	a3,7510 <z_impl_k_thread_resume+0x20>
	__asm__ volatile ("csrrs %0, mstatus, %1"
    7508:	3005a5f3          	csrrs	a1,mstatus,a1
		return;
    750c:	00008067          	ret
{
    7510:	fe010113          	addi	sp,sp,-32
    7514:	00112e23          	sw	ra,28(sp)
	thread->base.thread_state &= ~_THREAD_SUSPENDED;
    7518:	fef77713          	andi	a4,a4,-17
    751c:	00e506a3          	sb	a4,13(a0)
    7520:	00b12623          	sw	a1,12(sp)
	ready_thread(thread);
    7524:	eadff0ef          	jal	ra,73d0 <ready_thread>
	z_reschedule(&sched_spinlock, key);
    7528:	00c12583          	lw	a1,12(sp)
}
    752c:	01c12083          	lw	ra,28(sp)
	z_reschedule(&sched_spinlock, key);
    7530:	0000e537          	lui	a0,0xe
    7534:	f4050513          	addi	a0,a0,-192 # df40 <sched_spinlock>
}
    7538:	02010113          	addi	sp,sp,32
	z_reschedule(&sched_spinlock, key);
    753c:	c11ff06f          	j	714c <z_reschedule>

00007540 <z_thread_timeout>:
{
    7540:	fe010113          	addi	sp,sp,-32
    7544:	00912a23          	sw	s1,20(sp)
    7548:	00112e23          	sw	ra,28(sp)
    754c:	00812c23          	sw	s0,24(sp)
	__asm__ volatile ("csrrc %0, mstatus, %1"
    7550:	00800493          	li	s1,8
    7554:	3004b4f3          	csrrc	s1,mstatus,s1
		if (!killed) {
    7558:	ff554783          	lbu	a5,-11(a0)
	key = (mstatus & MSTATUS_IEN);
    755c:	0084f493          	andi	s1,s1,8
    7560:	0287f793          	andi	a5,a5,40
    7564:	02079863          	bnez	a5,7594 <z_thread_timeout+0x54>
    7568:	00050413          	mv	s0,a0
			if (thread->base.pended_on != NULL) {
    756c:	ff042783          	lw	a5,-16(s0)
	struct k_thread *thread = CONTAINER_OF(timeout,
    7570:	fe850513          	addi	a0,a0,-24
			if (thread->base.pended_on != NULL) {
    7574:	00078863          	beqz	a5,7584 <z_thread_timeout+0x44>
				unpend_thread_no_timeout(thread);
    7578:	00a12623          	sw	a0,12(sp)
    757c:	ac9ff0ef          	jal	ra,7044 <unpend_thread_no_timeout>
    7580:	00c12503          	lw	a0,12(sp)
    7584:	ff544783          	lbu	a5,-11(s0)
    7588:	feb7f793          	andi	a5,a5,-21
    758c:	fef40aa3          	sb	a5,-11(s0)
			ready_thread(thread);
    7590:	e41ff0ef          	jal	ra,73d0 <ready_thread>
	__asm__ volatile ("csrrs %0, mstatus, %1"
    7594:	3004a4f3          	csrrs	s1,mstatus,s1
}
    7598:	01c12083          	lw	ra,28(sp)
    759c:	01812403          	lw	s0,24(sp)
    75a0:	01412483          	lw	s1,20(sp)
    75a4:	02010113          	addi	sp,sp,32
    75a8:	00008067          	ret

000075ac <unready_thread>:
{
    75ac:	ff010113          	addi	sp,sp,-16
    75b0:	00812423          	sw	s0,8(sp)
    75b4:	00112623          	sw	ra,12(sp)
	return (thread->base.thread_state & state) != 0U;
    75b8:	00d54783          	lbu	a5,13(a0)
    75bc:	00050413          	mv	s0,a0
	if (z_is_thread_queued(thread)) {
    75c0:	01879713          	slli	a4,a5,0x18
    75c4:	41875713          	srai	a4,a4,0x18
    75c8:	00075863          	bgez	a4,75d8 <unready_thread+0x2c>
	thread->base.thread_state &= ~_THREAD_QUEUED;
    75cc:	07f7f793          	andi	a5,a5,127
    75d0:	00f506a3          	sb	a5,13(a0)
	sys_dlist_remove(&thread->base.qnode_dlist);
    75d4:	a55ff0ef          	jal	ra,7028 <sys_dlist_remove>
	update_cache(thread == _current);
    75d8:	0000e7b7          	lui	a5,0xe
    75dc:	f247a503          	lw	a0,-220(a5) # df24 <_kernel+0x8>
}
    75e0:	00c12083          	lw	ra,12(sp)
	update_cache(thread == _current);
    75e4:	40850533          	sub	a0,a0,s0
}
    75e8:	00812403          	lw	s0,8(sp)
	update_cache(thread == _current);
    75ec:	00153513          	seqz	a0,a0
}
    75f0:	01010113          	addi	sp,sp,16
	update_cache(thread == _current);
    75f4:	bf9ff06f          	j	71ec <update_cache>

000075f8 <add_to_waitq_locked>:
{
    75f8:	ff010113          	addi	sp,sp,-16
    75fc:	00812423          	sw	s0,8(sp)
    7600:	00912223          	sw	s1,4(sp)
    7604:	00050413          	mv	s0,a0
    7608:	00112623          	sw	ra,12(sp)
    760c:	00058493          	mv	s1,a1
	unready_thread(thread);
    7610:	f9dff0ef          	jal	ra,75ac <unready_thread>
	thread->base.thread_state |= _THREAD_PENDING;
    7614:	00d44783          	lbu	a5,13(s0)
    7618:	0027e793          	ori	a5,a5,2
    761c:	00f406a3          	sb	a5,13(s0)
	if (wait_q != NULL) {
    7620:	02048e63          	beqz	s1,765c <add_to_waitq_locked+0x64>
	return list->head == list;
    7624:	0004a783          	lw	a5,0(s1)
		thread->base.pended_on = wait_q;
    7628:	00942423          	sw	s1,8(s0)
	return sys_dlist_is_empty(list) ? NULL : list->head;
    762c:	04f48a63          	beq	s1,a5,7680 <add_to_waitq_locked+0x88>
	SYS_DLIST_FOR_EACH_CONTAINER(pq, t, base.qnode_dlist) {
    7630:	04078863          	beqz	a5,7680 <add_to_waitq_locked+0x88>
	int32_t b1 = thread_1->base.prio;
    7634:	00e40683          	lb	a3,14(s0)
	int32_t b2 = thread_2->base.prio;
    7638:	00e78703          	lb	a4,14(a5)
	if (b1 != b2) {
    763c:	02e68a63          	beq	a3,a4,7670 <add_to_waitq_locked+0x78>
		return b2 - b1;
    7640:	40d70733          	sub	a4,a4,a3
		if (z_sched_prio_cmp(thread, t) > 0) {
    7644:	02e05663          	blez	a4,7670 <add_to_waitq_locked+0x78>
	sys_dnode_t *const prev = successor->prev;
    7648:	0047a703          	lw	a4,4(a5)
	node->next = successor;
    764c:	00f42023          	sw	a5,0(s0)
	node->prev = prev;
    7650:	00e42223          	sw	a4,4(s0)
	prev->next = node;
    7654:	00872023          	sw	s0,0(a4)
	successor->prev = node;
    7658:	0087a223          	sw	s0,4(a5)
}
    765c:	00c12083          	lw	ra,12(sp)
    7660:	00812403          	lw	s0,8(sp)
    7664:	00412483          	lw	s1,4(sp)
    7668:	01010113          	addi	sp,sp,16
    766c:	00008067          	ret
	return (node == list->tail) ? NULL : node->next;
    7670:	0044a703          	lw	a4,4(s1)
    7674:	00e78663          	beq	a5,a4,7680 <add_to_waitq_locked+0x88>
    7678:	0007a783          	lw	a5,0(a5)
	SYS_DLIST_FOR_EACH_CONTAINER(pq, t, base.qnode_dlist) {
    767c:	fa079ee3          	bnez	a5,7638 <add_to_waitq_locked+0x40>
	sys_dnode_t *const tail = list->tail;
    7680:	0044a783          	lw	a5,4(s1)
	node->next = list;
    7684:	00942023          	sw	s1,0(s0)
	node->prev = tail;
    7688:	00f42223          	sw	a5,4(s0)
	tail->next = node;
    768c:	0087a023          	sw	s0,0(a5)
	list->tail = node;
    7690:	0084a223          	sw	s0,4(s1)
}
    7694:	fc9ff06f          	j	765c <add_to_waitq_locked+0x64>

00007698 <pend_locked>:
{
    7698:	fe010113          	addi	sp,sp,-32
    769c:	00812c23          	sw	s0,24(sp)
    76a0:	00c12623          	sw	a2,12(sp)
    76a4:	00d12423          	sw	a3,8(sp)
    76a8:	00112e23          	sw	ra,28(sp)
    76ac:	00050413          	mv	s0,a0
	add_to_waitq_locked(thread, wait_q);
    76b0:	f49ff0ef          	jal	ra,75f8 <add_to_waitq_locked>
	add_thread_timeout(thread, timeout);
    76b4:	00c12603          	lw	a2,12(sp)
	if (!K_TIMEOUT_EQ(timeout, K_FOREVER)) {
    76b8:	fff00593          	li	a1,-1
    76bc:	00812683          	lw	a3,8(sp)
    76c0:	00b61463          	bne	a2,a1,76c8 <pend_locked+0x30>
    76c4:	02c68063          	beq	a3,a2,76e4 <pend_locked+0x4c>
    76c8:	01840513          	addi	a0,s0,24
}
    76cc:	01812403          	lw	s0,24(sp)
    76d0:	01c12083          	lw	ra,28(sp)
    76d4:	000075b7          	lui	a1,0x7
    76d8:	54058593          	addi	a1,a1,1344 # 7540 <z_thread_timeout>
    76dc:	02010113          	addi	sp,sp,32
    76e0:	5980006f          	j	7c78 <z_add_timeout>
    76e4:	01c12083          	lw	ra,28(sp)
    76e8:	01812403          	lw	s0,24(sp)
    76ec:	02010113          	addi	sp,sp,32
    76f0:	00008067          	ret

000076f4 <z_pend_curr>:
{
    76f4:	ff010113          	addi	sp,sp,-16
    76f8:	00812423          	sw	s0,8(sp)
    76fc:	00112623          	sw	ra,12(sp)
    7700:	00058413          	mv	s0,a1
	__asm__ volatile ("csrrc %0, mstatus, %1"
    7704:	00800793          	li	a5,8
    7708:	00060593          	mv	a1,a2
    770c:	00068613          	mv	a2,a3
    7710:	00070693          	mv	a3,a4
    7714:	3007b7f3          	csrrc	a5,mstatus,a5
	pend_locked(_current, wait_q, timeout);
    7718:	0000e7b7          	lui	a5,0xe
    771c:	f247a503          	lw	a0,-220(a5) # df24 <_kernel+0x8>
    7720:	f79ff0ef          	jal	ra,7698 <pend_locked>
    7724:	00040513          	mv	a0,s0
}
    7728:	00812403          	lw	s0,8(sp)
    772c:	00c12083          	lw	ra,12(sp)
    7730:	01010113          	addi	sp,sp,16
    7734:	b99f806f          	j	2cc <arch_swap>

00007738 <z_set_prio>:
{
    7738:	ff010113          	addi	sp,sp,-16
    773c:	00812423          	sw	s0,8(sp)
    7740:	01212023          	sw	s2,0(sp)
    7744:	00112623          	sw	ra,12(sp)
    7748:	00912223          	sw	s1,4(sp)
    774c:	00050413          	mv	s0,a0
    7750:	00800913          	li	s2,8
    7754:	30093973          	csrrc	s2,mstatus,s2
	uint8_t state = thread->base.thread_state;
    7758:	00d54783          	lbu	a5,13(a0)
				thread->base.prio = prio;
    775c:	01859493          	slli	s1,a1,0x18
	key = (mstatus & MSTATUS_IEN);
    7760:	00897913          	andi	s2,s2,8
	return !((z_is_thread_prevented_from_running(thread)) != 0U ||
    7764:	01f7f713          	andi	a4,a5,31
    7768:	4184d493          	srai	s1,s1,0x18
    776c:	0a071e63          	bnez	a4,7828 <z_set_prio+0xf0>
		if (need_sched) {
    7770:	01852703          	lw	a4,24(a0)
    7774:	0a071a63          	bnez	a4,7828 <z_set_prio+0xf0>
	thread->base.thread_state &= ~_THREAD_QUEUED;
    7778:	07f7f793          	andi	a5,a5,127
    777c:	00f506a3          	sb	a5,13(a0)
	sys_dlist_remove(&thread->base.qnode_dlist);
    7780:	8a9ff0ef          	jal	ra,7028 <sys_dlist_remove>
	thread->base.thread_state |= _THREAD_QUEUED;
    7784:	00d44783          	lbu	a5,13(s0)
	return list->head == list;
    7788:	0000e737          	lui	a4,0xe
    778c:	0000e6b7          	lui	a3,0xe
    7790:	f807e793          	ori	a5,a5,-128
    7794:	00f406a3          	sb	a5,13(s0)
    7798:	f1c70793          	addi	a5,a4,-228 # df1c <_kernel>
    779c:	01c7a783          	lw	a5,28(a5)
				thread->base.prio = prio;
    77a0:	00940723          	sb	s1,14(s0)
    77a4:	f3868693          	addi	a3,a3,-200 # df38 <_kernel+0x1c>
    77a8:	f1c70713          	addi	a4,a4,-228
	return sys_dlist_is_empty(list) ? NULL : list->head;
    77ac:	06d78263          	beq	a5,a3,7810 <z_set_prio+0xd8>
	SYS_DLIST_FOR_EACH_CONTAINER(pq, t, base.qnode_dlist) {
    77b0:	06078063          	beqz	a5,7810 <z_set_prio+0xd8>
	return (node == list->tail) ? NULL : node->next;
    77b4:	02072583          	lw	a1,32(a4)
	int32_t b2 = thread_2->base.prio;
    77b8:	00e78603          	lb	a2,14(a5)
	if (b1 != b2) {
    77bc:	04c48463          	beq	s1,a2,7804 <z_set_prio+0xcc>
		return b2 - b1;
    77c0:	40960633          	sub	a2,a2,s1
		if (z_sched_prio_cmp(thread, t) > 0) {
    77c4:	04c05063          	blez	a2,7804 <z_set_prio+0xcc>
	sys_dnode_t *const prev = successor->prev;
    77c8:	0047a703          	lw	a4,4(a5)
	node->next = successor;
    77cc:	00f42023          	sw	a5,0(s0)
	node->prev = prev;
    77d0:	00e42223          	sw	a4,4(s0)
	prev->next = node;
    77d4:	00872023          	sw	s0,0(a4)
	successor->prev = node;
    77d8:	0087a223          	sw	s0,4(a5)
			update_cache(1);
    77dc:	00100513          	li	a0,1
    77e0:	a0dff0ef          	jal	ra,71ec <update_cache>
    77e4:	00100513          	li	a0,1
	__asm__ volatile ("csrrs %0, mstatus, %1"
    77e8:	30092973          	csrrs	s2,mstatus,s2
}
    77ec:	00c12083          	lw	ra,12(sp)
    77f0:	00812403          	lw	s0,8(sp)
    77f4:	00412483          	lw	s1,4(sp)
    77f8:	00012903          	lw	s2,0(sp)
    77fc:	01010113          	addi	sp,sp,16
    7800:	00008067          	ret
	return (node == list->tail) ? NULL : node->next;
    7804:	00b78663          	beq	a5,a1,7810 <z_set_prio+0xd8>
    7808:	0007a783          	lw	a5,0(a5)
	SYS_DLIST_FOR_EACH_CONTAINER(pq, t, base.qnode_dlist) {
    780c:	fa0796e3          	bnez	a5,77b8 <z_set_prio+0x80>
	sys_dnode_t *const tail = list->tail;
    7810:	02072783          	lw	a5,32(a4)
	node->next = list;
    7814:	00d42023          	sw	a3,0(s0)
	node->prev = tail;
    7818:	00f42223          	sw	a5,4(s0)
	tail->next = node;
    781c:	0087a023          	sw	s0,0(a5)
	list->tail = node;
    7820:	02872023          	sw	s0,32(a4)
}
    7824:	fb9ff06f          	j	77dc <z_set_prio+0xa4>
			thread->base.prio = prio;
    7828:	00940723          	sb	s1,14(s0)
    782c:	00000513          	li	a0,0
    7830:	fb9ff06f          	j	77e8 <z_set_prio+0xb0>

00007834 <z_impl_k_thread_suspend>:
{
    7834:	ff010113          	addi	sp,sp,-16
    7838:	00812423          	sw	s0,8(sp)
    783c:	00050413          	mv	s0,a0
}

static inline int z_abort_thread_timeout(struct k_thread *thread)
{
	return z_abort_timeout(&thread->base.timeout);
    7840:	01850513          	addi	a0,a0,24
    7844:	00912223          	sw	s1,4(sp)
    7848:	00112623          	sw	ra,12(sp)
    784c:	01212023          	sw	s2,0(sp)
	__asm__ volatile ("csrrc %0, mstatus, %1"
    7850:	00800493          	li	s1,8
    7854:	5d4000ef          	jal	ra,7e28 <z_abort_timeout>
    7858:	3004b4f3          	csrrc	s1,mstatus,s1
	return (thread->base.thread_state & state) != 0U;
    785c:	00d44783          	lbu	a5,13(s0)
	key = (mstatus & MSTATUS_IEN);
    7860:	0084f493          	andi	s1,s1,8
		if (z_is_thread_queued(thread)) {
    7864:	01879713          	slli	a4,a5,0x18
    7868:	41875713          	srai	a4,a4,0x18
    786c:	00075a63          	bgez	a4,7880 <z_impl_k_thread_suspend+0x4c>
	thread->base.thread_state &= ~_THREAD_QUEUED;
    7870:	07f7f793          	andi	a5,a5,127
    7874:	00f406a3          	sb	a5,13(s0)
	sys_dlist_remove(&thread->base.qnode_dlist);
    7878:	00040513          	mv	a0,s0
    787c:	facff0ef          	jal	ra,7028 <sys_dlist_remove>
		update_cache(thread == _current);
    7880:	0000e937          	lui	s2,0xe
    7884:	f1c90913          	addi	s2,s2,-228 # df1c <_kernel>
	thread->base.thread_state |= _THREAD_SUSPENDED;
    7888:	00d44783          	lbu	a5,13(s0)
    788c:	00892503          	lw	a0,8(s2)
    7890:	0107e793          	ori	a5,a5,16
    7894:	40850533          	sub	a0,a0,s0
    7898:	00f406a3          	sb	a5,13(s0)
    789c:	00153513          	seqz	a0,a0
    78a0:	94dff0ef          	jal	ra,71ec <update_cache>
	__asm__ volatile ("csrrs %0, mstatus, %1"
    78a4:	3004a4f3          	csrrs	s1,mstatus,s1
	if (thread == _current) {
    78a8:	00892783          	lw	a5,8(s2)
    78ac:	00879e63          	bne	a5,s0,78c8 <z_impl_k_thread_suspend+0x94>
}
    78b0:	00812403          	lw	s0,8(sp)
    78b4:	00c12083          	lw	ra,12(sp)
    78b8:	00412483          	lw	s1,4(sp)
    78bc:	00012903          	lw	s2,0(sp)
    78c0:	01010113          	addi	sp,sp,16
		z_reschedule_unlocked();
    78c4:	8ddff06f          	j	71a0 <z_reschedule_unlocked>
}
    78c8:	00c12083          	lw	ra,12(sp)
    78cc:	00812403          	lw	s0,8(sp)
    78d0:	00412483          	lw	s1,4(sp)
    78d4:	00012903          	lw	s2,0(sp)
    78d8:	01010113          	addi	sp,sp,16
    78dc:	00008067          	ret

000078e0 <k_sched_unlock>:
{
    78e0:	ff010113          	addi	sp,sp,-16
    78e4:	00812423          	sw	s0,8(sp)
    78e8:	00112623          	sw	ra,12(sp)
	__asm__ volatile ("csrrc %0, mstatus, %1"
    78ec:	00800413          	li	s0,8
    78f0:	30043473          	csrrc	s0,mstatus,s0
		++_current->base.sched_locked;
    78f4:	0000e7b7          	lui	a5,0xe
    78f8:	f247a703          	lw	a4,-220(a5) # df24 <_kernel+0x8>
		update_cache(0);
    78fc:	00000513          	li	a0,0
	key = (mstatus & MSTATUS_IEN);
    7900:	00847413          	andi	s0,s0,8
		++_current->base.sched_locked;
    7904:	00f74783          	lbu	a5,15(a4)
    7908:	00178793          	addi	a5,a5,1
    790c:	00f707a3          	sb	a5,15(a4)
		update_cache(0);
    7910:	8ddff0ef          	jal	ra,71ec <update_cache>
	__asm__ volatile ("csrrs %0, mstatus, %1"
    7914:	30042473          	csrrs	s0,mstatus,s0
}
    7918:	00812403          	lw	s0,8(sp)
    791c:	00c12083          	lw	ra,12(sp)
    7920:	01010113          	addi	sp,sp,16
	z_reschedule_unlocked();
    7924:	87dff06f          	j	71a0 <z_reschedule_unlocked>

00007928 <z_unpend_first_thread>:
{
    7928:	ff010113          	addi	sp,sp,-16
    792c:	00812423          	sw	s0,8(sp)
    7930:	00112623          	sw	ra,12(sp)
    7934:	00912223          	sw	s1,4(sp)
	__asm__ volatile ("csrrc %0, mstatus, %1"
    7938:	00800413          	li	s0,8
    793c:	30043473          	csrrc	s0,mstatus,s0
		thread = _priq_wait_best(&wait_q->waitq);
    7940:	899ff0ef          	jal	ra,71d8 <z_priq_dumb_best>
	key = (mstatus & MSTATUS_IEN);
    7944:	00847413          	andi	s0,s0,8
    7948:	00050493          	mv	s1,a0
		if (thread != NULL) {
    794c:	00050863          	beqz	a0,795c <z_unpend_first_thread+0x34>
			unpend_thread_no_timeout(thread);
    7950:	ef4ff0ef          	jal	ra,7044 <unpend_thread_no_timeout>
    7954:	01848513          	addi	a0,s1,24
    7958:	4d0000ef          	jal	ra,7e28 <z_abort_timeout>
	__asm__ volatile ("csrrs %0, mstatus, %1"
    795c:	30042473          	csrrs	s0,mstatus,s0
}
    7960:	00c12083          	lw	ra,12(sp)
    7964:	00812403          	lw	s0,8(sp)
    7968:	00048513          	mv	a0,s1
    796c:	00412483          	lw	s1,4(sp)
    7970:	01010113          	addi	sp,sp,16
    7974:	00008067          	ret

00007978 <z_sched_init>:
	list->head = (sys_dnode_t *)list;
    7978:	0000e7b7          	lui	a5,0xe
    797c:	0000e737          	lui	a4,0xe
    7980:	f1c78793          	addi	a5,a5,-228 # df1c <_kernel>
    7984:	f3870713          	addi	a4,a4,-200 # df38 <_kernel+0x1c>
    7988:	00e7ae23          	sw	a4,28(a5)
	list->tail = (sys_dnode_t *)list;
    798c:	02e7a023          	sw	a4,32(a5)
		sys_dlist_init(&_kernel.ready_q.runq.queues[i]);
	}
#endif

#ifdef CONFIG_TIMESLICING
	k_sched_time_slice_set(CONFIG_TIMESLICE_SIZE,
    7990:	00000593          	li	a1,0
    7994:	00000513          	li	a0,0
    7998:	f38ff06f          	j	70d0 <k_sched_time_slice_set>

0000799c <z_impl_k_yield>:
#include <syscalls/k_thread_deadline_set_mrsh.c>
#endif
#endif

void z_impl_k_yield(void)
{
    799c:	ff010113          	addi	sp,sp,-16
    79a0:	00912223          	sw	s1,4(sp)
    79a4:	00112623          	sw	ra,12(sp)
    79a8:	00812423          	sw	s0,8(sp)
    79ac:	01212023          	sw	s2,0(sp)
	__asm__ volatile ("csrrc %0, mstatus, %1"
    79b0:	00800493          	li	s1,8
    79b4:	3004b4f3          	csrrc	s1,mstatus,s1

	k_spinlock_key_t key = k_spin_lock(&sched_spinlock);

	if (!IS_ENABLED(CONFIG_SMP) ||
	    z_is_thread_queued(_current)) {
		dequeue_thread(&_kernel.ready_q.runq,
    79b8:	0000e437          	lui	s0,0xe
    79bc:	f1c40913          	addi	s2,s0,-228 # df1c <_kernel>
    79c0:	00892503          	lw	a0,8(s2)
	key = (mstatus & MSTATUS_IEN);
    79c4:	0084f493          	andi	s1,s1,8
	thread->base.thread_state &= ~_THREAD_QUEUED;
    79c8:	00d54783          	lbu	a5,13(a0)
    79cc:	07f7f793          	andi	a5,a5,127
    79d0:	00f506a3          	sb	a5,13(a0)
	sys_dlist_remove(&thread->base.qnode_dlist);
    79d4:	e54ff0ef          	jal	ra,7028 <sys_dlist_remove>
			       _current);
	}
	queue_thread(&_kernel.ready_q.runq, _current);
    79d8:	00892783          	lw	a5,8(s2)
	thread->base.thread_state |= _THREAD_QUEUED;
    79dc:	0000e637          	lui	a2,0xe
    79e0:	f3860613          	addi	a2,a2,-200 # df38 <_kernel+0x1c>
    79e4:	00d7c703          	lbu	a4,13(a5)
    79e8:	f1c40693          	addi	a3,s0,-228
    79ec:	f8076713          	ori	a4,a4,-128
    79f0:	00e786a3          	sb	a4,13(a5)
	return list->head == list;
    79f4:	01c92703          	lw	a4,28(s2)
	return sys_dlist_is_empty(list) ? NULL : list->head;
    79f8:	06c70263          	beq	a4,a2,7a5c <z_impl_k_yield+0xc0>
	SYS_DLIST_FOR_EACH_CONTAINER(pq, t, base.qnode_dlist) {
    79fc:	06070063          	beqz	a4,7a5c <z_impl_k_yield+0xc0>
	return (node == list->tail) ? NULL : node->next;
    7a00:	0206a803          	lw	a6,32(a3)
	int32_t b1 = thread_1->base.prio;
    7a04:	00e78503          	lb	a0,14(a5)
	int32_t b2 = thread_2->base.prio;
    7a08:	00e70583          	lb	a1,14(a4)
	if (b1 != b2) {
    7a0c:	04b50263          	beq	a0,a1,7a50 <z_impl_k_yield+0xb4>
		return b2 - b1;
    7a10:	40a585b3          	sub	a1,a1,a0
		if (z_sched_prio_cmp(thread, t) > 0) {
    7a14:	02b05e63          	blez	a1,7a50 <z_impl_k_yield+0xb4>
	sys_dnode_t *const prev = successor->prev;
    7a18:	00472683          	lw	a3,4(a4)
	node->next = successor;
    7a1c:	00e7a023          	sw	a4,0(a5)
	node->prev = prev;
    7a20:	00d7a223          	sw	a3,4(a5)
	prev->next = node;
    7a24:	00f6a023          	sw	a5,0(a3)
	successor->prev = node;
    7a28:	00f72223          	sw	a5,4(a4)
	update_cache(1);
    7a2c:	00100513          	li	a0,1
    7a30:	fbcff0ef          	jal	ra,71ec <update_cache>
	z_swap(&sched_spinlock, key);
}
    7a34:	00812403          	lw	s0,8(sp)
    7a38:	00c12083          	lw	ra,12(sp)
    7a3c:	00012903          	lw	s2,0(sp)
    7a40:	00048513          	mv	a0,s1
    7a44:	00412483          	lw	s1,4(sp)
    7a48:	01010113          	addi	sp,sp,16
    7a4c:	881f806f          	j	2cc <arch_swap>
	return (node == list->tail) ? NULL : node->next;
    7a50:	01070663          	beq	a4,a6,7a5c <z_impl_k_yield+0xc0>
    7a54:	00072703          	lw	a4,0(a4)
	SYS_DLIST_FOR_EACH_CONTAINER(pq, t, base.qnode_dlist) {
    7a58:	fa0718e3          	bnez	a4,7a08 <z_impl_k_yield+0x6c>
	sys_dnode_t *const tail = list->tail;
    7a5c:	0206a703          	lw	a4,32(a3)
	node->next = list;
    7a60:	00c7a023          	sw	a2,0(a5)
	node->prev = tail;
    7a64:	00e7a223          	sw	a4,4(a5)
	tail->next = node;
    7a68:	00f72023          	sw	a5,0(a4)
	list->tail = node;
    7a6c:	02f6a023          	sw	a5,32(a3)
}
    7a70:	fbdff06f          	j	7a2c <z_impl_k_yield+0x90>

00007a74 <z_impl_z_current_get>:

#ifdef CONFIG_SMP
	arch_irq_unlock(k);
#endif
	return ret;
}
    7a74:	0000e7b7          	lui	a5,0xe
    7a78:	f247a503          	lw	a0,-220(a5) # df24 <_kernel+0x8>
    7a7c:	00008067          	ret

00007a80 <z_thread_abort>:
#endif
	}
}

void z_thread_abort(struct k_thread *thread)
{
    7a80:	fe010113          	addi	sp,sp,-32
    7a84:	00912a23          	sw	s1,20(sp)
    7a88:	00112e23          	sw	ra,28(sp)
    7a8c:	00812c23          	sw	s0,24(sp)
    7a90:	01212823          	sw	s2,16(sp)
    7a94:	01312623          	sw	s3,12(sp)
	__asm__ volatile ("csrrc %0, mstatus, %1"
    7a98:	00800493          	li	s1,8
    7a9c:	3004b4f3          	csrrc	s1,mstatus,s1
	k_spinlock_key_t key = k_spin_lock(&sched_spinlock);

	if ((thread->base.thread_state & _THREAD_DEAD) != 0U) {
    7aa0:	00d54783          	lbu	a5,13(a0)
	key = (mstatus & MSTATUS_IEN);
    7aa4:	0084f493          	andi	s1,s1,8
    7aa8:	0087f713          	andi	a4,a5,8
    7aac:	02070263          	beqz	a4,7ad0 <z_thread_abort+0x50>
	__asm__ volatile ("csrrs %0, mstatus, %1"
    7ab0:	3004a4f3          	csrrs	s1,mstatus,s1
	if (thread == _current && !arch_is_in_isr()) {
		z_swap(&sched_spinlock, key);
		__ASSERT(false, "aborted _current back from dead");
	}
	k_spin_unlock(&sched_spinlock, key);
}
    7ab4:	01c12083          	lw	ra,28(sp)
    7ab8:	01812403          	lw	s0,24(sp)
    7abc:	01412483          	lw	s1,20(sp)
    7ac0:	01012903          	lw	s2,16(sp)
    7ac4:	00c12983          	lw	s3,12(sp)
    7ac8:	02010113          	addi	sp,sp,32
    7acc:	00008067          	ret
		thread->base.thread_state &= ~_THREAD_ABORTING;
    7ad0:	fdf7f713          	andi	a4,a5,-33
    7ad4:	00876713          	ori	a4,a4,8
		if (z_is_thread_queued(thread)) {
    7ad8:	01871693          	slli	a3,a4,0x18
    7adc:	4186d693          	srai	a3,a3,0x18
    7ae0:	00050413          	mv	s0,a0
    7ae4:	0406ce63          	bltz	a3,7b40 <z_thread_abort+0xc0>
		thread->base.thread_state &= ~_THREAD_ABORTING;
    7ae8:	00e506a3          	sb	a4,13(a0)
		if (thread->base.pended_on != NULL) {
    7aec:	00842783          	lw	a5,8(s0)
    7af0:	00078663          	beqz	a5,7afc <z_thread_abort+0x7c>
			unpend_thread_no_timeout(thread);
    7af4:	00040513          	mv	a0,s0
    7af8:	d4cff0ef          	jal	ra,7044 <unpend_thread_no_timeout>
    7afc:	01840513          	addi	a0,s0,24
    7b00:	328000ef          	jal	ra,7e28 <z_abort_timeout>
}

static inline struct k_thread *z_waitq_head(_wait_q_t *w)
{
	return (struct k_thread *)sys_dlist_peek_head(&w->waitq);
    7b04:	06840993          	addi	s3,s0,104
	return list->head == list;
    7b08:	06842903          	lw	s2,104(s0)
	return sys_dlist_is_empty(list) ? NULL : list->head;
    7b0c:	01390463          	beq	s2,s3,7b14 <z_thread_abort+0x94>
	while ((thread = z_waitq_head(wait_q)) != NULL) {
    7b10:	04091263          	bnez	s2,7b54 <z_thread_abort+0xd4>
		update_cache(1);
    7b14:	00100513          	li	a0,1
    7b18:	ed4ff0ef          	jal	ra,71ec <update_cache>
	if (thread == _current && !arch_is_in_isr()) {
    7b1c:	0000e7b7          	lui	a5,0xe
    7b20:	f1c78793          	addi	a5,a5,-228 # df1c <_kernel>
    7b24:	0087a703          	lw	a4,8(a5)
    7b28:	f88714e3          	bne	a4,s0,7ab0 <z_thread_abort+0x30>
    7b2c:	0007a783          	lw	a5,0(a5)
    7b30:	f80790e3          	bnez	a5,7ab0 <z_thread_abort+0x30>
    7b34:	00048513          	mv	a0,s1
    7b38:	f94f80ef          	jal	ra,2cc <arch_swap>
	return ret;
    7b3c:	f75ff06f          	j	7ab0 <z_thread_abort+0x30>
	thread->base.thread_state &= ~_THREAD_QUEUED;
    7b40:	05f7f793          	andi	a5,a5,95
    7b44:	0087e793          	ori	a5,a5,8
    7b48:	00f506a3          	sb	a5,13(a0)
	sys_dlist_remove(&thread->base.qnode_dlist);
    7b4c:	cdcff0ef          	jal	ra,7028 <sys_dlist_remove>
}
    7b50:	f9dff06f          	j	7aec <z_thread_abort+0x6c>
		unpend_thread_no_timeout(thread);
    7b54:	00090513          	mv	a0,s2
    7b58:	cecff0ef          	jal	ra,7044 <unpend_thread_no_timeout>
    7b5c:	01890513          	addi	a0,s2,24
    7b60:	2c8000ef          	jal	ra,7e28 <z_abort_timeout>
		ready_thread(thread);
    7b64:	00090513          	mv	a0,s2
	thread->arch.swap_return_value = value;
    7b68:	06092c23          	sw	zero,120(s2)
    7b6c:	865ff0ef          	jal	ra,73d0 <ready_thread>
    7b70:	f99ff06f          	j	7b08 <z_thread_abort+0x88>

00007b74 <z_impl_k_thread_abort>:
#if !defined(CONFIG_ARCH_HAS_THREAD_ABORT)
void z_impl_k_thread_abort(struct k_thread *thread)
{
	SYS_PORT_TRACING_OBJ_FUNC_ENTER(k_thread, abort, thread);

	z_thread_abort(thread);
    7b74:	f0dff06f          	j	7a80 <z_thread_abort>

00007b78 <elapsed>:
	sys_dlist_remove(&t->node);
}

static int32_t elapsed(void)
{
	return announce_remaining == 0 ? sys_clock_elapsed() : 0U;
    7b78:	0000e7b7          	lui	a5,0xe
    7b7c:	b647a783          	lw	a5,-1180(a5) # db64 <announce_remaining>
    7b80:	00079463          	bnez	a5,7b88 <elapsed+0x10>
    7b84:	969fe06f          	j	64ec <sys_clock_elapsed>
}
    7b88:	00000513          	li	a0,0
    7b8c:	00008067          	ret

00007b90 <next_timeout>:
	return list->head == list;
    7b90:	002037b7          	lui	a5,0x203

static int32_t next_timeout(void)
{
    7b94:	ff010113          	addi	sp,sp,-16
    7b98:	75c78793          	addi	a5,a5,1884 # 20375c <timeout_list>
    7b9c:	00812423          	sw	s0,8(sp)
    7ba0:	0007a403          	lw	s0,0(a5)
    7ba4:	00112623          	sw	ra,12(sp)
	return sys_dlist_is_empty(list) ? NULL : list->head;
    7ba8:	00f41463          	bne	s0,a5,7bb0 <next_timeout+0x20>
    7bac:	00000413          	li	s0,0
	struct _timeout *to = first();
	int32_t ticks_elapsed = elapsed();
    7bb0:	fc9ff0ef          	jal	ra,7b78 <elapsed>
	int32_t ret = to == NULL ? MAX_WAIT
    7bb4:	02040c63          	beqz	s0,7bec <next_timeout+0x5c>
		: CLAMP(to->dticks - ticks_elapsed, 0, MAX_WAIT);
    7bb8:	01042703          	lw	a4,16(s0)
    7bbc:	01442783          	lw	a5,20(s0)
    7bc0:	41f55693          	srai	a3,a0,0x1f
    7bc4:	40a70533          	sub	a0,a4,a0
    7bc8:	00a73733          	sltu	a4,a4,a0
    7bcc:	40d787b3          	sub	a5,a5,a3
    7bd0:	40e787b3          	sub	a5,a5,a4
	int32_t ret = to == NULL ? MAX_WAIT
    7bd4:	00f04663          	bgtz	a5,7be0 <next_timeout+0x50>
    7bd8:	04079063          	bnez	a5,7c18 <next_timeout+0x88>
    7bdc:	02050e63          	beqz	a0,7c18 <next_timeout+0x88>
		: CLAMP(to->dticks - ticks_elapsed, 0, MAX_WAIT);
    7be0:	00f04663          	bgtz	a5,7bec <next_timeout+0x5c>
    7be4:	00079863          	bnez	a5,7bf4 <next_timeout+0x64>
    7be8:	00055663          	bgez	a0,7bf4 <next_timeout+0x64>
	int32_t ret = to == NULL ? MAX_WAIT
    7bec:	80000537          	lui	a0,0x80000
    7bf0:	fff54513          	not	a0,a0

#ifdef CONFIG_TIMESLICING
	if (_current_cpu->slice_ticks && _current_cpu->slice_ticks < ret) {
    7bf4:	0000e7b7          	lui	a5,0xe
    7bf8:	f2c7a783          	lw	a5,-212(a5) # df2c <_kernel+0x10>
    7bfc:	00078663          	beqz	a5,7c08 <next_timeout+0x78>
    7c00:	00a7d463          	bge	a5,a0,7c08 <next_timeout+0x78>
    7c04:	00078513          	mv	a0,a5
		ret = _current_cpu->slice_ticks;
	}
#endif
	return ret;
}
    7c08:	00c12083          	lw	ra,12(sp)
    7c0c:	00812403          	lw	s0,8(sp)
    7c10:	01010113          	addi	sp,sp,16
    7c14:	00008067          	ret
	int32_t ret = to == NULL ? MAX_WAIT
    7c18:	00000513          	li	a0,0
    7c1c:	fd9ff06f          	j	7bf4 <next_timeout+0x64>

00007c20 <remove_timeout>:
	return (node == list->tail) ? NULL : node->next;
    7c20:	00052783          	lw	a5,0(a0) # 80000000 <CONFIG_SYSTEM_WORKQUEUE_PRIORITY+0x80000001>
	return (node != NULL) ? sys_dlist_peek_next_no_check(list, node) : NULL;
    7c24:	02050e63          	beqz	a0,7c60 <remove_timeout+0x40>
	return (node == list->tail) ? NULL : node->next;
    7c28:	00203737          	lui	a4,0x203
    7c2c:	76072703          	lw	a4,1888(a4) # 203760 <timeout_list+0x4>
    7c30:	02e50863          	beq	a0,a4,7c60 <remove_timeout+0x40>
	if (next(t) != NULL) {
    7c34:	02078663          	beqz	a5,7c60 <remove_timeout+0x40>
		next(t)->dticks += t->dticks;
    7c38:	0107a703          	lw	a4,16(a5)
    7c3c:	01052683          	lw	a3,16(a0)
    7c40:	01452583          	lw	a1,20(a0)
    7c44:	0147a603          	lw	a2,20(a5)
    7c48:	00d706b3          	add	a3,a4,a3
    7c4c:	00e6b733          	sltu	a4,a3,a4
    7c50:	00b60633          	add	a2,a2,a1
    7c54:	00c70733          	add	a4,a4,a2
    7c58:	00d7a823          	sw	a3,16(a5)
    7c5c:	00e7aa23          	sw	a4,20(a5)
	sys_dnode_t *const prev = node->prev;
    7c60:	00452703          	lw	a4,4(a0)
	prev->next = next;
    7c64:	00f72023          	sw	a5,0(a4)
	next->prev = prev;
    7c68:	00e7a223          	sw	a4,4(a5)
	node->next = NULL;
    7c6c:	00052023          	sw	zero,0(a0)
	node->prev = NULL;
    7c70:	00052223          	sw	zero,4(a0)
}
    7c74:	00008067          	ret

00007c78 <z_add_timeout>:

void z_add_timeout(struct _timeout *to, _timeout_func_t fn,
		   k_timeout_t timeout)
{
    7c78:	fe010113          	addi	sp,sp,-32
    7c7c:	00812c23          	sw	s0,24(sp)
    7c80:	00912a23          	sw	s1,20(sp)
    7c84:	01312623          	sw	s3,12(sp)
    7c88:	00112e23          	sw	ra,28(sp)
    7c8c:	00068993          	mv	s3,a3
    7c90:	01212823          	sw	s2,16(sp)
	if (K_TIMEOUT_EQ(timeout, K_FOREVER)) {
    7c94:	fff00693          	li	a3,-1
{
    7c98:	00050413          	mv	s0,a0
    7c9c:	00060493          	mv	s1,a2
	if (K_TIMEOUT_EQ(timeout, K_FOREVER)) {
    7ca0:	00d61463          	bne	a2,a3,7ca8 <z_add_timeout+0x30>
    7ca4:	16c98463          	beq	s3,a2,7e0c <z_add_timeout+0x194>
#ifdef CONFIG_KERNEL_COHERENCE
	__ASSERT_NO_MSG(arch_mem_coherent(to));
#endif

	__ASSERT(!sys_dnode_is_linked(&to->node), "");
	to->fn = fn;
    7ca8:	00b42423          	sw	a1,8(s0)
	__asm__ volatile ("csrrc %0, mstatus, %1"
    7cac:	00800913          	li	s2,8
    7cb0:	30093973          	csrrc	s2,mstatus,s2

	LOCKED(&timeout_lock) {
		struct _timeout *t;

		if (IS_ENABLED(CONFIG_TIMEOUT_64BIT) &&
		    Z_TICK_ABS(timeout.ticks) >= 0) {
    7cb4:	ffe00693          	li	a3,-2
    7cb8:	409687b3          	sub	a5,a3,s1
    7cbc:	00f6b733          	sltu	a4,a3,a5
    7cc0:	fff9c793          	not	a5,s3
    7cc4:	40e787b3          	sub	a5,a5,a4
	key = (mstatus & MSTATUS_IEN);
    7cc8:	00897913          	andi	s2,s2,8
		if (IS_ENABLED(CONFIG_TIMEOUT_64BIT) &&
    7ccc:	0607ce63          	bltz	a5,7d48 <z_add_timeout+0xd0>
			k_ticks_t ticks = Z_TICK_ABS(timeout.ticks) - curr_tick;
    7cd0:	0000e7b7          	lui	a5,0xe
    7cd4:	b3878793          	addi	a5,a5,-1224 # db38 <curr_tick>
    7cd8:	0007a703          	lw	a4,0(a5)
    7cdc:	0047a783          	lw	a5,4(a5)
    7ce0:	40e68733          	sub	a4,a3,a4
    7ce4:	00e6b6b3          	sltu	a3,a3,a4
    7ce8:	fff7c793          	not	a5,a5
    7cec:	40d787b3          	sub	a5,a5,a3
    7cf0:	409704b3          	sub	s1,a4,s1
    7cf4:	00973733          	sltu	a4,a4,s1
    7cf8:	413786b3          	sub	a3,a5,s3

			to->dticks = MAX(1, ticks);
    7cfc:	40e686b3          	sub	a3,a3,a4
    7d00:	00d04a63          	bgtz	a3,7d14 <z_add_timeout+0x9c>
    7d04:	00069463          	bnez	a3,7d0c <z_add_timeout+0x94>
    7d08:	00049663          	bnez	s1,7d14 <z_add_timeout+0x9c>
    7d0c:	00100493          	li	s1,1
    7d10:	00000693          	li	a3,0
    7d14:	00942823          	sw	s1,16(s0)
	return list->head == list;
    7d18:	00203637          	lui	a2,0x203
    7d1c:	75c60713          	addi	a4,a2,1884 # 20375c <timeout_list>
    7d20:	00072783          	lw	a5,0(a4)
		} else {
			to->dticks = timeout.ticks + 1 + elapsed();
    7d24:	00d42a23          	sw	a3,20(s0)
    7d28:	75c60613          	addi	a2,a2,1884
	sys_dnode_t *const tail = list->tail;
    7d2c:	00472803          	lw	a6,4(a4)
	return sys_dlist_is_empty(list) ? NULL : list->head;
    7d30:	06c79263          	bne	a5,a2,7d94 <z_add_timeout+0x11c>
	node->next = list;
    7d34:	00c42023          	sw	a2,0(s0)
	node->prev = tail;
    7d38:	01042223          	sw	a6,4(s0)
	tail->next = node;
    7d3c:	00882023          	sw	s0,0(a6)
	list->tail = node;
    7d40:	00862223          	sw	s0,4(a2)
}
    7d44:	09c0006f          	j	7de0 <z_add_timeout+0x168>
    7d48:	e31ff0ef          	jal	ra,7b78 <elapsed>
    7d4c:	00148793          	addi	a5,s1,1
    7d50:	0097b4b3          	sltu	s1,a5,s1
    7d54:	013486b3          	add	a3,s1,s3
    7d58:	41f55493          	srai	s1,a0,0x1f
    7d5c:	00a78533          	add	a0,a5,a0
    7d60:	00f537b3          	sltu	a5,a0,a5
    7d64:	009686b3          	add	a3,a3,s1
    7d68:	00d786b3          	add	a3,a5,a3
    7d6c:	00a42823          	sw	a0,16(s0)
    7d70:	fa9ff06f          	j	7d18 <z_add_timeout+0xa0>
			if (t->dticks > to->dticks) {
				t->dticks -= to->dticks;
				sys_dlist_insert(&t->node, &to->node);
				break;
			}
			to->dticks -= t->dticks;
    7d74:	40e68733          	sub	a4,a3,a4
    7d78:	00e6b6b3          	sltu	a3,a3,a4
    7d7c:	40a585b3          	sub	a1,a1,a0
    7d80:	40d586b3          	sub	a3,a1,a3
    7d84:	00e42823          	sw	a4,16(s0)
    7d88:	00d42a23          	sw	a3,20(s0)
	return (node == list->tail) ? NULL : node->next;
    7d8c:	faf804e3          	beq	a6,a5,7d34 <z_add_timeout+0xbc>
    7d90:	0007a783          	lw	a5,0(a5)
		for (t = first(); t != NULL; t = next(t)) {
    7d94:	fa0780e3          	beqz	a5,7d34 <z_add_timeout+0xbc>
			if (t->dticks > to->dticks) {
    7d98:	0147a503          	lw	a0,20(a5)
    7d9c:	01442583          	lw	a1,20(s0)
    7da0:	0107a703          	lw	a4,16(a5)
    7da4:	01042683          	lw	a3,16(s0)
    7da8:	00a5c663          	blt	a1,a0,7db4 <z_add_timeout+0x13c>
    7dac:	fcb514e3          	bne	a0,a1,7d74 <z_add_timeout+0xfc>
    7db0:	fce6f2e3          	bgeu	a3,a4,7d74 <z_add_timeout+0xfc>
				t->dticks -= to->dticks;
    7db4:	40d706b3          	sub	a3,a4,a3
    7db8:	00d73733          	sltu	a4,a4,a3
    7dbc:	40b505b3          	sub	a1,a0,a1
    7dc0:	40e58733          	sub	a4,a1,a4
    7dc4:	00e7aa23          	sw	a4,20(a5)
	sys_dnode_t *const prev = successor->prev;
    7dc8:	0047a703          	lw	a4,4(a5)
    7dcc:	00d7a823          	sw	a3,16(a5)
	node->next = successor;
    7dd0:	00f42023          	sw	a5,0(s0)
	node->prev = prev;
    7dd4:	00e42223          	sw	a4,4(s0)
	prev->next = node;
    7dd8:	00872023          	sw	s0,0(a4)
	successor->prev = node;
    7ddc:	0087a223          	sw	s0,4(a5)
	return list->head == list;
    7de0:	00062783          	lw	a5,0(a2)
	return sys_dlist_is_empty(list) ? NULL : list->head;
    7de4:	02c78263          	beq	a5,a2,7e08 <z_add_timeout+0x190>

		if (t == NULL) {
			sys_dlist_append(&timeout_list, &to->node);
		}

		if (to == first()) {
    7de8:	02f41063          	bne	s0,a5,7e08 <z_add_timeout+0x190>
			 * last announcement, and slice_ticks is based
			 * on that. It means that the time remaining for
			 * the next announcement can be less than
			 * slice_ticks.
			 */
			int32_t next_time = next_timeout();
    7dec:	da5ff0ef          	jal	ra,7b90 <next_timeout>

			if (next_time == 0 ||
    7df0:	00050863          	beqz	a0,7e00 <z_add_timeout+0x188>
			    _current_cpu->slice_ticks != next_time) {
    7df4:	0000e7b7          	lui	a5,0xe
			if (next_time == 0 ||
    7df8:	f2c7a783          	lw	a5,-212(a5) # df2c <_kernel+0x10>
    7dfc:	00a78663          	beq	a5,a0,7e08 <z_add_timeout+0x190>
				sys_clock_set_timeout(next_time, false);
    7e00:	00000593          	li	a1,0
    7e04:	ee4fe0ef          	jal	ra,64e8 <sys_clock_set_timeout>
	__asm__ volatile ("csrrs %0, mstatus, %1"
    7e08:	30092973          	csrrs	s2,mstatus,s2
#else
			sys_clock_set_timeout(next_timeout(), false);
#endif	/* CONFIG_TIMESLICING */
		}
	}
}
    7e0c:	01c12083          	lw	ra,28(sp)
    7e10:	01812403          	lw	s0,24(sp)
    7e14:	01412483          	lw	s1,20(sp)
    7e18:	01012903          	lw	s2,16(sp)
    7e1c:	00c12983          	lw	s3,12(sp)
    7e20:	02010113          	addi	sp,sp,32
    7e24:	00008067          	ret

00007e28 <z_abort_timeout>:

int z_abort_timeout(struct _timeout *to)
{
    7e28:	ff010113          	addi	sp,sp,-16
    7e2c:	00812423          	sw	s0,8(sp)
    7e30:	00112623          	sw	ra,12(sp)
	__asm__ volatile ("csrrc %0, mstatus, %1"
    7e34:	00800413          	li	s0,8
    7e38:	30043473          	csrrc	s0,mstatus,s0
	int ret = -EINVAL;

	LOCKED(&timeout_lock) {
		if (sys_dnode_is_linked(&to->node)) {
    7e3c:	00052783          	lw	a5,0(a0)
	key = (mstatus & MSTATUS_IEN);
    7e40:	00847413          	andi	s0,s0,8
    7e44:	02078063          	beqz	a5,7e64 <z_abort_timeout+0x3c>
			remove_timeout(to);
    7e48:	dd9ff0ef          	jal	ra,7c20 <remove_timeout>
			ret = 0;
    7e4c:	00000513          	li	a0,0
	__asm__ volatile ("csrrs %0, mstatus, %1"
    7e50:	30042473          	csrrs	s0,mstatus,s0
		}
	}

	return ret;
}
    7e54:	00c12083          	lw	ra,12(sp)
    7e58:	00812403          	lw	s0,8(sp)
    7e5c:	01010113          	addi	sp,sp,16
    7e60:	00008067          	ret
	int ret = -EINVAL;
    7e64:	fea00513          	li	a0,-22
    7e68:	fe9ff06f          	j	7e50 <z_abort_timeout+0x28>

00007e6c <z_set_timeout_expiry>:
	}
	return ret;
}

void z_set_timeout_expiry(int32_t ticks, bool is_idle)
{
    7e6c:	fe010113          	addi	sp,sp,-32
    7e70:	00812c23          	sw	s0,24(sp)
    7e74:	00912a23          	sw	s1,20(sp)
    7e78:	00112e23          	sw	ra,28(sp)
    7e7c:	00050493          	mv	s1,a0
    7e80:	00b12623          	sw	a1,12(sp)
	__asm__ volatile ("csrrc %0, mstatus, %1"
    7e84:	00800413          	li	s0,8
    7e88:	30043473          	csrrc	s0,mstatus,s0
	LOCKED(&timeout_lock) {
		int next_to = next_timeout();
    7e8c:	d05ff0ef          	jal	ra,7b90 <next_timeout>
		 * SMP can't use this optimization though: we don't
		 * know when context switches happen until interrupt
		 * exit and so can't get the timeslicing clamp folded
		 * in.
		 */
		if (!imminent && (sooner || IS_ENABLED(CONFIG_SMP))) {
    7e90:	00100793          	li	a5,1
	key = (mstatus & MSTATUS_IEN);
    7e94:	00847413          	andi	s0,s0,8
    7e98:	00a7da63          	bge	a5,a0,7eac <z_set_timeout_expiry+0x40>
    7e9c:	00c12583          	lw	a1,12(sp)
    7ea0:	00954663          	blt	a0,s1,7eac <z_set_timeout_expiry+0x40>
			sys_clock_set_timeout(MIN(ticks, next_to), is_idle);
    7ea4:	00048513          	mv	a0,s1
    7ea8:	e40fe0ef          	jal	ra,64e8 <sys_clock_set_timeout>
	__asm__ volatile ("csrrs %0, mstatus, %1"
    7eac:	30042473          	csrrs	s0,mstatus,s0
		}
	}
}
    7eb0:	01c12083          	lw	ra,28(sp)
    7eb4:	01812403          	lw	s0,24(sp)
    7eb8:	01412483          	lw	s1,20(sp)
    7ebc:	02010113          	addi	sp,sp,32
    7ec0:	00008067          	ret

00007ec4 <sys_clock_announce>:

void sys_clock_announce(int32_t ticks)
{
    7ec4:	fd010113          	addi	sp,sp,-48
    7ec8:	02812423          	sw	s0,40(sp)
    7ecc:	02912223          	sw	s1,36(sp)
    7ed0:	02112623          	sw	ra,44(sp)
    7ed4:	03212023          	sw	s2,32(sp)
    7ed8:	01312e23          	sw	s3,28(sp)
    7edc:	01412c23          	sw	s4,24(sp)
    7ee0:	00050493          	mv	s1,a0
	__asm__ volatile ("csrrc %0, mstatus, %1"
    7ee4:	00800413          	li	s0,8
#ifdef CONFIG_TIMESLICING
	z_time_slice(ticks);
    7ee8:	c48ff0ef          	jal	ra,7330 <z_time_slice>
    7eec:	30043473          	csrrc	s0,mstatus,s0
#endif

	k_spinlock_key_t key = k_spin_lock(&timeout_lock);

	announce_remaining = ticks;
    7ef0:	0000e937          	lui	s2,0xe
    7ef4:	b6992223          	sw	s1,-1180(s2) # db64 <announce_remaining>
	return list->head == list;
    7ef8:	002039b7          	lui	s3,0x203

	while (first() != NULL && first()->dticks <= announce_remaining) {
		struct _timeout *t = first();
		int dt = t->dticks;

		curr_tick += dt;
    7efc:	0000e4b7          	lui	s1,0xe
	key = (mstatus & MSTATUS_IEN);
    7f00:	00847413          	andi	s0,s0,8
	while (first() != NULL && first()->dticks <= announce_remaining) {
    7f04:	b6490913          	addi	s2,s2,-1180
    7f08:	75c98993          	addi	s3,s3,1884 # 20375c <timeout_list>
		curr_tick += dt;
    7f0c:	b3848493          	addi	s1,s1,-1224 # db38 <curr_tick>
	__asm__ volatile ("csrrc %0, mstatus, %1"
    7f10:	00800a13          	li	s4,8
	while (first() != NULL && first()->dticks <= announce_remaining) {
    7f14:	00092783          	lw	a5,0(s2)
    7f18:	0009a503          	lw	a0,0(s3)
		curr_tick += dt;
    7f1c:	0004a683          	lw	a3,0(s1)
    7f20:	0044a883          	lw	a7,4(s1)
    7f24:	41f7d593          	srai	a1,a5,0x1f
	return sys_dlist_is_empty(list) ? NULL : list->head;
    7f28:	03350a63          	beq	a0,s3,7f5c <sys_clock_announce+0x98>
	while (first() != NULL && first()->dticks <= announce_remaining) {
    7f2c:	02050863          	beqz	a0,7f5c <sys_clock_announce+0x98>
    7f30:	01452603          	lw	a2,20(a0)
    7f34:	01052703          	lw	a4,16(a0)
    7f38:	00c5c663          	blt	a1,a2,7f44 <sys_clock_announce+0x80>
    7f3c:	06b61663          	bne	a2,a1,7fa8 <sys_clock_announce+0xe4>
    7f40:	06e7f463          	bgeu	a5,a4,7fa8 <sys_clock_announce+0xe4>
		t->fn(t);
		key = k_spin_lock(&timeout_lock);
	}

	if (first() != NULL) {
		first()->dticks -= announce_remaining;
    7f44:	40f70833          	sub	a6,a4,a5
    7f48:	01073733          	sltu	a4,a4,a6
    7f4c:	40b60633          	sub	a2,a2,a1
    7f50:	40e60733          	sub	a4,a2,a4
    7f54:	01052823          	sw	a6,16(a0)
    7f58:	00e52a23          	sw	a4,20(a0)
	}

	curr_tick += announce_remaining;
    7f5c:	00d786b3          	add	a3,a5,a3
    7f60:	011585b3          	add	a1,a1,a7
    7f64:	00f6b7b3          	sltu	a5,a3,a5
    7f68:	00b787b3          	add	a5,a5,a1
    7f6c:	00d4a023          	sw	a3,0(s1)
    7f70:	00f4a223          	sw	a5,4(s1)
	announce_remaining = 0;
    7f74:	00092023          	sw	zero,0(s2)

	sys_clock_set_timeout(next_timeout(), false);
    7f78:	c19ff0ef          	jal	ra,7b90 <next_timeout>
    7f7c:	00000593          	li	a1,0
    7f80:	d68fe0ef          	jal	ra,64e8 <sys_clock_set_timeout>
	__asm__ volatile ("csrrs %0, mstatus, %1"
    7f84:	30042473          	csrrs	s0,mstatus,s0

	k_spin_unlock(&timeout_lock, key);
}
    7f88:	02c12083          	lw	ra,44(sp)
    7f8c:	02812403          	lw	s0,40(sp)
    7f90:	02412483          	lw	s1,36(sp)
    7f94:	02012903          	lw	s2,32(sp)
    7f98:	01c12983          	lw	s3,28(sp)
    7f9c:	01812a03          	lw	s4,24(sp)
    7fa0:	03010113          	addi	sp,sp,48
    7fa4:	00008067          	ret
		curr_tick += dt;
    7fa8:	00d706b3          	add	a3,a4,a3
		announce_remaining -= dt;
    7fac:	40e787b3          	sub	a5,a5,a4
		curr_tick += dt;
    7fb0:	41f75593          	srai	a1,a4,0x1f
    7fb4:	00e6b633          	sltu	a2,a3,a4
    7fb8:	011585b3          	add	a1,a1,a7
		announce_remaining -= dt;
    7fbc:	00f92023          	sw	a5,0(s2)
		t->dticks = 0;
    7fc0:	00000813          	li	a6,0
    7fc4:	00000793          	li	a5,0
		curr_tick += dt;
    7fc8:	00b605b3          	add	a1,a2,a1
		t->dticks = 0;
    7fcc:	00f52823          	sw	a5,16(a0)
    7fd0:	01052a23          	sw	a6,20(a0)
		curr_tick += dt;
    7fd4:	00d4a023          	sw	a3,0(s1)
    7fd8:	00b4a223          	sw	a1,4(s1)
		remove_timeout(t);
    7fdc:	00a12623          	sw	a0,12(sp)
    7fe0:	c41ff0ef          	jal	ra,7c20 <remove_timeout>
    7fe4:	30042473          	csrrs	s0,mstatus,s0
		t->fn(t);
    7fe8:	00c12503          	lw	a0,12(sp)
    7fec:	00852783          	lw	a5,8(a0)
    7ff0:	000780e7          	jalr	a5
	__asm__ volatile ("csrrc %0, mstatus, %1"
    7ff4:	300a3473          	csrrc	s0,mstatus,s4
	key = (mstatus & MSTATUS_IEN);
    7ff8:	00847413          	andi	s0,s0,8
#endif

#ifdef CONFIG_SPIN_VALIDATE
	z_spin_lock_set_owner(l);
#endif
	return k;
    7ffc:	f19ff06f          	j	7f14 <sys_clock_announce+0x50>

00008000 <sys_clock_tick_get>:

int64_t sys_clock_tick_get(void)
{
    8000:	ff010113          	addi	sp,sp,-16
    8004:	00812423          	sw	s0,8(sp)
    8008:	00112623          	sw	ra,12(sp)
	__asm__ volatile ("csrrc %0, mstatus, %1"
    800c:	00800413          	li	s0,8
    8010:	30043473          	csrrc	s0,mstatus,s0
	uint64_t t = 0U;

	LOCKED(&timeout_lock) {
		t = curr_tick + sys_clock_elapsed();
    8014:	cd8fe0ef          	jal	ra,64ec <sys_clock_elapsed>
    8018:	0000e737          	lui	a4,0xe
    801c:	b3870713          	addi	a4,a4,-1224 # db38 <curr_tick>
    8020:	00050793          	mv	a5,a0
    8024:	00072503          	lw	a0,0(a4)
    8028:	00472583          	lw	a1,4(a4)
	key = (mstatus & MSTATUS_IEN);
    802c:	00847413          	andi	s0,s0,8
    8030:	00a78533          	add	a0,a5,a0
    8034:	00f537b3          	sltu	a5,a0,a5
    8038:	00b785b3          	add	a1,a5,a1
	__asm__ volatile ("csrrs %0, mstatus, %1"
    803c:	30042473          	csrrs	s0,mstatus,s0
	}
	return t;
}
    8040:	00c12083          	lw	ra,12(sp)
    8044:	00812403          	lw	s0,8(sp)
    8048:	01010113          	addi	sp,sp,16
    804c:	00008067          	ret

00008050 <z_impl_k_uptime_ticks>:
#endif
}

int64_t z_impl_k_uptime_ticks(void)
{
	return sys_clock_tick_get();
    8050:	fb1ff06f          	j	8000 <sys_clock_tick_get>

00008054 <boot_banner>:
		k_busy_wait(CONFIG_BOOT_DELAY * USEC_PER_MSEC);
	}

#if defined(CONFIG_BOOT_BANNER)
#ifdef BUILD_VERSION
	printk("*** Booting Zephyr OS build %s %s ***\n",
    8054:	0000d637          	lui	a2,0xd
    8058:	0000d5b7          	lui	a1,0xd
    805c:	0000d537          	lui	a0,0xd
    8060:	52c60613          	addi	a2,a2,1324 # d52c <__mprec_tens+0x15c>
    8064:	79458593          	addi	a1,a1,1940 # d794 <levels.0+0x1c>
    8068:	79c50513          	addi	a0,a0,1948 # d79c <levels.0+0x24>
    806c:	fd4fc06f          	j	4840 <printk>

00008070 <k_heap_init>:
	sys_dlist_init(&w->waitq);
    8070:	00c50713          	addi	a4,a0,12
	list->head = (sys_dnode_t *)list;
    8074:	00e52623          	sw	a4,12(a0)
	list->tail = (sys_dnode_t *)list;
    8078:	00e52823          	sw	a4,16(a0)
#include <linker/linker-defs.h>

void k_heap_init(struct k_heap *h, void *mem, size_t bytes)
{
	z_waitq_init(&h->wait_q);
	sys_heap_init(&h->heap, mem, bytes);
    807c:	af5fc06f          	j	4b70 <sys_heap_init>

00008080 <statics_init>:

	SYS_PORT_TRACING_OBJ_INIT(k_heap, h);
}

static int statics_init(const struct device *unused)
{
    8080:	ff010113          	addi	sp,sp,-16
    8084:	00812423          	sw	s0,8(sp)
    8088:	00912223          	sw	s1,4(sp)
	ARG_UNUSED(unused);
	STRUCT_SECTION_FOREACH(k_heap, h) {
    808c:	00203437          	lui	s0,0x203
    8090:	002034b7          	lui	s1,0x203
{
    8094:	00112623          	sw	ra,12(sp)
	STRUCT_SECTION_FOREACH(k_heap, h) {
    8098:	78040413          	addi	s0,s0,1920 # 203780 <__lock___malloc_recursive_mutex>
    809c:	78048493          	addi	s1,s1,1920 # 203780 <__lock___malloc_recursive_mutex>
    80a0:	00946e63          	bltu	s0,s1,80bc <statics_init+0x3c>
		{
			k_heap_init(h, h->heap.init_mem, h->heap.init_bytes);
		}
	}
	return 0;
}
    80a4:	00c12083          	lw	ra,12(sp)
    80a8:	00812403          	lw	s0,8(sp)
    80ac:	00412483          	lw	s1,4(sp)
    80b0:	00000513          	li	a0,0
    80b4:	01010113          	addi	sp,sp,16
    80b8:	00008067          	ret
			k_heap_init(h, h->heap.init_mem, h->heap.init_bytes);
    80bc:	00842603          	lw	a2,8(s0)
    80c0:	00442583          	lw	a1,4(s0)
    80c4:	00040513          	mv	a0,s0
	STRUCT_SECTION_FOREACH(k_heap, h) {
    80c8:	01440413          	addi	s0,s0,20
			k_heap_init(h, h->heap.init_mem, h->heap.init_bytes);
    80cc:	fa5ff0ef          	jal	ra,8070 <k_heap_init>
	STRUCT_SECTION_FOREACH(k_heap, h) {
    80d0:	fd1ff06f          	j	80a0 <statics_init+0x20>

000080d4 <exp>:
    80d4:	fe010113          	addi	sp,sp,-32
    80d8:	00812c23          	sw	s0,24(sp)
    80dc:	00912a23          	sw	s1,20(sp)
    80e0:	01212823          	sw	s2,16(sp)
    80e4:	01312623          	sw	s3,12(sp)
    80e8:	00112e23          	sw	ra,28(sp)
    80ec:	00050993          	mv	s3,a0
    80f0:	00058913          	mv	s2,a1
    80f4:	0b8000ef          	jal	ra,81ac <__ieee754_exp>
    80f8:	002037b7          	lui	a5,0x203
    80fc:	7687a703          	lw	a4,1896(a5) # 203768 <__fdlib_version>
    8100:	fff00793          	li	a5,-1
    8104:	00050493          	mv	s1,a0
    8108:	00058413          	mv	s0,a1
    810c:	04f70463          	beq	a4,a5,8154 <exp+0x80>
    8110:	00098513          	mv	a0,s3
    8114:	00090593          	mv	a1,s2
    8118:	4d8000ef          	jal	ra,85f0 <finite>
    811c:	02050c63          	beqz	a0,8154 <exp+0x80>
    8120:	0000d7b7          	lui	a5,0xd
    8124:	0f87a603          	lw	a2,248(a5) # d0f8 <__device_handles_end+0xc>
    8128:	0fc7a683          	lw	a3,252(a5)
    812c:	00098513          	mv	a0,s3
    8130:	00090593          	mv	a1,s2
    8134:	c38fb0ef          	jal	ra,356c <__gedf2>
    8138:	04a05063          	blez	a0,8178 <exp+0xa4>
    813c:	b6dfd0ef          	jal	ra,5ca8 <__errno>
    8140:	02200793          	li	a5,34
    8144:	00f52023          	sw	a5,0(a0)
    8148:	0000d7b7          	lui	a5,0xd
    814c:	0f07a483          	lw	s1,240(a5) # d0f0 <__device_handles_end+0x4>
    8150:	0f47a403          	lw	s0,244(a5)
    8154:	01c12083          	lw	ra,28(sp)
    8158:	00040593          	mv	a1,s0
    815c:	01812403          	lw	s0,24(sp)
    8160:	01012903          	lw	s2,16(sp)
    8164:	00c12983          	lw	s3,12(sp)
    8168:	00048513          	mv	a0,s1
    816c:	01412483          	lw	s1,20(sp)
    8170:	02010113          	addi	sp,sp,32
    8174:	00008067          	ret
    8178:	0000d7b7          	lui	a5,0xd
    817c:	1007a603          	lw	a2,256(a5) # d100 <__device_handles_end+0x14>
    8180:	1047a683          	lw	a3,260(a5)
    8184:	00098513          	mv	a0,s3
    8188:	00090593          	mv	a1,s2
    818c:	cc4fb0ef          	jal	ra,3650 <__ledf2>
    8190:	fc0552e3          	bgez	a0,8154 <exp+0x80>
    8194:	b15fd0ef          	jal	ra,5ca8 <__errno>
    8198:	02200793          	li	a5,34
    819c:	00f52023          	sw	a5,0(a0)
    81a0:	00000493          	li	s1,0
    81a4:	00000413          	li	s0,0
    81a8:	fadff06f          	j	8154 <exp+0x80>

000081ac <__ieee754_exp>:
    81ac:	fc010113          	addi	sp,sp,-64
    81b0:	00159793          	slli	a5,a1,0x1
    81b4:	408636b7          	lui	a3,0x40863
    81b8:	02812c23          	sw	s0,56(sp)
    81bc:	02912a23          	sw	s1,52(sp)
    81c0:	03512223          	sw	s5,36(sp)
    81c4:	02112e23          	sw	ra,60(sp)
    81c8:	03212823          	sw	s2,48(sp)
    81cc:	03312623          	sw	s3,44(sp)
    81d0:	03412423          	sw	s4,40(sp)
    81d4:	03612023          	sw	s6,32(sp)
    81d8:	01712e23          	sw	s7,28(sp)
    81dc:	01812c23          	sw	s8,24(sp)
    81e0:	01912a23          	sw	s9,20(sp)
    81e4:	01a12823          	sw	s10,16(sp)
    81e8:	01b12623          	sw	s11,12(sp)
    81ec:	0017d793          	srli	a5,a5,0x1
    81f0:	e4168693          	addi	a3,a3,-447 # 40862e41 <CONFIG_SYS_CLOCK_HW_CYCLES_PER_SEC+0x3d8b3dc1>
    81f4:	00050493          	mv	s1,a0
    81f8:	00058413          	mv	s0,a1
    81fc:	01f5da93          	srli	s5,a1,0x1f
    8200:	0cf6fa63          	bgeu	a3,a5,82d4 <__ieee754_exp+0x128>
    8204:	7ff006b7          	lui	a3,0x7ff00
    8208:	06d7ea63          	bltu	a5,a3,827c <__ieee754_exp+0xd0>
    820c:	00c59793          	slli	a5,a1,0xc
    8210:	00c7d793          	srli	a5,a5,0xc
    8214:	00a7e7b3          	or	a5,a5,a0
    8218:	00078e63          	beqz	a5,8234 <__ieee754_exp+0x88>
    821c:	00050613          	mv	a2,a0
    8220:	00058693          	mv	a3,a1
    8224:	951f80ef          	jal	ra,b74 <__adddf3>
    8228:	00050493          	mv	s1,a0
    822c:	00058413          	mv	s0,a1
    8230:	0080006f          	j	8238 <__ieee754_exp+0x8c>
    8234:	080a9a63          	bnez	s5,82c8 <__ieee754_exp+0x11c>
    8238:	03c12083          	lw	ra,60(sp)
    823c:	00040593          	mv	a1,s0
    8240:	03812403          	lw	s0,56(sp)
    8244:	03012903          	lw	s2,48(sp)
    8248:	02c12983          	lw	s3,44(sp)
    824c:	02812a03          	lw	s4,40(sp)
    8250:	02412a83          	lw	s5,36(sp)
    8254:	02012b03          	lw	s6,32(sp)
    8258:	01c12b83          	lw	s7,28(sp)
    825c:	01812c03          	lw	s8,24(sp)
    8260:	01412c83          	lw	s9,20(sp)
    8264:	01012d03          	lw	s10,16(sp)
    8268:	00c12d83          	lw	s11,12(sp)
    826c:	00048513          	mv	a0,s1
    8270:	03412483          	lw	s1,52(sp)
    8274:	04010113          	addi	sp,sp,64
    8278:	00008067          	ret
    827c:	0000d7b7          	lui	a5,0xd
    8280:	0f87a603          	lw	a2,248(a5) # d0f8 <__device_handles_end+0xc>
    8284:	0fc7a683          	lw	a3,252(a5)
    8288:	ae4fb0ef          	jal	ra,356c <__gedf2>
    828c:	02a05063          	blez	a0,82ac <__ieee754_exp+0x100>
    8290:	0000d7b7          	lui	a5,0xd
    8294:	1087a603          	lw	a2,264(a5) # d108 <__device_handles_end+0x1c>
    8298:	10c7a683          	lw	a3,268(a5)
    829c:	00060513          	mv	a0,a2
    82a0:	00068593          	mv	a1,a3
    82a4:	f88f90ef          	jal	ra,1a2c <__muldf3>
    82a8:	f81ff06f          	j	8228 <__ieee754_exp+0x7c>
    82ac:	0000d7b7          	lui	a5,0xd
    82b0:	1007a603          	lw	a2,256(a5) # d100 <__device_handles_end+0x14>
    82b4:	1047a683          	lw	a3,260(a5)
    82b8:	00048513          	mv	a0,s1
    82bc:	00040593          	mv	a1,s0
    82c0:	b90fb0ef          	jal	ra,3650 <__ledf2>
    82c4:	1a055a63          	bgez	a0,8478 <__ieee754_exp+0x2cc>
    82c8:	00000493          	li	s1,0
    82cc:	00000413          	li	s0,0
    82d0:	f69ff06f          	j	8238 <__ieee754_exp+0x8c>
    82d4:	3fd63737          	lui	a4,0x3fd63
    82d8:	e4270713          	addi	a4,a4,-446 # 3fd62e42 <CONFIG_SYS_CLOCK_HW_CYCLES_PER_SEC+0x3cdb3dc2>
    82dc:	22f77a63          	bgeu	a4,a5,8510 <__ieee754_exp+0x364>
    82e0:	3ff0a737          	lui	a4,0x3ff0a
    82e4:	2b170713          	addi	a4,a4,689 # 3ff0a2b1 <CONFIG_SYS_CLOCK_HW_CYCLES_PER_SEC+0x3cf5b231>
    82e8:	18f76863          	bltu	a4,a5,8478 <__ieee754_exp+0x2cc>
    82ec:	0000d737          	lui	a4,0xd
    82f0:	003a9413          	slli	s0,s5,0x3
    82f4:	38870713          	addi	a4,a4,904 # d388 <ln2HI>
    82f8:	00870733          	add	a4,a4,s0
    82fc:	00072603          	lw	a2,0(a4)
    8300:	00472683          	lw	a3,4(a4)
    8304:	00100913          	li	s2,1
    8308:	41590933          	sub	s2,s2,s5
    830c:	ce9f90ef          	jal	ra,1ff4 <__subdf3>
    8310:	0000d7b7          	lui	a5,0xd
    8314:	39878793          	addi	a5,a5,920 # d398 <ln2LO>
    8318:	008787b3          	add	a5,a5,s0
    831c:	0007ab83          	lw	s7,0(a5)
    8320:	0047ab03          	lw	s6,4(a5)
    8324:	00050a13          	mv	s4,a0
    8328:	00058993          	mv	s3,a1
    832c:	41590933          	sub	s2,s2,s5
    8330:	000b8613          	mv	a2,s7
    8334:	000b0693          	mv	a3,s6
    8338:	000a0513          	mv	a0,s4
    833c:	00098593          	mv	a1,s3
    8340:	cb5f90ef          	jal	ra,1ff4 <__subdf3>
    8344:	00050493          	mv	s1,a0
    8348:	00058413          	mv	s0,a1
    834c:	00048613          	mv	a2,s1
    8350:	00040693          	mv	a3,s0
    8354:	00048513          	mv	a0,s1
    8358:	00040593          	mv	a1,s0
    835c:	ed0f90ef          	jal	ra,1a2c <__muldf3>
    8360:	0000d7b7          	lui	a5,0xd
    8364:	1307a603          	lw	a2,304(a5) # d130 <__device_handles_end+0x44>
    8368:	1347a683          	lw	a3,308(a5)
    836c:	00050c13          	mv	s8,a0
    8370:	00058a93          	mv	s5,a1
    8374:	eb8f90ef          	jal	ra,1a2c <__muldf3>
    8378:	0000d7b7          	lui	a5,0xd
    837c:	1387a603          	lw	a2,312(a5) # d138 <__device_handles_end+0x4c>
    8380:	13c7a683          	lw	a3,316(a5)
    8384:	0000ddb7          	lui	s11,0xd
    8388:	c6df90ef          	jal	ra,1ff4 <__subdf3>
    838c:	000c0613          	mv	a2,s8
    8390:	000a8693          	mv	a3,s5
    8394:	e98f90ef          	jal	ra,1a2c <__muldf3>
    8398:	0000d7b7          	lui	a5,0xd
    839c:	1407a603          	lw	a2,320(a5) # d140 <__device_handles_end+0x54>
    83a0:	1447a683          	lw	a3,324(a5)
    83a4:	fd0f80ef          	jal	ra,b74 <__adddf3>
    83a8:	000c0613          	mv	a2,s8
    83ac:	000a8693          	mv	a3,s5
    83b0:	e7cf90ef          	jal	ra,1a2c <__muldf3>
    83b4:	0000d7b7          	lui	a5,0xd
    83b8:	1487a603          	lw	a2,328(a5) # d148 <__device_handles_end+0x5c>
    83bc:	14c7a683          	lw	a3,332(a5)
    83c0:	c35f90ef          	jal	ra,1ff4 <__subdf3>
    83c4:	000c0613          	mv	a2,s8
    83c8:	000a8693          	mv	a3,s5
    83cc:	e60f90ef          	jal	ra,1a2c <__muldf3>
    83d0:	0000d7b7          	lui	a5,0xd
    83d4:	1507a603          	lw	a2,336(a5) # d150 <__device_handles_end+0x64>
    83d8:	1547a683          	lw	a3,340(a5)
    83dc:	f98f80ef          	jal	ra,b74 <__adddf3>
    83e0:	000c0613          	mv	a2,s8
    83e4:	000a8693          	mv	a3,s5
    83e8:	e44f90ef          	jal	ra,1a2c <__muldf3>
    83ec:	00050613          	mv	a2,a0
    83f0:	00058693          	mv	a3,a1
    83f4:	00048513          	mv	a0,s1
    83f8:	00040593          	mv	a1,s0
    83fc:	bf9f90ef          	jal	ra,1ff4 <__subdf3>
    8400:	00050613          	mv	a2,a0
    8404:	00058693          	mv	a3,a1
    8408:	00050c13          	mv	s8,a0
    840c:	00058a93          	mv	s5,a1
    8410:	00048513          	mv	a0,s1
    8414:	00040593          	mv	a1,s0
    8418:	e14f90ef          	jal	ra,1a2c <__muldf3>
    841c:	00050d13          	mv	s10,a0
    8420:	00058c93          	mv	s9,a1
    8424:	0000d7b7          	lui	a5,0xd
    8428:	12091c63          	bnez	s2,8560 <__ieee754_exp+0x3b4>
    842c:	1587a603          	lw	a2,344(a5) # d158 <__device_handles_end+0x6c>
    8430:	15c7a683          	lw	a3,348(a5)
    8434:	000c0513          	mv	a0,s8
    8438:	000a8593          	mv	a1,s5
    843c:	bb9f90ef          	jal	ra,1ff4 <__subdf3>
    8440:	00050613          	mv	a2,a0
    8444:	00058693          	mv	a3,a1
    8448:	000d0513          	mv	a0,s10
    844c:	000c8593          	mv	a1,s9
    8450:	efdf80ef          	jal	ra,134c <__divdf3>
    8454:	00048613          	mv	a2,s1
    8458:	00040693          	mv	a3,s0
    845c:	b99f90ef          	jal	ra,1ff4 <__subdf3>
    8460:	00050613          	mv	a2,a0
    8464:	00058693          	mv	a3,a1
    8468:	128da503          	lw	a0,296(s11) # d128 <__device_handles_end+0x3c>
    846c:	12cda583          	lw	a1,300(s11)
    8470:	b85f90ef          	jal	ra,1ff4 <__subdf3>
    8474:	db5ff06f          	j	8228 <__ieee754_exp+0x7c>
    8478:	0000d7b7          	lui	a5,0xd
    847c:	1107a603          	lw	a2,272(a5) # d110 <__device_handles_end+0x24>
    8480:	1147a683          	lw	a3,276(a5)
    8484:	003a9913          	slli	s2,s5,0x3
    8488:	0000dab7          	lui	s5,0xd
    848c:	378a8a93          	addi	s5,s5,888 # d378 <halF>
    8490:	00048513          	mv	a0,s1
    8494:	00040593          	mv	a1,s0
    8498:	012a8933          	add	s2,s5,s2
    849c:	d90f90ef          	jal	ra,1a2c <__muldf3>
    84a0:	00092603          	lw	a2,0(s2)
    84a4:	00492683          	lw	a3,4(s2)
    84a8:	eccf80ef          	jal	ra,b74 <__adddf3>
    84ac:	ad4fb0ef          	jal	ra,3780 <__fixdfsi>
    84b0:	00050913          	mv	s2,a0
    84b4:	b4cfb0ef          	jal	ra,3800 <__floatsidf>
    84b8:	0000d7b7          	lui	a5,0xd
    84bc:	1187a603          	lw	a2,280(a5) # d118 <__device_handles_end+0x2c>
    84c0:	11c7a683          	lw	a3,284(a5)
    84c4:	00050b13          	mv	s6,a0
    84c8:	00058a93          	mv	s5,a1
    84cc:	d60f90ef          	jal	ra,1a2c <__muldf3>
    84d0:	00050613          	mv	a2,a0
    84d4:	00058693          	mv	a3,a1
    84d8:	00048513          	mv	a0,s1
    84dc:	00040593          	mv	a1,s0
    84e0:	b15f90ef          	jal	ra,1ff4 <__subdf3>
    84e4:	0000d7b7          	lui	a5,0xd
    84e8:	1207a603          	lw	a2,288(a5) # d120 <__device_handles_end+0x34>
    84ec:	1247a683          	lw	a3,292(a5)
    84f0:	00050a13          	mv	s4,a0
    84f4:	00058993          	mv	s3,a1
    84f8:	000b0513          	mv	a0,s6
    84fc:	000a8593          	mv	a1,s5
    8500:	d2cf90ef          	jal	ra,1a2c <__muldf3>
    8504:	00050b93          	mv	s7,a0
    8508:	00058b13          	mv	s6,a1
    850c:	e25ff06f          	j	8330 <__ieee754_exp+0x184>
    8510:	3e300737          	lui	a4,0x3e300
    8514:	04e7f263          	bgeu	a5,a4,8558 <__ieee754_exp+0x3ac>
    8518:	0000d7b7          	lui	a5,0xd
    851c:	1087a603          	lw	a2,264(a5) # d108 <__device_handles_end+0x1c>
    8520:	10c7a683          	lw	a3,268(a5)
    8524:	e50f80ef          	jal	ra,b74 <__adddf3>
    8528:	0000d7b7          	lui	a5,0xd
    852c:	1287ac03          	lw	s8,296(a5) # d128 <__device_handles_end+0x3c>
    8530:	12c7ac83          	lw	s9,300(a5)
    8534:	000c0613          	mv	a2,s8
    8538:	000c8693          	mv	a3,s9
    853c:	830fb0ef          	jal	ra,356c <__gedf2>
    8540:	00a05c63          	blez	a0,8558 <__ieee754_exp+0x3ac>
    8544:	000c0613          	mv	a2,s8
    8548:	000c8693          	mv	a3,s9
    854c:	00048513          	mv	a0,s1
    8550:	00040593          	mv	a1,s0
    8554:	cd1ff06f          	j	8224 <__ieee754_exp+0x78>
    8558:	00000913          	li	s2,0
    855c:	df1ff06f          	j	834c <__ieee754_exp+0x1a0>
    8560:	1587a503          	lw	a0,344(a5)
    8564:	15c7a583          	lw	a1,348(a5)
    8568:	000c0613          	mv	a2,s8
    856c:	000a8693          	mv	a3,s5
    8570:	a85f90ef          	jal	ra,1ff4 <__subdf3>
    8574:	00050613          	mv	a2,a0
    8578:	00058693          	mv	a3,a1
    857c:	000d0513          	mv	a0,s10
    8580:	000c8593          	mv	a1,s9
    8584:	dc9f80ef          	jal	ra,134c <__divdf3>
    8588:	00050613          	mv	a2,a0
    858c:	00058693          	mv	a3,a1
    8590:	000b8513          	mv	a0,s7
    8594:	000b0593          	mv	a1,s6
    8598:	a5df90ef          	jal	ra,1ff4 <__subdf3>
    859c:	000a0613          	mv	a2,s4
    85a0:	00098693          	mv	a3,s3
    85a4:	a51f90ef          	jal	ra,1ff4 <__subdf3>
    85a8:	00058693          	mv	a3,a1
    85ac:	00050613          	mv	a2,a0
    85b0:	12cda583          	lw	a1,300(s11)
    85b4:	128da503          	lw	a0,296(s11)
    85b8:	a3df90ef          	jal	ra,1ff4 <__subdf3>
    85bc:	c0300693          	li	a3,-1021
    85c0:	00d94863          	blt	s2,a3,85d0 <__ieee754_exp+0x424>
    85c4:	01491913          	slli	s2,s2,0x14
    85c8:	00b905b3          	add	a1,s2,a1
    85cc:	c5dff06f          	j	8228 <__ieee754_exp+0x7c>
    85d0:	3e890913          	addi	s2,s2,1000
    85d4:	01491913          	slli	s2,s2,0x14
    85d8:	0000d7b7          	lui	a5,0xd
    85dc:	00b90833          	add	a6,s2,a1
    85e0:	1607a603          	lw	a2,352(a5) # d160 <__device_handles_end+0x74>
    85e4:	1647a683          	lw	a3,356(a5)
    85e8:	00080593          	mv	a1,a6
    85ec:	cb9ff06f          	j	82a4 <__ieee754_exp+0xf8>

000085f0 <finite>:
    85f0:	00159513          	slli	a0,a1,0x1
    85f4:	00155513          	srli	a0,a0,0x1
    85f8:	801005b7          	lui	a1,0x80100
    85fc:	00b50533          	add	a0,a0,a1
    8600:	01f55513          	srli	a0,a0,0x1f
    8604:	00008067          	ret

00008608 <malloc>:
    8608:	002037b7          	lui	a5,0x203
    860c:	00050593          	mv	a1,a0
    8610:	76c7a503          	lw	a0,1900(a5) # 20376c <_impure_ptr>
    8614:	1080006f          	j	871c <_malloc_r>

00008618 <_free_r>:
    8618:	10058063          	beqz	a1,8718 <_free_r+0x100>
    861c:	ffc5a783          	lw	a5,-4(a1) # 800ffffc <CONFIG_SYSTEM_WORKQUEUE_PRIORITY+0x800ffffd>
    8620:	fe010113          	addi	sp,sp,-32
    8624:	00812c23          	sw	s0,24(sp)
    8628:	00112e23          	sw	ra,28(sp)
    862c:	ffc58413          	addi	s0,a1,-4
    8630:	0007d463          	bgez	a5,8638 <_free_r+0x20>
    8634:	00f40433          	add	s0,s0,a5
    8638:	00a12623          	sw	a0,12(sp)
    863c:	19d020ef          	jal	ra,afd8 <__malloc_lock>
    8640:	0000e737          	lui	a4,0xe
    8644:	b6872783          	lw	a5,-1176(a4) # db68 <__malloc_free_list>
    8648:	00c12503          	lw	a0,12(sp)
    864c:	00070613          	mv	a2,a4
    8650:	00079e63          	bnez	a5,866c <_free_r+0x54>
    8654:	00042223          	sw	zero,4(s0)
    8658:	b6872423          	sw	s0,-1176(a4)
    865c:	01812403          	lw	s0,24(sp)
    8660:	01c12083          	lw	ra,28(sp)
    8664:	02010113          	addi	sp,sp,32
    8668:	17d0206f          	j	afe4 <__malloc_unlock>
    866c:	02f47663          	bgeu	s0,a5,8698 <_free_r+0x80>
    8670:	00042683          	lw	a3,0(s0)
    8674:	00d40733          	add	a4,s0,a3
    8678:	00e79a63          	bne	a5,a4,868c <_free_r+0x74>
    867c:	0007a703          	lw	a4,0(a5)
    8680:	0047a783          	lw	a5,4(a5)
    8684:	00d70733          	add	a4,a4,a3
    8688:	00e42023          	sw	a4,0(s0)
    868c:	00f42223          	sw	a5,4(s0)
    8690:	b6862423          	sw	s0,-1176(a2)
    8694:	fc9ff06f          	j	865c <_free_r+0x44>
    8698:	00078713          	mv	a4,a5
    869c:	0047a783          	lw	a5,4(a5)
    86a0:	00078463          	beqz	a5,86a8 <_free_r+0x90>
    86a4:	fef47ae3          	bgeu	s0,a5,8698 <_free_r+0x80>
    86a8:	00072683          	lw	a3,0(a4)
    86ac:	00d70633          	add	a2,a4,a3
    86b0:	02861863          	bne	a2,s0,86e0 <_free_r+0xc8>
    86b4:	00042603          	lw	a2,0(s0)
    86b8:	00c686b3          	add	a3,a3,a2
    86bc:	00d72023          	sw	a3,0(a4)
    86c0:	00d70633          	add	a2,a4,a3
    86c4:	f8c79ce3          	bne	a5,a2,865c <_free_r+0x44>
    86c8:	0007a603          	lw	a2,0(a5)
    86cc:	0047a783          	lw	a5,4(a5)
    86d0:	00d606b3          	add	a3,a2,a3
    86d4:	00d72023          	sw	a3,0(a4)
    86d8:	00f72223          	sw	a5,4(a4)
    86dc:	f81ff06f          	j	865c <_free_r+0x44>
    86e0:	00c47863          	bgeu	s0,a2,86f0 <_free_r+0xd8>
    86e4:	00c00793          	li	a5,12
    86e8:	00f52023          	sw	a5,0(a0)
    86ec:	f71ff06f          	j	865c <_free_r+0x44>
    86f0:	00042603          	lw	a2,0(s0)
    86f4:	00c406b3          	add	a3,s0,a2
    86f8:	00d79a63          	bne	a5,a3,870c <_free_r+0xf4>
    86fc:	0007a683          	lw	a3,0(a5)
    8700:	0047a783          	lw	a5,4(a5)
    8704:	00c686b3          	add	a3,a3,a2
    8708:	00d42023          	sw	a3,0(s0)
    870c:	00f42223          	sw	a5,4(s0)
    8710:	00872223          	sw	s0,4(a4)
    8714:	f49ff06f          	j	865c <_free_r+0x44>
    8718:	00008067          	ret

0000871c <_malloc_r>:
    871c:	fe010113          	addi	sp,sp,-32
    8720:	00912a23          	sw	s1,20(sp)
    8724:	00358493          	addi	s1,a1,3
    8728:	ffc4f493          	andi	s1,s1,-4
    872c:	01212823          	sw	s2,16(sp)
    8730:	00112e23          	sw	ra,28(sp)
    8734:	00812c23          	sw	s0,24(sp)
    8738:	01312623          	sw	s3,12(sp)
    873c:	00848493          	addi	s1,s1,8
    8740:	00c00793          	li	a5,12
    8744:	00050913          	mv	s2,a0
    8748:	06f4f863          	bgeu	s1,a5,87b8 <_malloc_r+0x9c>
    874c:	00c00493          	li	s1,12
    8750:	06b4e663          	bltu	s1,a1,87bc <_malloc_r+0xa0>
    8754:	00090513          	mv	a0,s2
    8758:	081020ef          	jal	ra,afd8 <__malloc_lock>
    875c:	0000e7b7          	lui	a5,0xe
    8760:	b687a703          	lw	a4,-1176(a5) # db68 <__malloc_free_list>
    8764:	b6878693          	addi	a3,a5,-1176
    8768:	00070413          	mv	s0,a4
    876c:	06041c63          	bnez	s0,87e4 <_malloc_r+0xc8>
    8770:	0000e437          	lui	s0,0xe
    8774:	b6c40413          	addi	s0,s0,-1172 # db6c <__malloc_sbrk_start>
    8778:	00042783          	lw	a5,0(s0)
    877c:	00079a63          	bnez	a5,8790 <_malloc_r+0x74>
    8780:	00000593          	li	a1,0
    8784:	00090513          	mv	a0,s2
    8788:	058010ef          	jal	ra,97e0 <_sbrk_r>
    878c:	00a42023          	sw	a0,0(s0)
    8790:	00048593          	mv	a1,s1
    8794:	00090513          	mv	a0,s2
    8798:	048010ef          	jal	ra,97e0 <_sbrk_r>
    879c:	fff00993          	li	s3,-1
    87a0:	0b351a63          	bne	a0,s3,8854 <_malloc_r+0x138>
    87a4:	00c00793          	li	a5,12
    87a8:	00f92023          	sw	a5,0(s2)
    87ac:	00090513          	mv	a0,s2
    87b0:	035020ef          	jal	ra,afe4 <__malloc_unlock>
    87b4:	0100006f          	j	87c4 <_malloc_r+0xa8>
    87b8:	f804dce3          	bgez	s1,8750 <_malloc_r+0x34>
    87bc:	00c00793          	li	a5,12
    87c0:	00f92023          	sw	a5,0(s2)
    87c4:	00000513          	li	a0,0
    87c8:	01c12083          	lw	ra,28(sp)
    87cc:	01812403          	lw	s0,24(sp)
    87d0:	01412483          	lw	s1,20(sp)
    87d4:	01012903          	lw	s2,16(sp)
    87d8:	00c12983          	lw	s3,12(sp)
    87dc:	02010113          	addi	sp,sp,32
    87e0:	00008067          	ret
    87e4:	00042783          	lw	a5,0(s0)
    87e8:	409787b3          	sub	a5,a5,s1
    87ec:	0407ce63          	bltz	a5,8848 <_malloc_r+0x12c>
    87f0:	00b00613          	li	a2,11
    87f4:	00f67a63          	bgeu	a2,a5,8808 <_malloc_r+0xec>
    87f8:	00f42023          	sw	a5,0(s0)
    87fc:	00f40433          	add	s0,s0,a5
    8800:	00942023          	sw	s1,0(s0)
    8804:	0100006f          	j	8814 <_malloc_r+0xf8>
    8808:	00442783          	lw	a5,4(s0)
    880c:	02871a63          	bne	a4,s0,8840 <_malloc_r+0x124>
    8810:	00f6a023          	sw	a5,0(a3) # 7ff00000 <CONFIG_SYS_CLOCK_HW_CYCLES_PER_SEC+0x7cf50f80>
    8814:	00090513          	mv	a0,s2
    8818:	7cc020ef          	jal	ra,afe4 <__malloc_unlock>
    881c:	00b40513          	addi	a0,s0,11
    8820:	00440793          	addi	a5,s0,4
    8824:	ff857513          	andi	a0,a0,-8
    8828:	40f50733          	sub	a4,a0,a5
    882c:	f8f50ee3          	beq	a0,a5,87c8 <_malloc_r+0xac>
    8830:	00e40433          	add	s0,s0,a4
    8834:	40a787b3          	sub	a5,a5,a0
    8838:	00f42023          	sw	a5,0(s0)
    883c:	f8dff06f          	j	87c8 <_malloc_r+0xac>
    8840:	00f72223          	sw	a5,4(a4)
    8844:	fd1ff06f          	j	8814 <_malloc_r+0xf8>
    8848:	00040713          	mv	a4,s0
    884c:	00442403          	lw	s0,4(s0)
    8850:	f1dff06f          	j	876c <_malloc_r+0x50>
    8854:	00350413          	addi	s0,a0,3
    8858:	ffc47413          	andi	s0,s0,-4
    885c:	fa8502e3          	beq	a0,s0,8800 <_malloc_r+0xe4>
    8860:	40a405b3          	sub	a1,s0,a0
    8864:	00090513          	mv	a0,s2
    8868:	779000ef          	jal	ra,97e0 <_sbrk_r>
    886c:	f9351ae3          	bne	a0,s3,8800 <_malloc_r+0xe4>
    8870:	f35ff06f          	j	87a4 <_malloc_r+0x88>

00008874 <__cvt>:
    8874:	fd010113          	addi	sp,sp,-48
    8878:	02812423          	sw	s0,40(sp)
    887c:	03212023          	sw	s2,32(sp)
    8880:	01412c23          	sw	s4,24(sp)
    8884:	01512a23          	sw	s5,20(sp)
    8888:	01612823          	sw	s6,16(sp)
    888c:	02112623          	sw	ra,44(sp)
    8890:	02912223          	sw	s1,36(sp)
    8894:	01312e23          	sw	s3,28(sp)
    8898:	00070b13          	mv	s6,a4
    889c:	00058a13          	mv	s4,a1
    88a0:	00060413          	mv	s0,a2
    88a4:	00068913          	mv	s2,a3
    88a8:	00080a93          	mv	s5,a6
    88ac:	00000713          	li	a4,0
    88b0:	00065863          	bgez	a2,88c0 <__cvt+0x4c>
    88b4:	80000737          	lui	a4,0x80000
    88b8:	00c74433          	xor	s0,a4,a2
    88bc:	02d00713          	li	a4,45
    88c0:	00e78023          	sb	a4,0(a5)
    88c4:	fdf8f493          	andi	s1,a7,-33
    88c8:	04600793          	li	a5,70
    88cc:	00300693          	li	a3,3
    88d0:	00f48a63          	beq	s1,a5,88e4 <__cvt+0x70>
    88d4:	04500793          	li	a5,69
    88d8:	00200693          	li	a3,2
    88dc:	00f49463          	bne	s1,a5,88e4 <__cvt+0x70>
    88e0:	00190913          	addi	s2,s2,1
    88e4:	000a8793          	mv	a5,s5
    88e8:	00c10893          	addi	a7,sp,12
    88ec:	00810813          	addi	a6,sp,8
    88f0:	00090713          	mv	a4,s2
    88f4:	000a0593          	mv	a1,s4
    88f8:	00040613          	mv	a2,s0
    88fc:	13c010ef          	jal	ra,9a38 <_dtoa_r>
    8900:	04700793          	li	a5,71
    8904:	00050993          	mv	s3,a0
    8908:	00f49663          	bne	s1,a5,8914 <__cvt+0xa0>
    890c:	001b7613          	andi	a2,s6,1
    8910:	06060863          	beqz	a2,8980 <__cvt+0x10c>
    8914:	04600793          	li	a5,70
    8918:	01298b33          	add	s6,s3,s2
    891c:	02f49e63          	bne	s1,a5,8958 <__cvt+0xe4>
    8920:	0009c703          	lbu	a4,0(s3)
    8924:	03000793          	li	a5,48
    8928:	02f71463          	bne	a4,a5,8950 <__cvt+0xdc>
    892c:	00000613          	li	a2,0
    8930:	00000693          	li	a3,0
    8934:	000a0513          	mv	a0,s4
    8938:	00040593          	mv	a1,s0
    893c:	ba5fa0ef          	jal	ra,34e0 <__eqdf2>
    8940:	00050863          	beqz	a0,8950 <__cvt+0xdc>
    8944:	00100613          	li	a2,1
    8948:	412606b3          	sub	a3,a2,s2
    894c:	00daa023          	sw	a3,0(s5)
    8950:	000aa783          	lw	a5,0(s5)
    8954:	00fb0b33          	add	s6,s6,a5
    8958:	00000613          	li	a2,0
    895c:	00000693          	li	a3,0
    8960:	000a0513          	mv	a0,s4
    8964:	00040593          	mv	a1,s0
    8968:	b79fa0ef          	jal	ra,34e0 <__eqdf2>
    896c:	00051463          	bnez	a0,8974 <__cvt+0x100>
    8970:	01612623          	sw	s6,12(sp)
    8974:	03000713          	li	a4,48
    8978:	00c12783          	lw	a5,12(sp)
    897c:	0567e063          	bltu	a5,s6,89bc <__cvt+0x148>
    8980:	00c12783          	lw	a5,12(sp)
    8984:	03012703          	lw	a4,48(sp)
    8988:	02c12083          	lw	ra,44(sp)
    898c:	02812403          	lw	s0,40(sp)
    8990:	413787b3          	sub	a5,a5,s3
    8994:	00f72023          	sw	a5,0(a4) # 80000000 <CONFIG_SYSTEM_WORKQUEUE_PRIORITY+0x80000001>
    8998:	02412483          	lw	s1,36(sp)
    899c:	02012903          	lw	s2,32(sp)
    89a0:	01812a03          	lw	s4,24(sp)
    89a4:	01412a83          	lw	s5,20(sp)
    89a8:	01012b03          	lw	s6,16(sp)
    89ac:	00098513          	mv	a0,s3
    89b0:	01c12983          	lw	s3,28(sp)
    89b4:	03010113          	addi	sp,sp,48
    89b8:	00008067          	ret
    89bc:	00178693          	addi	a3,a5,1
    89c0:	00d12623          	sw	a3,12(sp)
    89c4:	00e78023          	sb	a4,0(a5)
    89c8:	fb1ff06f          	j	8978 <__cvt+0x104>

000089cc <__exponent>:
    89cc:	00c50023          	sb	a2,0(a0)
    89d0:	00250793          	addi	a5,a0,2
    89d4:	02b00713          	li	a4,43
    89d8:	0005d663          	bgez	a1,89e4 <__exponent+0x18>
    89dc:	40b005b3          	neg	a1,a1
    89e0:	02d00713          	li	a4,45
    89e4:	00e500a3          	sb	a4,1(a0)
    89e8:	00900713          	li	a4,9
    89ec:	08b75263          	bge	a4,a1,8a70 <__exponent+0xa4>
    89f0:	ff010113          	addi	sp,sp,-16
    89f4:	00f10713          	addi	a4,sp,15
    89f8:	00070813          	mv	a6,a4
    89fc:	00a00893          	li	a7,10
    8a00:	06300313          	li	t1,99
    8a04:	0315e633          	rem	a2,a1,a7
    8a08:	00070693          	mv	a3,a4
    8a0c:	fff70713          	addi	a4,a4,-1
    8a10:	03060613          	addi	a2,a2,48
    8a14:	fec68fa3          	sb	a2,-1(a3)
    8a18:	00058613          	mv	a2,a1
    8a1c:	0315c5b3          	div	a1,a1,a7
    8a20:	fec342e3          	blt	t1,a2,8a04 <__exponent+0x38>
    8a24:	ffe68893          	addi	a7,a3,-2
    8a28:	03058593          	addi	a1,a1,48
    8a2c:	feb70fa3          	sb	a1,-1(a4)
    8a30:	00078613          	mv	a2,a5
    8a34:	00088713          	mv	a4,a7
    8a38:	03076263          	bltu	a4,a6,8a5c <__exponent+0x90>
    8a3c:	00000713          	li	a4,0
    8a40:	01186663          	bltu	a6,a7,8a4c <__exponent+0x80>
    8a44:	01110713          	addi	a4,sp,17
    8a48:	40d70733          	sub	a4,a4,a3
    8a4c:	00e787b3          	add	a5,a5,a4
    8a50:	40a78533          	sub	a0,a5,a0
    8a54:	01010113          	addi	sp,sp,16
    8a58:	00008067          	ret
    8a5c:	00074583          	lbu	a1,0(a4)
    8a60:	00170713          	addi	a4,a4,1
    8a64:	00160613          	addi	a2,a2,1
    8a68:	feb60fa3          	sb	a1,-1(a2)
    8a6c:	fcdff06f          	j	8a38 <__exponent+0x6c>
    8a70:	03000793          	li	a5,48
    8a74:	00f50123          	sb	a5,2(a0)
    8a78:	03058593          	addi	a1,a1,48
    8a7c:	00450793          	addi	a5,a0,4
    8a80:	00b501a3          	sb	a1,3(a0)
    8a84:	40a78533          	sub	a0,a5,a0
    8a88:	00008067          	ret

00008a8c <_printf_float>:
    8a8c:	f8010113          	addi	sp,sp,-128
    8a90:	06112e23          	sw	ra,124(sp)
    8a94:	06812c23          	sw	s0,120(sp)
    8a98:	06912a23          	sw	s1,116(sp)
    8a9c:	00058413          	mv	s0,a1
    8aa0:	07212823          	sw	s2,112(sp)
    8aa4:	07312623          	sw	s3,108(sp)
    8aa8:	07412423          	sw	s4,104(sp)
    8aac:	07512223          	sw	s5,100(sp)
    8ab0:	00070a13          	mv	s4,a4
    8ab4:	07612023          	sw	s6,96(sp)
    8ab8:	05712e23          	sw	s7,92(sp)
    8abc:	05812c23          	sw	s8,88(sp)
    8ac0:	00060913          	mv	s2,a2
    8ac4:	00068993          	mv	s3,a3
    8ac8:	05912a23          	sw	s9,84(sp)
    8acc:	05a12823          	sw	s10,80(sp)
    8ad0:	05b12623          	sw	s11,76(sp)
    8ad4:	00050493          	mv	s1,a0
    8ad8:	4d0020ef          	jal	ra,afa8 <_localeconv_r>
    8adc:	00052c03          	lw	s8,0(a0)
    8ae0:	000c0513          	mv	a0,s8
    8ae4:	549000ef          	jal	ra,982c <strlen>
    8ae8:	00042b03          	lw	s6,0(s0)
    8aec:	02012c23          	sw	zero,56(sp)
    8af0:	01844a83          	lbu	s5,24(s0)
    8af4:	100b7713          	andi	a4,s6,256
    8af8:	000a2783          	lw	a5,0(s4)
    8afc:	00050b93          	mv	s7,a0
    8b00:	12070c63          	beqz	a4,8c38 <_printf_float+0x1ac>
    8b04:	00478713          	addi	a4,a5,4
    8b08:	00ea2023          	sw	a4,0(s4)
    8b0c:	0007a783          	lw	a5,0(a5)
    8b10:	02010513          	addi	a0,sp,32
    8b14:	0007a703          	lw	a4,0(a5)
    8b18:	02e12023          	sw	a4,32(sp)
    8b1c:	0047a703          	lw	a4,4(a5)
    8b20:	02e12223          	sw	a4,36(sp)
    8b24:	0087a703          	lw	a4,8(a5)
    8b28:	02e12423          	sw	a4,40(sp)
    8b2c:	00c7a783          	lw	a5,12(a5)
    8b30:	02f12623          	sw	a5,44(sp)
    8b34:	d75fa0ef          	jal	ra,38a8 <__trunctfdf2>
    8b38:	04a42423          	sw	a0,72(s0)
    8b3c:	04b42623          	sw	a1,76(s0)
    8b40:	04c42a03          	lw	s4,76(s0)
    8b44:	0000d737          	lui	a4,0xd
    8b48:	04842c83          	lw	s9,72(s0)
    8b4c:	16872d03          	lw	s10,360(a4) # d168 <__device_handles_end+0x7c>
    8b50:	16c72d83          	lw	s11,364(a4)
    8b54:	001a1793          	slli	a5,s4,0x1
    8b58:	0017d793          	srli	a5,a5,0x1
    8b5c:	000d0613          	mv	a2,s10
    8b60:	000d8693          	mv	a3,s11
    8b64:	000c8513          	mv	a0,s9
    8b68:	00078593          	mv	a1,a5
    8b6c:	00f12e23          	sw	a5,28(sp)
    8b70:	bc5fa0ef          	jal	ra,3734 <__unorddf2>
    8b74:	0e051463          	bnez	a0,8c5c <_printf_float+0x1d0>
    8b78:	01c12783          	lw	a5,28(sp)
    8b7c:	000d0613          	mv	a2,s10
    8b80:	000d8693          	mv	a3,s11
    8b84:	000c8513          	mv	a0,s9
    8b88:	00078593          	mv	a1,a5
    8b8c:	ac5fa0ef          	jal	ra,3650 <__ledf2>
    8b90:	0ca05663          	blez	a0,8c5c <_printf_float+0x1d0>
    8b94:	00000613          	li	a2,0
    8b98:	00000693          	li	a3,0
    8b9c:	000c8513          	mv	a0,s9
    8ba0:	000a0593          	mv	a1,s4
    8ba4:	aadfa0ef          	jal	ra,3650 <__ledf2>
    8ba8:	00055663          	bgez	a0,8bb4 <_printf_float+0x128>
    8bac:	02d00793          	li	a5,45
    8bb0:	04f401a3          	sb	a5,67(s0)
    8bb4:	04700793          	li	a5,71
    8bb8:	0d57fe63          	bgeu	a5,s5,8c94 <_printf_float+0x208>
    8bbc:	0000ea37          	lui	s4,0xe
    8bc0:	8cca0a13          	addi	s4,s4,-1844 # d8cc <_ctype_+0x108>
    8bc4:	ffbb7b13          	andi	s6,s6,-5
    8bc8:	00300793          	li	a5,3
    8bcc:	01642023          	sw	s6,0(s0)
    8bd0:	00f42823          	sw	a5,16(s0)
    8bd4:	00000b13          	li	s6,0
    8bd8:	00098713          	mv	a4,s3
    8bdc:	00090693          	mv	a3,s2
    8be0:	03c10613          	addi	a2,sp,60
    8be4:	00040593          	mv	a1,s0
    8be8:	00048513          	mv	a0,s1
    8bec:	634000ef          	jal	ra,9220 <_printf_common>
    8bf0:	fff00c93          	li	s9,-1
    8bf4:	23951a63          	bne	a0,s9,8e28 <_printf_float+0x39c>
    8bf8:	fff00513          	li	a0,-1
    8bfc:	07c12083          	lw	ra,124(sp)
    8c00:	07812403          	lw	s0,120(sp)
    8c04:	07412483          	lw	s1,116(sp)
    8c08:	07012903          	lw	s2,112(sp)
    8c0c:	06c12983          	lw	s3,108(sp)
    8c10:	06812a03          	lw	s4,104(sp)
    8c14:	06412a83          	lw	s5,100(sp)
    8c18:	06012b03          	lw	s6,96(sp)
    8c1c:	05c12b83          	lw	s7,92(sp)
    8c20:	05812c03          	lw	s8,88(sp)
    8c24:	05412c83          	lw	s9,84(sp)
    8c28:	05012d03          	lw	s10,80(sp)
    8c2c:	04c12d83          	lw	s11,76(sp)
    8c30:	08010113          	addi	sp,sp,128
    8c34:	00008067          	ret
    8c38:	00778793          	addi	a5,a5,7
    8c3c:	ff87f793          	andi	a5,a5,-8
    8c40:	00878713          	addi	a4,a5,8
    8c44:	00ea2023          	sw	a4,0(s4)
    8c48:	0007a703          	lw	a4,0(a5)
    8c4c:	0047a783          	lw	a5,4(a5)
    8c50:	04e42423          	sw	a4,72(s0)
    8c54:	04f42623          	sw	a5,76(s0)
    8c58:	ee9ff06f          	j	8b40 <_printf_float+0xb4>
    8c5c:	000c8613          	mv	a2,s9
    8c60:	000a0693          	mv	a3,s4
    8c64:	000c8513          	mv	a0,s9
    8c68:	000a0593          	mv	a1,s4
    8c6c:	ac9fa0ef          	jal	ra,3734 <__unorddf2>
    8c70:	02050e63          	beqz	a0,8cac <_printf_float+0x220>
    8c74:	000a5663          	bgez	s4,8c80 <_printf_float+0x1f4>
    8c78:	02d00793          	li	a5,45
    8c7c:	04f401a3          	sb	a5,67(s0)
    8c80:	04700793          	li	a5,71
    8c84:	0157fe63          	bgeu	a5,s5,8ca0 <_printf_float+0x214>
    8c88:	0000ea37          	lui	s4,0xe
    8c8c:	8d4a0a13          	addi	s4,s4,-1836 # d8d4 <_ctype_+0x110>
    8c90:	f35ff06f          	j	8bc4 <_printf_float+0x138>
    8c94:	0000ea37          	lui	s4,0xe
    8c98:	8c8a0a13          	addi	s4,s4,-1848 # d8c8 <_ctype_+0x104>
    8c9c:	f29ff06f          	j	8bc4 <_printf_float+0x138>
    8ca0:	0000ea37          	lui	s4,0xe
    8ca4:	8d0a0a13          	addi	s4,s4,-1840 # d8d0 <_ctype_+0x10c>
    8ca8:	f1dff06f          	j	8bc4 <_printf_float+0x138>
    8cac:	00442783          	lw	a5,4(s0)
    8cb0:	fff00713          	li	a4,-1
    8cb4:	0dfafd13          	andi	s10,s5,223
    8cb8:	0ce79263          	bne	a5,a4,8d7c <_printf_float+0x2f0>
    8cbc:	00600793          	li	a5,6
    8cc0:	00f42223          	sw	a5,4(s0)
    8cc4:	00442683          	lw	a3,4(s0)
    8cc8:	400b6713          	ori	a4,s6,1024
    8ccc:	03810793          	addi	a5,sp,56
    8cd0:	00f12023          	sw	a5,0(sp)
    8cd4:	000a0613          	mv	a2,s4
    8cd8:	03310793          	addi	a5,sp,51
    8cdc:	000c8593          	mv	a1,s9
    8ce0:	00e42023          	sw	a4,0(s0)
    8ce4:	00012223          	sw	zero,4(sp)
    8ce8:	000a8893          	mv	a7,s5
    8cec:	03410813          	addi	a6,sp,52
    8cf0:	00048513          	mv	a0,s1
    8cf4:	b81ff0ef          	jal	ra,8874 <__cvt>
    8cf8:	04700793          	li	a5,71
    8cfc:	03412583          	lw	a1,52(sp)
    8d00:	00050a13          	mv	s4,a0
    8d04:	00fd1e63          	bne	s10,a5,8d20 <_printf_float+0x294>
    8d08:	ffd00793          	li	a5,-3
    8d0c:	00f5c663          	blt	a1,a5,8d18 <_printf_float+0x28c>
    8d10:	00442783          	lw	a5,4(s0)
    8d14:	0cb7dc63          	bge	a5,a1,8dec <_printf_float+0x360>
    8d18:	ffea8a93          	addi	s5,s5,-2
    8d1c:	0ffafa93          	andi	s5,s5,255
    8d20:	06500793          	li	a5,101
    8d24:	0757e663          	bltu	a5,s5,8d90 <_printf_float+0x304>
    8d28:	fff58593          	addi	a1,a1,-1
    8d2c:	000a8613          	mv	a2,s5
    8d30:	05040513          	addi	a0,s0,80
    8d34:	02b12a23          	sw	a1,52(sp)
    8d38:	c95ff0ef          	jal	ra,89cc <__exponent>
    8d3c:	03812703          	lw	a4,56(sp)
    8d40:	00100693          	li	a3,1
    8d44:	00050b13          	mv	s6,a0
    8d48:	00a707b3          	add	a5,a4,a0
    8d4c:	00f42823          	sw	a5,16(s0)
    8d50:	00e6c863          	blt	a3,a4,8d60 <_printf_float+0x2d4>
    8d54:	00042703          	lw	a4,0(s0)
    8d58:	00177713          	andi	a4,a4,1
    8d5c:	00070663          	beqz	a4,8d68 <_printf_float+0x2dc>
    8d60:	00178793          	addi	a5,a5,1
    8d64:	00f42823          	sw	a5,16(s0)
    8d68:	03314783          	lbu	a5,51(sp)
    8d6c:	e60786e3          	beqz	a5,8bd8 <_printf_float+0x14c>
    8d70:	02d00793          	li	a5,45
    8d74:	04f401a3          	sb	a5,67(s0)
    8d78:	e61ff06f          	j	8bd8 <_printf_float+0x14c>
    8d7c:	04700713          	li	a4,71
    8d80:	f4ed12e3          	bne	s10,a4,8cc4 <_printf_float+0x238>
    8d84:	f40790e3          	bnez	a5,8cc4 <_printf_float+0x238>
    8d88:	00100793          	li	a5,1
    8d8c:	f35ff06f          	j	8cc0 <_printf_float+0x234>
    8d90:	06600793          	li	a5,102
    8d94:	04fa9e63          	bne	s5,a5,8df0 <_printf_float+0x364>
    8d98:	00442783          	lw	a5,4(s0)
    8d9c:	02b05463          	blez	a1,8dc4 <_printf_float+0x338>
    8da0:	00b42823          	sw	a1,16(s0)
    8da4:	00079863          	bnez	a5,8db4 <_printf_float+0x328>
    8da8:	00042703          	lw	a4,0(s0)
    8dac:	00177713          	andi	a4,a4,1
    8db0:	02070863          	beqz	a4,8de0 <_printf_float+0x354>
    8db4:	00178793          	addi	a5,a5,1
    8db8:	00b787b3          	add	a5,a5,a1
    8dbc:	00f42823          	sw	a5,16(s0)
    8dc0:	0200006f          	j	8de0 <_printf_float+0x354>
    8dc4:	00079a63          	bnez	a5,8dd8 <_printf_float+0x34c>
    8dc8:	00042703          	lw	a4,0(s0)
    8dcc:	00100693          	li	a3,1
    8dd0:	00177713          	andi	a4,a4,1
    8dd4:	00070463          	beqz	a4,8ddc <_printf_float+0x350>
    8dd8:	00278693          	addi	a3,a5,2
    8ddc:	00d42823          	sw	a3,16(s0)
    8de0:	04b42c23          	sw	a1,88(s0)
    8de4:	00000b13          	li	s6,0
    8de8:	f81ff06f          	j	8d68 <_printf_float+0x2dc>
    8dec:	06700a93          	li	s5,103
    8df0:	03812783          	lw	a5,56(sp)
    8df4:	00f5ce63          	blt	a1,a5,8e10 <_printf_float+0x384>
    8df8:	00042783          	lw	a5,0(s0)
    8dfc:	00b42823          	sw	a1,16(s0)
    8e00:	0017f793          	andi	a5,a5,1
    8e04:	fc078ee3          	beqz	a5,8de0 <_printf_float+0x354>
    8e08:	00158793          	addi	a5,a1,1
    8e0c:	fb1ff06f          	j	8dbc <_printf_float+0x330>
    8e10:	00100713          	li	a4,1
    8e14:	00b04663          	bgtz	a1,8e20 <_printf_float+0x394>
    8e18:	00200713          	li	a4,2
    8e1c:	40b70733          	sub	a4,a4,a1
    8e20:	00e787b3          	add	a5,a5,a4
    8e24:	f99ff06f          	j	8dbc <_printf_float+0x330>
    8e28:	00042783          	lw	a5,0(s0)
    8e2c:	4007f713          	andi	a4,a5,1024
    8e30:	02071e63          	bnez	a4,8e6c <_printf_float+0x3e0>
    8e34:	01042683          	lw	a3,16(s0)
    8e38:	000a0613          	mv	a2,s4
    8e3c:	00090593          	mv	a1,s2
    8e40:	00048513          	mv	a0,s1
    8e44:	000980e7          	jalr	s3
    8e48:	db9508e3          	beq	a0,s9,8bf8 <_printf_float+0x16c>
    8e4c:	00042783          	lw	a5,0(s0)
    8e50:	0027f793          	andi	a5,a5,2
    8e54:	3a079e63          	bnez	a5,9210 <_printf_float+0x784>
    8e58:	03c12783          	lw	a5,60(sp)
    8e5c:	00c42503          	lw	a0,12(s0)
    8e60:	d8f55ee3          	bge	a0,a5,8bfc <_printf_float+0x170>
    8e64:	00078513          	mv	a0,a5
    8e68:	d95ff06f          	j	8bfc <_printf_float+0x170>
    8e6c:	06500713          	li	a4,101
    8e70:	29577863          	bgeu	a4,s5,9100 <_printf_float+0x674>
    8e74:	04842503          	lw	a0,72(s0)
    8e78:	04c42583          	lw	a1,76(s0)
    8e7c:	00000613          	li	a2,0
    8e80:	00000693          	li	a3,0
    8e84:	e5cfa0ef          	jal	ra,34e0 <__eqdf2>
    8e88:	08051663          	bnez	a0,8f14 <_printf_float+0x488>
    8e8c:	0000d637          	lui	a2,0xd
    8e90:	00100693          	li	a3,1
    8e94:	75460613          	addi	a2,a2,1876 # d754 <gpio_veerwolf_driver_api+0x28>
    8e98:	00090593          	mv	a1,s2
    8e9c:	00048513          	mv	a0,s1
    8ea0:	000980e7          	jalr	s3
    8ea4:	d5950ae3          	beq	a0,s9,8bf8 <_printf_float+0x16c>
    8ea8:	03412703          	lw	a4,52(sp)
    8eac:	03812783          	lw	a5,56(sp)
    8eb0:	00f74863          	blt	a4,a5,8ec0 <_printf_float+0x434>
    8eb4:	00042783          	lw	a5,0(s0)
    8eb8:	0017f793          	andi	a5,a5,1
    8ebc:	f80788e3          	beqz	a5,8e4c <_printf_float+0x3c0>
    8ec0:	000b8693          	mv	a3,s7
    8ec4:	000c0613          	mv	a2,s8
    8ec8:	00090593          	mv	a1,s2
    8ecc:	00048513          	mv	a0,s1
    8ed0:	000980e7          	jalr	s3
    8ed4:	fff00793          	li	a5,-1
    8ed8:	d2f500e3          	beq	a0,a5,8bf8 <_printf_float+0x16c>
    8edc:	00000a13          	li	s4,0
    8ee0:	01a40a93          	addi	s5,s0,26
    8ee4:	fff00b13          	li	s6,-1
    8ee8:	03812783          	lw	a5,56(sp)
    8eec:	fff78793          	addi	a5,a5,-1
    8ef0:	f4fa5ee3          	bge	s4,a5,8e4c <_printf_float+0x3c0>
    8ef4:	00100693          	li	a3,1
    8ef8:	000a8613          	mv	a2,s5
    8efc:	00090593          	mv	a1,s2
    8f00:	00048513          	mv	a0,s1
    8f04:	000980e7          	jalr	s3
    8f08:	cf6508e3          	beq	a0,s6,8bf8 <_printf_float+0x16c>
    8f0c:	001a0a13          	addi	s4,s4,1
    8f10:	fd9ff06f          	j	8ee8 <_printf_float+0x45c>
    8f14:	03412783          	lw	a5,52(sp)
    8f18:	0af04863          	bgtz	a5,8fc8 <_printf_float+0x53c>
    8f1c:	0000d637          	lui	a2,0xd
    8f20:	00100693          	li	a3,1
    8f24:	75460613          	addi	a2,a2,1876 # d754 <gpio_veerwolf_driver_api+0x28>
    8f28:	00090593          	mv	a1,s2
    8f2c:	00048513          	mv	a0,s1
    8f30:	000980e7          	jalr	s3
    8f34:	cd9502e3          	beq	a0,s9,8bf8 <_printf_float+0x16c>
    8f38:	03412783          	lw	a5,52(sp)
    8f3c:	03812703          	lw	a4,56(sp)
    8f40:	00e7e7b3          	or	a5,a5,a4
    8f44:	00079863          	bnez	a5,8f54 <_printf_float+0x4c8>
    8f48:	00042783          	lw	a5,0(s0)
    8f4c:	0017f793          	andi	a5,a5,1
    8f50:	ee078ee3          	beqz	a5,8e4c <_printf_float+0x3c0>
    8f54:	000b8693          	mv	a3,s7
    8f58:	000c0613          	mv	a2,s8
    8f5c:	00090593          	mv	a1,s2
    8f60:	00048513          	mv	a0,s1
    8f64:	000980e7          	jalr	s3
    8f68:	fff00793          	li	a5,-1
    8f6c:	c8f506e3          	beq	a0,a5,8bf8 <_printf_float+0x16c>
    8f70:	00000a93          	li	s5,0
    8f74:	01a40b13          	addi	s6,s0,26
    8f78:	fff00b93          	li	s7,-1
    8f7c:	03412783          	lw	a5,52(sp)
    8f80:	40f007b3          	neg	a5,a5
    8f84:	02fac263          	blt	s5,a5,8fa8 <_printf_float+0x51c>
    8f88:	03812683          	lw	a3,56(sp)
    8f8c:	000a0613          	mv	a2,s4
    8f90:	00090593          	mv	a1,s2
    8f94:	00048513          	mv	a0,s1
    8f98:	000980e7          	jalr	s3
    8f9c:	fff00793          	li	a5,-1
    8fa0:	eaf516e3          	bne	a0,a5,8e4c <_printf_float+0x3c0>
    8fa4:	c55ff06f          	j	8bf8 <_printf_float+0x16c>
    8fa8:	00100693          	li	a3,1
    8fac:	000b0613          	mv	a2,s6
    8fb0:	00090593          	mv	a1,s2
    8fb4:	00048513          	mv	a0,s1
    8fb8:	000980e7          	jalr	s3
    8fbc:	c3750ee3          	beq	a0,s7,8bf8 <_printf_float+0x16c>
    8fc0:	001a8a93          	addi	s5,s5,1
    8fc4:	fb9ff06f          	j	8f7c <_printf_float+0x4f0>
    8fc8:	05842783          	lw	a5,88(s0)
    8fcc:	03812a83          	lw	s5,56(sp)
    8fd0:	0157d463          	bge	a5,s5,8fd8 <_printf_float+0x54c>
    8fd4:	00078a93          	mv	s5,a5
    8fd8:	0b504463          	bgtz	s5,9080 <_printf_float+0x5f4>
    8fdc:	00000b13          	li	s6,0
    8fe0:	01a40d13          	addi	s10,s0,26
    8fe4:	fff00d93          	li	s11,-1
    8fe8:	05842c83          	lw	s9,88(s0)
    8fec:	000a8793          	mv	a5,s5
    8ff0:	000ad463          	bgez	s5,8ff8 <_printf_float+0x56c>
    8ff4:	00000793          	li	a5,0
    8ff8:	40fc87b3          	sub	a5,s9,a5
    8ffc:	0afb4263          	blt	s6,a5,90a0 <_printf_float+0x614>
    9000:	03412703          	lw	a4,52(sp)
    9004:	03812783          	lw	a5,56(sp)
    9008:	0af74c63          	blt	a4,a5,90c0 <_printf_float+0x634>
    900c:	00042783          	lw	a5,0(s0)
    9010:	0017f793          	andi	a5,a5,1
    9014:	0a079663          	bnez	a5,90c0 <_printf_float+0x634>
    9018:	03812a83          	lw	s5,56(sp)
    901c:	03412703          	lw	a4,52(sp)
    9020:	419a87b3          	sub	a5,s5,s9
    9024:	40ea8ab3          	sub	s5,s5,a4
    9028:	0157d463          	bge	a5,s5,9030 <_printf_float+0x5a4>
    902c:	00078a93          	mv	s5,a5
    9030:	0b504863          	bgtz	s5,90e0 <_printf_float+0x654>
    9034:	00000a13          	li	s4,0
    9038:	01a40b13          	addi	s6,s0,26
    903c:	fff00b93          	li	s7,-1
    9040:	03412703          	lw	a4,52(sp)
    9044:	03812783          	lw	a5,56(sp)
    9048:	40e787b3          	sub	a5,a5,a4
    904c:	000a8713          	mv	a4,s5
    9050:	000ad463          	bgez	s5,9058 <_printf_float+0x5cc>
    9054:	00000713          	li	a4,0
    9058:	40e787b3          	sub	a5,a5,a4
    905c:	defa58e3          	bge	s4,a5,8e4c <_printf_float+0x3c0>
    9060:	00100693          	li	a3,1
    9064:	000b0613          	mv	a2,s6
    9068:	00090593          	mv	a1,s2
    906c:	00048513          	mv	a0,s1
    9070:	000980e7          	jalr	s3
    9074:	b97502e3          	beq	a0,s7,8bf8 <_printf_float+0x16c>
    9078:	001a0a13          	addi	s4,s4,1
    907c:	fc5ff06f          	j	9040 <_printf_float+0x5b4>
    9080:	000a8693          	mv	a3,s5
    9084:	000a0613          	mv	a2,s4
    9088:	00090593          	mv	a1,s2
    908c:	00048513          	mv	a0,s1
    9090:	000980e7          	jalr	s3
    9094:	fff00793          	li	a5,-1
    9098:	f4f512e3          	bne	a0,a5,8fdc <_printf_float+0x550>
    909c:	b5dff06f          	j	8bf8 <_printf_float+0x16c>
    90a0:	00100693          	li	a3,1
    90a4:	000d0613          	mv	a2,s10
    90a8:	00090593          	mv	a1,s2
    90ac:	00048513          	mv	a0,s1
    90b0:	000980e7          	jalr	s3
    90b4:	b5b502e3          	beq	a0,s11,8bf8 <_printf_float+0x16c>
    90b8:	001b0b13          	addi	s6,s6,1
    90bc:	f2dff06f          	j	8fe8 <_printf_float+0x55c>
    90c0:	000b8693          	mv	a3,s7
    90c4:	000c0613          	mv	a2,s8
    90c8:	00090593          	mv	a1,s2
    90cc:	00048513          	mv	a0,s1
    90d0:	000980e7          	jalr	s3
    90d4:	fff00793          	li	a5,-1
    90d8:	f4f510e3          	bne	a0,a5,9018 <_printf_float+0x58c>
    90dc:	b1dff06f          	j	8bf8 <_printf_float+0x16c>
    90e0:	000a8693          	mv	a3,s5
    90e4:	019a0633          	add	a2,s4,s9
    90e8:	00090593          	mv	a1,s2
    90ec:	00048513          	mv	a0,s1
    90f0:	000980e7          	jalr	s3
    90f4:	fff00793          	li	a5,-1
    90f8:	f2f51ee3          	bne	a0,a5,9034 <_printf_float+0x5a8>
    90fc:	afdff06f          	j	8bf8 <_printf_float+0x16c>
    9100:	03812683          	lw	a3,56(sp)
    9104:	00100713          	li	a4,1
    9108:	00d74663          	blt	a4,a3,9114 <_printf_float+0x688>
    910c:	0017f793          	andi	a5,a5,1
    9110:	0a078a63          	beqz	a5,91c4 <_printf_float+0x738>
    9114:	00100693          	li	a3,1
    9118:	000a0613          	mv	a2,s4
    911c:	00090593          	mv	a1,s2
    9120:	00048513          	mv	a0,s1
    9124:	000980e7          	jalr	s3
    9128:	fff00a93          	li	s5,-1
    912c:	ad5506e3          	beq	a0,s5,8bf8 <_printf_float+0x16c>
    9130:	000b8693          	mv	a3,s7
    9134:	000c0613          	mv	a2,s8
    9138:	00090593          	mv	a1,s2
    913c:	00048513          	mv	a0,s1
    9140:	000980e7          	jalr	s3
    9144:	ab550ae3          	beq	a0,s5,8bf8 <_printf_float+0x16c>
    9148:	04842503          	lw	a0,72(s0)
    914c:	04c42583          	lw	a1,76(s0)
    9150:	00000613          	li	a2,0
    9154:	00000693          	li	a3,0
    9158:	b88fa0ef          	jal	ra,34e0 <__eqdf2>
    915c:	04050c63          	beqz	a0,91b4 <_printf_float+0x728>
    9160:	03812683          	lw	a3,56(sp)
    9164:	001a0613          	addi	a2,s4,1
    9168:	00090593          	mv	a1,s2
    916c:	fff68693          	addi	a3,a3,-1
    9170:	00048513          	mv	a0,s1
    9174:	000980e7          	jalr	s3
    9178:	a95500e3          	beq	a0,s5,8bf8 <_printf_float+0x16c>
    917c:	000b0693          	mv	a3,s6
    9180:	05040613          	addi	a2,s0,80
    9184:	e0dff06f          	j	8f90 <_printf_float+0x504>
    9188:	00100693          	li	a3,1
    918c:	000a8613          	mv	a2,s5
    9190:	00090593          	mv	a1,s2
    9194:	00048513          	mv	a0,s1
    9198:	000980e7          	jalr	s3
    919c:	a5750ee3          	beq	a0,s7,8bf8 <_printf_float+0x16c>
    91a0:	001a0a13          	addi	s4,s4,1
    91a4:	03812783          	lw	a5,56(sp)
    91a8:	fff78793          	addi	a5,a5,-1
    91ac:	fcfa4ee3          	blt	s4,a5,9188 <_printf_float+0x6fc>
    91b0:	fcdff06f          	j	917c <_printf_float+0x6f0>
    91b4:	00000a13          	li	s4,0
    91b8:	01a40a93          	addi	s5,s0,26
    91bc:	fff00b93          	li	s7,-1
    91c0:	fe5ff06f          	j	91a4 <_printf_float+0x718>
    91c4:	00100693          	li	a3,1
    91c8:	000a0613          	mv	a2,s4
    91cc:	00090593          	mv	a1,s2
    91d0:	00048513          	mv	a0,s1
    91d4:	000980e7          	jalr	s3
    91d8:	fb9512e3          	bne	a0,s9,917c <_printf_float+0x6f0>
    91dc:	a1dff06f          	j	8bf8 <_printf_float+0x16c>
    91e0:	00100693          	li	a3,1
    91e4:	000a8613          	mv	a2,s5
    91e8:	00090593          	mv	a1,s2
    91ec:	00048513          	mv	a0,s1
    91f0:	000980e7          	jalr	s3
    91f4:	a16502e3          	beq	a0,s6,8bf8 <_printf_float+0x16c>
    91f8:	001a0a13          	addi	s4,s4,1
    91fc:	00c42783          	lw	a5,12(s0)
    9200:	03c12703          	lw	a4,60(sp)
    9204:	40e787b3          	sub	a5,a5,a4
    9208:	fcfa4ce3          	blt	s4,a5,91e0 <_printf_float+0x754>
    920c:	c4dff06f          	j	8e58 <_printf_float+0x3cc>
    9210:	00000a13          	li	s4,0
    9214:	01940a93          	addi	s5,s0,25
    9218:	fff00b13          	li	s6,-1
    921c:	fe1ff06f          	j	91fc <_printf_float+0x770>

00009220 <_printf_common>:
    9220:	fd010113          	addi	sp,sp,-48
    9224:	01412c23          	sw	s4,24(sp)
    9228:	0105a783          	lw	a5,16(a1)
    922c:	00070a13          	mv	s4,a4
    9230:	0085a703          	lw	a4,8(a1)
    9234:	02812423          	sw	s0,40(sp)
    9238:	02912223          	sw	s1,36(sp)
    923c:	01312e23          	sw	s3,28(sp)
    9240:	01512a23          	sw	s5,20(sp)
    9244:	02112623          	sw	ra,44(sp)
    9248:	03212023          	sw	s2,32(sp)
    924c:	01612823          	sw	s6,16(sp)
    9250:	01712623          	sw	s7,12(sp)
    9254:	00050993          	mv	s3,a0
    9258:	00058413          	mv	s0,a1
    925c:	00060493          	mv	s1,a2
    9260:	00068a93          	mv	s5,a3
    9264:	00e7d463          	bge	a5,a4,926c <_printf_common+0x4c>
    9268:	00070793          	mv	a5,a4
    926c:	00f4a023          	sw	a5,0(s1)
    9270:	04344703          	lbu	a4,67(s0)
    9274:	00070663          	beqz	a4,9280 <_printf_common+0x60>
    9278:	00178793          	addi	a5,a5,1
    927c:	00f4a023          	sw	a5,0(s1)
    9280:	00042783          	lw	a5,0(s0)
    9284:	0207f793          	andi	a5,a5,32
    9288:	00078863          	beqz	a5,9298 <_printf_common+0x78>
    928c:	0004a783          	lw	a5,0(s1)
    9290:	00278793          	addi	a5,a5,2
    9294:	00f4a023          	sw	a5,0(s1)
    9298:	00042903          	lw	s2,0(s0)
    929c:	00697913          	andi	s2,s2,6
    92a0:	00091e63          	bnez	s2,92bc <_printf_common+0x9c>
    92a4:	01940b13          	addi	s6,s0,25
    92a8:	fff00b93          	li	s7,-1
    92ac:	00c42783          	lw	a5,12(s0)
    92b0:	0004a703          	lw	a4,0(s1)
    92b4:	40e787b3          	sub	a5,a5,a4
    92b8:	08f94263          	blt	s2,a5,933c <_printf_common+0x11c>
    92bc:	04344783          	lbu	a5,67(s0)
    92c0:	00f036b3          	snez	a3,a5
    92c4:	00042783          	lw	a5,0(s0)
    92c8:	0207f793          	andi	a5,a5,32
    92cc:	0c079063          	bnez	a5,938c <_printf_common+0x16c>
    92d0:	04340613          	addi	a2,s0,67
    92d4:	000a8593          	mv	a1,s5
    92d8:	00098513          	mv	a0,s3
    92dc:	000a00e7          	jalr	s4
    92e0:	fff00793          	li	a5,-1
    92e4:	06f50863          	beq	a0,a5,9354 <_printf_common+0x134>
    92e8:	00042783          	lw	a5,0(s0)
    92ec:	00400613          	li	a2,4
    92f0:	0004a703          	lw	a4,0(s1)
    92f4:	0067f793          	andi	a5,a5,6
    92f8:	00c42683          	lw	a3,12(s0)
    92fc:	00000493          	li	s1,0
    9300:	00c79863          	bne	a5,a2,9310 <_printf_common+0xf0>
    9304:	40e684b3          	sub	s1,a3,a4
    9308:	0004d463          	bgez	s1,9310 <_printf_common+0xf0>
    930c:	00000493          	li	s1,0
    9310:	00842783          	lw	a5,8(s0)
    9314:	01042703          	lw	a4,16(s0)
    9318:	00f75663          	bge	a4,a5,9324 <_printf_common+0x104>
    931c:	40e787b3          	sub	a5,a5,a4
    9320:	00f484b3          	add	s1,s1,a5
    9324:	00000913          	li	s2,0
    9328:	01a40413          	addi	s0,s0,26
    932c:	fff00b13          	li	s6,-1
    9330:	09249063          	bne	s1,s2,93b0 <_printf_common+0x190>
    9334:	00000513          	li	a0,0
    9338:	0200006f          	j	9358 <_printf_common+0x138>
    933c:	00100693          	li	a3,1
    9340:	000b0613          	mv	a2,s6
    9344:	000a8593          	mv	a1,s5
    9348:	00098513          	mv	a0,s3
    934c:	000a00e7          	jalr	s4
    9350:	03751a63          	bne	a0,s7,9384 <_printf_common+0x164>
    9354:	fff00513          	li	a0,-1
    9358:	02c12083          	lw	ra,44(sp)
    935c:	02812403          	lw	s0,40(sp)
    9360:	02412483          	lw	s1,36(sp)
    9364:	02012903          	lw	s2,32(sp)
    9368:	01c12983          	lw	s3,28(sp)
    936c:	01812a03          	lw	s4,24(sp)
    9370:	01412a83          	lw	s5,20(sp)
    9374:	01012b03          	lw	s6,16(sp)
    9378:	00c12b83          	lw	s7,12(sp)
    937c:	03010113          	addi	sp,sp,48
    9380:	00008067          	ret
    9384:	00190913          	addi	s2,s2,1
    9388:	f25ff06f          	j	92ac <_printf_common+0x8c>
    938c:	00d40733          	add	a4,s0,a3
    9390:	03000613          	li	a2,48
    9394:	04c701a3          	sb	a2,67(a4)
    9398:	04544703          	lbu	a4,69(s0)
    939c:	00168793          	addi	a5,a3,1
    93a0:	00f407b3          	add	a5,s0,a5
    93a4:	00268693          	addi	a3,a3,2
    93a8:	04e781a3          	sb	a4,67(a5)
    93ac:	f25ff06f          	j	92d0 <_printf_common+0xb0>
    93b0:	00100693          	li	a3,1
    93b4:	00040613          	mv	a2,s0
    93b8:	000a8593          	mv	a1,s5
    93bc:	00098513          	mv	a0,s3
    93c0:	000a00e7          	jalr	s4
    93c4:	f96508e3          	beq	a0,s6,9354 <_printf_common+0x134>
    93c8:	00190913          	addi	s2,s2,1
    93cc:	f65ff06f          	j	9330 <_printf_common+0x110>

000093d0 <_printf_i>:
    93d0:	fd010113          	addi	sp,sp,-48
    93d4:	02812423          	sw	s0,40(sp)
    93d8:	02912223          	sw	s1,36(sp)
    93dc:	03212023          	sw	s2,32(sp)
    93e0:	01312e23          	sw	s3,28(sp)
    93e4:	02112623          	sw	ra,44(sp)
    93e8:	01412c23          	sw	s4,24(sp)
    93ec:	01512a23          	sw	s5,20(sp)
    93f0:	01612823          	sw	s6,16(sp)
    93f4:	0185c883          	lbu	a7,24(a1)
    93f8:	07800793          	li	a5,120
    93fc:	00050493          	mv	s1,a0
    9400:	00058413          	mv	s0,a1
    9404:	00060913          	mv	s2,a2
    9408:	00068993          	mv	s3,a3
    940c:	0117ee63          	bltu	a5,a7,9428 <_printf_i+0x58>
    9410:	06200793          	li	a5,98
    9414:	04358693          	addi	a3,a1,67
    9418:	0117ee63          	bltu	a5,a7,9434 <_printf_i+0x64>
    941c:	28088a63          	beqz	a7,96b0 <_printf_i+0x2e0>
    9420:	05800793          	li	a5,88
    9424:	1cf88063          	beq	a7,a5,95e4 <_printf_i+0x214>
    9428:	04240a93          	addi	s5,s0,66
    942c:	05140123          	sb	a7,66(s0)
    9430:	0440006f          	j	9474 <_printf_i+0xa4>
    9434:	f9d88793          	addi	a5,a7,-99
    9438:	0ff7f793          	andi	a5,a5,255
    943c:	01500613          	li	a2,21
    9440:	fef664e3          	bltu	a2,a5,9428 <_printf_i+0x58>
    9444:	0000e637          	lui	a2,0xe
    9448:	00279793          	slli	a5,a5,0x2
    944c:	90060613          	addi	a2,a2,-1792 # d900 <_ctype_+0x13c>
    9450:	00c787b3          	add	a5,a5,a2
    9454:	0007a783          	lw	a5,0(a5)
    9458:	00078067          	jr	a5
    945c:	00072783          	lw	a5,0(a4)
    9460:	04258a93          	addi	s5,a1,66
    9464:	00478693          	addi	a3,a5,4
    9468:	0007a783          	lw	a5,0(a5)
    946c:	00d72023          	sw	a3,0(a4)
    9470:	04f58123          	sb	a5,66(a1)
    9474:	00100793          	li	a5,1
    9478:	2740006f          	j	96ec <_printf_i+0x31c>
    947c:	0005a783          	lw	a5,0(a1)
    9480:	00072503          	lw	a0,0(a4)
    9484:	0807f613          	andi	a2,a5,128
    9488:	00450593          	addi	a1,a0,4
    948c:	02060663          	beqz	a2,94b8 <_printf_i+0xe8>
    9490:	00052783          	lw	a5,0(a0)
    9494:	00b72023          	sw	a1,0(a4)
    9498:	0000e837          	lui	a6,0xe
    949c:	0007d863          	bgez	a5,94ac <_printf_i+0xdc>
    94a0:	02d00713          	li	a4,45
    94a4:	40f007b3          	neg	a5,a5
    94a8:	04e401a3          	sb	a4,67(s0)
    94ac:	8d880813          	addi	a6,a6,-1832 # d8d8 <_ctype_+0x114>
    94b0:	00a00713          	li	a4,10
    94b4:	0680006f          	j	951c <_printf_i+0x14c>
    94b8:	0407f613          	andi	a2,a5,64
    94bc:	00052783          	lw	a5,0(a0)
    94c0:	00b72023          	sw	a1,0(a4)
    94c4:	fc060ae3          	beqz	a2,9498 <_printf_i+0xc8>
    94c8:	01079793          	slli	a5,a5,0x10
    94cc:	4107d793          	srai	a5,a5,0x10
    94d0:	fc9ff06f          	j	9498 <_printf_i+0xc8>
    94d4:	0005a603          	lw	a2,0(a1)
    94d8:	00072783          	lw	a5,0(a4)
    94dc:	08067513          	andi	a0,a2,128
    94e0:	00478593          	addi	a1,a5,4
    94e4:	00050863          	beqz	a0,94f4 <_printf_i+0x124>
    94e8:	00b72023          	sw	a1,0(a4)
    94ec:	0007a783          	lw	a5,0(a5)
    94f0:	0140006f          	j	9504 <_printf_i+0x134>
    94f4:	04067613          	andi	a2,a2,64
    94f8:	00b72023          	sw	a1,0(a4)
    94fc:	fe0608e3          	beqz	a2,94ec <_printf_i+0x11c>
    9500:	0007d783          	lhu	a5,0(a5)
    9504:	0000e837          	lui	a6,0xe
    9508:	06f00713          	li	a4,111
    950c:	8d880813          	addi	a6,a6,-1832 # d8d8 <_ctype_+0x114>
    9510:	14e88e63          	beq	a7,a4,966c <_printf_i+0x29c>
    9514:	00a00713          	li	a4,10
    9518:	040401a3          	sb	zero,67(s0)
    951c:	00442603          	lw	a2,4(s0)
    9520:	00c42423          	sw	a2,8(s0)
    9524:	00064863          	bltz	a2,9534 <_printf_i+0x164>
    9528:	00042583          	lw	a1,0(s0)
    952c:	ffb5f593          	andi	a1,a1,-5
    9530:	00b42023          	sw	a1,0(s0)
    9534:	00079663          	bnez	a5,9540 <_printf_i+0x170>
    9538:	00068a93          	mv	s5,a3
    953c:	02060463          	beqz	a2,9564 <_printf_i+0x194>
    9540:	00068a93          	mv	s5,a3
    9544:	02e7f633          	remu	a2,a5,a4
    9548:	fffa8a93          	addi	s5,s5,-1
    954c:	00c80633          	add	a2,a6,a2
    9550:	00064603          	lbu	a2,0(a2)
    9554:	00ca8023          	sb	a2,0(s5)
    9558:	00078613          	mv	a2,a5
    955c:	02e7d7b3          	divu	a5,a5,a4
    9560:	fee672e3          	bgeu	a2,a4,9544 <_printf_i+0x174>
    9564:	00800793          	li	a5,8
    9568:	02f71463          	bne	a4,a5,9590 <_printf_i+0x1c0>
    956c:	00042783          	lw	a5,0(s0)
    9570:	0017f793          	andi	a5,a5,1
    9574:	00078e63          	beqz	a5,9590 <_printf_i+0x1c0>
    9578:	00442703          	lw	a4,4(s0)
    957c:	01042783          	lw	a5,16(s0)
    9580:	00e7c863          	blt	a5,a4,9590 <_printf_i+0x1c0>
    9584:	03000793          	li	a5,48
    9588:	fefa8fa3          	sb	a5,-1(s5)
    958c:	fffa8a93          	addi	s5,s5,-1
    9590:	415686b3          	sub	a3,a3,s5
    9594:	00d42823          	sw	a3,16(s0)
    9598:	00098713          	mv	a4,s3
    959c:	00090693          	mv	a3,s2
    95a0:	00c10613          	addi	a2,sp,12
    95a4:	00040593          	mv	a1,s0
    95a8:	00048513          	mv	a0,s1
    95ac:	c75ff0ef          	jal	ra,9220 <_printf_common>
    95b0:	fff00a13          	li	s4,-1
    95b4:	15451263          	bne	a0,s4,96f8 <_printf_i+0x328>
    95b8:	fff00513          	li	a0,-1
    95bc:	02c12083          	lw	ra,44(sp)
    95c0:	02812403          	lw	s0,40(sp)
    95c4:	02412483          	lw	s1,36(sp)
    95c8:	02012903          	lw	s2,32(sp)
    95cc:	01c12983          	lw	s3,28(sp)
    95d0:	01812a03          	lw	s4,24(sp)
    95d4:	01412a83          	lw	s5,20(sp)
    95d8:	01012b03          	lw	s6,16(sp)
    95dc:	03010113          	addi	sp,sp,48
    95e0:	00008067          	ret
    95e4:	0000e837          	lui	a6,0xe
    95e8:	051582a3          	sb	a7,69(a1)
    95ec:	8d880813          	addi	a6,a6,-1832 # d8d8 <_ctype_+0x114>
    95f0:	00042603          	lw	a2,0(s0)
    95f4:	00072583          	lw	a1,0(a4)
    95f8:	08067513          	andi	a0,a2,128
    95fc:	0005a783          	lw	a5,0(a1)
    9600:	00458593          	addi	a1,a1,4
    9604:	04050863          	beqz	a0,9654 <_printf_i+0x284>
    9608:	00b72023          	sw	a1,0(a4)
    960c:	00167713          	andi	a4,a2,1
    9610:	00070663          	beqz	a4,961c <_printf_i+0x24c>
    9614:	02066613          	ori	a2,a2,32
    9618:	00c42023          	sw	a2,0(s0)
    961c:	01000713          	li	a4,16
    9620:	ee079ce3          	bnez	a5,9518 <_printf_i+0x148>
    9624:	00042603          	lw	a2,0(s0)
    9628:	fdf67613          	andi	a2,a2,-33
    962c:	00c42023          	sw	a2,0(s0)
    9630:	ee9ff06f          	j	9518 <_printf_i+0x148>
    9634:	0005a783          	lw	a5,0(a1)
    9638:	0207e793          	ori	a5,a5,32
    963c:	00f5a023          	sw	a5,0(a1)
    9640:	07800793          	li	a5,120
    9644:	0000e837          	lui	a6,0xe
    9648:	04f402a3          	sb	a5,69(s0)
    964c:	8ec80813          	addi	a6,a6,-1812 # d8ec <_ctype_+0x128>
    9650:	fa1ff06f          	j	95f0 <_printf_i+0x220>
    9654:	04067513          	andi	a0,a2,64
    9658:	00b72023          	sw	a1,0(a4)
    965c:	fa0508e3          	beqz	a0,960c <_printf_i+0x23c>
    9660:	01079793          	slli	a5,a5,0x10
    9664:	0107d793          	srli	a5,a5,0x10
    9668:	fa5ff06f          	j	960c <_printf_i+0x23c>
    966c:	00800713          	li	a4,8
    9670:	ea9ff06f          	j	9518 <_printf_i+0x148>
    9674:	0005a603          	lw	a2,0(a1)
    9678:	00072783          	lw	a5,0(a4)
    967c:	0145a583          	lw	a1,20(a1)
    9680:	08067813          	andi	a6,a2,128
    9684:	00478513          	addi	a0,a5,4
    9688:	00080a63          	beqz	a6,969c <_printf_i+0x2cc>
    968c:	00a72023          	sw	a0,0(a4)
    9690:	0007a783          	lw	a5,0(a5)
    9694:	00b7a023          	sw	a1,0(a5)
    9698:	0180006f          	j	96b0 <_printf_i+0x2e0>
    969c:	00a72023          	sw	a0,0(a4)
    96a0:	04067613          	andi	a2,a2,64
    96a4:	0007a783          	lw	a5,0(a5)
    96a8:	fe0606e3          	beqz	a2,9694 <_printf_i+0x2c4>
    96ac:	00b79023          	sh	a1,0(a5)
    96b0:	00042823          	sw	zero,16(s0)
    96b4:	00068a93          	mv	s5,a3
    96b8:	ee1ff06f          	j	9598 <_printf_i+0x1c8>
    96bc:	00072783          	lw	a5,0(a4)
    96c0:	0045a603          	lw	a2,4(a1)
    96c4:	00000593          	li	a1,0
    96c8:	00478693          	addi	a3,a5,4
    96cc:	00d72023          	sw	a3,0(a4)
    96d0:	0007aa83          	lw	s5,0(a5)
    96d4:	000a8513          	mv	a0,s5
    96d8:	0dd010ef          	jal	ra,afb4 <memchr>
    96dc:	00050663          	beqz	a0,96e8 <_printf_i+0x318>
    96e0:	41550533          	sub	a0,a0,s5
    96e4:	00a42223          	sw	a0,4(s0)
    96e8:	00442783          	lw	a5,4(s0)
    96ec:	00f42823          	sw	a5,16(s0)
    96f0:	040401a3          	sb	zero,67(s0)
    96f4:	ea5ff06f          	j	9598 <_printf_i+0x1c8>
    96f8:	01042683          	lw	a3,16(s0)
    96fc:	000a8613          	mv	a2,s5
    9700:	00090593          	mv	a1,s2
    9704:	00048513          	mv	a0,s1
    9708:	000980e7          	jalr	s3
    970c:	eb4506e3          	beq	a0,s4,95b8 <_printf_i+0x1e8>
    9710:	00042783          	lw	a5,0(s0)
    9714:	0027f793          	andi	a5,a5,2
    9718:	04079463          	bnez	a5,9760 <_printf_i+0x390>
    971c:	00c12783          	lw	a5,12(sp)
    9720:	00c42503          	lw	a0,12(s0)
    9724:	e8f55ce3          	bge	a0,a5,95bc <_printf_i+0x1ec>
    9728:	00078513          	mv	a0,a5
    972c:	e91ff06f          	j	95bc <_printf_i+0x1ec>
    9730:	00100693          	li	a3,1
    9734:	000a8613          	mv	a2,s5
    9738:	00090593          	mv	a1,s2
    973c:	00048513          	mv	a0,s1
    9740:	000980e7          	jalr	s3
    9744:	e7650ae3          	beq	a0,s6,95b8 <_printf_i+0x1e8>
    9748:	001a0a13          	addi	s4,s4,1
    974c:	00c42783          	lw	a5,12(s0)
    9750:	00c12703          	lw	a4,12(sp)
    9754:	40e787b3          	sub	a5,a5,a4
    9758:	fcfa4ce3          	blt	s4,a5,9730 <_printf_i+0x360>
    975c:	fc1ff06f          	j	971c <_printf_i+0x34c>
    9760:	00000a13          	li	s4,0
    9764:	01940a93          	addi	s5,s0,25
    9768:	fff00b13          	li	s6,-1
    976c:	fe1ff06f          	j	974c <_printf_i+0x37c>

00009770 <iprintf>:
    9770:	fb010113          	addi	sp,sp,-80
    9774:	04f12223          	sw	a5,68(sp)
    9778:	002037b7          	lui	a5,0x203
    977c:	02812423          	sw	s0,40(sp)
    9780:	00050413          	mv	s0,a0
    9784:	76c7a503          	lw	a0,1900(a5) # 20376c <_impure_ptr>
    9788:	02112623          	sw	ra,44(sp)
    978c:	02b12a23          	sw	a1,52(sp)
    9790:	02c12c23          	sw	a2,56(sp)
    9794:	02d12e23          	sw	a3,60(sp)
    9798:	04e12023          	sw	a4,64(sp)
    979c:	05012423          	sw	a6,72(sp)
    97a0:	05112623          	sw	a7,76(sp)
    97a4:	00050c63          	beqz	a0,97bc <iprintf+0x4c>
    97a8:	01852783          	lw	a5,24(a0)
    97ac:	00079863          	bnez	a5,97bc <iprintf+0x4c>
    97b0:	00a12623          	sw	a0,12(sp)
    97b4:	58c010ef          	jal	ra,ad40 <__sinit>
    97b8:	00c12503          	lw	a0,12(sp)
    97bc:	00852583          	lw	a1,8(a0)
    97c0:	03410693          	addi	a3,sp,52
    97c4:	00040613          	mv	a2,s0
    97c8:	00d12e23          	sw	a3,28(sp)
    97cc:	5c0020ef          	jal	ra,bd8c <_vfiprintf_r>
    97d0:	02c12083          	lw	ra,44(sp)
    97d4:	02812403          	lw	s0,40(sp)
    97d8:	05010113          	addi	sp,sp,80
    97dc:	00008067          	ret

000097e0 <_sbrk_r>:
    97e0:	ff010113          	addi	sp,sp,-16
    97e4:	00812423          	sw	s0,8(sp)
    97e8:	00912223          	sw	s1,4(sp)
    97ec:	00050413          	mv	s0,a0
    97f0:	0000e4b7          	lui	s1,0xe
    97f4:	00058513          	mv	a0,a1
    97f8:	00112623          	sw	ra,12(sp)
    97fc:	b604a823          	sw	zero,-1168(s1) # db70 <errno>
    9800:	c34fc0ef          	jal	ra,5c34 <_sbrk>
    9804:	fff00793          	li	a5,-1
    9808:	00f51863          	bne	a0,a5,9818 <_sbrk_r+0x38>
    980c:	b704a783          	lw	a5,-1168(s1)
    9810:	00078463          	beqz	a5,9818 <_sbrk_r+0x38>
    9814:	00f42023          	sw	a5,0(s0)
    9818:	00c12083          	lw	ra,12(sp)
    981c:	00812403          	lw	s0,8(sp)
    9820:	00412483          	lw	s1,4(sp)
    9824:	01010113          	addi	sp,sp,16
    9828:	00008067          	ret

0000982c <strlen>:
    982c:	00050793          	mv	a5,a0
    9830:	0007c703          	lbu	a4,0(a5)
    9834:	00178793          	addi	a5,a5,1
    9838:	fe071ce3          	bnez	a4,9830 <strlen+0x4>
    983c:	40a78533          	sub	a0,a5,a0
    9840:	fff50513          	addi	a0,a0,-1
    9844:	00008067          	ret

00009848 <strnlen>:
    9848:	00b505b3          	add	a1,a0,a1
    984c:	00050793          	mv	a5,a0
    9850:	00b78663          	beq	a5,a1,985c <strnlen+0x14>
    9854:	0007c703          	lbu	a4,0(a5)
    9858:	00071663          	bnez	a4,9864 <strnlen+0x1c>
    985c:	40a78533          	sub	a0,a5,a0
    9860:	00008067          	ret
    9864:	00178793          	addi	a5,a5,1
    9868:	fe9ff06f          	j	9850 <strnlen+0x8>

0000986c <quorem>:
    986c:	fe010113          	addi	sp,sp,-32
    9870:	00812c23          	sw	s0,24(sp)
    9874:	01052783          	lw	a5,16(a0)
    9878:	0105a403          	lw	s0,16(a1)
    987c:	00112e23          	sw	ra,28(sp)
    9880:	00912a23          	sw	s1,20(sp)
    9884:	01212823          	sw	s2,16(sp)
    9888:	01312623          	sw	s3,12(sp)
    988c:	01412423          	sw	s4,8(sp)
    9890:	01512223          	sw	s5,4(sp)
    9894:	1887ce63          	blt	a5,s0,9a30 <quorem+0x1c4>
    9898:	fff40413          	addi	s0,s0,-1
    989c:	00241613          	slli	a2,s0,0x2
    98a0:	01458a13          	addi	s4,a1,20
    98a4:	00ca0ab3          	add	s5,s4,a2
    98a8:	01450993          	addi	s3,a0,20
    98ac:	000aa783          	lw	a5,0(s5)
    98b0:	00c98633          	add	a2,s3,a2
    98b4:	00062703          	lw	a4,0(a2)
    98b8:	00178793          	addi	a5,a5,1
    98bc:	00050913          	mv	s2,a0
    98c0:	02f754b3          	divu	s1,a4,a5
    98c4:	08f76863          	bltu	a4,a5,9954 <quorem+0xe8>
    98c8:	00010537          	lui	a0,0x10
    98cc:	000a0813          	mv	a6,s4
    98d0:	00098893          	mv	a7,s3
    98d4:	00000313          	li	t1,0
    98d8:	00000e13          	li	t3,0
    98dc:	fff50513          	addi	a0,a0,-1 # ffff <z_interrupt_stacks+0x6bf>
    98e0:	00082683          	lw	a3,0(a6)
    98e4:	00488893          	addi	a7,a7,4
    98e8:	00480813          	addi	a6,a6,4
    98ec:	00a6f7b3          	and	a5,a3,a0
    98f0:	0106d693          	srli	a3,a3,0x10
    98f4:	029787b3          	mul	a5,a5,s1
    98f8:	029686b3          	mul	a3,a3,s1
    98fc:	006787b3          	add	a5,a5,t1
    9900:	0107d713          	srli	a4,a5,0x10
    9904:	00a7f7b3          	and	a5,a5,a0
    9908:	40fe07b3          	sub	a5,t3,a5
    990c:	00e686b3          	add	a3,a3,a4
    9910:	ffc8a703          	lw	a4,-4(a7)
    9914:	0106d313          	srli	t1,a3,0x10
    9918:	00a6f6b3          	and	a3,a3,a0
    991c:	00a77e33          	and	t3,a4,a0
    9920:	01c787b3          	add	a5,a5,t3
    9924:	01075713          	srli	a4,a4,0x10
    9928:	40d70733          	sub	a4,a4,a3
    992c:	4107d693          	srai	a3,a5,0x10
    9930:	00d70733          	add	a4,a4,a3
    9934:	41075e13          	srai	t3,a4,0x10
    9938:	00a7f7b3          	and	a5,a5,a0
    993c:	01071713          	slli	a4,a4,0x10
    9940:	00f767b3          	or	a5,a4,a5
    9944:	fef8ae23          	sw	a5,-4(a7)
    9948:	f90afce3          	bgeu	s5,a6,98e0 <quorem+0x74>
    994c:	00062783          	lw	a5,0(a2)
    9950:	0a078a63          	beqz	a5,9a04 <quorem+0x198>
    9954:	00090513          	mv	a0,s2
    9958:	795010ef          	jal	ra,b8ec <__mcmp>
    995c:	06054a63          	bltz	a0,99d0 <quorem+0x164>
    9960:	000106b7          	lui	a3,0x10
    9964:	00148493          	addi	s1,s1,1
    9968:	00098613          	mv	a2,s3
    996c:	00000593          	li	a1,0
    9970:	fff68693          	addi	a3,a3,-1 # ffff <z_interrupt_stacks+0x6bf>
    9974:	000a2503          	lw	a0,0(s4)
    9978:	00062783          	lw	a5,0(a2)
    997c:	00460613          	addi	a2,a2,4
    9980:	00d57733          	and	a4,a0,a3
    9984:	40e585b3          	sub	a1,a1,a4
    9988:	00d7f733          	and	a4,a5,a3
    998c:	00e58733          	add	a4,a1,a4
    9990:	0107d793          	srli	a5,a5,0x10
    9994:	01055513          	srli	a0,a0,0x10
    9998:	41075593          	srai	a1,a4,0x10
    999c:	40a787b3          	sub	a5,a5,a0
    99a0:	00b787b3          	add	a5,a5,a1
    99a4:	4107d593          	srai	a1,a5,0x10
    99a8:	00d77733          	and	a4,a4,a3
    99ac:	01079793          	slli	a5,a5,0x10
    99b0:	00e7e7b3          	or	a5,a5,a4
    99b4:	004a0a13          	addi	s4,s4,4
    99b8:	fef62e23          	sw	a5,-4(a2)
    99bc:	fb4afce3          	bgeu	s5,s4,9974 <quorem+0x108>
    99c0:	00241793          	slli	a5,s0,0x2
    99c4:	00f987b3          	add	a5,s3,a5
    99c8:	0007a703          	lw	a4,0(a5)
    99cc:	04070a63          	beqz	a4,9a20 <quorem+0x1b4>
    99d0:	00048513          	mv	a0,s1
    99d4:	01c12083          	lw	ra,28(sp)
    99d8:	01812403          	lw	s0,24(sp)
    99dc:	01412483          	lw	s1,20(sp)
    99e0:	01012903          	lw	s2,16(sp)
    99e4:	00c12983          	lw	s3,12(sp)
    99e8:	00812a03          	lw	s4,8(sp)
    99ec:	00412a83          	lw	s5,4(sp)
    99f0:	02010113          	addi	sp,sp,32
    99f4:	00008067          	ret
    99f8:	00062783          	lw	a5,0(a2)
    99fc:	00079863          	bnez	a5,9a0c <quorem+0x1a0>
    9a00:	fff40413          	addi	s0,s0,-1
    9a04:	ffc60613          	addi	a2,a2,-4
    9a08:	fec9e8e3          	bltu	s3,a2,99f8 <quorem+0x18c>
    9a0c:	00892823          	sw	s0,16(s2)
    9a10:	f45ff06f          	j	9954 <quorem+0xe8>
    9a14:	0007a703          	lw	a4,0(a5)
    9a18:	00071863          	bnez	a4,9a28 <quorem+0x1bc>
    9a1c:	fff40413          	addi	s0,s0,-1
    9a20:	ffc78793          	addi	a5,a5,-4
    9a24:	fef9e8e3          	bltu	s3,a5,9a14 <quorem+0x1a8>
    9a28:	00892823          	sw	s0,16(s2)
    9a2c:	fa5ff06f          	j	99d0 <quorem+0x164>
    9a30:	00000513          	li	a0,0
    9a34:	fa1ff06f          	j	99d4 <quorem+0x168>

00009a38 <_dtoa_r>:
    9a38:	f5010113          	addi	sp,sp,-176
    9a3c:	02f12c23          	sw	a5,56(sp)
    9a40:	02452783          	lw	a5,36(a0)
    9a44:	0a812423          	sw	s0,168(sp)
    9a48:	0a912223          	sw	s1,164(sp)
    9a4c:	0b212023          	sw	s2,160(sp)
    9a50:	09312e23          	sw	s3,156(sp)
    9a54:	09512a23          	sw	s5,148(sp)
    9a58:	09612823          	sw	s6,144(sp)
    9a5c:	0a112623          	sw	ra,172(sp)
    9a60:	09412c23          	sw	s4,152(sp)
    9a64:	09712623          	sw	s7,140(sp)
    9a68:	09812423          	sw	s8,136(sp)
    9a6c:	09912223          	sw	s9,132(sp)
    9a70:	09a12023          	sw	s10,128(sp)
    9a74:	07b12e23          	sw	s11,124(sp)
    9a78:	00d12a23          	sw	a3,20(sp)
    9a7c:	02e12023          	sw	a4,32(sp)
    9a80:	03112223          	sw	a7,36(sp)
    9a84:	00050493          	mv	s1,a0
    9a88:	00058a93          	mv	s5,a1
    9a8c:	00060413          	mv	s0,a2
    9a90:	00080913          	mv	s2,a6
    9a94:	00058993          	mv	s3,a1
    9a98:	00060b13          	mv	s6,a2
    9a9c:	04079063          	bnez	a5,9adc <_dtoa_r+0xa4>
    9aa0:	01000513          	li	a0,16
    9aa4:	b65fe0ef          	jal	ra,8608 <malloc>
    9aa8:	02a4a223          	sw	a0,36(s1)
    9aac:	02051063          	bnez	a0,9acc <_dtoa_r+0x94>
    9ab0:	0000e6b7          	lui	a3,0xe
    9ab4:	96868693          	addi	a3,a3,-1688 # d968 <_ctype_+0x1a4>
    9ab8:	00000613          	li	a2,0
    9abc:	0ea00593          	li	a1,234
    9ac0:	0000e537          	lui	a0,0xe
    9ac4:	98050513          	addi	a0,a0,-1664 # d980 <_ctype_+0x1bc>
    9ac8:	331020ef          	jal	ra,c5f8 <__assert_func>
    9acc:	00052223          	sw	zero,4(a0)
    9ad0:	00052423          	sw	zero,8(a0)
    9ad4:	00052023          	sw	zero,0(a0)
    9ad8:	00052623          	sw	zero,12(a0)
    9adc:	0244a783          	lw	a5,36(s1)
    9ae0:	0007a583          	lw	a1,0(a5)
    9ae4:	02058463          	beqz	a1,9b0c <_dtoa_r+0xd4>
    9ae8:	0047a703          	lw	a4,4(a5)
    9aec:	00100793          	li	a5,1
    9af0:	00048513          	mv	a0,s1
    9af4:	00e797b3          	sll	a5,a5,a4
    9af8:	00f5a423          	sw	a5,8(a1)
    9afc:	00e5a223          	sw	a4,4(a1)
    9b00:	5f0010ef          	jal	ra,b0f0 <_Bfree>
    9b04:	0244a783          	lw	a5,36(s1)
    9b08:	0007a023          	sw	zero,0(a5)
    9b0c:	04045c63          	bgez	s0,9b64 <_dtoa_r+0x12c>
    9b10:	00100793          	li	a5,1
    9b14:	00141413          	slli	s0,s0,0x1
    9b18:	00f92023          	sw	a5,0(s2)
    9b1c:	00145b13          	srli	s6,s0,0x1
    9b20:	7ff007b7          	lui	a5,0x7ff00
    9b24:	00fb7733          	and	a4,s6,a5
    9b28:	0af71863          	bne	a4,a5,9bd8 <_dtoa_r+0x1a0>
    9b2c:	03812703          	lw	a4,56(sp)
    9b30:	000027b7          	lui	a5,0x2
    9b34:	00cb1b13          	slli	s6,s6,0xc
    9b38:	70f78793          	addi	a5,a5,1807 # 270f <CONFIG_SRAM_SIZE+0x70f>
    9b3c:	00cb5b13          	srli	s6,s6,0xc
    9b40:	00f72023          	sw	a5,0(a4)
    9b44:	015b6ab3          	or	s5,s6,s5
    9b48:	000a9463          	bnez	s5,9b50 <_dtoa_r+0x118>
    9b4c:	0540106f          	j	aba0 <_dtoa_r+0x1168>
    9b50:	02412783          	lw	a5,36(sp)
    9b54:	0000e537          	lui	a0,0xe
    9b58:	06079663          	bnez	a5,9bc4 <_dtoa_r+0x18c>
    9b5c:	96450793          	addi	a5,a0,-1692 # d964 <_ctype_+0x1a0>
    9b60:	0540106f          	j	abb4 <_dtoa_r+0x117c>
    9b64:	00092023          	sw	zero,0(s2)
    9b68:	fb9ff06f          	j	9b20 <_dtoa_r+0xe8>
    9b6c:	95850793          	addi	a5,a0,-1704
    9b70:	00f12823          	sw	a5,16(sp)
    9b74:	0000e7b7          	lui	a5,0xe
    9b78:	96078793          	addi	a5,a5,-1696 # d960 <_ctype_+0x19c>
    9b7c:	02412703          	lw	a4,36(sp)
    9b80:	00f72023          	sw	a5,0(a4)
    9b84:	0ac12083          	lw	ra,172(sp)
    9b88:	0a812403          	lw	s0,168(sp)
    9b8c:	01012503          	lw	a0,16(sp)
    9b90:	0a412483          	lw	s1,164(sp)
    9b94:	0a012903          	lw	s2,160(sp)
    9b98:	09c12983          	lw	s3,156(sp)
    9b9c:	09812a03          	lw	s4,152(sp)
    9ba0:	09412a83          	lw	s5,148(sp)
    9ba4:	09012b03          	lw	s6,144(sp)
    9ba8:	08c12b83          	lw	s7,140(sp)
    9bac:	08812c03          	lw	s8,136(sp)
    9bb0:	08412c83          	lw	s9,132(sp)
    9bb4:	08012d03          	lw	s10,128(sp)
    9bb8:	07c12d83          	lw	s11,124(sp)
    9bbc:	0b010113          	addi	sp,sp,176
    9bc0:	00008067          	ret
    9bc4:	96450793          	addi	a5,a0,-1692
    9bc8:	00f12823          	sw	a5,16(sp)
    9bcc:	0000e7b7          	lui	a5,0xe
    9bd0:	96778793          	addi	a5,a5,-1689 # d967 <_ctype_+0x1a3>
    9bd4:	fa9ff06f          	j	9b7c <_dtoa_r+0x144>
    9bd8:	00000613          	li	a2,0
    9bdc:	00000693          	li	a3,0
    9be0:	000a8513          	mv	a0,s5
    9be4:	000b0593          	mv	a1,s6
    9be8:	03512623          	sw	s5,44(sp)
    9bec:	03612823          	sw	s6,48(sp)
    9bf0:	8f1f90ef          	jal	ra,34e0 <__eqdf2>
    9bf4:	02051c63          	bnez	a0,9c2c <_dtoa_r+0x1f4>
    9bf8:	03812703          	lw	a4,56(sp)
    9bfc:	00100793          	li	a5,1
    9c00:	00f72023          	sw	a5,0(a4)
    9c04:	0000d737          	lui	a4,0xd
    9c08:	75470793          	addi	a5,a4,1876 # d754 <gpio_veerwolf_driver_api+0x28>
    9c0c:	00f12823          	sw	a5,16(sp)
    9c10:	02412783          	lw	a5,36(sp)
    9c14:	f60788e3          	beqz	a5,9b84 <_dtoa_r+0x14c>
    9c18:	02412683          	lw	a3,36(sp)
    9c1c:	0000d7b7          	lui	a5,0xd
    9c20:	75578793          	addi	a5,a5,1877 # d755 <gpio_veerwolf_driver_api+0x29>
    9c24:	00f6a023          	sw	a5,0(a3)
    9c28:	f5dff06f          	j	9b84 <_dtoa_r+0x14c>
    9c2c:	06810713          	addi	a4,sp,104
    9c30:	06c10693          	addi	a3,sp,108
    9c34:	000b0613          	mv	a2,s6
    9c38:	000a8593          	mv	a1,s5
    9c3c:	00048513          	mv	a0,s1
    9c40:	6fd010ef          	jal	ra,bb3c <__d2b>
    9c44:	014b5913          	srli	s2,s6,0x14
    9c48:	00a12623          	sw	a0,12(sp)
    9c4c:	7ff97913          	andi	s2,s2,2047
    9c50:	06812a03          	lw	s4,104(sp)
    9c54:	1a090063          	beqz	s2,9df4 <_dtoa_r+0x3bc>
    9c58:	03012783          	lw	a5,48(sp)
    9c5c:	02c12503          	lw	a0,44(sp)
    9c60:	c0190913          	addi	s2,s2,-1023
    9c64:	00c79593          	slli	a1,a5,0xc
    9c68:	00c5d593          	srli	a1,a1,0xc
    9c6c:	3ff007b7          	lui	a5,0x3ff00
    9c70:	00f5e5b3          	or	a1,a1,a5
    9c74:	04012c23          	sw	zero,88(sp)
    9c78:	0000d7b7          	lui	a5,0xd
    9c7c:	1707a603          	lw	a2,368(a5) # d170 <__device_handles_end+0x84>
    9c80:	1747a683          	lw	a3,372(a5)
    9c84:	b70f80ef          	jal	ra,1ff4 <__subdf3>
    9c88:	0000d7b7          	lui	a5,0xd
    9c8c:	1787a603          	lw	a2,376(a5) # d178 <__device_handles_end+0x8c>
    9c90:	17c7a683          	lw	a3,380(a5)
    9c94:	d99f70ef          	jal	ra,1a2c <__muldf3>
    9c98:	0000d7b7          	lui	a5,0xd
    9c9c:	1807a603          	lw	a2,384(a5) # d180 <__device_handles_end+0x94>
    9ca0:	1847a683          	lw	a3,388(a5)
    9ca4:	ed1f60ef          	jal	ra,b74 <__adddf3>
    9ca8:	00050b93          	mv	s7,a0
    9cac:	00090513          	mv	a0,s2
    9cb0:	00058a93          	mv	s5,a1
    9cb4:	b4df90ef          	jal	ra,3800 <__floatsidf>
    9cb8:	0000d7b7          	lui	a5,0xd
    9cbc:	1887a603          	lw	a2,392(a5) # d188 <__device_handles_end+0x9c>
    9cc0:	18c7a683          	lw	a3,396(a5)
    9cc4:	d69f70ef          	jal	ra,1a2c <__muldf3>
    9cc8:	00050613          	mv	a2,a0
    9ccc:	00058693          	mv	a3,a1
    9cd0:	000b8513          	mv	a0,s7
    9cd4:	000a8593          	mv	a1,s5
    9cd8:	e9df60ef          	jal	ra,b74 <__adddf3>
    9cdc:	00050b93          	mv	s7,a0
    9ce0:	00058a93          	mv	s5,a1
    9ce4:	a9df90ef          	jal	ra,3780 <__fixdfsi>
    9ce8:	00050413          	mv	s0,a0
    9cec:	00000613          	li	a2,0
    9cf0:	00000693          	li	a3,0
    9cf4:	000b8513          	mv	a0,s7
    9cf8:	000a8593          	mv	a1,s5
    9cfc:	955f90ef          	jal	ra,3650 <__ledf2>
    9d00:	02055063          	bgez	a0,9d20 <_dtoa_r+0x2e8>
    9d04:	00040513          	mv	a0,s0
    9d08:	af9f90ef          	jal	ra,3800 <__floatsidf>
    9d0c:	000b8613          	mv	a2,s7
    9d10:	000a8693          	mv	a3,s5
    9d14:	fccf90ef          	jal	ra,34e0 <__eqdf2>
    9d18:	00050463          	beqz	a0,9d20 <_dtoa_r+0x2e8>
    9d1c:	fff40413          	addi	s0,s0,-1
    9d20:	00100713          	li	a4,1
    9d24:	01600793          	li	a5,22
    9d28:	02e12a23          	sw	a4,52(sp)
    9d2c:	0287ea63          	bltu	a5,s0,9d60 <_dtoa_r+0x328>
    9d30:	0000d737          	lui	a4,0xd
    9d34:	00341793          	slli	a5,s0,0x3
    9d38:	3d070713          	addi	a4,a4,976 # d3d0 <__mprec_tens>
    9d3c:	00e787b3          	add	a5,a5,a4
    9d40:	0007a603          	lw	a2,0(a5)
    9d44:	0047a683          	lw	a3,4(a5)
    9d48:	02c12503          	lw	a0,44(sp)
    9d4c:	03012583          	lw	a1,48(sp)
    9d50:	901f90ef          	jal	ra,3650 <__ledf2>
    9d54:	00055463          	bgez	a0,9d5c <_dtoa_r+0x324>
    9d58:	fff40413          	addi	s0,s0,-1
    9d5c:	02012a23          	sw	zero,52(sp)
    9d60:	412a0933          	sub	s2,s4,s2
    9d64:	fff90c13          	addi	s8,s2,-1
    9d68:	00000b93          	li	s7,0
    9d6c:	000c5863          	bgez	s8,9d7c <_dtoa_r+0x344>
    9d70:	00100b93          	li	s7,1
    9d74:	412b8bb3          	sub	s7,s7,s2
    9d78:	00000c13          	li	s8,0
    9d7c:	0c044663          	bltz	s0,9e48 <_dtoa_r+0x410>
    9d80:	008c0c33          	add	s8,s8,s0
    9d84:	02812423          	sw	s0,40(sp)
    9d88:	00000c93          	li	s9,0
    9d8c:	01412703          	lw	a4,20(sp)
    9d90:	00900793          	li	a5,9
    9d94:	14e7e863          	bltu	a5,a4,9ee4 <_dtoa_r+0x4ac>
    9d98:	00500793          	li	a5,5
    9d9c:	00100913          	li	s2,1
    9da0:	00e7d863          	bge	a5,a4,9db0 <_dtoa_r+0x378>
    9da4:	ffc70793          	addi	a5,a4,-4
    9da8:	00f12a23          	sw	a5,20(sp)
    9dac:	00000913          	li	s2,0
    9db0:	01412703          	lw	a4,20(sp)
    9db4:	00400793          	li	a5,4
    9db8:	0af70063          	beq	a4,a5,9e58 <_dtoa_r+0x420>
    9dbc:	00500793          	li	a5,5
    9dc0:	10f70063          	beq	a4,a5,9ec0 <_dtoa_r+0x488>
    9dc4:	00200793          	li	a5,2
    9dc8:	0ef70863          	beq	a4,a5,9eb8 <_dtoa_r+0x480>
    9dcc:	00300793          	li	a5,3
    9dd0:	00012e23          	sw	zero,28(sp)
    9dd4:	0ef70a63          	beq	a4,a5,9ec8 <_dtoa_r+0x490>
    9dd8:	00100793          	li	a5,1
    9ddc:	00f12e23          	sw	a5,28(sp)
    9de0:	fff00d93          	li	s11,-1
    9de4:	fff00d13          	li	s10,-1
    9de8:	01200793          	li	a5,18
    9dec:	02012023          	sw	zero,32(sp)
    9df0:	08c0006f          	j	9e7c <_dtoa_r+0x444>
    9df4:	06c12903          	lw	s2,108(sp)
    9df8:	02000793          	li	a5,32
    9dfc:	012a0933          	add	s2,s4,s2
    9e00:	43290593          	addi	a1,s2,1074
    9e04:	02b7dc63          	bge	a5,a1,9e3c <_dtoa_r+0x404>
    9e08:	04000513          	li	a0,64
    9e0c:	40b50533          	sub	a0,a0,a1
    9e10:	41290593          	addi	a1,s2,1042
    9e14:	00ab1533          	sll	a0,s6,a0
    9e18:	00badab3          	srl	s5,s5,a1
    9e1c:	01556533          	or	a0,a0,s5
    9e20:	9c1f80ef          	jal	ra,27e0 <__floatunsidf>
    9e24:	fe1007b7          	lui	a5,0xfe100
    9e28:	00b785b3          	add	a1,a5,a1
    9e2c:	00100793          	li	a5,1
    9e30:	fff90913          	addi	s2,s2,-1
    9e34:	04f12c23          	sw	a5,88(sp)
    9e38:	e41ff06f          	j	9c78 <_dtoa_r+0x240>
    9e3c:	40b78533          	sub	a0,a5,a1
    9e40:	00aa9533          	sll	a0,s5,a0
    9e44:	fddff06f          	j	9e20 <_dtoa_r+0x3e8>
    9e48:	408b8bb3          	sub	s7,s7,s0
    9e4c:	40800cb3          	neg	s9,s0
    9e50:	02012423          	sw	zero,40(sp)
    9e54:	f39ff06f          	j	9d8c <_dtoa_r+0x354>
    9e58:	00100793          	li	a5,1
    9e5c:	00f12e23          	sw	a5,28(sp)
    9e60:	02012783          	lw	a5,32(sp)
    9e64:	08f04663          	bgtz	a5,9ef0 <_dtoa_r+0x4b8>
    9e68:	00100713          	li	a4,1
    9e6c:	00100d93          	li	s11,1
    9e70:	00100d13          	li	s10,1
    9e74:	00100793          	li	a5,1
    9e78:	02e12023          	sw	a4,32(sp)
    9e7c:	0244a683          	lw	a3,36(s1)
    9e80:	00400713          	li	a4,4
    9e84:	0006a223          	sw	zero,4(a3)
    9e88:	01470613          	addi	a2,a4,20
    9e8c:	0046a583          	lw	a1,4(a3)
    9e90:	06c7f863          	bgeu	a5,a2,9f00 <_dtoa_r+0x4c8>
    9e94:	00048513          	mv	a0,s1
    9e98:	158010ef          	jal	ra,aff0 <_Balloc>
    9e9c:	00a12823          	sw	a0,16(sp)
    9ea0:	06051863          	bnez	a0,9f10 <_dtoa_r+0x4d8>
    9ea4:	0000e6b7          	lui	a3,0xe
    9ea8:	9e468693          	addi	a3,a3,-1564 # d9e4 <_ctype_+0x220>
    9eac:	00000613          	li	a2,0
    9eb0:	1aa00593          	li	a1,426
    9eb4:	c0dff06f          	j	9ac0 <_dtoa_r+0x88>
    9eb8:	00012e23          	sw	zero,28(sp)
    9ebc:	fa5ff06f          	j	9e60 <_dtoa_r+0x428>
    9ec0:	00100793          	li	a5,1
    9ec4:	00f12e23          	sw	a5,28(sp)
    9ec8:	02012783          	lw	a5,32(sp)
    9ecc:	00f40db3          	add	s11,s0,a5
    9ed0:	001d8d13          	addi	s10,s11,1
    9ed4:	000d0793          	mv	a5,s10
    9ed8:	fba042e3          	bgtz	s10,9e7c <_dtoa_r+0x444>
    9edc:	00100793          	li	a5,1
    9ee0:	f9dff06f          	j	9e7c <_dtoa_r+0x444>
    9ee4:	00100913          	li	s2,1
    9ee8:	00012a23          	sw	zero,20(sp)
    9eec:	eedff06f          	j	9dd8 <_dtoa_r+0x3a0>
    9ef0:	02012d83          	lw	s11,32(sp)
    9ef4:	000d8d13          	mv	s10,s11
    9ef8:	000d8793          	mv	a5,s11
    9efc:	f81ff06f          	j	9e7c <_dtoa_r+0x444>
    9f00:	00158593          	addi	a1,a1,1
    9f04:	00b6a223          	sw	a1,4(a3)
    9f08:	00171713          	slli	a4,a4,0x1
    9f0c:	f7dff06f          	j	9e88 <_dtoa_r+0x450>
    9f10:	0244a783          	lw	a5,36(s1)
    9f14:	01012703          	lw	a4,16(sp)
    9f18:	00e7a023          	sw	a4,0(a5) # fe100000 <CONFIG_SYSTEM_WORKQUEUE_PRIORITY+0xfe100001>
    9f1c:	00e00793          	li	a5,14
    9f20:	19a7ea63          	bltu	a5,s10,a0b4 <_dtoa_r+0x67c>
    9f24:	18090863          	beqz	s2,a0b4 <_dtoa_r+0x67c>
    9f28:	24805263          	blez	s0,a16c <_dtoa_r+0x734>
    9f2c:	00f47793          	andi	a5,s0,15
    9f30:	0000d737          	lui	a4,0xd
    9f34:	3d070713          	addi	a4,a4,976 # d3d0 <__mprec_tens>
    9f38:	00379793          	slli	a5,a5,0x3
    9f3c:	40445a93          	srai	s5,s0,0x4
    9f40:	00e787b3          	add	a5,a5,a4
    9f44:	0000d937          	lui	s2,0xd
    9f48:	010af693          	andi	a3,s5,16
    9f4c:	0007a703          	lw	a4,0(a5)
    9f50:	3a890913          	addi	s2,s2,936 # d3a8 <__mprec_bigtens>
    9f54:	0047a783          	lw	a5,4(a5)
    9f58:	00200a13          	li	s4,2
    9f5c:	02068c63          	beqz	a3,9f94 <_dtoa_r+0x55c>
    9f60:	02092603          	lw	a2,32(s2)
    9f64:	02492683          	lw	a3,36(s2)
    9f68:	02c12503          	lw	a0,44(sp)
    9f6c:	03012583          	lw	a1,48(sp)
    9f70:	02f12e23          	sw	a5,60(sp)
    9f74:	00e12c23          	sw	a4,24(sp)
    9f78:	bd4f70ef          	jal	ra,134c <__divdf3>
    9f7c:	03c12783          	lw	a5,60(sp)
    9f80:	01812703          	lw	a4,24(sp)
    9f84:	00fafa93          	andi	s5,s5,15
    9f88:	00050993          	mv	s3,a0
    9f8c:	00058b13          	mv	s6,a1
    9f90:	00300a13          	li	s4,3
    9f94:	1a0a9263          	bnez	s5,a138 <_dtoa_r+0x700>
    9f98:	00098513          	mv	a0,s3
    9f9c:	00070613          	mv	a2,a4
    9fa0:	00078693          	mv	a3,a5
    9fa4:	000b0593          	mv	a1,s6
    9fa8:	ba4f70ef          	jal	ra,134c <__divdf3>
    9fac:	00050993          	mv	s3,a0
    9fb0:	00058b13          	mv	s6,a1
    9fb4:	03412783          	lw	a5,52(sp)
    9fb8:	24078263          	beqz	a5,a1fc <_dtoa_r+0x7c4>
    9fbc:	0000d7b7          	lui	a5,0xd
    9fc0:	1287a603          	lw	a2,296(a5) # d128 <__device_handles_end+0x3c>
    9fc4:	12c7a683          	lw	a3,300(a5)
    9fc8:	00098513          	mv	a0,s3
    9fcc:	000b0593          	mv	a1,s6
    9fd0:	e80f90ef          	jal	ra,3650 <__ledf2>
    9fd4:	22055463          	bgez	a0,a1fc <_dtoa_r+0x7c4>
    9fd8:	220d0863          	beqz	s10,a208 <_dtoa_r+0x7d0>
    9fdc:	0db05863          	blez	s11,a0ac <_dtoa_r+0x674>
    9fe0:	fff40793          	addi	a5,s0,-1
    9fe4:	00f12c23          	sw	a5,24(sp)
    9fe8:	0000d7b7          	lui	a5,0xd
    9fec:	1907a603          	lw	a2,400(a5) # d190 <__device_handles_end+0xa4>
    9ff0:	1947a683          	lw	a3,404(a5)
    9ff4:	00098513          	mv	a0,s3
    9ff8:	000b0593          	mv	a1,s6
    9ffc:	a31f70ef          	jal	ra,1a2c <__muldf3>
    a000:	00050993          	mv	s3,a0
    a004:	00058b13          	mv	s6,a1
    a008:	001a0a13          	addi	s4,s4,1
    a00c:	000d8713          	mv	a4,s11
    a010:	000a0513          	mv	a0,s4
    a014:	04e12423          	sw	a4,72(sp)
    a018:	03612e23          	sw	s6,60(sp)
    a01c:	05312023          	sw	s3,64(sp)
    a020:	fe0f90ef          	jal	ra,3800 <__floatsidf>
    a024:	000b0693          	mv	a3,s6
    a028:	00098613          	mv	a2,s3
    a02c:	a01f70ef          	jal	ra,1a2c <__muldf3>
    a030:	0000d6b7          	lui	a3,0xd
    a034:	1986a603          	lw	a2,408(a3) # d198 <__device_handles_end+0xac>
    a038:	19c6a683          	lw	a3,412(a3)
    a03c:	000b0913          	mv	s2,s6
    a040:	00098a93          	mv	s5,s3
    a044:	b31f60ef          	jal	ra,b74 <__adddf3>
    a048:	04812703          	lw	a4,72(sp)
    a04c:	fcc008b7          	lui	a7,0xfcc00
    a050:	00050b13          	mv	s6,a0
    a054:	00b88a33          	add	s4,a7,a1
    a058:	1a071e63          	bnez	a4,a214 <_dtoa_r+0x7dc>
    a05c:	0000d737          	lui	a4,0xd
    a060:	1a072603          	lw	a2,416(a4) # d1a0 <__device_handles_end+0xb4>
    a064:	1a472683          	lw	a3,420(a4)
    a068:	00098513          	mv	a0,s3
    a06c:	00090593          	mv	a1,s2
    a070:	f85f70ef          	jal	ra,1ff4 <__subdf3>
    a074:	000b0613          	mv	a2,s6
    a078:	000a0693          	mv	a3,s4
    a07c:	00050993          	mv	s3,a0
    a080:	00058913          	mv	s2,a1
    a084:	ce8f90ef          	jal	ra,356c <__gedf2>
    a088:	06a040e3          	bgtz	a0,a8e8 <_dtoa_r+0xeb0>
    a08c:	800007b7          	lui	a5,0x80000
    a090:	0147c7b3          	xor	a5,a5,s4
    a094:	000b0613          	mv	a2,s6
    a098:	00078693          	mv	a3,a5
    a09c:	00098513          	mv	a0,s3
    a0a0:	00090593          	mv	a1,s2
    a0a4:	dacf90ef          	jal	ra,3650 <__ledf2>
    a0a8:	02054ae3          	bltz	a0,a8dc <_dtoa_r+0xea4>
    a0ac:	02c12983          	lw	s3,44(sp)
    a0b0:	03012b03          	lw	s6,48(sp)
    a0b4:	06c12783          	lw	a5,108(sp)
    a0b8:	4e07cc63          	bltz	a5,a5b0 <_dtoa_r+0xb78>
    a0bc:	00e00713          	li	a4,14
    a0c0:	4e874863          	blt	a4,s0,a5b0 <_dtoa_r+0xb78>
    a0c4:	0000d737          	lui	a4,0xd
    a0c8:	00341793          	slli	a5,s0,0x3
    a0cc:	3d070713          	addi	a4,a4,976 # d3d0 <__mprec_tens>
    a0d0:	00e787b3          	add	a5,a5,a4
    a0d4:	0007aa03          	lw	s4,0(a5) # 80000000 <CONFIG_SYSTEM_WORKQUEUE_PRIORITY+0x80000001>
    a0d8:	0047aa83          	lw	s5,4(a5)
    a0dc:	02012783          	lw	a5,32(sp)
    a0e0:	3607de63          	bgez	a5,a45c <_dtoa_r+0xa24>
    a0e4:	37a04c63          	bgtz	s10,a45c <_dtoa_r+0xa24>
    a0e8:	7e0d1a63          	bnez	s10,a8dc <_dtoa_r+0xea4>
    a0ec:	0000d7b7          	lui	a5,0xd
    a0f0:	1a07a603          	lw	a2,416(a5) # d1a0 <__device_handles_end+0xb4>
    a0f4:	1a47a683          	lw	a3,420(a5)
    a0f8:	000a0513          	mv	a0,s4
    a0fc:	000a8593          	mv	a1,s5
    a100:	92df70ef          	jal	ra,1a2c <__muldf3>
    a104:	00098613          	mv	a2,s3
    a108:	000b0693          	mv	a3,s6
    a10c:	c60f90ef          	jal	ra,356c <__gedf2>
    a110:	00000a13          	li	s4,0
    a114:	00000913          	li	s2,0
    a118:	78055063          	bgez	a0,a898 <_dtoa_r+0xe60>
    a11c:	01012783          	lw	a5,16(sp)
    a120:	01012703          	lw	a4,16(sp)
    a124:	00140413          	addi	s0,s0,1
    a128:	00178993          	addi	s3,a5,1
    a12c:	03100793          	li	a5,49
    a130:	00f70023          	sb	a5,0(a4)
    a134:	7700006f          	j	a8a4 <_dtoa_r+0xe6c>
    a138:	001af693          	andi	a3,s5,1
    a13c:	02068263          	beqz	a3,a160 <_dtoa_r+0x728>
    a140:	00092603          	lw	a2,0(s2)
    a144:	00492683          	lw	a3,4(s2)
    a148:	00070513          	mv	a0,a4
    a14c:	00078593          	mv	a1,a5
    a150:	8ddf70ef          	jal	ra,1a2c <__muldf3>
    a154:	001a0a13          	addi	s4,s4,1
    a158:	00050713          	mv	a4,a0
    a15c:	00058793          	mv	a5,a1
    a160:	401ada93          	srai	s5,s5,0x1
    a164:	00890913          	addi	s2,s2,8
    a168:	e2dff06f          	j	9f94 <_dtoa_r+0x55c>
    a16c:	00200a13          	li	s4,2
    a170:	e40402e3          	beqz	s0,9fb4 <_dtoa_r+0x57c>
    a174:	40800933          	neg	s2,s0
    a178:	00f97793          	andi	a5,s2,15
    a17c:	0000d737          	lui	a4,0xd
    a180:	3d070713          	addi	a4,a4,976 # d3d0 <__mprec_tens>
    a184:	00379793          	slli	a5,a5,0x3
    a188:	00e787b3          	add	a5,a5,a4
    a18c:	0007a603          	lw	a2,0(a5)
    a190:	0047a683          	lw	a3,4(a5)
    a194:	02c12503          	lw	a0,44(sp)
    a198:	03012583          	lw	a1,48(sp)
    a19c:	0000dab7          	lui	s5,0xd
    a1a0:	40495913          	srai	s2,s2,0x4
    a1a4:	889f70ef          	jal	ra,1a2c <__muldf3>
    a1a8:	00050793          	mv	a5,a0
    a1ac:	00050993          	mv	s3,a0
    a1b0:	00058b13          	mv	s6,a1
    a1b4:	3a8a8a93          	addi	s5,s5,936 # d3a8 <__mprec_bigtens>
    a1b8:	00000713          	li	a4,0
    a1bc:	00091863          	bnez	s2,a1cc <_dtoa_r+0x794>
    a1c0:	de070ae3          	beqz	a4,9fb4 <_dtoa_r+0x57c>
    a1c4:	00078993          	mv	s3,a5
    a1c8:	de9ff06f          	j	9fb0 <_dtoa_r+0x578>
    a1cc:	00197693          	andi	a3,s2,1
    a1d0:	02068063          	beqz	a3,a1f0 <_dtoa_r+0x7b8>
    a1d4:	000aa603          	lw	a2,0(s5)
    a1d8:	004aa683          	lw	a3,4(s5)
    a1dc:	00078513          	mv	a0,a5
    a1e0:	001a0a13          	addi	s4,s4,1
    a1e4:	849f70ef          	jal	ra,1a2c <__muldf3>
    a1e8:	00050793          	mv	a5,a0
    a1ec:	00100713          	li	a4,1
    a1f0:	40195913          	srai	s2,s2,0x1
    a1f4:	008a8a93          	addi	s5,s5,8
    a1f8:	fc5ff06f          	j	a1bc <_dtoa_r+0x784>
    a1fc:	00812c23          	sw	s0,24(sp)
    a200:	000d0713          	mv	a4,s10
    a204:	e0dff06f          	j	a010 <_dtoa_r+0x5d8>
    a208:	00812c23          	sw	s0,24(sp)
    a20c:	00000713          	li	a4,0
    a210:	e01ff06f          	j	a010 <_dtoa_r+0x5d8>
    a214:	fff70793          	addi	a5,a4,-1
    a218:	0000d6b7          	lui	a3,0xd
    a21c:	3d068693          	addi	a3,a3,976 # d3d0 <__mprec_tens>
    a220:	00379793          	slli	a5,a5,0x3
    a224:	00d787b3          	add	a5,a5,a3
    a228:	0007a603          	lw	a2,0(a5)
    a22c:	0047a683          	lw	a3,4(a5)
    a230:	01012783          	lw	a5,16(sp)
    a234:	00e787b3          	add	a5,a5,a4
    a238:	02f12e23          	sw	a5,60(sp)
    a23c:	01c12783          	lw	a5,28(sp)
    a240:	10078863          	beqz	a5,a350 <_dtoa_r+0x918>
    a244:	0000d7b7          	lui	a5,0xd
    a248:	1ac7a583          	lw	a1,428(a5) # d1ac <__device_handles_end+0xc0>
    a24c:	04a12023          	sw	a0,64(sp)
    a250:	1a87a503          	lw	a0,424(a5)
    a254:	8f8f70ef          	jal	ra,134c <__divdf3>
    a258:	000b0613          	mv	a2,s6
    a25c:	000a0693          	mv	a3,s4
    a260:	d95f70ef          	jal	ra,1ff4 <__subdf3>
    a264:	0000d7b7          	lui	a5,0xd
    a268:	12c7a803          	lw	a6,300(a5) # d12c <__device_handles_end+0x40>
    a26c:	1287a783          	lw	a5,296(a5)
    a270:	01012983          	lw	s3,16(sp)
    a274:	05012623          	sw	a6,76(sp)
    a278:	04f12423          	sw	a5,72(sp)
    a27c:	0000d7b7          	lui	a5,0xd
    a280:	1947a803          	lw	a6,404(a5) # d194 <__device_handles_end+0xa8>
    a284:	1907a783          	lw	a5,400(a5)
    a288:	00050a13          	mv	s4,a0
    a28c:	00058b13          	mv	s6,a1
    a290:	04f12023          	sw	a5,64(sp)
    a294:	05012223          	sw	a6,68(sp)
    a298:	00090593          	mv	a1,s2
    a29c:	000a8513          	mv	a0,s5
    a2a0:	ce0f90ef          	jal	ra,3780 <__fixdfsi>
    a2a4:	04a12823          	sw	a0,80(sp)
    a2a8:	d58f90ef          	jal	ra,3800 <__floatsidf>
    a2ac:	00050613          	mv	a2,a0
    a2b0:	00058693          	mv	a3,a1
    a2b4:	000a8513          	mv	a0,s5
    a2b8:	00090593          	mv	a1,s2
    a2bc:	d39f70ef          	jal	ra,1ff4 <__subdf3>
    a2c0:	05012783          	lw	a5,80(sp)
    a2c4:	00198993          	addi	s3,s3,1
    a2c8:	000a0613          	mv	a2,s4
    a2cc:	03078793          	addi	a5,a5,48
    a2d0:	fef98fa3          	sb	a5,-1(s3)
    a2d4:	000b0693          	mv	a3,s6
    a2d8:	00050913          	mv	s2,a0
    a2dc:	00058a93          	mv	s5,a1
    a2e0:	b70f90ef          	jal	ra,3650 <__ledf2>
    a2e4:	14054c63          	bltz	a0,a43c <_dtoa_r+0xa04>
    a2e8:	04812503          	lw	a0,72(sp)
    a2ec:	04c12583          	lw	a1,76(sp)
    a2f0:	00090613          	mv	a2,s2
    a2f4:	000a8693          	mv	a3,s5
    a2f8:	cfdf70ef          	jal	ra,1ff4 <__subdf3>
    a2fc:	000a0613          	mv	a2,s4
    a300:	000b0693          	mv	a3,s6
    a304:	b4cf90ef          	jal	ra,3650 <__ledf2>
    a308:	22054c63          	bltz	a0,a540 <_dtoa_r+0xb08>
    a30c:	03c12783          	lw	a5,60(sp)
    a310:	d8f98ee3          	beq	s3,a5,a0ac <_dtoa_r+0x674>
    a314:	04012603          	lw	a2,64(sp)
    a318:	04412683          	lw	a3,68(sp)
    a31c:	000a0513          	mv	a0,s4
    a320:	000b0593          	mv	a1,s6
    a324:	f08f70ef          	jal	ra,1a2c <__muldf3>
    a328:	04012603          	lw	a2,64(sp)
    a32c:	04412683          	lw	a3,68(sp)
    a330:	00050a13          	mv	s4,a0
    a334:	00058b13          	mv	s6,a1
    a338:	00090513          	mv	a0,s2
    a33c:	000a8593          	mv	a1,s5
    a340:	eecf70ef          	jal	ra,1a2c <__muldf3>
    a344:	00050a93          	mv	s5,a0
    a348:	00058913          	mv	s2,a1
    a34c:	f4dff06f          	j	a298 <_dtoa_r+0x860>
    a350:	000a0593          	mv	a1,s4
    a354:	ed8f70ef          	jal	ra,1a2c <__muldf3>
    a358:	03c12783          	lw	a5,60(sp)
    a35c:	01012983          	lw	s3,16(sp)
    a360:	04a12423          	sw	a0,72(sp)
    a364:	04f12023          	sw	a5,64(sp)
    a368:	0000d7b7          	lui	a5,0xd
    a36c:	1947a803          	lw	a6,404(a5) # d194 <__device_handles_end+0xa8>
    a370:	1907a783          	lw	a5,400(a5)
    a374:	00058b13          	mv	s6,a1
    a378:	05012a23          	sw	a6,84(sp)
    a37c:	04f12823          	sw	a5,80(sp)
    a380:	00090593          	mv	a1,s2
    a384:	000a8513          	mv	a0,s5
    a388:	bf8f90ef          	jal	ra,3780 <__fixdfsi>
    a38c:	04a12e23          	sw	a0,92(sp)
    a390:	c70f90ef          	jal	ra,3800 <__floatsidf>
    a394:	00050613          	mv	a2,a0
    a398:	00058693          	mv	a3,a1
    a39c:	000a8513          	mv	a0,s5
    a3a0:	00090593          	mv	a1,s2
    a3a4:	c51f70ef          	jal	ra,1ff4 <__subdf3>
    a3a8:	05c12783          	lw	a5,92(sp)
    a3ac:	00198993          	addi	s3,s3,1
    a3b0:	00050a13          	mv	s4,a0
    a3b4:	03078793          	addi	a5,a5,48
    a3b8:	fef98fa3          	sb	a5,-1(s3)
    a3bc:	03c12783          	lw	a5,60(sp)
    a3c0:	00058913          	mv	s2,a1
    a3c4:	08f99063          	bne	s3,a5,a444 <_dtoa_r+0xa0c>
    a3c8:	0000dab7          	lui	s5,0xd
    a3cc:	1a8aa603          	lw	a2,424(s5) # d1a8 <__device_handles_end+0xbc>
    a3d0:	1acaa683          	lw	a3,428(s5)
    a3d4:	04812503          	lw	a0,72(sp)
    a3d8:	000b0593          	mv	a1,s6
    a3dc:	f98f60ef          	jal	ra,b74 <__adddf3>
    a3e0:	00050613          	mv	a2,a0
    a3e4:	00058693          	mv	a3,a1
    a3e8:	000a0513          	mv	a0,s4
    a3ec:	00090593          	mv	a1,s2
    a3f0:	97cf90ef          	jal	ra,356c <__gedf2>
    a3f4:	14a04663          	bgtz	a0,a540 <_dtoa_r+0xb08>
    a3f8:	04812603          	lw	a2,72(sp)
    a3fc:	1a8aa503          	lw	a0,424(s5)
    a400:	1acaa583          	lw	a1,428(s5)
    a404:	000b0693          	mv	a3,s6
    a408:	bedf70ef          	jal	ra,1ff4 <__subdf3>
    a40c:	00050613          	mv	a2,a0
    a410:	00058693          	mv	a3,a1
    a414:	000a0513          	mv	a0,s4
    a418:	00090593          	mv	a1,s2
    a41c:	a34f90ef          	jal	ra,3650 <__ledf2>
    a420:	c80556e3          	bgez	a0,a0ac <_dtoa_r+0x674>
    a424:	03000793          	li	a5,48
    a428:	04012983          	lw	s3,64(sp)
    a42c:	fff98713          	addi	a4,s3,-1
    a430:	04e12023          	sw	a4,64(sp)
    a434:	fff9c703          	lbu	a4,-1(s3)
    a438:	fef708e3          	beq	a4,a5,a428 <_dtoa_r+0x9f0>
    a43c:	01812403          	lw	s0,24(sp)
    a440:	0d00006f          	j	a510 <_dtoa_r+0xad8>
    a444:	05012603          	lw	a2,80(sp)
    a448:	05412683          	lw	a3,84(sp)
    a44c:	de0f70ef          	jal	ra,1a2c <__muldf3>
    a450:	00050a93          	mv	s5,a0
    a454:	00058913          	mv	s2,a1
    a458:	f29ff06f          	j	a380 <_dtoa_r+0x948>
    a45c:	01012783          	lw	a5,16(sp)
    a460:	000b0c93          	mv	s9,s6
    a464:	00098d93          	mv	s11,s3
    a468:	00178c13          	addi	s8,a5,1
    a46c:	01a78d33          	add	s10,a5,s10
    a470:	0000d7b7          	lui	a5,0xd
    a474:	1907ab03          	lw	s6,400(a5) # d190 <__device_handles_end+0xa4>
    a478:	1947ab83          	lw	s7,404(a5)
    a47c:	000a0613          	mv	a2,s4
    a480:	000a8693          	mv	a3,s5
    a484:	000d8513          	mv	a0,s11
    a488:	000c8593          	mv	a1,s9
    a48c:	ec1f60ef          	jal	ra,134c <__divdf3>
    a490:	af0f90ef          	jal	ra,3780 <__fixdfsi>
    a494:	00050913          	mv	s2,a0
    a498:	b68f90ef          	jal	ra,3800 <__floatsidf>
    a49c:	000a0613          	mv	a2,s4
    a4a0:	000a8693          	mv	a3,s5
    a4a4:	d88f70ef          	jal	ra,1a2c <__muldf3>
    a4a8:	00058693          	mv	a3,a1
    a4ac:	00050613          	mv	a2,a0
    a4b0:	000c8593          	mv	a1,s9
    a4b4:	000d8513          	mv	a0,s11
    a4b8:	b3df70ef          	jal	ra,1ff4 <__subdf3>
    a4bc:	03090693          	addi	a3,s2,48
    a4c0:	fedc0fa3          	sb	a3,-1(s8)
    a4c4:	000c0993          	mv	s3,s8
    a4c8:	0b8d1e63          	bne	s10,s8,a584 <_dtoa_r+0xb4c>
    a4cc:	00050613          	mv	a2,a0
    a4d0:	00058693          	mv	a3,a1
    a4d4:	ea0f60ef          	jal	ra,b74 <__adddf3>
    a4d8:	000a0613          	mv	a2,s4
    a4dc:	000a8693          	mv	a3,s5
    a4e0:	00050b93          	mv	s7,a0
    a4e4:	00058b13          	mv	s6,a1
    a4e8:	884f90ef          	jal	ra,356c <__gedf2>
    a4ec:	04a04863          	bgtz	a0,a53c <_dtoa_r+0xb04>
    a4f0:	000a0613          	mv	a2,s4
    a4f4:	000a8693          	mv	a3,s5
    a4f8:	000b8513          	mv	a0,s7
    a4fc:	000b0593          	mv	a1,s6
    a500:	fe1f80ef          	jal	ra,34e0 <__eqdf2>
    a504:	00051663          	bnez	a0,a510 <_dtoa_r+0xad8>
    a508:	00197913          	andi	s2,s2,1
    a50c:	02091863          	bnez	s2,a53c <_dtoa_r+0xb04>
    a510:	00c12583          	lw	a1,12(sp)
    a514:	00048513          	mv	a0,s1
    a518:	3d9000ef          	jal	ra,b0f0 <_Bfree>
    a51c:	03812783          	lw	a5,56(sp)
    a520:	00098023          	sb	zero,0(s3)
    a524:	00140513          	addi	a0,s0,1
    a528:	00a7a023          	sw	a0,0(a5)
    a52c:	02412783          	lw	a5,36(sp)
    a530:	e4078a63          	beqz	a5,9b84 <_dtoa_r+0x14c>
    a534:	0137a023          	sw	s3,0(a5)
    a538:	e4cff06f          	j	9b84 <_dtoa_r+0x14c>
    a53c:	00812c23          	sw	s0,24(sp)
    a540:	00098793          	mv	a5,s3
    a544:	03900713          	li	a4,57
    a548:	00078993          	mv	s3,a5
    a54c:	fff7c683          	lbu	a3,-1(a5)
    a550:	fff78793          	addi	a5,a5,-1
    a554:	02e69063          	bne	a3,a4,a574 <_dtoa_r+0xb3c>
    a558:	01012683          	lw	a3,16(sp)
    a55c:	fef696e3          	bne	a3,a5,a548 <_dtoa_r+0xb10>
    a560:	01812703          	lw	a4,24(sp)
    a564:	00170713          	addi	a4,a4,1
    a568:	00e12c23          	sw	a4,24(sp)
    a56c:	03000713          	li	a4,48
    a570:	00e68023          	sb	a4,0(a3)
    a574:	0007c703          	lbu	a4,0(a5)
    a578:	00170713          	addi	a4,a4,1
    a57c:	00e78023          	sb	a4,0(a5)
    a580:	ebdff06f          	j	a43c <_dtoa_r+0xa04>
    a584:	000b0613          	mv	a2,s6
    a588:	000b8693          	mv	a3,s7
    a58c:	ca0f70ef          	jal	ra,1a2c <__muldf3>
    a590:	00000613          	li	a2,0
    a594:	00000693          	li	a3,0
    a598:	00050d93          	mv	s11,a0
    a59c:	00058c93          	mv	s9,a1
    a5a0:	001c0c13          	addi	s8,s8,1
    a5a4:	f3df80ef          	jal	ra,34e0 <__eqdf2>
    a5a8:	ec051ae3          	bnez	a0,a47c <_dtoa_r+0xa44>
    a5ac:	f65ff06f          	j	a510 <_dtoa_r+0xad8>
    a5b0:	01c12703          	lw	a4,28(sp)
    a5b4:	16070c63          	beqz	a4,a72c <_dtoa_r+0xcf4>
    a5b8:	01412683          	lw	a3,20(sp)
    a5bc:	00100713          	li	a4,1
    a5c0:	12d74463          	blt	a4,a3,a6e8 <_dtoa_r+0xcb0>
    a5c4:	05812703          	lw	a4,88(sp)
    a5c8:	43378793          	addi	a5,a5,1075
    a5cc:	00071863          	bnez	a4,a5dc <_dtoa_r+0xba4>
    a5d0:	06812703          	lw	a4,104(sp)
    a5d4:	03600793          	li	a5,54
    a5d8:	40e787b3          	sub	a5,a5,a4
    a5dc:	000c8a13          	mv	s4,s9
    a5e0:	000b8a93          	mv	s5,s7
    a5e4:	00100593          	li	a1,1
    a5e8:	00048513          	mv	a0,s1
    a5ec:	00fb8bb3          	add	s7,s7,a5
    a5f0:	00fc0c33          	add	s8,s8,a5
    a5f4:	5d5000ef          	jal	ra,b3c8 <__i2b>
    a5f8:	00050913          	mv	s2,a0
    a5fc:	03505063          	blez	s5,a61c <_dtoa_r+0xbe4>
    a600:	01805e63          	blez	s8,a61c <_dtoa_r+0xbe4>
    a604:	000a8793          	mv	a5,s5
    a608:	015c5463          	bge	s8,s5,a610 <_dtoa_r+0xbd8>
    a60c:	000c0793          	mv	a5,s8
    a610:	40fb8bb3          	sub	s7,s7,a5
    a614:	40fa8ab3          	sub	s5,s5,a5
    a618:	40fc0c33          	sub	s8,s8,a5
    a61c:	060c8263          	beqz	s9,a680 <_dtoa_r+0xc48>
    a620:	01c12783          	lw	a5,28(sp)
    a624:	10078c63          	beqz	a5,a73c <_dtoa_r+0xd04>
    a628:	05405063          	blez	s4,a668 <_dtoa_r+0xc30>
    a62c:	00090593          	mv	a1,s2
    a630:	000a0613          	mv	a2,s4
    a634:	00048513          	mv	a0,s1
    a638:	7ed000ef          	jal	ra,b624 <__pow5mult>
    a63c:	00c12603          	lw	a2,12(sp)
    a640:	00050593          	mv	a1,a0
    a644:	00050913          	mv	s2,a0
    a648:	00048513          	mv	a0,s1
    a64c:	5d1000ef          	jal	ra,b41c <__multiply>
    a650:	00c12583          	lw	a1,12(sp)
    a654:	00a12c23          	sw	a0,24(sp)
    a658:	00048513          	mv	a0,s1
    a65c:	295000ef          	jal	ra,b0f0 <_Bfree>
    a660:	01812783          	lw	a5,24(sp)
    a664:	00f12623          	sw	a5,12(sp)
    a668:	414c8633          	sub	a2,s9,s4
    a66c:	014c8a63          	beq	s9,s4,a680 <_dtoa_r+0xc48>
    a670:	00c12583          	lw	a1,12(sp)
    a674:	00048513          	mv	a0,s1
    a678:	7ad000ef          	jal	ra,b624 <__pow5mult>
    a67c:	00a12623          	sw	a0,12(sp)
    a680:	00100593          	li	a1,1
    a684:	00048513          	mv	a0,s1
    a688:	541000ef          	jal	ra,b3c8 <__i2b>
    a68c:	02812783          	lw	a5,40(sp)
    a690:	00050a13          	mv	s4,a0
    a694:	0af05863          	blez	a5,a744 <_dtoa_r+0xd0c>
    a698:	00078613          	mv	a2,a5
    a69c:	00050593          	mv	a1,a0
    a6a0:	00048513          	mv	a0,s1
    a6a4:	781000ef          	jal	ra,b624 <__pow5mult>
    a6a8:	01412703          	lw	a4,20(sp)
    a6ac:	00100793          	li	a5,1
    a6b0:	00050a13          	mv	s4,a0
    a6b4:	00000c93          	li	s9,0
    a6b8:	0ae7c463          	blt	a5,a4,a760 <_dtoa_r+0xd28>
    a6bc:	00000c93          	li	s9,0
    a6c0:	08099a63          	bnez	s3,a754 <_dtoa_r+0xd1c>
    a6c4:	00cb1793          	slli	a5,s6,0xc
    a6c8:	08079663          	bnez	a5,a754 <_dtoa_r+0xd1c>
    a6cc:	7ff005b7          	lui	a1,0x7ff00
    a6d0:	00bb7b33          	and	s6,s6,a1
    a6d4:	080b0063          	beqz	s6,a754 <_dtoa_r+0xd1c>
    a6d8:	001b8b93          	addi	s7,s7,1
    a6dc:	001c0c13          	addi	s8,s8,1
    a6e0:	00100c93          	li	s9,1
    a6e4:	0700006f          	j	a754 <_dtoa_r+0xd1c>
    a6e8:	fffd0a13          	addi	s4,s10,-1
    a6ec:	014ccc63          	blt	s9,s4,a704 <_dtoa_r+0xccc>
    a6f0:	414c8a33          	sub	s4,s9,s4
    a6f4:	020d5663          	bgez	s10,a720 <_dtoa_r+0xce8>
    a6f8:	41ab8ab3          	sub	s5,s7,s10
    a6fc:	00000793          	li	a5,0
    a700:	ee5ff06f          	j	a5e4 <_dtoa_r+0xbac>
    a704:	02812783          	lw	a5,40(sp)
    a708:	419a0cb3          	sub	s9,s4,s9
    a70c:	019787b3          	add	a5,a5,s9
    a710:	02f12423          	sw	a5,40(sp)
    a714:	000a0c93          	mv	s9,s4
    a718:	00000a13          	li	s4,0
    a71c:	fd9ff06f          	j	a6f4 <_dtoa_r+0xcbc>
    a720:	000b8a93          	mv	s5,s7
    a724:	000d0793          	mv	a5,s10
    a728:	ebdff06f          	j	a5e4 <_dtoa_r+0xbac>
    a72c:	000c8a13          	mv	s4,s9
    a730:	000b8a93          	mv	s5,s7
    a734:	00000913          	li	s2,0
    a738:	ec5ff06f          	j	a5fc <_dtoa_r+0xbc4>
    a73c:	000c8613          	mv	a2,s9
    a740:	f31ff06f          	j	a670 <_dtoa_r+0xc38>
    a744:	01412703          	lw	a4,20(sp)
    a748:	00100793          	li	a5,1
    a74c:	00000c93          	li	s9,0
    a750:	f6e7d6e3          	bge	a5,a4,a6bc <_dtoa_r+0xc84>
    a754:	02812783          	lw	a5,40(sp)
    a758:	00100513          	li	a0,1
    a75c:	02078263          	beqz	a5,a780 <_dtoa_r+0xd48>
    a760:	010a2783          	lw	a5,16(s4)
    a764:	00378793          	addi	a5,a5,3
    a768:	00279793          	slli	a5,a5,0x2
    a76c:	00fa07b3          	add	a5,s4,a5
    a770:	0047a503          	lw	a0,4(a5)
    a774:	331000ef          	jal	ra,b2a4 <__hi0bits>
    a778:	02000793          	li	a5,32
    a77c:	40a78533          	sub	a0,a5,a0
    a780:	00ac0533          	add	a0,s8,a0
    a784:	01f57513          	andi	a0,a0,31
    a788:	0c050463          	beqz	a0,a850 <_dtoa_r+0xe18>
    a78c:	02000793          	li	a5,32
    a790:	40a787b3          	sub	a5,a5,a0
    a794:	00400713          	li	a4,4
    a798:	0af75863          	bge	a4,a5,a848 <_dtoa_r+0xe10>
    a79c:	01c00793          	li	a5,28
    a7a0:	40a78533          	sub	a0,a5,a0
    a7a4:	00ab8bb3          	add	s7,s7,a0
    a7a8:	00aa8ab3          	add	s5,s5,a0
    a7ac:	00ac0c33          	add	s8,s8,a0
    a7b0:	01705c63          	blez	s7,a7c8 <_dtoa_r+0xd90>
    a7b4:	00c12583          	lw	a1,12(sp)
    a7b8:	000b8613          	mv	a2,s7
    a7bc:	00048513          	mv	a0,s1
    a7c0:	7a9000ef          	jal	ra,b768 <__lshift>
    a7c4:	00a12623          	sw	a0,12(sp)
    a7c8:	01805c63          	blez	s8,a7e0 <_dtoa_r+0xda8>
    a7cc:	000a0593          	mv	a1,s4
    a7d0:	000c0613          	mv	a2,s8
    a7d4:	00048513          	mv	a0,s1
    a7d8:	791000ef          	jal	ra,b768 <__lshift>
    a7dc:	00050a13          	mv	s4,a0
    a7e0:	03412783          	lw	a5,52(sp)
    a7e4:	06078a63          	beqz	a5,a858 <_dtoa_r+0xe20>
    a7e8:	00c12503          	lw	a0,12(sp)
    a7ec:	000a0593          	mv	a1,s4
    a7f0:	0fc010ef          	jal	ra,b8ec <__mcmp>
    a7f4:	06055263          	bgez	a0,a858 <_dtoa_r+0xe20>
    a7f8:	00c12583          	lw	a1,12(sp)
    a7fc:	00000693          	li	a3,0
    a800:	00a00613          	li	a2,10
    a804:	00048513          	mv	a0,s1
    a808:	17d000ef          	jal	ra,b184 <__multadd>
    a80c:	01c12783          	lw	a5,28(sp)
    a810:	00a12623          	sw	a0,12(sp)
    a814:	fff40413          	addi	s0,s0,-1
    a818:	3a078263          	beqz	a5,abbc <_dtoa_r+0x1184>
    a81c:	00090593          	mv	a1,s2
    a820:	00000693          	li	a3,0
    a824:	00a00613          	li	a2,10
    a828:	00048513          	mv	a0,s1
    a82c:	159000ef          	jal	ra,b184 <__multadd>
    a830:	00050913          	mv	s2,a0
    a834:	0db04863          	bgtz	s11,a904 <_dtoa_r+0xecc>
    a838:	01412703          	lw	a4,20(sp)
    a83c:	00200793          	li	a5,2
    a840:	02e7c663          	blt	a5,a4,a86c <_dtoa_r+0xe34>
    a844:	0c00006f          	j	a904 <_dtoa_r+0xecc>
    a848:	f6e784e3          	beq	a5,a4,a7b0 <_dtoa_r+0xd78>
    a84c:	00078513          	mv	a0,a5
    a850:	01c50513          	addi	a0,a0,28
    a854:	f51ff06f          	j	a7a4 <_dtoa_r+0xd6c>
    a858:	0ba04063          	bgtz	s10,a8f8 <_dtoa_r+0xec0>
    a85c:	01412703          	lw	a4,20(sp)
    a860:	00200793          	li	a5,2
    a864:	08e7da63          	bge	a5,a4,a8f8 <_dtoa_r+0xec0>
    a868:	000d0d93          	mv	s11,s10
    a86c:	020d9663          	bnez	s11,a898 <_dtoa_r+0xe60>
    a870:	000a0593          	mv	a1,s4
    a874:	00000693          	li	a3,0
    a878:	00500613          	li	a2,5
    a87c:	00048513          	mv	a0,s1
    a880:	105000ef          	jal	ra,b184 <__multadd>
    a884:	00050a13          	mv	s4,a0
    a888:	00050593          	mv	a1,a0
    a88c:	00c12503          	lw	a0,12(sp)
    a890:	05c010ef          	jal	ra,b8ec <__mcmp>
    a894:	88a044e3          	bgtz	a0,a11c <_dtoa_r+0x6e4>
    a898:	02012783          	lw	a5,32(sp)
    a89c:	01012983          	lw	s3,16(sp)
    a8a0:	fff7c413          	not	s0,a5
    a8a4:	00000b13          	li	s6,0
    a8a8:	000a0593          	mv	a1,s4
    a8ac:	00048513          	mv	a0,s1
    a8b0:	041000ef          	jal	ra,b0f0 <_Bfree>
    a8b4:	c4090ee3          	beqz	s2,a510 <_dtoa_r+0xad8>
    a8b8:	000b0a63          	beqz	s6,a8cc <_dtoa_r+0xe94>
    a8bc:	012b0863          	beq	s6,s2,a8cc <_dtoa_r+0xe94>
    a8c0:	000b0593          	mv	a1,s6
    a8c4:	00048513          	mv	a0,s1
    a8c8:	029000ef          	jal	ra,b0f0 <_Bfree>
    a8cc:	00090593          	mv	a1,s2
    a8d0:	00048513          	mv	a0,s1
    a8d4:	01d000ef          	jal	ra,b0f0 <_Bfree>
    a8d8:	c39ff06f          	j	a510 <_dtoa_r+0xad8>
    a8dc:	00000a13          	li	s4,0
    a8e0:	00000913          	li	s2,0
    a8e4:	fb5ff06f          	j	a898 <_dtoa_r+0xe60>
    a8e8:	01812403          	lw	s0,24(sp)
    a8ec:	00000a13          	li	s4,0
    a8f0:	00000913          	li	s2,0
    a8f4:	829ff06f          	j	a11c <_dtoa_r+0x6e4>
    a8f8:	01c12783          	lw	a5,28(sp)
    a8fc:	000d0d93          	mv	s11,s10
    a900:	2c078663          	beqz	a5,abcc <_dtoa_r+0x1194>
    a904:	01505c63          	blez	s5,a91c <_dtoa_r+0xee4>
    a908:	00090593          	mv	a1,s2
    a90c:	000a8613          	mv	a2,s5
    a910:	00048513          	mv	a0,s1
    a914:	655000ef          	jal	ra,b768 <__lshift>
    a918:	00050913          	mv	s2,a0
    a91c:	00090513          	mv	a0,s2
    a920:	040c8a63          	beqz	s9,a974 <_dtoa_r+0xf3c>
    a924:	00492583          	lw	a1,4(s2)
    a928:	00048513          	mv	a0,s1
    a92c:	6c4000ef          	jal	ra,aff0 <_Balloc>
    a930:	00050a93          	mv	s5,a0
    a934:	00051c63          	bnez	a0,a94c <_dtoa_r+0xf14>
    a938:	0000e6b7          	lui	a3,0xe
    a93c:	9e468693          	addi	a3,a3,-1564 # d9e4 <_ctype_+0x220>
    a940:	00000613          	li	a2,0
    a944:	2ea00593          	li	a1,746
    a948:	978ff06f          	j	9ac0 <_dtoa_r+0x88>
    a94c:	01092603          	lw	a2,16(s2)
    a950:	00c90593          	addi	a1,s2,12
    a954:	00c50513          	addi	a0,a0,12
    a958:	00260613          	addi	a2,a2,2
    a95c:	00261613          	slli	a2,a2,0x2
    a960:	b41f80ef          	jal	ra,34a0 <memcpy>
    a964:	00100613          	li	a2,1
    a968:	000a8593          	mv	a1,s5
    a96c:	00048513          	mv	a0,s1
    a970:	5f9000ef          	jal	ra,b768 <__lshift>
    a974:	01012783          	lw	a5,16(sp)
    a978:	00090b13          	mv	s6,s2
    a97c:	00050913          	mv	s2,a0
    a980:	00178c13          	addi	s8,a5,1
    a984:	01b787b3          	add	a5,a5,s11
    a988:	00f12c23          	sw	a5,24(sp)
    a98c:	0019fd93          	andi	s11,s3,1
    a990:	00c12503          	lw	a0,12(sp)
    a994:	000a0593          	mv	a1,s4
    a998:	fffc0d13          	addi	s10,s8,-1
    a99c:	ed1fe0ef          	jal	ra,986c <quorem>
    a9a0:	00050c93          	mv	s9,a0
    a9a4:	03050a93          	addi	s5,a0,48
    a9a8:	00c12503          	lw	a0,12(sp)
    a9ac:	000b0593          	mv	a1,s6
    a9b0:	73d000ef          	jal	ra,b8ec <__mcmp>
    a9b4:	000a0593          	mv	a1,s4
    a9b8:	00050b93          	mv	s7,a0
    a9bc:	00090613          	mv	a2,s2
    a9c0:	00048513          	mv	a0,s1
    a9c4:	77d000ef          	jal	ra,b940 <__mdiff>
    a9c8:	00c52683          	lw	a3,12(a0)
    a9cc:	00050593          	mv	a1,a0
    a9d0:	00100713          	li	a4,1
    a9d4:	00069c63          	bnez	a3,a9ec <_dtoa_r+0xfb4>
    a9d8:	00a12e23          	sw	a0,28(sp)
    a9dc:	00c12503          	lw	a0,12(sp)
    a9e0:	70d000ef          	jal	ra,b8ec <__mcmp>
    a9e4:	01c12583          	lw	a1,28(sp)
    a9e8:	00050713          	mv	a4,a0
    a9ec:	00048513          	mv	a0,s1
    a9f0:	00e12e23          	sw	a4,28(sp)
    a9f4:	6fc000ef          	jal	ra,b0f0 <_Bfree>
    a9f8:	01412783          	lw	a5,20(sp)
    a9fc:	01c12703          	lw	a4,28(sp)
    aa00:	000c0993          	mv	s3,s8
    aa04:	00e7e6b3          	or	a3,a5,a4
    aa08:	01b6e6b3          	or	a3,a3,s11
    aa0c:	00069e63          	bnez	a3,aa28 <_dtoa_r+0xff0>
    aa10:	03900713          	li	a4,57
    aa14:	06ea8063          	beq	s5,a4,aa74 <_dtoa_r+0x103c>
    aa18:	01705463          	blez	s7,aa20 <_dtoa_r+0xfe8>
    aa1c:	031c8a93          	addi	s5,s9,49
    aa20:	015d0023          	sb	s5,0(s10)
    aa24:	e85ff06f          	j	a8a8 <_dtoa_r+0xe70>
    aa28:	000bca63          	bltz	s7,aa3c <_dtoa_r+0x1004>
    aa2c:	01412783          	lw	a5,20(sp)
    aa30:	0177ebb3          	or	s7,a5,s7
    aa34:	01bbebb3          	or	s7,s7,s11
    aa38:	060b9463          	bnez	s7,aaa0 <_dtoa_r+0x1068>
    aa3c:	fee052e3          	blez	a4,aa20 <_dtoa_r+0xfe8>
    aa40:	00c12583          	lw	a1,12(sp)
    aa44:	00100613          	li	a2,1
    aa48:	00048513          	mv	a0,s1
    aa4c:	51d000ef          	jal	ra,b768 <__lshift>
    aa50:	000a0593          	mv	a1,s4
    aa54:	00a12623          	sw	a0,12(sp)
    aa58:	695000ef          	jal	ra,b8ec <__mcmp>
    aa5c:	00a04863          	bgtz	a0,aa6c <_dtoa_r+0x1034>
    aa60:	fc0510e3          	bnez	a0,aa20 <_dtoa_r+0xfe8>
    aa64:	001af713          	andi	a4,s5,1
    aa68:	fa070ce3          	beqz	a4,aa20 <_dtoa_r+0xfe8>
    aa6c:	03900713          	li	a4,57
    aa70:	faea96e3          	bne	s5,a4,aa1c <_dtoa_r+0xfe4>
    aa74:	03900793          	li	a5,57
    aa78:	00fd0023          	sb	a5,0(s10)
    aa7c:	00098793          	mv	a5,s3
    aa80:	03900693          	li	a3,57
    aa84:	00078993          	mv	s3,a5
    aa88:	fff9c703          	lbu	a4,-1(s3)
    aa8c:	fff78793          	addi	a5,a5,-1
    aa90:	0ed70c63          	beq	a4,a3,ab88 <_dtoa_r+0x1150>
    aa94:	00170713          	addi	a4,a4,1
    aa98:	00e78023          	sb	a4,0(a5)
    aa9c:	e0dff06f          	j	a8a8 <_dtoa_r+0xe70>
    aaa0:	00e05c63          	blez	a4,aab8 <_dtoa_r+0x1080>
    aaa4:	03900713          	li	a4,57
    aaa8:	fcea86e3          	beq	s5,a4,aa74 <_dtoa_r+0x103c>
    aaac:	001a8793          	addi	a5,s5,1
    aab0:	00fd0023          	sb	a5,0(s10)
    aab4:	df5ff06f          	j	a8a8 <_dtoa_r+0xe70>
    aab8:	01812783          	lw	a5,24(sp)
    aabc:	ff5c0fa3          	sb	s5,-1(s8)
    aac0:	09878063          	beq	a5,s8,ab40 <_dtoa_r+0x1108>
    aac4:	00c12583          	lw	a1,12(sp)
    aac8:	00000693          	li	a3,0
    aacc:	00a00613          	li	a2,10
    aad0:	00048513          	mv	a0,s1
    aad4:	6b0000ef          	jal	ra,b184 <__multadd>
    aad8:	00a12623          	sw	a0,12(sp)
    aadc:	00000693          	li	a3,0
    aae0:	00a00613          	li	a2,10
    aae4:	000b0593          	mv	a1,s6
    aae8:	00048513          	mv	a0,s1
    aaec:	012b1c63          	bne	s6,s2,ab04 <_dtoa_r+0x10cc>
    aaf0:	694000ef          	jal	ra,b184 <__multadd>
    aaf4:	00050b13          	mv	s6,a0
    aaf8:	00050913          	mv	s2,a0
    aafc:	001c0c13          	addi	s8,s8,1
    ab00:	e91ff06f          	j	a990 <_dtoa_r+0xf58>
    ab04:	680000ef          	jal	ra,b184 <__multadd>
    ab08:	00090593          	mv	a1,s2
    ab0c:	00050b13          	mv	s6,a0
    ab10:	00000693          	li	a3,0
    ab14:	00a00613          	li	a2,10
    ab18:	00048513          	mv	a0,s1
    ab1c:	668000ef          	jal	ra,b184 <__multadd>
    ab20:	00050913          	mv	s2,a0
    ab24:	fd9ff06f          	j	aafc <_dtoa_r+0x10c4>
    ab28:	00100993          	li	s3,1
    ab2c:	01b05463          	blez	s11,ab34 <_dtoa_r+0x10fc>
    ab30:	000d8993          	mv	s3,s11
    ab34:	01012783          	lw	a5,16(sp)
    ab38:	00000b13          	li	s6,0
    ab3c:	013789b3          	add	s3,a5,s3
    ab40:	00c12583          	lw	a1,12(sp)
    ab44:	00100613          	li	a2,1
    ab48:	00048513          	mv	a0,s1
    ab4c:	41d000ef          	jal	ra,b768 <__lshift>
    ab50:	000a0593          	mv	a1,s4
    ab54:	00a12623          	sw	a0,12(sp)
    ab58:	595000ef          	jal	ra,b8ec <__mcmp>
    ab5c:	f2a040e3          	bgtz	a0,aa7c <_dtoa_r+0x1044>
    ab60:	00051663          	bnez	a0,ab6c <_dtoa_r+0x1134>
    ab64:	001af793          	andi	a5,s5,1
    ab68:	f0079ae3          	bnez	a5,aa7c <_dtoa_r+0x1044>
    ab6c:	00098793          	mv	a5,s3
    ab70:	03000713          	li	a4,48
    ab74:	00078993          	mv	s3,a5
    ab78:	fff7c683          	lbu	a3,-1(a5)
    ab7c:	fff78793          	addi	a5,a5,-1
    ab80:	fee68ae3          	beq	a3,a4,ab74 <_dtoa_r+0x113c>
    ab84:	d25ff06f          	j	a8a8 <_dtoa_r+0xe70>
    ab88:	01012703          	lw	a4,16(sp)
    ab8c:	eef71ce3          	bne	a4,a5,aa84 <_dtoa_r+0x104c>
    ab90:	03100793          	li	a5,49
    ab94:	00140413          	addi	s0,s0,1
    ab98:	00f70023          	sb	a5,0(a4)
    ab9c:	d0dff06f          	j	a8a8 <_dtoa_r+0xe70>
    aba0:	02412783          	lw	a5,36(sp)
    aba4:	0000e537          	lui	a0,0xe
    aba8:	00078463          	beqz	a5,abb0 <_dtoa_r+0x1178>
    abac:	fc1fe06f          	j	9b6c <_dtoa_r+0x134>
    abb0:	95850793          	addi	a5,a0,-1704 # d958 <_ctype_+0x194>
    abb4:	00f12823          	sw	a5,16(sp)
    abb8:	fcdfe06f          	j	9b84 <_dtoa_r+0x14c>
    abbc:	01b04863          	bgtz	s11,abcc <_dtoa_r+0x1194>
    abc0:	01412703          	lw	a4,20(sp)
    abc4:	00200793          	li	a5,2
    abc8:	cae7c2e3          	blt	a5,a4,a86c <_dtoa_r+0xe34>
    abcc:	00000993          	li	s3,0
    abd0:	00c12503          	lw	a0,12(sp)
    abd4:	000a0593          	mv	a1,s4
    abd8:	c95fe0ef          	jal	ra,986c <quorem>
    abdc:	01012783          	lw	a5,16(sp)
    abe0:	03050a93          	addi	s5,a0,48
    abe4:	01378733          	add	a4,a5,s3
    abe8:	01570023          	sb	s5,0(a4)
    abec:	00198993          	addi	s3,s3,1
    abf0:	f3b9dce3          	bge	s3,s11,ab28 <_dtoa_r+0x10f0>
    abf4:	00c12583          	lw	a1,12(sp)
    abf8:	00000693          	li	a3,0
    abfc:	00a00613          	li	a2,10
    ac00:	00048513          	mv	a0,s1
    ac04:	580000ef          	jal	ra,b184 <__multadd>
    ac08:	00a12623          	sw	a0,12(sp)
    ac0c:	fc5ff06f          	j	abd0 <_dtoa_r+0x1198>

0000ac10 <std>:
    ac10:	ff010113          	addi	sp,sp,-16
    ac14:	00812423          	sw	s0,8(sp)
    ac18:	00112623          	sw	ra,12(sp)
    ac1c:	00050413          	mv	s0,a0
    ac20:	00b51623          	sh	a1,12(a0)
    ac24:	00c51723          	sh	a2,14(a0)
    ac28:	00052023          	sw	zero,0(a0)
    ac2c:	00052223          	sw	zero,4(a0)
    ac30:	00052423          	sw	zero,8(a0)
    ac34:	06052223          	sw	zero,100(a0)
    ac38:	00052823          	sw	zero,16(a0)
    ac3c:	00052a23          	sw	zero,20(a0)
    ac40:	00052c23          	sw	zero,24(a0)
    ac44:	00800613          	li	a2,8
    ac48:	00000593          	li	a1,0
    ac4c:	05c50513          	addi	a0,a0,92
    ac50:	875f80ef          	jal	ra,34c4 <memset>
    ac54:	0000c7b7          	lui	a5,0xc
    ac58:	1c078793          	addi	a5,a5,448 # c1c0 <__sread>
    ac5c:	02f42223          	sw	a5,36(s0)
    ac60:	0000c7b7          	lui	a5,0xc
    ac64:	21078793          	addi	a5,a5,528 # c210 <__swrite>
    ac68:	02f42423          	sw	a5,40(s0)
    ac6c:	0000c7b7          	lui	a5,0xc
    ac70:	29478793          	addi	a5,a5,660 # c294 <__sseek>
    ac74:	02f42623          	sw	a5,44(s0)
    ac78:	0000c7b7          	lui	a5,0xc
    ac7c:	2ec78793          	addi	a5,a5,748 # c2ec <__sclose>
    ac80:	00c12083          	lw	ra,12(sp)
    ac84:	02842023          	sw	s0,32(s0)
    ac88:	02f42823          	sw	a5,48(s0)
    ac8c:	00812403          	lw	s0,8(sp)
    ac90:	01010113          	addi	sp,sp,16
    ac94:	00008067          	ret

0000ac98 <_cleanup_r>:
    ac98:	0000d5b7          	lui	a1,0xd
    ac9c:	88c58593          	addi	a1,a1,-1908 # c88c <_fflush_r>
    aca0:	2580006f          	j	aef8 <_fwalk_reent>

0000aca4 <__sfmoreglue>:
    aca4:	ff010113          	addi	sp,sp,-16
    aca8:	00912223          	sw	s1,4(sp)
    acac:	06800613          	li	a2,104
    acb0:	fff58493          	addi	s1,a1,-1
    acb4:	02c484b3          	mul	s1,s1,a2
    acb8:	01212023          	sw	s2,0(sp)
    acbc:	00058913          	mv	s2,a1
    acc0:	00812423          	sw	s0,8(sp)
    acc4:	00112623          	sw	ra,12(sp)
    acc8:	07448593          	addi	a1,s1,116
    accc:	a51fd0ef          	jal	ra,871c <_malloc_r>
    acd0:	00050413          	mv	s0,a0
    acd4:	02050063          	beqz	a0,acf4 <__sfmoreglue+0x50>
    acd8:	00052023          	sw	zero,0(a0)
    acdc:	01252223          	sw	s2,4(a0)
    ace0:	00c50513          	addi	a0,a0,12
    ace4:	00a42423          	sw	a0,8(s0)
    ace8:	06848613          	addi	a2,s1,104
    acec:	00000593          	li	a1,0
    acf0:	fd4f80ef          	jal	ra,34c4 <memset>
    acf4:	00c12083          	lw	ra,12(sp)
    acf8:	00040513          	mv	a0,s0
    acfc:	00812403          	lw	s0,8(sp)
    ad00:	00412483          	lw	s1,4(sp)
    ad04:	00012903          	lw	s2,0(sp)
    ad08:	01010113          	addi	sp,sp,16
    ad0c:	00008067          	ret

0000ad10 <__sfp_lock_acquire>:
    ad10:	00203537          	lui	a0,0x203
    ad14:	79450513          	addi	a0,a0,1940 # 203794 <__lock___sfp_recursive_mutex>
    ad18:	f81fa06f          	j	5c98 <__retarget_lock_acquire_recursive>

0000ad1c <__sfp_lock_release>:
    ad1c:	00203537          	lui	a0,0x203
    ad20:	79450513          	addi	a0,a0,1940 # 203794 <__lock___sfp_recursive_mutex>
    ad24:	f81fa06f          	j	5ca4 <__retarget_lock_release_recursive>

0000ad28 <__sinit_lock_acquire>:
    ad28:	00203537          	lui	a0,0x203
    ad2c:	7a850513          	addi	a0,a0,1960 # 2037a8 <__lock___sinit_recursive_mutex>
    ad30:	f69fa06f          	j	5c98 <__retarget_lock_acquire_recursive>

0000ad34 <__sinit_lock_release>:
    ad34:	00203537          	lui	a0,0x203
    ad38:	7a850513          	addi	a0,a0,1960 # 2037a8 <__lock___sinit_recursive_mutex>
    ad3c:	f69fa06f          	j	5ca4 <__retarget_lock_release_recursive>

0000ad40 <__sinit>:
    ad40:	ff010113          	addi	sp,sp,-16
    ad44:	00812423          	sw	s0,8(sp)
    ad48:	00112623          	sw	ra,12(sp)
    ad4c:	00050413          	mv	s0,a0
    ad50:	fd9ff0ef          	jal	ra,ad28 <__sinit_lock_acquire>
    ad54:	01842783          	lw	a5,24(s0)
    ad58:	00078a63          	beqz	a5,ad6c <__sinit+0x2c>
    ad5c:	00812403          	lw	s0,8(sp)
    ad60:	00c12083          	lw	ra,12(sp)
    ad64:	01010113          	addi	sp,sp,16
    ad68:	fcdff06f          	j	ad34 <__sinit_lock_release>
    ad6c:	0000b7b7          	lui	a5,0xb
    ad70:	c9878793          	addi	a5,a5,-872 # ac98 <_cleanup_r>
    ad74:	02f42423          	sw	a5,40(s0)
    ad78:	0000d7b7          	lui	a5,0xd
    ad7c:	1c07a783          	lw	a5,448(a5) # d1c0 <_global_impure_ptr>
    ad80:	04042423          	sw	zero,72(s0)
    ad84:	04042623          	sw	zero,76(s0)
    ad88:	04042823          	sw	zero,80(s0)
    ad8c:	00879663          	bne	a5,s0,ad98 <__sinit+0x58>
    ad90:	00100793          	li	a5,1
    ad94:	00f42c23          	sw	a5,24(s0)
    ad98:	00040513          	mv	a0,s0
    ad9c:	05c000ef          	jal	ra,adf8 <__sfp>
    ada0:	00a42223          	sw	a0,4(s0)
    ada4:	00040513          	mv	a0,s0
    ada8:	050000ef          	jal	ra,adf8 <__sfp>
    adac:	00a42423          	sw	a0,8(s0)
    adb0:	00040513          	mv	a0,s0
    adb4:	044000ef          	jal	ra,adf8 <__sfp>
    adb8:	00a42623          	sw	a0,12(s0)
    adbc:	00442503          	lw	a0,4(s0)
    adc0:	00000613          	li	a2,0
    adc4:	00400593          	li	a1,4
    adc8:	e49ff0ef          	jal	ra,ac10 <std>
    adcc:	00842503          	lw	a0,8(s0)
    add0:	00100613          	li	a2,1
    add4:	00900593          	li	a1,9
    add8:	e39ff0ef          	jal	ra,ac10 <std>
    addc:	00c42503          	lw	a0,12(s0)
    ade0:	00200613          	li	a2,2
    ade4:	01200593          	li	a1,18
    ade8:	e29ff0ef          	jal	ra,ac10 <std>
    adec:	00100793          	li	a5,1
    adf0:	00f42c23          	sw	a5,24(s0)
    adf4:	f69ff06f          	j	ad5c <__sinit+0x1c>

0000adf8 <__sfp>:
    adf8:	ff010113          	addi	sp,sp,-16
    adfc:	00912223          	sw	s1,4(sp)
    ae00:	01212023          	sw	s2,0(sp)
    ae04:	00112623          	sw	ra,12(sp)
    ae08:	00812423          	sw	s0,8(sp)
    ae0c:	00050913          	mv	s2,a0
    ae10:	f01ff0ef          	jal	ra,ad10 <__sfp_lock_acquire>
    ae14:	0000d7b7          	lui	a5,0xd
    ae18:	1c07a483          	lw	s1,448(a5) # d1c0 <_global_impure_ptr>
    ae1c:	0184a783          	lw	a5,24(s1)
    ae20:	00079663          	bnez	a5,ae2c <__sfp+0x34>
    ae24:	00048513          	mv	a0,s1
    ae28:	f19ff0ef          	jal	ra,ad40 <__sinit>
    ae2c:	04848493          	addi	s1,s1,72
    ae30:	0084a403          	lw	s0,8(s1)
    ae34:	0044a783          	lw	a5,4(s1)
    ae38:	fff78793          	addi	a5,a5,-1
    ae3c:	0007da63          	bgez	a5,ae50 <__sfp+0x58>
    ae40:	0004a783          	lw	a5,0(s1)
    ae44:	08078663          	beqz	a5,aed0 <__sfp+0xd8>
    ae48:	0004a483          	lw	s1,0(s1)
    ae4c:	fe5ff06f          	j	ae30 <__sfp+0x38>
    ae50:	00c41703          	lh	a4,12(s0)
    ae54:	06071a63          	bnez	a4,aec8 <__sfp+0xd0>
    ae58:	ffff07b7          	lui	a5,0xffff0
    ae5c:	00178793          	addi	a5,a5,1 # ffff0001 <CONFIG_SYSTEM_WORKQUEUE_PRIORITY+0xffff0002>
    ae60:	00f42623          	sw	a5,12(s0)
    ae64:	05840513          	addi	a0,s0,88
    ae68:	06042223          	sw	zero,100(s0)
    ae6c:	e01fa0ef          	jal	ra,5c6c <__retarget_lock_init_recursive>
    ae70:	eadff0ef          	jal	ra,ad1c <__sfp_lock_release>
    ae74:	00800613          	li	a2,8
    ae78:	00042023          	sw	zero,0(s0)
    ae7c:	00042423          	sw	zero,8(s0)
    ae80:	00042223          	sw	zero,4(s0)
    ae84:	00042823          	sw	zero,16(s0)
    ae88:	00042a23          	sw	zero,20(s0)
    ae8c:	00042c23          	sw	zero,24(s0)
    ae90:	00000593          	li	a1,0
    ae94:	05c40513          	addi	a0,s0,92
    ae98:	e2cf80ef          	jal	ra,34c4 <memset>
    ae9c:	02042a23          	sw	zero,52(s0)
    aea0:	02042c23          	sw	zero,56(s0)
    aea4:	04042423          	sw	zero,72(s0)
    aea8:	04042623          	sw	zero,76(s0)
    aeac:	00c12083          	lw	ra,12(sp)
    aeb0:	00040513          	mv	a0,s0
    aeb4:	00812403          	lw	s0,8(sp)
    aeb8:	00412483          	lw	s1,4(sp)
    aebc:	00012903          	lw	s2,0(sp)
    aec0:	01010113          	addi	sp,sp,16
    aec4:	00008067          	ret
    aec8:	06840413          	addi	s0,s0,104
    aecc:	f6dff06f          	j	ae38 <__sfp+0x40>
    aed0:	00400593          	li	a1,4
    aed4:	00090513          	mv	a0,s2
    aed8:	dcdff0ef          	jal	ra,aca4 <__sfmoreglue>
    aedc:	00a4a023          	sw	a0,0(s1)
    aee0:	00050413          	mv	s0,a0
    aee4:	f60512e3          	bnez	a0,ae48 <__sfp+0x50>
    aee8:	e35ff0ef          	jal	ra,ad1c <__sfp_lock_release>
    aeec:	00c00793          	li	a5,12
    aef0:	00f92023          	sw	a5,0(s2)
    aef4:	fb9ff06f          	j	aeac <__sfp+0xb4>

0000aef8 <_fwalk_reent>:
    aef8:	fd010113          	addi	sp,sp,-48
    aefc:	02812423          	sw	s0,40(sp)
    af00:	03212023          	sw	s2,32(sp)
    af04:	01312e23          	sw	s3,28(sp)
    af08:	01412c23          	sw	s4,24(sp)
    af0c:	01612823          	sw	s6,16(sp)
    af10:	01712623          	sw	s7,12(sp)
    af14:	02112623          	sw	ra,44(sp)
    af18:	02912223          	sw	s1,36(sp)
    af1c:	01512a23          	sw	s5,20(sp)
    af20:	00050913          	mv	s2,a0
    af24:	00058a13          	mv	s4,a1
    af28:	04850413          	addi	s0,a0,72
    af2c:	00000993          	li	s3,0
    af30:	00100b13          	li	s6,1
    af34:	fff00b93          	li	s7,-1
    af38:	00842483          	lw	s1,8(s0)
    af3c:	00442a83          	lw	s5,4(s0)
    af40:	fffa8a93          	addi	s5,s5,-1
    af44:	020ade63          	bgez	s5,af80 <_fwalk_reent+0x88>
    af48:	00042403          	lw	s0,0(s0)
    af4c:	fe0416e3          	bnez	s0,af38 <_fwalk_reent+0x40>
    af50:	02c12083          	lw	ra,44(sp)
    af54:	02812403          	lw	s0,40(sp)
    af58:	02412483          	lw	s1,36(sp)
    af5c:	02012903          	lw	s2,32(sp)
    af60:	01812a03          	lw	s4,24(sp)
    af64:	01412a83          	lw	s5,20(sp)
    af68:	01012b03          	lw	s6,16(sp)
    af6c:	00c12b83          	lw	s7,12(sp)
    af70:	00098513          	mv	a0,s3
    af74:	01c12983          	lw	s3,28(sp)
    af78:	03010113          	addi	sp,sp,48
    af7c:	00008067          	ret
    af80:	00c4d783          	lhu	a5,12(s1)
    af84:	00fb7e63          	bgeu	s6,a5,afa0 <_fwalk_reent+0xa8>
    af88:	00e49783          	lh	a5,14(s1)
    af8c:	01778a63          	beq	a5,s7,afa0 <_fwalk_reent+0xa8>
    af90:	00048593          	mv	a1,s1
    af94:	00090513          	mv	a0,s2
    af98:	000a00e7          	jalr	s4
    af9c:	00a9e9b3          	or	s3,s3,a0
    afa0:	06848493          	addi	s1,s1,104
    afa4:	f9dff06f          	j	af40 <_fwalk_reent+0x48>

0000afa8 <_localeconv_r>:
    afa8:	00203537          	lui	a0,0x203
    afac:	6c050513          	addi	a0,a0,1728 # 2036c0 <__global_locale+0xf0>
    afb0:	00008067          	ret

0000afb4 <memchr>:
    afb4:	0ff5f593          	andi	a1,a1,255
    afb8:	00c50633          	add	a2,a0,a2
    afbc:	00c51663          	bne	a0,a2,afc8 <memchr+0x14>
    afc0:	00000513          	li	a0,0
    afc4:	00008067          	ret
    afc8:	00054783          	lbu	a5,0(a0)
    afcc:	feb78ce3          	beq	a5,a1,afc4 <memchr+0x10>
    afd0:	00150513          	addi	a0,a0,1
    afd4:	fe9ff06f          	j	afbc <memchr+0x8>

0000afd8 <__malloc_lock>:
    afd8:	00203537          	lui	a0,0x203
    afdc:	78050513          	addi	a0,a0,1920 # 203780 <__lock___malloc_recursive_mutex>
    afe0:	cb9fa06f          	j	5c98 <__retarget_lock_acquire_recursive>

0000afe4 <__malloc_unlock>:
    afe4:	00203537          	lui	a0,0x203
    afe8:	78050513          	addi	a0,a0,1920 # 203780 <__lock___malloc_recursive_mutex>
    afec:	cb9fa06f          	j	5ca4 <__retarget_lock_release_recursive>

0000aff0 <_Balloc>:
    aff0:	02452783          	lw	a5,36(a0)
    aff4:	ff010113          	addi	sp,sp,-16
    aff8:	00812423          	sw	s0,8(sp)
    affc:	00912223          	sw	s1,4(sp)
    b000:	00112623          	sw	ra,12(sp)
    b004:	01212023          	sw	s2,0(sp)
    b008:	00050413          	mv	s0,a0
    b00c:	00058493          	mv	s1,a1
    b010:	04079063          	bnez	a5,b050 <_Balloc+0x60>
    b014:	01000513          	li	a0,16
    b018:	df0fd0ef          	jal	ra,8608 <malloc>
    b01c:	02a42223          	sw	a0,36(s0)
    b020:	02051063          	bnez	a0,b040 <_Balloc+0x50>
    b024:	0000e6b7          	lui	a3,0xe
    b028:	0000e537          	lui	a0,0xe
    b02c:	96868693          	addi	a3,a3,-1688 # d968 <_ctype_+0x1a4>
    b030:	00000613          	li	a2,0
    b034:	06600593          	li	a1,102
    b038:	a5850513          	addi	a0,a0,-1448 # da58 <__sf_fake_stdout+0x20>
    b03c:	5bc010ef          	jal	ra,c5f8 <__assert_func>
    b040:	00052223          	sw	zero,4(a0)
    b044:	00052423          	sw	zero,8(a0)
    b048:	00052023          	sw	zero,0(a0)
    b04c:	00052623          	sw	zero,12(a0)
    b050:	02442903          	lw	s2,36(s0)
    b054:	00c92783          	lw	a5,12(s2)
    b058:	04078463          	beqz	a5,b0a0 <_Balloc+0xb0>
    b05c:	02442703          	lw	a4,36(s0)
    b060:	00249793          	slli	a5,s1,0x2
    b064:	00c72703          	lw	a4,12(a4)
    b068:	00f707b3          	add	a5,a4,a5
    b06c:	0007a503          	lw	a0,0(a5)
    b070:	06051663          	bnez	a0,b0dc <_Balloc+0xec>
    b074:	00100913          	li	s2,1
    b078:	00991933          	sll	s2,s2,s1
    b07c:	00590613          	addi	a2,s2,5
    b080:	00261613          	slli	a2,a2,0x2
    b084:	00100593          	li	a1,1
    b088:	00040513          	mv	a0,s0
    b08c:	40d000ef          	jal	ra,bc98 <_calloc_r>
    b090:	02050863          	beqz	a0,b0c0 <_Balloc+0xd0>
    b094:	00952223          	sw	s1,4(a0)
    b098:	01252423          	sw	s2,8(a0)
    b09c:	0480006f          	j	b0e4 <_Balloc+0xf4>
    b0a0:	02100613          	li	a2,33
    b0a4:	00400593          	li	a1,4
    b0a8:	00040513          	mv	a0,s0
    b0ac:	3ed000ef          	jal	ra,bc98 <_calloc_r>
    b0b0:	02442783          	lw	a5,36(s0)
    b0b4:	00a92623          	sw	a0,12(s2)
    b0b8:	00c7a783          	lw	a5,12(a5)
    b0bc:	fa0790e3          	bnez	a5,b05c <_Balloc+0x6c>
    b0c0:	00000513          	li	a0,0
    b0c4:	00c12083          	lw	ra,12(sp)
    b0c8:	00812403          	lw	s0,8(sp)
    b0cc:	00412483          	lw	s1,4(sp)
    b0d0:	00012903          	lw	s2,0(sp)
    b0d4:	01010113          	addi	sp,sp,16
    b0d8:	00008067          	ret
    b0dc:	00052703          	lw	a4,0(a0)
    b0e0:	00e7a023          	sw	a4,0(a5)
    b0e4:	00052823          	sw	zero,16(a0)
    b0e8:	00052623          	sw	zero,12(a0)
    b0ec:	fd9ff06f          	j	b0c4 <_Balloc+0xd4>

0000b0f0 <_Bfree>:
    b0f0:	02452783          	lw	a5,36(a0)
    b0f4:	ff010113          	addi	sp,sp,-16
    b0f8:	00812423          	sw	s0,8(sp)
    b0fc:	00912223          	sw	s1,4(sp)
    b100:	00112623          	sw	ra,12(sp)
    b104:	00050493          	mv	s1,a0
    b108:	00058413          	mv	s0,a1
    b10c:	04079063          	bnez	a5,b14c <_Bfree+0x5c>
    b110:	01000513          	li	a0,16
    b114:	cf4fd0ef          	jal	ra,8608 <malloc>
    b118:	02a4a223          	sw	a0,36(s1)
    b11c:	02051063          	bnez	a0,b13c <_Bfree+0x4c>
    b120:	0000e6b7          	lui	a3,0xe
    b124:	0000e537          	lui	a0,0xe
    b128:	96868693          	addi	a3,a3,-1688 # d968 <_ctype_+0x1a4>
    b12c:	00000613          	li	a2,0
    b130:	08a00593          	li	a1,138
    b134:	a5850513          	addi	a0,a0,-1448 # da58 <__sf_fake_stdout+0x20>
    b138:	4c0010ef          	jal	ra,c5f8 <__assert_func>
    b13c:	00052223          	sw	zero,4(a0)
    b140:	00052423          	sw	zero,8(a0)
    b144:	00052023          	sw	zero,0(a0)
    b148:	00052623          	sw	zero,12(a0)
    b14c:	02040263          	beqz	s0,b170 <_Bfree+0x80>
    b150:	0244a683          	lw	a3,36(s1)
    b154:	00442783          	lw	a5,4(s0)
    b158:	00279713          	slli	a4,a5,0x2
    b15c:	00c6a783          	lw	a5,12(a3)
    b160:	00e787b3          	add	a5,a5,a4
    b164:	0007a703          	lw	a4,0(a5)
    b168:	00e42023          	sw	a4,0(s0)
    b16c:	0087a023          	sw	s0,0(a5)
    b170:	00c12083          	lw	ra,12(sp)
    b174:	00812403          	lw	s0,8(sp)
    b178:	00412483          	lw	s1,4(sp)
    b17c:	01010113          	addi	sp,sp,16
    b180:	00008067          	ret

0000b184 <__multadd>:
    b184:	fe010113          	addi	sp,sp,-32
    b188:	00812c23          	sw	s0,24(sp)
    b18c:	01212823          	sw	s2,16(sp)
    b190:	01312623          	sw	s3,12(sp)
    b194:	0105a903          	lw	s2,16(a1)
    b198:	00058413          	mv	s0,a1
    b19c:	00068993          	mv	s3,a3
    b1a0:	01458693          	addi	a3,a1,20
    b1a4:	000105b7          	lui	a1,0x10
    b1a8:	00912a23          	sw	s1,20(sp)
    b1ac:	00112e23          	sw	ra,28(sp)
    b1b0:	00050493          	mv	s1,a0
    b1b4:	01412423          	sw	s4,8(sp)
    b1b8:	00000513          	li	a0,0
    b1bc:	fff58593          	addi	a1,a1,-1 # ffff <z_interrupt_stacks+0x6bf>
    b1c0:	0006a783          	lw	a5,0(a3)
    b1c4:	00468693          	addi	a3,a3,4
    b1c8:	00150513          	addi	a0,a0,1
    b1cc:	00b7f733          	and	a4,a5,a1
    b1d0:	02c70733          	mul	a4,a4,a2
    b1d4:	0107d793          	srli	a5,a5,0x10
    b1d8:	02c787b3          	mul	a5,a5,a2
    b1dc:	01370733          	add	a4,a4,s3
    b1e0:	01075813          	srli	a6,a4,0x10
    b1e4:	00b77733          	and	a4,a4,a1
    b1e8:	010787b3          	add	a5,a5,a6
    b1ec:	0107d993          	srli	s3,a5,0x10
    b1f0:	01079793          	slli	a5,a5,0x10
    b1f4:	00e787b3          	add	a5,a5,a4
    b1f8:	fef6ae23          	sw	a5,-4(a3)
    b1fc:	fd2542e3          	blt	a0,s2,b1c0 <__multadd+0x3c>
    b200:	08098063          	beqz	s3,b280 <__multadd+0xfc>
    b204:	00842783          	lw	a5,8(s0)
    b208:	06f94063          	blt	s2,a5,b268 <__multadd+0xe4>
    b20c:	00442583          	lw	a1,4(s0)
    b210:	00048513          	mv	a0,s1
    b214:	00158593          	addi	a1,a1,1
    b218:	dd9ff0ef          	jal	ra,aff0 <_Balloc>
    b21c:	00050a13          	mv	s4,a0
    b220:	02051063          	bnez	a0,b240 <__multadd+0xbc>
    b224:	0000e6b7          	lui	a3,0xe
    b228:	0000e537          	lui	a0,0xe
    b22c:	9e468693          	addi	a3,a3,-1564 # d9e4 <_ctype_+0x220>
    b230:	00000613          	li	a2,0
    b234:	0b500593          	li	a1,181
    b238:	a5850513          	addi	a0,a0,-1448 # da58 <__sf_fake_stdout+0x20>
    b23c:	3bc010ef          	jal	ra,c5f8 <__assert_func>
    b240:	01042603          	lw	a2,16(s0)
    b244:	00c40593          	addi	a1,s0,12
    b248:	00c50513          	addi	a0,a0,12
    b24c:	00260613          	addi	a2,a2,2
    b250:	00261613          	slli	a2,a2,0x2
    b254:	a4cf80ef          	jal	ra,34a0 <memcpy>
    b258:	00040593          	mv	a1,s0
    b25c:	00048513          	mv	a0,s1
    b260:	e91ff0ef          	jal	ra,b0f0 <_Bfree>
    b264:	000a0413          	mv	s0,s4
    b268:	00490793          	addi	a5,s2,4
    b26c:	00279793          	slli	a5,a5,0x2
    b270:	00f407b3          	add	a5,s0,a5
    b274:	0137a223          	sw	s3,4(a5)
    b278:	00190913          	addi	s2,s2,1
    b27c:	01242823          	sw	s2,16(s0)
    b280:	01c12083          	lw	ra,28(sp)
    b284:	00040513          	mv	a0,s0
    b288:	01812403          	lw	s0,24(sp)
    b28c:	01412483          	lw	s1,20(sp)
    b290:	01012903          	lw	s2,16(sp)
    b294:	00c12983          	lw	s3,12(sp)
    b298:	00812a03          	lw	s4,8(sp)
    b29c:	02010113          	addi	sp,sp,32
    b2a0:	00008067          	ret

0000b2a4 <__hi0bits>:
    b2a4:	ffff0737          	lui	a4,0xffff0
    b2a8:	00e57733          	and	a4,a0,a4
    b2ac:	00050793          	mv	a5,a0
    b2b0:	00000513          	li	a0,0
    b2b4:	00071663          	bnez	a4,b2c0 <__hi0bits+0x1c>
    b2b8:	01079793          	slli	a5,a5,0x10
    b2bc:	01000513          	li	a0,16
    b2c0:	ff000737          	lui	a4,0xff000
    b2c4:	00e7f733          	and	a4,a5,a4
    b2c8:	00071663          	bnez	a4,b2d4 <__hi0bits+0x30>
    b2cc:	00850513          	addi	a0,a0,8
    b2d0:	00879793          	slli	a5,a5,0x8
    b2d4:	f0000737          	lui	a4,0xf0000
    b2d8:	00e7f733          	and	a4,a5,a4
    b2dc:	00071663          	bnez	a4,b2e8 <__hi0bits+0x44>
    b2e0:	00450513          	addi	a0,a0,4
    b2e4:	00479793          	slli	a5,a5,0x4
    b2e8:	c0000737          	lui	a4,0xc0000
    b2ec:	00e7f733          	and	a4,a5,a4
    b2f0:	00071663          	bnez	a4,b2fc <__hi0bits+0x58>
    b2f4:	00250513          	addi	a0,a0,2
    b2f8:	00279793          	slli	a5,a5,0x2
    b2fc:	0007cc63          	bltz	a5,b314 <__hi0bits+0x70>
    b300:	40000737          	lui	a4,0x40000
    b304:	00e7f7b3          	and	a5,a5,a4
    b308:	00150513          	addi	a0,a0,1
    b30c:	00079463          	bnez	a5,b314 <__hi0bits+0x70>
    b310:	02000513          	li	a0,32
    b314:	00008067          	ret

0000b318 <__lo0bits>:
    b318:	00052783          	lw	a5,0(a0)
    b31c:	00050713          	mv	a4,a0
    b320:	0077f693          	andi	a3,a5,7
    b324:	02068c63          	beqz	a3,b35c <__lo0bits+0x44>
    b328:	0017f693          	andi	a3,a5,1
    b32c:	00000513          	li	a0,0
    b330:	08069a63          	bnez	a3,b3c4 <__lo0bits+0xac>
    b334:	0027f693          	andi	a3,a5,2
    b338:	00068a63          	beqz	a3,b34c <__lo0bits+0x34>
    b33c:	0017d793          	srli	a5,a5,0x1
    b340:	00f72023          	sw	a5,0(a4) # 40000000 <CONFIG_SYS_CLOCK_HW_CYCLES_PER_SEC+0x3d050f80>
    b344:	00100513          	li	a0,1
    b348:	00008067          	ret
    b34c:	0027d793          	srli	a5,a5,0x2
    b350:	00f72023          	sw	a5,0(a4)
    b354:	00200513          	li	a0,2
    b358:	00008067          	ret
    b35c:	01079693          	slli	a3,a5,0x10
    b360:	0106d693          	srli	a3,a3,0x10
    b364:	00000513          	li	a0,0
    b368:	00069663          	bnez	a3,b374 <__lo0bits+0x5c>
    b36c:	0107d793          	srli	a5,a5,0x10
    b370:	01000513          	li	a0,16
    b374:	0ff7f693          	andi	a3,a5,255
    b378:	00069663          	bnez	a3,b384 <__lo0bits+0x6c>
    b37c:	00850513          	addi	a0,a0,8
    b380:	0087d793          	srli	a5,a5,0x8
    b384:	00f7f693          	andi	a3,a5,15
    b388:	00069663          	bnez	a3,b394 <__lo0bits+0x7c>
    b38c:	00450513          	addi	a0,a0,4
    b390:	0047d793          	srli	a5,a5,0x4
    b394:	0037f693          	andi	a3,a5,3
    b398:	00069663          	bnez	a3,b3a4 <__lo0bits+0x8c>
    b39c:	00250513          	addi	a0,a0,2
    b3a0:	0027d793          	srli	a5,a5,0x2
    b3a4:	0017f693          	andi	a3,a5,1
    b3a8:	00069863          	bnez	a3,b3b8 <__lo0bits+0xa0>
    b3ac:	0017d793          	srli	a5,a5,0x1
    b3b0:	00150513          	addi	a0,a0,1
    b3b4:	00078663          	beqz	a5,b3c0 <__lo0bits+0xa8>
    b3b8:	00f72023          	sw	a5,0(a4)
    b3bc:	00008067          	ret
    b3c0:	02000513          	li	a0,32
    b3c4:	00008067          	ret

0000b3c8 <__i2b>:
    b3c8:	ff010113          	addi	sp,sp,-16
    b3cc:	00812423          	sw	s0,8(sp)
    b3d0:	00058413          	mv	s0,a1
    b3d4:	00100593          	li	a1,1
    b3d8:	00112623          	sw	ra,12(sp)
    b3dc:	c15ff0ef          	jal	ra,aff0 <_Balloc>
    b3e0:	02051063          	bnez	a0,b400 <__i2b+0x38>
    b3e4:	0000e6b7          	lui	a3,0xe
    b3e8:	0000e537          	lui	a0,0xe
    b3ec:	9e468693          	addi	a3,a3,-1564 # d9e4 <_ctype_+0x220>
    b3f0:	00000613          	li	a2,0
    b3f4:	14000593          	li	a1,320
    b3f8:	a5850513          	addi	a0,a0,-1448 # da58 <__sf_fake_stdout+0x20>
    b3fc:	1fc010ef          	jal	ra,c5f8 <__assert_func>
    b400:	00c12083          	lw	ra,12(sp)
    b404:	00852a23          	sw	s0,20(a0)
    b408:	00812403          	lw	s0,8(sp)
    b40c:	00100713          	li	a4,1
    b410:	00e52823          	sw	a4,16(a0)
    b414:	01010113          	addi	sp,sp,16
    b418:	00008067          	ret

0000b41c <__multiply>:
    b41c:	0105a703          	lw	a4,16(a1)
    b420:	01062783          	lw	a5,16(a2)
    b424:	fe010113          	addi	sp,sp,-32
    b428:	00812c23          	sw	s0,24(sp)
    b42c:	01212823          	sw	s2,16(sp)
    b430:	00112e23          	sw	ra,28(sp)
    b434:	00912a23          	sw	s1,20(sp)
    b438:	01312623          	sw	s3,12(sp)
    b43c:	01412423          	sw	s4,8(sp)
    b440:	00058413          	mv	s0,a1
    b444:	00060913          	mv	s2,a2
    b448:	00f75663          	bge	a4,a5,b454 <__multiply+0x38>
    b44c:	00060413          	mv	s0,a2
    b450:	00058913          	mv	s2,a1
    b454:	01042a03          	lw	s4,16(s0)
    b458:	01092983          	lw	s3,16(s2)
    b45c:	00842783          	lw	a5,8(s0)
    b460:	00442583          	lw	a1,4(s0)
    b464:	013a04b3          	add	s1,s4,s3
    b468:	0097d463          	bge	a5,s1,b470 <__multiply+0x54>
    b46c:	00158593          	addi	a1,a1,1
    b470:	b81ff0ef          	jal	ra,aff0 <_Balloc>
    b474:	02051063          	bnez	a0,b494 <__multiply+0x78>
    b478:	0000e6b7          	lui	a3,0xe
    b47c:	0000e537          	lui	a0,0xe
    b480:	9e468693          	addi	a3,a3,-1564 # d9e4 <_ctype_+0x220>
    b484:	00000613          	li	a2,0
    b488:	15d00593          	li	a1,349
    b48c:	a5850513          	addi	a0,a0,-1448 # da58 <__sf_fake_stdout+0x20>
    b490:	168010ef          	jal	ra,c5f8 <__assert_func>
    b494:	01450693          	addi	a3,a0,20
    b498:	00249813          	slli	a6,s1,0x2
    b49c:	01068833          	add	a6,a3,a6
    b4a0:	00068793          	mv	a5,a3
    b4a4:	0707ec63          	bltu	a5,a6,b51c <__multiply+0x100>
    b4a8:	01440313          	addi	t1,s0,20
    b4ac:	002a1593          	slli	a1,s4,0x2
    b4b0:	01490613          	addi	a2,s2,20
    b4b4:	00299893          	slli	a7,s3,0x2
    b4b8:	00b305b3          	add	a1,t1,a1
    b4bc:	01540793          	addi	a5,s0,21
    b4c0:	011608b3          	add	a7,a2,a7
    b4c4:	00400e13          	li	t3,4
    b4c8:	00f5ea63          	bltu	a1,a5,b4dc <__multiply+0xc0>
    b4cc:	40858433          	sub	s0,a1,s0
    b4d0:	feb40413          	addi	s0,s0,-21
    b4d4:	ffc47413          	andi	s0,s0,-4
    b4d8:	00440e13          	addi	t3,s0,4
    b4dc:	00010eb7          	lui	t4,0x10
    b4e0:	fffe8e93          	addi	t4,t4,-1 # ffff <z_interrupt_stacks+0x6bf>
    b4e4:	05166263          	bltu	a2,a7,b528 <__multiply+0x10c>
    b4e8:	00905863          	blez	s1,b4f8 <__multiply+0xdc>
    b4ec:	ffc82783          	lw	a5,-4(a6)
    b4f0:	ffc80813          	addi	a6,a6,-4
    b4f4:	12078463          	beqz	a5,b61c <__multiply+0x200>
    b4f8:	01c12083          	lw	ra,28(sp)
    b4fc:	01812403          	lw	s0,24(sp)
    b500:	00952823          	sw	s1,16(a0)
    b504:	01012903          	lw	s2,16(sp)
    b508:	01412483          	lw	s1,20(sp)
    b50c:	00c12983          	lw	s3,12(sp)
    b510:	00812a03          	lw	s4,8(sp)
    b514:	02010113          	addi	sp,sp,32
    b518:	00008067          	ret
    b51c:	0007a023          	sw	zero,0(a5)
    b520:	00478793          	addi	a5,a5,4
    b524:	f81ff06f          	j	b4a4 <__multiply+0x88>
    b528:	00062f83          	lw	t6,0(a2)
    b52c:	01dfffb3          	and	t6,t6,t4
    b530:	060f8663          	beqz	t6,b59c <__multiply+0x180>
    b534:	00068393          	mv	t2,a3
    b538:	00030293          	mv	t0,t1
    b53c:	00000913          	li	s2,0
    b540:	0002a703          	lw	a4,0(t0)
    b544:	0003a403          	lw	s0,0(t2)
    b548:	00438393          	addi	t2,t2,4
    b54c:	01d77f33          	and	t5,a4,t4
    b550:	03ff0f33          	mul	t5,t5,t6
    b554:	01d477b3          	and	a5,s0,t4
    b558:	01045413          	srli	s0,s0,0x10
    b55c:	00428293          	addi	t0,t0,4
    b560:	00ff0f33          	add	t5,t5,a5
    b564:	01075793          	srli	a5,a4,0x10
    b568:	03f787b3          	mul	a5,a5,t6
    b56c:	012f0f33          	add	t5,t5,s2
    b570:	010f5713          	srli	a4,t5,0x10
    b574:	01df7f33          	and	t5,t5,t4
    b578:	008787b3          	add	a5,a5,s0
    b57c:	00e787b3          	add	a5,a5,a4
    b580:	0107d913          	srli	s2,a5,0x10
    b584:	01079793          	slli	a5,a5,0x10
    b588:	01e7e7b3          	or	a5,a5,t5
    b58c:	fef3ae23          	sw	a5,-4(t2)
    b590:	fab2e8e3          	bltu	t0,a1,b540 <__multiply+0x124>
    b594:	01c687b3          	add	a5,a3,t3
    b598:	0127a023          	sw	s2,0(a5)
    b59c:	00265383          	lhu	t2,2(a2)
    b5a0:	06038863          	beqz	t2,b610 <__multiply+0x1f4>
    b5a4:	0006a783          	lw	a5,0(a3)
    b5a8:	00068f93          	mv	t6,a3
    b5ac:	00030f13          	mv	t5,t1
    b5b0:	00000293          	li	t0,0
    b5b4:	000f2703          	lw	a4,0(t5)
    b5b8:	002fd403          	lhu	s0,2(t6)
    b5bc:	01d7f7b3          	and	a5,a5,t4
    b5c0:	01d77733          	and	a4,a4,t4
    b5c4:	02770733          	mul	a4,a4,t2
    b5c8:	004f8f93          	addi	t6,t6,4
    b5cc:	004f0f13          	addi	t5,t5,4
    b5d0:	00870733          	add	a4,a4,s0
    b5d4:	00570733          	add	a4,a4,t0
    b5d8:	01071293          	slli	t0,a4,0x10
    b5dc:	00f2e7b3          	or	a5,t0,a5
    b5e0:	feffae23          	sw	a5,-4(t6)
    b5e4:	ffef5783          	lhu	a5,-2(t5)
    b5e8:	000fa283          	lw	t0,0(t6)
    b5ec:	01075713          	srli	a4,a4,0x10
    b5f0:	027787b3          	mul	a5,a5,t2
    b5f4:	01d2f2b3          	and	t0,t0,t4
    b5f8:	005787b3          	add	a5,a5,t0
    b5fc:	00e787b3          	add	a5,a5,a4
    b600:	0107d293          	srli	t0,a5,0x10
    b604:	fabf68e3          	bltu	t5,a1,b5b4 <__multiply+0x198>
    b608:	01c68733          	add	a4,a3,t3
    b60c:	00f72023          	sw	a5,0(a4)
    b610:	00460613          	addi	a2,a2,4
    b614:	00468693          	addi	a3,a3,4
    b618:	ecdff06f          	j	b4e4 <__multiply+0xc8>
    b61c:	fff48493          	addi	s1,s1,-1
    b620:	ec9ff06f          	j	b4e8 <__multiply+0xcc>

0000b624 <__pow5mult>:
    b624:	fe010113          	addi	sp,sp,-32
    b628:	00912a23          	sw	s1,20(sp)
    b62c:	01212823          	sw	s2,16(sp)
    b630:	01312623          	sw	s3,12(sp)
    b634:	00112e23          	sw	ra,28(sp)
    b638:	00812c23          	sw	s0,24(sp)
    b63c:	01412423          	sw	s4,8(sp)
    b640:	00367793          	andi	a5,a2,3
    b644:	00050913          	mv	s2,a0
    b648:	00060493          	mv	s1,a2
    b64c:	00058993          	mv	s3,a1
    b650:	02078463          	beqz	a5,b678 <__pow5mult+0x54>
    b654:	fff78793          	addi	a5,a5,-1
    b658:	0000e737          	lui	a4,0xe
    b65c:	abc70713          	addi	a4,a4,-1348 # dabc <p05.0>
    b660:	00279793          	slli	a5,a5,0x2
    b664:	00f707b3          	add	a5,a4,a5
    b668:	0007a603          	lw	a2,0(a5)
    b66c:	00000693          	li	a3,0
    b670:	b15ff0ef          	jal	ra,b184 <__multadd>
    b674:	00050993          	mv	s3,a0
    b678:	4024d493          	srai	s1,s1,0x2
    b67c:	0c048463          	beqz	s1,b744 <__pow5mult+0x120>
    b680:	02492783          	lw	a5,36(s2)
    b684:	04079063          	bnez	a5,b6c4 <__pow5mult+0xa0>
    b688:	01000513          	li	a0,16
    b68c:	f7dfc0ef          	jal	ra,8608 <malloc>
    b690:	02a92223          	sw	a0,36(s2)
    b694:	02051063          	bnez	a0,b6b4 <__pow5mult+0x90>
    b698:	0000e6b7          	lui	a3,0xe
    b69c:	0000e537          	lui	a0,0xe
    b6a0:	96868693          	addi	a3,a3,-1688 # d968 <_ctype_+0x1a4>
    b6a4:	00000613          	li	a2,0
    b6a8:	1ae00593          	li	a1,430
    b6ac:	a5850513          	addi	a0,a0,-1448 # da58 <__sf_fake_stdout+0x20>
    b6b0:	749000ef          	jal	ra,c5f8 <__assert_func>
    b6b4:	00052223          	sw	zero,4(a0)
    b6b8:	00052423          	sw	zero,8(a0)
    b6bc:	00052023          	sw	zero,0(a0)
    b6c0:	00052623          	sw	zero,12(a0)
    b6c4:	02492a03          	lw	s4,36(s2)
    b6c8:	008a2403          	lw	s0,8(s4)
    b6cc:	00041e63          	bnez	s0,b6e8 <__pow5mult+0xc4>
    b6d0:	27100593          	li	a1,625
    b6d4:	00090513          	mv	a0,s2
    b6d8:	cf1ff0ef          	jal	ra,b3c8 <__i2b>
    b6dc:	00aa2423          	sw	a0,8(s4)
    b6e0:	00050413          	mv	s0,a0
    b6e4:	00052023          	sw	zero,0(a0)
    b6e8:	0014f793          	andi	a5,s1,1
    b6ec:	02078463          	beqz	a5,b714 <__pow5mult+0xf0>
    b6f0:	00098593          	mv	a1,s3
    b6f4:	00040613          	mv	a2,s0
    b6f8:	00090513          	mv	a0,s2
    b6fc:	d21ff0ef          	jal	ra,b41c <__multiply>
    b700:	00050a13          	mv	s4,a0
    b704:	00098593          	mv	a1,s3
    b708:	00090513          	mv	a0,s2
    b70c:	9e5ff0ef          	jal	ra,b0f0 <_Bfree>
    b710:	000a0993          	mv	s3,s4
    b714:	4014d493          	srai	s1,s1,0x1
    b718:	02048663          	beqz	s1,b744 <__pow5mult+0x120>
    b71c:	00042503          	lw	a0,0(s0)
    b720:	00051e63          	bnez	a0,b73c <__pow5mult+0x118>
    b724:	00040613          	mv	a2,s0
    b728:	00040593          	mv	a1,s0
    b72c:	00090513          	mv	a0,s2
    b730:	cedff0ef          	jal	ra,b41c <__multiply>
    b734:	00a42023          	sw	a0,0(s0)
    b738:	00052023          	sw	zero,0(a0)
    b73c:	00050413          	mv	s0,a0
    b740:	fa9ff06f          	j	b6e8 <__pow5mult+0xc4>
    b744:	01c12083          	lw	ra,28(sp)
    b748:	01812403          	lw	s0,24(sp)
    b74c:	01412483          	lw	s1,20(sp)
    b750:	01012903          	lw	s2,16(sp)
    b754:	00812a03          	lw	s4,8(sp)
    b758:	00098513          	mv	a0,s3
    b75c:	00c12983          	lw	s3,12(sp)
    b760:	02010113          	addi	sp,sp,32
    b764:	00008067          	ret

0000b768 <__lshift>:
    b768:	fe010113          	addi	sp,sp,-32
    b76c:	00812c23          	sw	s0,24(sp)
    b770:	00058413          	mv	s0,a1
    b774:	01612023          	sw	s6,0(sp)
    b778:	01042b03          	lw	s6,16(s0)
    b77c:	00912a23          	sw	s1,20(sp)
    b780:	0045a583          	lw	a1,4(a1)
    b784:	40565493          	srai	s1,a2,0x5
    b788:	00842783          	lw	a5,8(s0)
    b78c:	01648b33          	add	s6,s1,s6
    b790:	01212823          	sw	s2,16(sp)
    b794:	01412423          	sw	s4,8(sp)
    b798:	01512223          	sw	s5,4(sp)
    b79c:	00112e23          	sw	ra,28(sp)
    b7a0:	01312623          	sw	s3,12(sp)
    b7a4:	00050a93          	mv	s5,a0
    b7a8:	00060913          	mv	s2,a2
    b7ac:	001b0a13          	addi	s4,s6,1
    b7b0:	0347c863          	blt	a5,s4,b7e0 <__lshift+0x78>
    b7b4:	000a8513          	mv	a0,s5
    b7b8:	839ff0ef          	jal	ra,aff0 <_Balloc>
    b7bc:	00050993          	mv	s3,a0
    b7c0:	02051663          	bnez	a0,b7ec <__lshift+0x84>
    b7c4:	0000e6b7          	lui	a3,0xe
    b7c8:	0000e537          	lui	a0,0xe
    b7cc:	9e468693          	addi	a3,a3,-1564 # d9e4 <_ctype_+0x220>
    b7d0:	00000613          	li	a2,0
    b7d4:	1d900593          	li	a1,473
    b7d8:	a5850513          	addi	a0,a0,-1448 # da58 <__sf_fake_stdout+0x20>
    b7dc:	61d000ef          	jal	ra,c5f8 <__assert_func>
    b7e0:	00158593          	addi	a1,a1,1
    b7e4:	00179793          	slli	a5,a5,0x1
    b7e8:	fc9ff06f          	j	b7b0 <__lshift+0x48>
    b7ec:	01450793          	addi	a5,a0,20
    b7f0:	00078693          	mv	a3,a5
    b7f4:	00000713          	li	a4,0
    b7f8:	00468693          	addi	a3,a3,4
    b7fc:	0c974663          	blt	a4,s1,b8c8 <__lshift+0x160>
    b800:	0004d463          	bgez	s1,b808 <__lshift+0xa0>
    b804:	00000493          	li	s1,0
    b808:	00249493          	slli	s1,s1,0x2
    b80c:	009786b3          	add	a3,a5,s1
    b810:	01042783          	lw	a5,16(s0)
    b814:	01440713          	addi	a4,s0,20
    b818:	01f97613          	andi	a2,s2,31
    b81c:	00279793          	slli	a5,a5,0x2
    b820:	00f707b3          	add	a5,a4,a5
    b824:	0a060863          	beqz	a2,b8d4 <__lshift+0x16c>
    b828:	02000813          	li	a6,32
    b82c:	40c80833          	sub	a6,a6,a2
    b830:	00068893          	mv	a7,a3
    b834:	00000593          	li	a1,0
    b838:	00072503          	lw	a0,0(a4)
    b83c:	00488893          	addi	a7,a7,4 # fcc00004 <CONFIG_SYSTEM_WORKQUEUE_PRIORITY+0xfcc00005>
    b840:	00470713          	addi	a4,a4,4
    b844:	00c51533          	sll	a0,a0,a2
    b848:	00b565b3          	or	a1,a0,a1
    b84c:	feb8ae23          	sw	a1,-4(a7)
    b850:	ffc72583          	lw	a1,-4(a4)
    b854:	0105d5b3          	srl	a1,a1,a6
    b858:	fef760e3          	bltu	a4,a5,b838 <__lshift+0xd0>
    b85c:	01540713          	addi	a4,s0,21
    b860:	00400613          	li	a2,4
    b864:	00e7ea63          	bltu	a5,a4,b878 <__lshift+0x110>
    b868:	408787b3          	sub	a5,a5,s0
    b86c:	feb78793          	addi	a5,a5,-21
    b870:	ffc7f793          	andi	a5,a5,-4
    b874:	00478613          	addi	a2,a5,4
    b878:	00c686b3          	add	a3,a3,a2
    b87c:	00b6a023          	sw	a1,0(a3)
    b880:	00058463          	beqz	a1,b888 <__lshift+0x120>
    b884:	002b0a13          	addi	s4,s6,2
    b888:	fffa0a13          	addi	s4,s4,-1
    b88c:	0149a823          	sw	s4,16(s3)
    b890:	000a8513          	mv	a0,s5
    b894:	00040593          	mv	a1,s0
    b898:	859ff0ef          	jal	ra,b0f0 <_Bfree>
    b89c:	01c12083          	lw	ra,28(sp)
    b8a0:	01812403          	lw	s0,24(sp)
    b8a4:	01412483          	lw	s1,20(sp)
    b8a8:	01012903          	lw	s2,16(sp)
    b8ac:	00812a03          	lw	s4,8(sp)
    b8b0:	00412a83          	lw	s5,4(sp)
    b8b4:	00012b03          	lw	s6,0(sp)
    b8b8:	00098513          	mv	a0,s3
    b8bc:	00c12983          	lw	s3,12(sp)
    b8c0:	02010113          	addi	sp,sp,32
    b8c4:	00008067          	ret
    b8c8:	fe06ae23          	sw	zero,-4(a3)
    b8cc:	00170713          	addi	a4,a4,1
    b8d0:	f29ff06f          	j	b7f8 <__lshift+0x90>
    b8d4:	00072603          	lw	a2,0(a4)
    b8d8:	00470713          	addi	a4,a4,4
    b8dc:	00468693          	addi	a3,a3,4
    b8e0:	fec6ae23          	sw	a2,-4(a3)
    b8e4:	fef768e3          	bltu	a4,a5,b8d4 <__lshift+0x16c>
    b8e8:	fa1ff06f          	j	b888 <__lshift+0x120>

0000b8ec <__mcmp>:
    b8ec:	01052683          	lw	a3,16(a0)
    b8f0:	0105a703          	lw	a4,16(a1)
    b8f4:	00050793          	mv	a5,a0
    b8f8:	40e68533          	sub	a0,a3,a4
    b8fc:	04e69063          	bne	a3,a4,b93c <__mcmp+0x50>
    b900:	00271713          	slli	a4,a4,0x2
    b904:	01478793          	addi	a5,a5,20
    b908:	01458593          	addi	a1,a1,20
    b90c:	00e786b3          	add	a3,a5,a4
    b910:	00e585b3          	add	a1,a1,a4
    b914:	ffc6a603          	lw	a2,-4(a3)
    b918:	ffc5a703          	lw	a4,-4(a1)
    b91c:	ffc68693          	addi	a3,a3,-4
    b920:	ffc58593          	addi	a1,a1,-4
    b924:	00e60a63          	beq	a2,a4,b938 <__mcmp+0x4c>
    b928:	fff00513          	li	a0,-1
    b92c:	00e66863          	bltu	a2,a4,b93c <__mcmp+0x50>
    b930:	00100513          	li	a0,1
    b934:	00008067          	ret
    b938:	fcd7eee3          	bltu	a5,a3,b914 <__mcmp+0x28>
    b93c:	00008067          	ret

0000b940 <__mdiff>:
    b940:	fe010113          	addi	sp,sp,-32
    b944:	00812c23          	sw	s0,24(sp)
    b948:	00058413          	mv	s0,a1
    b94c:	01212823          	sw	s2,16(sp)
    b950:	00060593          	mv	a1,a2
    b954:	00050913          	mv	s2,a0
    b958:	00040513          	mv	a0,s0
    b95c:	00912a23          	sw	s1,20(sp)
    b960:	00112e23          	sw	ra,28(sp)
    b964:	01312623          	sw	s3,12(sp)
    b968:	00060493          	mv	s1,a2
    b96c:	f81ff0ef          	jal	ra,b8ec <__mcmp>
    b970:	04051c63          	bnez	a0,b9c8 <__mdiff+0x88>
    b974:	00000593          	li	a1,0
    b978:	00090513          	mv	a0,s2
    b97c:	e74ff0ef          	jal	ra,aff0 <_Balloc>
    b980:	02051063          	bnez	a0,b9a0 <__mdiff+0x60>
    b984:	0000e6b7          	lui	a3,0xe
    b988:	9e468693          	addi	a3,a3,-1564 # d9e4 <_ctype_+0x220>
    b98c:	00000613          	li	a2,0
    b990:	23200593          	li	a1,562
    b994:	0000e537          	lui	a0,0xe
    b998:	a5850513          	addi	a0,a0,-1448 # da58 <__sf_fake_stdout+0x20>
    b99c:	45d000ef          	jal	ra,c5f8 <__assert_func>
    b9a0:	00100793          	li	a5,1
    b9a4:	00f52823          	sw	a5,16(a0)
    b9a8:	00052a23          	sw	zero,20(a0)
    b9ac:	01c12083          	lw	ra,28(sp)
    b9b0:	01812403          	lw	s0,24(sp)
    b9b4:	01412483          	lw	s1,20(sp)
    b9b8:	01012903          	lw	s2,16(sp)
    b9bc:	00c12983          	lw	s3,12(sp)
    b9c0:	02010113          	addi	sp,sp,32
    b9c4:	00008067          	ret
    b9c8:	00100993          	li	s3,1
    b9cc:	00054a63          	bltz	a0,b9e0 <__mdiff+0xa0>
    b9d0:	00048793          	mv	a5,s1
    b9d4:	00000993          	li	s3,0
    b9d8:	00040493          	mv	s1,s0
    b9dc:	00078413          	mv	s0,a5
    b9e0:	0044a583          	lw	a1,4(s1)
    b9e4:	00090513          	mv	a0,s2
    b9e8:	e08ff0ef          	jal	ra,aff0 <_Balloc>
    b9ec:	00051c63          	bnez	a0,ba04 <__mdiff+0xc4>
    b9f0:	0000e6b7          	lui	a3,0xe
    b9f4:	9e468693          	addi	a3,a3,-1564 # d9e4 <_ctype_+0x220>
    b9f8:	00000613          	li	a2,0
    b9fc:	24000593          	li	a1,576
    ba00:	f95ff06f          	j	b994 <__mdiff+0x54>
    ba04:	0104a803          	lw	a6,16(s1)
    ba08:	01042703          	lw	a4,16(s0)
    ba0c:	01448893          	addi	a7,s1,20
    ba10:	00281693          	slli	a3,a6,0x2
    ba14:	01440793          	addi	a5,s0,20
    ba18:	00271713          	slli	a4,a4,0x2
    ba1c:	00010eb7          	lui	t4,0x10
    ba20:	01352623          	sw	s3,12(a0)
    ba24:	00d886b3          	add	a3,a7,a3
    ba28:	00e787b3          	add	a5,a5,a4
    ba2c:	01450613          	addi	a2,a0,20
    ba30:	01400e13          	li	t3,20
    ba34:	00000313          	li	t1,0
    ba38:	fffe8e93          	addi	t4,t4,-1 # ffff <z_interrupt_stacks+0x6bf>
    ba3c:	01c48733          	add	a4,s1,t3
    ba40:	00072703          	lw	a4,0(a4)
    ba44:	01c405b3          	add	a1,s0,t3
    ba48:	0005af03          	lw	t5,0(a1)
    ba4c:	01d775b3          	and	a1,a4,t4
    ba50:	006585b3          	add	a1,a1,t1
    ba54:	01df7333          	and	t1,t5,t4
    ba58:	406585b3          	sub	a1,a1,t1
    ba5c:	010f5f13          	srli	t5,t5,0x10
    ba60:	01075713          	srli	a4,a4,0x10
    ba64:	4105d313          	srai	t1,a1,0x10
    ba68:	41e70733          	sub	a4,a4,t5
    ba6c:	00670733          	add	a4,a4,t1
    ba70:	41075313          	srai	t1,a4,0x10
    ba74:	01d5f5b3          	and	a1,a1,t4
    ba78:	01071713          	slli	a4,a4,0x10
    ba7c:	01c50f33          	add	t5,a0,t3
    ba80:	00b76733          	or	a4,a4,a1
    ba84:	004e0e13          	addi	t3,t3,4
    ba88:	00ef2023          	sw	a4,0(t5)
    ba8c:	008e0733          	add	a4,t3,s0
    ba90:	faf766e3          	bltu	a4,a5,ba3c <__mdiff+0xfc>
    ba94:	01540593          	addi	a1,s0,21
    ba98:	00400713          	li	a4,4
    ba9c:	00b7ea63          	bltu	a5,a1,bab0 <__mdiff+0x170>
    baa0:	408787b3          	sub	a5,a5,s0
    baa4:	feb78793          	addi	a5,a5,-21
    baa8:	ffc7f793          	andi	a5,a5,-4
    baac:	00478713          	addi	a4,a5,4
    bab0:	00e888b3          	add	a7,a7,a4
    bab4:	00010e37          	lui	t3,0x10
    bab8:	00e60733          	add	a4,a2,a4
    babc:	00070e93          	mv	t4,a4
    bac0:	00088593          	mv	a1,a7
    bac4:	fffe0e13          	addi	t3,t3,-1 # ffff <z_interrupt_stacks+0x6bf>
    bac8:	02d5ea63          	bltu	a1,a3,bafc <__mdiff+0x1bc>
    bacc:	ffd88613          	addi	a2,a7,-3
    bad0:	00000793          	li	a5,0
    bad4:	00c6e863          	bltu	a3,a2,bae4 <__mdiff+0x1a4>
    bad8:	00368693          	addi	a3,a3,3
    badc:	411687b3          	sub	a5,a3,a7
    bae0:	ffc7f793          	andi	a5,a5,-4
    bae4:	00f707b3          	add	a5,a4,a5
    bae8:	ffc7a703          	lw	a4,-4(a5)
    baec:	ffc78793          	addi	a5,a5,-4
    baf0:	04070263          	beqz	a4,bb34 <__mdiff+0x1f4>
    baf4:	01052823          	sw	a6,16(a0)
    baf8:	eb5ff06f          	j	b9ac <__mdiff+0x6c>
    bafc:	0005a783          	lw	a5,0(a1)
    bb00:	004e8e93          	addi	t4,t4,4
    bb04:	00458593          	addi	a1,a1,4
    bb08:	01c7f633          	and	a2,a5,t3
    bb0c:	00660633          	add	a2,a2,t1
    bb10:	41065313          	srai	t1,a2,0x10
    bb14:	0107d793          	srli	a5,a5,0x10
    bb18:	006787b3          	add	a5,a5,t1
    bb1c:	4107d313          	srai	t1,a5,0x10
    bb20:	01c67633          	and	a2,a2,t3
    bb24:	01079793          	slli	a5,a5,0x10
    bb28:	00c7e7b3          	or	a5,a5,a2
    bb2c:	fefeae23          	sw	a5,-4(t4)
    bb30:	f99ff06f          	j	bac8 <__mdiff+0x188>
    bb34:	fff80813          	addi	a6,a6,-1
    bb38:	fb1ff06f          	j	bae8 <__mdiff+0x1a8>

0000bb3c <__d2b>:
    bb3c:	fd010113          	addi	sp,sp,-48
    bb40:	02912223          	sw	s1,36(sp)
    bb44:	00058493          	mv	s1,a1
    bb48:	00100593          	li	a1,1
    bb4c:	02812423          	sw	s0,40(sp)
    bb50:	03212023          	sw	s2,32(sp)
    bb54:	01312e23          	sw	s3,28(sp)
    bb58:	02112623          	sw	ra,44(sp)
    bb5c:	01412c23          	sw	s4,24(sp)
    bb60:	00060413          	mv	s0,a2
    bb64:	00068993          	mv	s3,a3
    bb68:	00070913          	mv	s2,a4
    bb6c:	c84ff0ef          	jal	ra,aff0 <_Balloc>
    bb70:	02051063          	bnez	a0,bb90 <__d2b+0x54>
    bb74:	0000e6b7          	lui	a3,0xe
    bb78:	0000e537          	lui	a0,0xe
    bb7c:	9e468693          	addi	a3,a3,-1564 # d9e4 <_ctype_+0x220>
    bb80:	00000613          	li	a2,0
    bb84:	30a00593          	li	a1,778
    bb88:	a5850513          	addi	a0,a0,-1448 # da58 <__sf_fake_stdout+0x20>
    bb8c:	26d000ef          	jal	ra,c5f8 <__assert_func>
    bb90:	00100737          	lui	a4,0x100
    bb94:	fff70793          	addi	a5,a4,-1 # fffff <digits+0x8528f>
    bb98:	0087f7b3          	and	a5,a5,s0
    bb9c:	01445413          	srli	s0,s0,0x14
    bba0:	7ff47413          	andi	s0,s0,2047
    bba4:	00050a13          	mv	s4,a0
    bba8:	08041a63          	bnez	s0,bc3c <__d2b+0x100>
    bbac:	00f12623          	sw	a5,12(sp)
    bbb0:	08048e63          	beqz	s1,bc4c <__d2b+0x110>
    bbb4:	00810513          	addi	a0,sp,8
    bbb8:	00912423          	sw	s1,8(sp)
    bbbc:	f5cff0ef          	jal	ra,b318 <__lo0bits>
    bbc0:	00812683          	lw	a3,8(sp)
    bbc4:	08050063          	beqz	a0,bc44 <__d2b+0x108>
    bbc8:	00c12703          	lw	a4,12(sp)
    bbcc:	02000793          	li	a5,32
    bbd0:	40a787b3          	sub	a5,a5,a0
    bbd4:	00f717b3          	sll	a5,a4,a5
    bbd8:	00d7e7b3          	or	a5,a5,a3
    bbdc:	00a75733          	srl	a4,a4,a0
    bbe0:	00fa2a23          	sw	a5,20(s4)
    bbe4:	00e12623          	sw	a4,12(sp)
    bbe8:	00c12483          	lw	s1,12(sp)
    bbec:	009a2c23          	sw	s1,24(s4)
    bbf0:	009034b3          	snez	s1,s1
    bbf4:	00148493          	addi	s1,s1,1
    bbf8:	009a2823          	sw	s1,16(s4)
    bbfc:	06040a63          	beqz	s0,bc70 <__d2b+0x134>
    bc00:	bcd40413          	addi	s0,s0,-1075
    bc04:	00a40433          	add	s0,s0,a0
    bc08:	03500793          	li	a5,53
    bc0c:	0089a023          	sw	s0,0(s3)
    bc10:	40a78533          	sub	a0,a5,a0
    bc14:	00a92023          	sw	a0,0(s2)
    bc18:	02c12083          	lw	ra,44(sp)
    bc1c:	02812403          	lw	s0,40(sp)
    bc20:	02412483          	lw	s1,36(sp)
    bc24:	02012903          	lw	s2,32(sp)
    bc28:	01c12983          	lw	s3,28(sp)
    bc2c:	000a0513          	mv	a0,s4
    bc30:	01812a03          	lw	s4,24(sp)
    bc34:	03010113          	addi	sp,sp,48
    bc38:	00008067          	ret
    bc3c:	00e7e7b3          	or	a5,a5,a4
    bc40:	f6dff06f          	j	bbac <__d2b+0x70>
    bc44:	00da2a23          	sw	a3,20(s4)
    bc48:	fa1ff06f          	j	bbe8 <__d2b+0xac>
    bc4c:	00c10513          	addi	a0,sp,12
    bc50:	ec8ff0ef          	jal	ra,b318 <__lo0bits>
    bc54:	00c12783          	lw	a5,12(sp)
    bc58:	02050513          	addi	a0,a0,32
    bc5c:	00100493          	li	s1,1
    bc60:	00fa2a23          	sw	a5,20(s4)
    bc64:	00100793          	li	a5,1
    bc68:	00fa2823          	sw	a5,16(s4)
    bc6c:	f91ff06f          	j	bbfc <__d2b+0xc0>
    bc70:	bce50793          	addi	a5,a0,-1074
    bc74:	00f9a023          	sw	a5,0(s3)
    bc78:	00249793          	slli	a5,s1,0x2
    bc7c:	00fa07b3          	add	a5,s4,a5
    bc80:	0107a503          	lw	a0,16(a5)
    bc84:	00549493          	slli	s1,s1,0x5
    bc88:	e1cff0ef          	jal	ra,b2a4 <__hi0bits>
    bc8c:	40a484b3          	sub	s1,s1,a0
    bc90:	00992023          	sw	s1,0(s2)
    bc94:	f85ff06f          	j	bc18 <__d2b+0xdc>

0000bc98 <_calloc_r>:
    bc98:	02c58633          	mul	a2,a1,a2
    bc9c:	fe010113          	addi	sp,sp,-32
    bca0:	00812c23          	sw	s0,24(sp)
    bca4:	00112e23          	sw	ra,28(sp)
    bca8:	00060593          	mv	a1,a2
    bcac:	00c12623          	sw	a2,12(sp)
    bcb0:	a6dfc0ef          	jal	ra,871c <_malloc_r>
    bcb4:	00050413          	mv	s0,a0
    bcb8:	00050863          	beqz	a0,bcc8 <_calloc_r+0x30>
    bcbc:	00c12603          	lw	a2,12(sp)
    bcc0:	00000593          	li	a1,0
    bcc4:	801f70ef          	jal	ra,34c4 <memset>
    bcc8:	01c12083          	lw	ra,28(sp)
    bccc:	00040513          	mv	a0,s0
    bcd0:	01812403          	lw	s0,24(sp)
    bcd4:	02010113          	addi	sp,sp,32
    bcd8:	00008067          	ret

0000bcdc <__sfputc_r>:
    bcdc:	00862783          	lw	a5,8(a2)
    bce0:	fff78793          	addi	a5,a5,-1
    bce4:	00f62423          	sw	a5,8(a2)
    bce8:	0007dc63          	bgez	a5,bd00 <__sfputc_r+0x24>
    bcec:	01862703          	lw	a4,24(a2)
    bcf0:	00e7c663          	blt	a5,a4,bcfc <__sfputc_r+0x20>
    bcf4:	00a00793          	li	a5,10
    bcf8:	00f59463          	bne	a1,a5,bd00 <__sfputc_r+0x24>
    bcfc:	5f80006f          	j	c2f4 <__swbuf_r>
    bd00:	00062783          	lw	a5,0(a2)
    bd04:	00058513          	mv	a0,a1
    bd08:	00178713          	addi	a4,a5,1
    bd0c:	00e62023          	sw	a4,0(a2)
    bd10:	00b78023          	sb	a1,0(a5)
    bd14:	00008067          	ret

0000bd18 <__sfputs_r>:
    bd18:	fe010113          	addi	sp,sp,-32
    bd1c:	00812c23          	sw	s0,24(sp)
    bd20:	00912a23          	sw	s1,20(sp)
    bd24:	01212823          	sw	s2,16(sp)
    bd28:	01312623          	sw	s3,12(sp)
    bd2c:	01412423          	sw	s4,8(sp)
    bd30:	00112e23          	sw	ra,28(sp)
    bd34:	00050913          	mv	s2,a0
    bd38:	00058993          	mv	s3,a1
    bd3c:	00060413          	mv	s0,a2
    bd40:	00d604b3          	add	s1,a2,a3
    bd44:	fff00a13          	li	s4,-1
    bd48:	00941663          	bne	s0,s1,bd54 <__sfputs_r+0x3c>
    bd4c:	00000513          	li	a0,0
    bd50:	01c0006f          	j	bd6c <__sfputs_r+0x54>
    bd54:	00044583          	lbu	a1,0(s0)
    bd58:	00098613          	mv	a2,s3
    bd5c:	00090513          	mv	a0,s2
    bd60:	f7dff0ef          	jal	ra,bcdc <__sfputc_r>
    bd64:	00140413          	addi	s0,s0,1
    bd68:	ff4510e3          	bne	a0,s4,bd48 <__sfputs_r+0x30>
    bd6c:	01c12083          	lw	ra,28(sp)
    bd70:	01812403          	lw	s0,24(sp)
    bd74:	01412483          	lw	s1,20(sp)
    bd78:	01012903          	lw	s2,16(sp)
    bd7c:	00c12983          	lw	s3,12(sp)
    bd80:	00812a03          	lw	s4,8(sp)
    bd84:	02010113          	addi	sp,sp,32
    bd88:	00008067          	ret

0000bd8c <_vfiprintf_r>:
    bd8c:	f5010113          	addi	sp,sp,-176
    bd90:	0a812423          	sw	s0,168(sp)
    bd94:	0a912223          	sw	s1,164(sp)
    bd98:	0b212023          	sw	s2,160(sp)
    bd9c:	09312e23          	sw	s3,156(sp)
    bda0:	0a112623          	sw	ra,172(sp)
    bda4:	09412c23          	sw	s4,152(sp)
    bda8:	09512a23          	sw	s5,148(sp)
    bdac:	09612823          	sw	s6,144(sp)
    bdb0:	09712623          	sw	s7,140(sp)
    bdb4:	09812423          	sw	s8,136(sp)
    bdb8:	09912223          	sw	s9,132(sp)
    bdbc:	09a12023          	sw	s10,128(sp)
    bdc0:	07b12e23          	sw	s11,124(sp)
    bdc4:	00050993          	mv	s3,a0
    bdc8:	00058413          	mv	s0,a1
    bdcc:	00060913          	mv	s2,a2
    bdd0:	00068493          	mv	s1,a3
    bdd4:	00050863          	beqz	a0,bde4 <_vfiprintf_r+0x58>
    bdd8:	01852783          	lw	a5,24(a0)
    bddc:	00079463          	bnez	a5,bde4 <_vfiprintf_r+0x58>
    bde0:	f61fe0ef          	jal	ra,ad40 <__sinit>
    bde4:	0000e7b7          	lui	a5,0xe
    bde8:	a1878793          	addi	a5,a5,-1512 # da18 <__sf_fake_stdin>
    bdec:	08f41c63          	bne	s0,a5,be84 <_vfiprintf_r+0xf8>
    bdf0:	0049a403          	lw	s0,4(s3)
    bdf4:	06442783          	lw	a5,100(s0)
    bdf8:	0017f793          	andi	a5,a5,1
    bdfc:	00079c63          	bnez	a5,be14 <_vfiprintf_r+0x88>
    be00:	00c45783          	lhu	a5,12(s0)
    be04:	2007f793          	andi	a5,a5,512
    be08:	00079663          	bnez	a5,be14 <_vfiprintf_r+0x88>
    be0c:	05842503          	lw	a0,88(s0)
    be10:	e89f90ef          	jal	ra,5c98 <__retarget_lock_acquire_recursive>
    be14:	00c45783          	lhu	a5,12(s0)
    be18:	0087f793          	andi	a5,a5,8
    be1c:	00078663          	beqz	a5,be28 <_vfiprintf_r+0x9c>
    be20:	01042783          	lw	a5,16(s0)
    be24:	0a079063          	bnez	a5,bec4 <_vfiprintf_r+0x138>
    be28:	00040593          	mv	a1,s0
    be2c:	00098513          	mv	a0,s3
    be30:	650000ef          	jal	ra,c480 <__swsetup_r>
    be34:	08050863          	beqz	a0,bec4 <_vfiprintf_r+0x138>
    be38:	06442783          	lw	a5,100(s0)
    be3c:	0017f793          	andi	a5,a5,1
    be40:	06078663          	beqz	a5,beac <_vfiprintf_r+0x120>
    be44:	fff00513          	li	a0,-1
    be48:	0ac12083          	lw	ra,172(sp)
    be4c:	0a812403          	lw	s0,168(sp)
    be50:	0a412483          	lw	s1,164(sp)
    be54:	0a012903          	lw	s2,160(sp)
    be58:	09c12983          	lw	s3,156(sp)
    be5c:	09812a03          	lw	s4,152(sp)
    be60:	09412a83          	lw	s5,148(sp)
    be64:	09012b03          	lw	s6,144(sp)
    be68:	08c12b83          	lw	s7,140(sp)
    be6c:	08812c03          	lw	s8,136(sp)
    be70:	08412c83          	lw	s9,132(sp)
    be74:	08012d03          	lw	s10,128(sp)
    be78:	07c12d83          	lw	s11,124(sp)
    be7c:	0b010113          	addi	sp,sp,176
    be80:	00008067          	ret
    be84:	0000e7b7          	lui	a5,0xe
    be88:	a3878793          	addi	a5,a5,-1480 # da38 <__sf_fake_stdout>
    be8c:	00f41663          	bne	s0,a5,be98 <_vfiprintf_r+0x10c>
    be90:	0089a403          	lw	s0,8(s3)
    be94:	f61ff06f          	j	bdf4 <_vfiprintf_r+0x68>
    be98:	0000e7b7          	lui	a5,0xe
    be9c:	9f878793          	addi	a5,a5,-1544 # d9f8 <__sf_fake_stderr>
    bea0:	f4f41ae3          	bne	s0,a5,bdf4 <_vfiprintf_r+0x68>
    bea4:	00c9a403          	lw	s0,12(s3)
    bea8:	f4dff06f          	j	bdf4 <_vfiprintf_r+0x68>
    beac:	00c45783          	lhu	a5,12(s0)
    beb0:	2007f793          	andi	a5,a5,512
    beb4:	f80798e3          	bnez	a5,be44 <_vfiprintf_r+0xb8>
    beb8:	05842503          	lw	a0,88(s0)
    bebc:	de9f90ef          	jal	ra,5ca4 <__retarget_lock_release_recursive>
    bec0:	f85ff06f          	j	be44 <_vfiprintf_r+0xb8>
    bec4:	02000793          	li	a5,32
    bec8:	02f104a3          	sb	a5,41(sp)
    becc:	00009ab7          	lui	s5,0x9
    bed0:	03000793          	li	a5,48
    bed4:	02012223          	sw	zero,36(sp)
    bed8:	02f10523          	sb	a5,42(sp)
    bedc:	00912623          	sw	s1,12(sp)
    bee0:	02500c93          	li	s9,37
    bee4:	0000eb37          	lui	s6,0xe
    bee8:	0000ebb7          	lui	s7,0xe
    beec:	0000ed37          	lui	s10,0xe
    bef0:	0000cc37          	lui	s8,0xc
    bef4:	a8ca8a93          	addi	s5,s5,-1396 # 8a8c <_printf_float>
    bef8:	00090493          	mv	s1,s2
    befc:	0004c783          	lbu	a5,0(s1)
    bf00:	00078463          	beqz	a5,bf08 <_vfiprintf_r+0x17c>
    bf04:	0d979c63          	bne	a5,s9,bfdc <_vfiprintf_r+0x250>
    bf08:	41248db3          	sub	s11,s1,s2
    bf0c:	03248663          	beq	s1,s2,bf38 <_vfiprintf_r+0x1ac>
    bf10:	000d8693          	mv	a3,s11
    bf14:	00090613          	mv	a2,s2
    bf18:	00040593          	mv	a1,s0
    bf1c:	00098513          	mv	a0,s3
    bf20:	df9ff0ef          	jal	ra,bd18 <__sfputs_r>
    bf24:	fff00793          	li	a5,-1
    bf28:	24f50463          	beq	a0,a5,c170 <_vfiprintf_r+0x3e4>
    bf2c:	02412783          	lw	a5,36(sp)
    bf30:	01b787b3          	add	a5,a5,s11
    bf34:	02f12223          	sw	a5,36(sp)
    bf38:	0004c783          	lbu	a5,0(s1)
    bf3c:	22078a63          	beqz	a5,c170 <_vfiprintf_r+0x3e4>
    bf40:	fff00793          	li	a5,-1
    bf44:	00148913          	addi	s2,s1,1
    bf48:	00012823          	sw	zero,16(sp)
    bf4c:	00012e23          	sw	zero,28(sp)
    bf50:	00f12a23          	sw	a5,20(sp)
    bf54:	00012c23          	sw	zero,24(sp)
    bf58:	040109a3          	sb	zero,83(sp)
    bf5c:	06012423          	sw	zero,104(sp)
    bf60:	00100d93          	li	s11,1
    bf64:	00094583          	lbu	a1,0(s2)
    bf68:	00500613          	li	a2,5
    bf6c:	ac8b0513          	addi	a0,s6,-1336 # dac8 <p05.0+0xc>
    bf70:	844ff0ef          	jal	ra,afb4 <memchr>
    bf74:	01012783          	lw	a5,16(sp)
    bf78:	00190493          	addi	s1,s2,1
    bf7c:	06051463          	bnez	a0,bfe4 <_vfiprintf_r+0x258>
    bf80:	0107f713          	andi	a4,a5,16
    bf84:	00070663          	beqz	a4,bf90 <_vfiprintf_r+0x204>
    bf88:	02000713          	li	a4,32
    bf8c:	04e109a3          	sb	a4,83(sp)
    bf90:	0087f713          	andi	a4,a5,8
    bf94:	00070663          	beqz	a4,bfa0 <_vfiprintf_r+0x214>
    bf98:	02b00713          	li	a4,43
    bf9c:	04e109a3          	sb	a4,83(sp)
    bfa0:	00094683          	lbu	a3,0(s2)
    bfa4:	02a00713          	li	a4,42
    bfa8:	04e68c63          	beq	a3,a4,c000 <_vfiprintf_r+0x274>
    bfac:	01c12783          	lw	a5,28(sp)
    bfb0:	00090493          	mv	s1,s2
    bfb4:	00000693          	li	a3,0
    bfb8:	00900613          	li	a2,9
    bfbc:	00a00513          	li	a0,10
    bfc0:	0004c703          	lbu	a4,0(s1)
    bfc4:	00148593          	addi	a1,s1,1
    bfc8:	fd070713          	addi	a4,a4,-48
    bfcc:	08e67c63          	bgeu	a2,a4,c064 <_vfiprintf_r+0x2d8>
    bfd0:	04068463          	beqz	a3,c018 <_vfiprintf_r+0x28c>
    bfd4:	00f12e23          	sw	a5,28(sp)
    bfd8:	0400006f          	j	c018 <_vfiprintf_r+0x28c>
    bfdc:	00148493          	addi	s1,s1,1
    bfe0:	f1dff06f          	j	befc <_vfiprintf_r+0x170>
    bfe4:	ac8b0713          	addi	a4,s6,-1336
    bfe8:	40e50533          	sub	a0,a0,a4
    bfec:	00ad9533          	sll	a0,s11,a0
    bff0:	00a7e7b3          	or	a5,a5,a0
    bff4:	00f12823          	sw	a5,16(sp)
    bff8:	00048913          	mv	s2,s1
    bffc:	f69ff06f          	j	bf64 <_vfiprintf_r+0x1d8>
    c000:	00c12703          	lw	a4,12(sp)
    c004:	00470693          	addi	a3,a4,4
    c008:	00072703          	lw	a4,0(a4)
    c00c:	00d12623          	sw	a3,12(sp)
    c010:	04074063          	bltz	a4,c050 <_vfiprintf_r+0x2c4>
    c014:	00e12e23          	sw	a4,28(sp)
    c018:	0004c703          	lbu	a4,0(s1)
    c01c:	02e00793          	li	a5,46
    c020:	08f71663          	bne	a4,a5,c0ac <_vfiprintf_r+0x320>
    c024:	0014c703          	lbu	a4,1(s1)
    c028:	02a00793          	li	a5,42
    c02c:	04f71a63          	bne	a4,a5,c080 <_vfiprintf_r+0x2f4>
    c030:	00c12783          	lw	a5,12(sp)
    c034:	00248493          	addi	s1,s1,2
    c038:	00478713          	addi	a4,a5,4
    c03c:	0007a783          	lw	a5,0(a5)
    c040:	00e12623          	sw	a4,12(sp)
    c044:	0207ca63          	bltz	a5,c078 <_vfiprintf_r+0x2ec>
    c048:	00f12a23          	sw	a5,20(sp)
    c04c:	0600006f          	j	c0ac <_vfiprintf_r+0x320>
    c050:	40e00733          	neg	a4,a4
    c054:	0027e793          	ori	a5,a5,2
    c058:	00e12e23          	sw	a4,28(sp)
    c05c:	00f12823          	sw	a5,16(sp)
    c060:	fb9ff06f          	j	c018 <_vfiprintf_r+0x28c>
    c064:	02a787b3          	mul	a5,a5,a0
    c068:	00058493          	mv	s1,a1
    c06c:	00100693          	li	a3,1
    c070:	00e787b3          	add	a5,a5,a4
    c074:	f4dff06f          	j	bfc0 <_vfiprintf_r+0x234>
    c078:	fff00793          	li	a5,-1
    c07c:	fcdff06f          	j	c048 <_vfiprintf_r+0x2bc>
    c080:	00148493          	addi	s1,s1,1
    c084:	00012a23          	sw	zero,20(sp)
    c088:	00000693          	li	a3,0
    c08c:	00000793          	li	a5,0
    c090:	00900613          	li	a2,9
    c094:	00a00513          	li	a0,10
    c098:	0004c703          	lbu	a4,0(s1)
    c09c:	00148593          	addi	a1,s1,1
    c0a0:	fd070713          	addi	a4,a4,-48
    c0a4:	08e67263          	bgeu	a2,a4,c128 <_vfiprintf_r+0x39c>
    c0a8:	fa0690e3          	bnez	a3,c048 <_vfiprintf_r+0x2bc>
    c0ac:	0004c583          	lbu	a1,0(s1)
    c0b0:	00300613          	li	a2,3
    c0b4:	ad0b8513          	addi	a0,s7,-1328 # dad0 <p05.0+0x14>
    c0b8:	efdfe0ef          	jal	ra,afb4 <memchr>
    c0bc:	02050263          	beqz	a0,c0e0 <_vfiprintf_r+0x354>
    c0c0:	ad0b8793          	addi	a5,s7,-1328
    c0c4:	40f50533          	sub	a0,a0,a5
    c0c8:	04000793          	li	a5,64
    c0cc:	00a797b3          	sll	a5,a5,a0
    c0d0:	01012503          	lw	a0,16(sp)
    c0d4:	00148493          	addi	s1,s1,1
    c0d8:	00f56533          	or	a0,a0,a5
    c0dc:	00a12823          	sw	a0,16(sp)
    c0e0:	0004c583          	lbu	a1,0(s1)
    c0e4:	00600613          	li	a2,6
    c0e8:	ad4d0513          	addi	a0,s10,-1324 # dad4 <p05.0+0x18>
    c0ec:	00148913          	addi	s2,s1,1
    c0f0:	02b10423          	sb	a1,40(sp)
    c0f4:	ec1fe0ef          	jal	ra,afb4 <memchr>
    c0f8:	0a050663          	beqz	a0,c1a4 <_vfiprintf_r+0x418>
    c0fc:	040a9863          	bnez	s5,c14c <_vfiprintf_r+0x3c0>
    c100:	01012703          	lw	a4,16(sp)
    c104:	00c12783          	lw	a5,12(sp)
    c108:	10077713          	andi	a4,a4,256
    c10c:	02070863          	beqz	a4,c13c <_vfiprintf_r+0x3b0>
    c110:	00478793          	addi	a5,a5,4
    c114:	00f12623          	sw	a5,12(sp)
    c118:	02412783          	lw	a5,36(sp)
    c11c:	014787b3          	add	a5,a5,s4
    c120:	02f12223          	sw	a5,36(sp)
    c124:	dd5ff06f          	j	bef8 <_vfiprintf_r+0x16c>
    c128:	02a787b3          	mul	a5,a5,a0
    c12c:	00058493          	mv	s1,a1
    c130:	00100693          	li	a3,1
    c134:	00e787b3          	add	a5,a5,a4
    c138:	f61ff06f          	j	c098 <_vfiprintf_r+0x30c>
    c13c:	00778793          	addi	a5,a5,7
    c140:	ff87f793          	andi	a5,a5,-8
    c144:	00878793          	addi	a5,a5,8
    c148:	fcdff06f          	j	c114 <_vfiprintf_r+0x388>
    c14c:	00c10713          	addi	a4,sp,12
    c150:	d18c0693          	addi	a3,s8,-744 # bd18 <__sfputs_r>
    c154:	00040613          	mv	a2,s0
    c158:	01010593          	addi	a1,sp,16
    c15c:	00098513          	mv	a0,s3
    c160:	92dfc0ef          	jal	ra,8a8c <_printf_float>
    c164:	fff00793          	li	a5,-1
    c168:	00050a13          	mv	s4,a0
    c16c:	faf516e3          	bne	a0,a5,c118 <_vfiprintf_r+0x38c>
    c170:	06442783          	lw	a5,100(s0)
    c174:	0017f793          	andi	a5,a5,1
    c178:	00079c63          	bnez	a5,c190 <_vfiprintf_r+0x404>
    c17c:	00c45783          	lhu	a5,12(s0)
    c180:	2007f793          	andi	a5,a5,512
    c184:	00079663          	bnez	a5,c190 <_vfiprintf_r+0x404>
    c188:	05842503          	lw	a0,88(s0)
    c18c:	b19f90ef          	jal	ra,5ca4 <__retarget_lock_release_recursive>
    c190:	00c45783          	lhu	a5,12(s0)
    c194:	0407f793          	andi	a5,a5,64
    c198:	ca0796e3          	bnez	a5,be44 <_vfiprintf_r+0xb8>
    c19c:	02412503          	lw	a0,36(sp)
    c1a0:	ca9ff06f          	j	be48 <_vfiprintf_r+0xbc>
    c1a4:	00c10713          	addi	a4,sp,12
    c1a8:	d18c0693          	addi	a3,s8,-744
    c1ac:	00040613          	mv	a2,s0
    c1b0:	01010593          	addi	a1,sp,16
    c1b4:	00098513          	mv	a0,s3
    c1b8:	a18fd0ef          	jal	ra,93d0 <_printf_i>
    c1bc:	fa9ff06f          	j	c164 <_vfiprintf_r+0x3d8>

0000c1c0 <__sread>:
    c1c0:	ff010113          	addi	sp,sp,-16
    c1c4:	00812423          	sw	s0,8(sp)
    c1c8:	00058413          	mv	s0,a1
    c1cc:	00e59583          	lh	a1,14(a1)
    c1d0:	00112623          	sw	ra,12(sp)
    c1d4:	20d000ef          	jal	ra,cbe0 <_read_r>
    c1d8:	02054063          	bltz	a0,c1f8 <__sread+0x38>
    c1dc:	05442783          	lw	a5,84(s0)
    c1e0:	00a787b3          	add	a5,a5,a0
    c1e4:	04f42a23          	sw	a5,84(s0)
    c1e8:	00c12083          	lw	ra,12(sp)
    c1ec:	00812403          	lw	s0,8(sp)
    c1f0:	01010113          	addi	sp,sp,16
    c1f4:	00008067          	ret
    c1f8:	00c45783          	lhu	a5,12(s0)
    c1fc:	fffff737          	lui	a4,0xfffff
    c200:	fff70713          	addi	a4,a4,-1 # ffffefff <CONFIG_SYSTEM_WORKQUEUE_PRIORITY+0xfffff000>
    c204:	00e7f7b3          	and	a5,a5,a4
    c208:	00f41623          	sh	a5,12(s0)
    c20c:	fddff06f          	j	c1e8 <__sread+0x28>

0000c210 <__swrite>:
    c210:	00c5d783          	lhu	a5,12(a1)
    c214:	fe010113          	addi	sp,sp,-32
    c218:	00812c23          	sw	s0,24(sp)
    c21c:	00912a23          	sw	s1,20(sp)
    c220:	01212823          	sw	s2,16(sp)
    c224:	01312623          	sw	s3,12(sp)
    c228:	00112e23          	sw	ra,28(sp)
    c22c:	1007f793          	andi	a5,a5,256
    c230:	00050493          	mv	s1,a0
    c234:	00058413          	mv	s0,a1
    c238:	00060913          	mv	s2,a2
    c23c:	00068993          	mv	s3,a3
    c240:	00078a63          	beqz	a5,c254 <__swrite+0x44>
    c244:	00e59583          	lh	a1,14(a1)
    c248:	00200693          	li	a3,2
    c24c:	00000613          	li	a2,0
    c250:	760000ef          	jal	ra,c9b0 <_lseek_r>
    c254:	00c45783          	lhu	a5,12(s0)
    c258:	fffff737          	lui	a4,0xfffff
    c25c:	fff70713          	addi	a4,a4,-1 # ffffefff <CONFIG_SYSTEM_WORKQUEUE_PRIORITY+0xfffff000>
    c260:	00e7f7b3          	and	a5,a5,a4
    c264:	00e41583          	lh	a1,14(s0)
    c268:	00f41623          	sh	a5,12(s0)
    c26c:	01812403          	lw	s0,24(sp)
    c270:	01c12083          	lw	ra,28(sp)
    c274:	00098693          	mv	a3,s3
    c278:	00090613          	mv	a2,s2
    c27c:	00c12983          	lw	s3,12(sp)
    c280:	01012903          	lw	s2,16(sp)
    c284:	00048513          	mv	a0,s1
    c288:	01412483          	lw	s1,20(sp)
    c28c:	02010113          	addi	sp,sp,32
    c290:	19c0006f          	j	c42c <_write_r>

0000c294 <__sseek>:
    c294:	ff010113          	addi	sp,sp,-16
    c298:	00812423          	sw	s0,8(sp)
    c29c:	00058413          	mv	s0,a1
    c2a0:	00e59583          	lh	a1,14(a1)
    c2a4:	00112623          	sw	ra,12(sp)
    c2a8:	708000ef          	jal	ra,c9b0 <_lseek_r>
    c2ac:	fff00793          	li	a5,-1
    c2b0:	00c45703          	lhu	a4,12(s0)
    c2b4:	02f51263          	bne	a0,a5,c2d8 <__sseek+0x44>
    c2b8:	fffff7b7          	lui	a5,0xfffff
    c2bc:	fff78793          	addi	a5,a5,-1 # ffffefff <CONFIG_SYSTEM_WORKQUEUE_PRIORITY+0xfffff000>
    c2c0:	00e7f7b3          	and	a5,a5,a4
    c2c4:	00f41623          	sh	a5,12(s0)
    c2c8:	00c12083          	lw	ra,12(sp)
    c2cc:	00812403          	lw	s0,8(sp)
    c2d0:	01010113          	addi	sp,sp,16
    c2d4:	00008067          	ret
    c2d8:	000017b7          	lui	a5,0x1
    c2dc:	00f767b3          	or	a5,a4,a5
    c2e0:	00f41623          	sh	a5,12(s0)
    c2e4:	04a42a23          	sw	a0,84(s0)
    c2e8:	fe1ff06f          	j	c2c8 <__sseek+0x34>

0000c2ec <__sclose>:
    c2ec:	00e59583          	lh	a1,14(a1)
    c2f0:	35c0006f          	j	c64c <_close_r>

0000c2f4 <__swbuf_r>:
    c2f4:	fe010113          	addi	sp,sp,-32
    c2f8:	00812c23          	sw	s0,24(sp)
    c2fc:	00912a23          	sw	s1,20(sp)
    c300:	01212823          	sw	s2,16(sp)
    c304:	00112e23          	sw	ra,28(sp)
    c308:	01312623          	sw	s3,12(sp)
    c30c:	00050493          	mv	s1,a0
    c310:	00058913          	mv	s2,a1
    c314:	00060413          	mv	s0,a2
    c318:	00050863          	beqz	a0,c328 <__swbuf_r+0x34>
    c31c:	01852783          	lw	a5,24(a0)
    c320:	00079463          	bnez	a5,c328 <__swbuf_r+0x34>
    c324:	a1dfe0ef          	jal	ra,ad40 <__sinit>
    c328:	0000e7b7          	lui	a5,0xe
    c32c:	a1878793          	addi	a5,a5,-1512 # da18 <__sf_fake_stdin>
    c330:	0af41e63          	bne	s0,a5,c3ec <__swbuf_r+0xf8>
    c334:	0044a403          	lw	s0,4(s1)
    c338:	01842783          	lw	a5,24(s0)
    c33c:	00f42423          	sw	a5,8(s0)
    c340:	00c45783          	lhu	a5,12(s0)
    c344:	0087f793          	andi	a5,a5,8
    c348:	0c078663          	beqz	a5,c414 <__swbuf_r+0x120>
    c34c:	01042783          	lw	a5,16(s0)
    c350:	0c078263          	beqz	a5,c414 <__swbuf_r+0x120>
    c354:	01042783          	lw	a5,16(s0)
    c358:	00042503          	lw	a0,0(s0)
    c35c:	0ff97993          	andi	s3,s2,255
    c360:	0ff97913          	andi	s2,s2,255
    c364:	40f50533          	sub	a0,a0,a5
    c368:	01442783          	lw	a5,20(s0)
    c36c:	00f54a63          	blt	a0,a5,c380 <__swbuf_r+0x8c>
    c370:	00040593          	mv	a1,s0
    c374:	00048513          	mv	a0,s1
    c378:	514000ef          	jal	ra,c88c <_fflush_r>
    c37c:	0a051463          	bnez	a0,c424 <__swbuf_r+0x130>
    c380:	00842783          	lw	a5,8(s0)
    c384:	00150513          	addi	a0,a0,1
    c388:	fff78793          	addi	a5,a5,-1
    c38c:	00f42423          	sw	a5,8(s0)
    c390:	00042783          	lw	a5,0(s0)
    c394:	00178713          	addi	a4,a5,1
    c398:	00e42023          	sw	a4,0(s0)
    c39c:	01378023          	sb	s3,0(a5)
    c3a0:	01442783          	lw	a5,20(s0)
    c3a4:	00a78c63          	beq	a5,a0,c3bc <__swbuf_r+0xc8>
    c3a8:	00c45783          	lhu	a5,12(s0)
    c3ac:	0017f793          	andi	a5,a5,1
    c3b0:	00078e63          	beqz	a5,c3cc <__swbuf_r+0xd8>
    c3b4:	00a00793          	li	a5,10
    c3b8:	00f91a63          	bne	s2,a5,c3cc <__swbuf_r+0xd8>
    c3bc:	00040593          	mv	a1,s0
    c3c0:	00048513          	mv	a0,s1
    c3c4:	4c8000ef          	jal	ra,c88c <_fflush_r>
    c3c8:	04051e63          	bnez	a0,c424 <__swbuf_r+0x130>
    c3cc:	01c12083          	lw	ra,28(sp)
    c3d0:	01812403          	lw	s0,24(sp)
    c3d4:	01412483          	lw	s1,20(sp)
    c3d8:	00c12983          	lw	s3,12(sp)
    c3dc:	00090513          	mv	a0,s2
    c3e0:	01012903          	lw	s2,16(sp)
    c3e4:	02010113          	addi	sp,sp,32
    c3e8:	00008067          	ret
    c3ec:	0000e7b7          	lui	a5,0xe
    c3f0:	a3878793          	addi	a5,a5,-1480 # da38 <__sf_fake_stdout>
    c3f4:	00f41663          	bne	s0,a5,c400 <__swbuf_r+0x10c>
    c3f8:	0084a403          	lw	s0,8(s1)
    c3fc:	f3dff06f          	j	c338 <__swbuf_r+0x44>
    c400:	0000e7b7          	lui	a5,0xe
    c404:	9f878793          	addi	a5,a5,-1544 # d9f8 <__sf_fake_stderr>
    c408:	f2f418e3          	bne	s0,a5,c338 <__swbuf_r+0x44>
    c40c:	00c4a403          	lw	s0,12(s1)
    c410:	f29ff06f          	j	c338 <__swbuf_r+0x44>
    c414:	00040593          	mv	a1,s0
    c418:	00048513          	mv	a0,s1
    c41c:	064000ef          	jal	ra,c480 <__swsetup_r>
    c420:	f2050ae3          	beqz	a0,c354 <__swbuf_r+0x60>
    c424:	fff00913          	li	s2,-1
    c428:	fa5ff06f          	j	c3cc <__swbuf_r+0xd8>

0000c42c <_write_r>:
    c42c:	ff010113          	addi	sp,sp,-16
    c430:	00812423          	sw	s0,8(sp)
    c434:	00912223          	sw	s1,4(sp)
    c438:	00050413          	mv	s0,a0
    c43c:	0000e4b7          	lui	s1,0xe
    c440:	00058513          	mv	a0,a1
    c444:	00060593          	mv	a1,a2
    c448:	00068613          	mv	a2,a3
    c44c:	00112623          	sw	ra,12(sp)
    c450:	b604a823          	sw	zero,-1168(s1) # db70 <errno>
    c454:	f80f90ef          	jal	ra,5bd4 <_write>
    c458:	fff00793          	li	a5,-1
    c45c:	00f51863          	bne	a0,a5,c46c <_write_r+0x40>
    c460:	b704a783          	lw	a5,-1168(s1)
    c464:	00078463          	beqz	a5,c46c <_write_r+0x40>
    c468:	00f42023          	sw	a5,0(s0)
    c46c:	00c12083          	lw	ra,12(sp)
    c470:	00812403          	lw	s0,8(sp)
    c474:	00412483          	lw	s1,4(sp)
    c478:	01010113          	addi	sp,sp,16
    c47c:	00008067          	ret

0000c480 <__swsetup_r>:
    c480:	ff010113          	addi	sp,sp,-16
    c484:	002037b7          	lui	a5,0x203
    c488:	00912223          	sw	s1,4(sp)
    c48c:	76c7a483          	lw	s1,1900(a5) # 20376c <_impure_ptr>
    c490:	00812423          	sw	s0,8(sp)
    c494:	01212023          	sw	s2,0(sp)
    c498:	00112623          	sw	ra,12(sp)
    c49c:	00050913          	mv	s2,a0
    c4a0:	00058413          	mv	s0,a1
    c4a4:	00048a63          	beqz	s1,c4b8 <__swsetup_r+0x38>
    c4a8:	0184a783          	lw	a5,24(s1)
    c4ac:	00079663          	bnez	a5,c4b8 <__swsetup_r+0x38>
    c4b0:	00048513          	mv	a0,s1
    c4b4:	88dfe0ef          	jal	ra,ad40 <__sinit>
    c4b8:	0000e7b7          	lui	a5,0xe
    c4bc:	a1878793          	addi	a5,a5,-1512 # da18 <__sf_fake_stdin>
    c4c0:	02f41e63          	bne	s0,a5,c4fc <__swsetup_r+0x7c>
    c4c4:	0044a403          	lw	s0,4(s1)
    c4c8:	00c41783          	lh	a5,12(s0)
    c4cc:	01079713          	slli	a4,a5,0x10
    c4d0:	0087f693          	andi	a3,a5,8
    c4d4:	01075713          	srli	a4,a4,0x10
    c4d8:	08069a63          	bnez	a3,c56c <__swsetup_r+0xec>
    c4dc:	01077693          	andi	a3,a4,16
    c4e0:	04069263          	bnez	a3,c524 <__swsetup_r+0xa4>
    c4e4:	00900713          	li	a4,9
    c4e8:	00e92023          	sw	a4,0(s2)
    c4ec:	0407e793          	ori	a5,a5,64
    c4f0:	00f41623          	sh	a5,12(s0)
    c4f4:	fff00513          	li	a0,-1
    c4f8:	0d00006f          	j	c5c8 <__swsetup_r+0x148>
    c4fc:	0000e7b7          	lui	a5,0xe
    c500:	a3878793          	addi	a5,a5,-1480 # da38 <__sf_fake_stdout>
    c504:	00f41663          	bne	s0,a5,c510 <__swsetup_r+0x90>
    c508:	0084a403          	lw	s0,8(s1)
    c50c:	fbdff06f          	j	c4c8 <__swsetup_r+0x48>
    c510:	0000e7b7          	lui	a5,0xe
    c514:	9f878793          	addi	a5,a5,-1544 # d9f8 <__sf_fake_stderr>
    c518:	faf418e3          	bne	s0,a5,c4c8 <__swsetup_r+0x48>
    c51c:	00c4a403          	lw	s0,12(s1)
    c520:	fa9ff06f          	j	c4c8 <__swsetup_r+0x48>
    c524:	00477713          	andi	a4,a4,4
    c528:	02070c63          	beqz	a4,c560 <__swsetup_r+0xe0>
    c52c:	03442583          	lw	a1,52(s0)
    c530:	00058c63          	beqz	a1,c548 <__swsetup_r+0xc8>
    c534:	04440793          	addi	a5,s0,68
    c538:	00f58663          	beq	a1,a5,c544 <__swsetup_r+0xc4>
    c53c:	00090513          	mv	a0,s2
    c540:	8d8fc0ef          	jal	ra,8618 <_free_r>
    c544:	02042a23          	sw	zero,52(s0)
    c548:	00c45783          	lhu	a5,12(s0)
    c54c:	00042223          	sw	zero,4(s0)
    c550:	fdb7f793          	andi	a5,a5,-37
    c554:	00f41623          	sh	a5,12(s0)
    c558:	01042783          	lw	a5,16(s0)
    c55c:	00f42023          	sw	a5,0(s0)
    c560:	00c45783          	lhu	a5,12(s0)
    c564:	0087e793          	ori	a5,a5,8
    c568:	00f41623          	sh	a5,12(s0)
    c56c:	01042783          	lw	a5,16(s0)
    c570:	02079063          	bnez	a5,c590 <__swsetup_r+0x110>
    c574:	00c45783          	lhu	a5,12(s0)
    c578:	20000713          	li	a4,512
    c57c:	2807f793          	andi	a5,a5,640
    c580:	00e78863          	beq	a5,a4,c590 <__swsetup_r+0x110>
    c584:	00040593          	mv	a1,s0
    c588:	00090513          	mv	a0,s2
    c58c:	508000ef          	jal	ra,ca94 <__smakebuf_r>
    c590:	00c41783          	lh	a5,12(s0)
    c594:	01079713          	slli	a4,a5,0x10
    c598:	0017f693          	andi	a3,a5,1
    c59c:	01075713          	srli	a4,a4,0x10
    c5a0:	04068063          	beqz	a3,c5e0 <__swsetup_r+0x160>
    c5a4:	01442683          	lw	a3,20(s0)
    c5a8:	00042423          	sw	zero,8(s0)
    c5ac:	40d006b3          	neg	a3,a3
    c5b0:	00d42c23          	sw	a3,24(s0)
    c5b4:	01042683          	lw	a3,16(s0)
    c5b8:	00000513          	li	a0,0
    c5bc:	00069663          	bnez	a3,c5c8 <__swsetup_r+0x148>
    c5c0:	08077713          	andi	a4,a4,128
    c5c4:	f20714e3          	bnez	a4,c4ec <__swsetup_r+0x6c>
    c5c8:	00c12083          	lw	ra,12(sp)
    c5cc:	00812403          	lw	s0,8(sp)
    c5d0:	00412483          	lw	s1,4(sp)
    c5d4:	00012903          	lw	s2,0(sp)
    c5d8:	01010113          	addi	sp,sp,16
    c5dc:	00008067          	ret
    c5e0:	00277693          	andi	a3,a4,2
    c5e4:	00000613          	li	a2,0
    c5e8:	00069463          	bnez	a3,c5f0 <__swsetup_r+0x170>
    c5ec:	01442603          	lw	a2,20(s0)
    c5f0:	00c42423          	sw	a2,8(s0)
    c5f4:	fc1ff06f          	j	c5b4 <__swsetup_r+0x134>

0000c5f8 <__assert_func>:
    c5f8:	002037b7          	lui	a5,0x203
    c5fc:	76c7a783          	lw	a5,1900(a5) # 20376c <_impure_ptr>
    c600:	ff010113          	addi	sp,sp,-16
    c604:	00060813          	mv	a6,a2
    c608:	00112623          	sw	ra,12(sp)
    c60c:	00050893          	mv	a7,a0
    c610:	00058713          	mv	a4,a1
    c614:	00c7a503          	lw	a0,12(a5)
    c618:	00068613          	mv	a2,a3
    c61c:	02080063          	beqz	a6,c63c <__assert_func+0x44>
    c620:	0000e7b7          	lui	a5,0xe
    c624:	adc78793          	addi	a5,a5,-1316 # dadc <p05.0+0x20>
    c628:	0000e5b7          	lui	a1,0xe
    c62c:	00088693          	mv	a3,a7
    c630:	aec58593          	addi	a1,a1,-1300 # daec <p05.0+0x30>
    c634:	334000ef          	jal	ra,c968 <fiprintf>
    c638:	62c000ef          	jal	ra,cc64 <abort>
    c63c:	0000d837          	lui	a6,0xd
    c640:	52c80793          	addi	a5,a6,1324 # d52c <__mprec_tens+0x15c>
    c644:	52c80813          	addi	a6,a6,1324
    c648:	fe1ff06f          	j	c628 <__assert_func+0x30>

0000c64c <_close_r>:
    c64c:	ff010113          	addi	sp,sp,-16
    c650:	00812423          	sw	s0,8(sp)
    c654:	00912223          	sw	s1,4(sp)
    c658:	00050413          	mv	s0,a0
    c65c:	0000e4b7          	lui	s1,0xe
    c660:	00058513          	mv	a0,a1
    c664:	00112623          	sw	ra,12(sp)
    c668:	b604a823          	sw	zero,-1168(s1) # db70 <errno>
    c66c:	d74f90ef          	jal	ra,5be0 <_close>
    c670:	fff00793          	li	a5,-1
    c674:	00f51863          	bne	a0,a5,c684 <_close_r+0x38>
    c678:	b704a783          	lw	a5,-1168(s1)
    c67c:	00078463          	beqz	a5,c684 <_close_r+0x38>
    c680:	00f42023          	sw	a5,0(s0)
    c684:	00c12083          	lw	ra,12(sp)
    c688:	00812403          	lw	s0,8(sp)
    c68c:	00412483          	lw	s1,4(sp)
    c690:	01010113          	addi	sp,sp,16
    c694:	00008067          	ret

0000c698 <__sflush_r>:
    c698:	00c5d783          	lhu	a5,12(a1)
    c69c:	fe010113          	addi	sp,sp,-32
    c6a0:	00812c23          	sw	s0,24(sp)
    c6a4:	00912a23          	sw	s1,20(sp)
    c6a8:	00112e23          	sw	ra,28(sp)
    c6ac:	01212823          	sw	s2,16(sp)
    c6b0:	01312623          	sw	s3,12(sp)
    c6b4:	0087f713          	andi	a4,a5,8
    c6b8:	00050493          	mv	s1,a0
    c6bc:	00058413          	mv	s0,a1
    c6c0:	16071263          	bnez	a4,c824 <__sflush_r+0x18c>
    c6c4:	0045a703          	lw	a4,4(a1)
    c6c8:	00e04a63          	bgtz	a4,c6dc <__sflush_r+0x44>
    c6cc:	0405a703          	lw	a4,64(a1)
    c6d0:	00e04663          	bgtz	a4,c6dc <__sflush_r+0x44>
    c6d4:	00000513          	li	a0,0
    c6d8:	1240006f          	j	c7fc <__sflush_r+0x164>
    c6dc:	02c42703          	lw	a4,44(s0)
    c6e0:	fe070ae3          	beqz	a4,c6d4 <__sflush_r+0x3c>
    c6e4:	000016b7          	lui	a3,0x1
    c6e8:	0004a903          	lw	s2,0(s1)
    c6ec:	00d7f7b3          	and	a5,a5,a3
    c6f0:	0004a023          	sw	zero,0(s1)
    c6f4:	0c078063          	beqz	a5,c7b4 <__sflush_r+0x11c>
    c6f8:	05442503          	lw	a0,84(s0)
    c6fc:	00c45783          	lhu	a5,12(s0)
    c700:	0047f793          	andi	a5,a5,4
    c704:	00078e63          	beqz	a5,c720 <__sflush_r+0x88>
    c708:	00442783          	lw	a5,4(s0)
    c70c:	40f50533          	sub	a0,a0,a5
    c710:	03442783          	lw	a5,52(s0)
    c714:	00078663          	beqz	a5,c720 <__sflush_r+0x88>
    c718:	04042783          	lw	a5,64(s0)
    c71c:	40f50533          	sub	a0,a0,a5
    c720:	02c42783          	lw	a5,44(s0)
    c724:	02042583          	lw	a1,32(s0)
    c728:	00050613          	mv	a2,a0
    c72c:	00000693          	li	a3,0
    c730:	00048513          	mv	a0,s1
    c734:	000780e7          	jalr	a5
    c738:	fff00793          	li	a5,-1
    c73c:	00c45703          	lhu	a4,12(s0)
    c740:	02f51263          	bne	a0,a5,c764 <__sflush_r+0xcc>
    c744:	0004a683          	lw	a3,0(s1)
    c748:	01d00793          	li	a5,29
    c74c:	0cd7e663          	bltu	a5,a3,c818 <__sflush_r+0x180>
    c750:	204007b7          	lui	a5,0x20400
    c754:	00178793          	addi	a5,a5,1 # 20400001 <CONFIG_SYS_CLOCK_HW_CYCLES_PER_SEC+0x1d450f81>
    c758:	00d7d7b3          	srl	a5,a5,a3
    c75c:	0017f793          	andi	a5,a5,1
    c760:	0a078c63          	beqz	a5,c818 <__sflush_r+0x180>
    c764:	01042783          	lw	a5,16(s0)
    c768:	00042223          	sw	zero,4(s0)
    c76c:	00f42023          	sw	a5,0(s0)
    c770:	000017b7          	lui	a5,0x1
    c774:	00f77733          	and	a4,a4,a5
    c778:	00070c63          	beqz	a4,c790 <__sflush_r+0xf8>
    c77c:	fff00793          	li	a5,-1
    c780:	00f51663          	bne	a0,a5,c78c <__sflush_r+0xf4>
    c784:	0004a783          	lw	a5,0(s1)
    c788:	00079463          	bnez	a5,c790 <__sflush_r+0xf8>
    c78c:	04a42a23          	sw	a0,84(s0)
    c790:	03442583          	lw	a1,52(s0)
    c794:	0124a023          	sw	s2,0(s1)
    c798:	f2058ee3          	beqz	a1,c6d4 <__sflush_r+0x3c>
    c79c:	04440793          	addi	a5,s0,68
    c7a0:	00f58663          	beq	a1,a5,c7ac <__sflush_r+0x114>
    c7a4:	00048513          	mv	a0,s1
    c7a8:	e71fb0ef          	jal	ra,8618 <_free_r>
    c7ac:	02042a23          	sw	zero,52(s0)
    c7b0:	f25ff06f          	j	c6d4 <__sflush_r+0x3c>
    c7b4:	02042583          	lw	a1,32(s0)
    c7b8:	00100693          	li	a3,1
    c7bc:	00000613          	li	a2,0
    c7c0:	00048513          	mv	a0,s1
    c7c4:	000700e7          	jalr	a4
    c7c8:	fff00793          	li	a5,-1
    c7cc:	f2f518e3          	bne	a0,a5,c6fc <__sflush_r+0x64>
    c7d0:	0004a783          	lw	a5,0(s1)
    c7d4:	f20784e3          	beqz	a5,c6fc <__sflush_r+0x64>
    c7d8:	01d00713          	li	a4,29
    c7dc:	00e78663          	beq	a5,a4,c7e8 <__sflush_r+0x150>
    c7e0:	01600713          	li	a4,22
    c7e4:	00e79663          	bne	a5,a4,c7f0 <__sflush_r+0x158>
    c7e8:	0124a023          	sw	s2,0(s1)
    c7ec:	ee9ff06f          	j	c6d4 <__sflush_r+0x3c>
    c7f0:	00c45783          	lhu	a5,12(s0)
    c7f4:	0407e793          	ori	a5,a5,64
    c7f8:	00f41623          	sh	a5,12(s0)
    c7fc:	01c12083          	lw	ra,28(sp)
    c800:	01812403          	lw	s0,24(sp)
    c804:	01412483          	lw	s1,20(sp)
    c808:	01012903          	lw	s2,16(sp)
    c80c:	00c12983          	lw	s3,12(sp)
    c810:	02010113          	addi	sp,sp,32
    c814:	00008067          	ret
    c818:	04076713          	ori	a4,a4,64
    c81c:	00e41623          	sh	a4,12(s0)
    c820:	fddff06f          	j	c7fc <__sflush_r+0x164>
    c824:	0105a983          	lw	s3,16(a1)
    c828:	ea0986e3          	beqz	s3,c6d4 <__sflush_r+0x3c>
    c82c:	0005a903          	lw	s2,0(a1)
    c830:	0037f793          	andi	a5,a5,3
    c834:	0135a023          	sw	s3,0(a1)
    c838:	41390933          	sub	s2,s2,s3
    c83c:	00000713          	li	a4,0
    c840:	00079463          	bnez	a5,c848 <__sflush_r+0x1b0>
    c844:	0145a703          	lw	a4,20(a1)
    c848:	00e42423          	sw	a4,8(s0)
    c84c:	e92054e3          	blez	s2,c6d4 <__sflush_r+0x3c>
    c850:	02842783          	lw	a5,40(s0)
    c854:	02042583          	lw	a1,32(s0)
    c858:	00090693          	mv	a3,s2
    c85c:	00098613          	mv	a2,s3
    c860:	00048513          	mv	a0,s1
    c864:	000780e7          	jalr	a5 # 1000 <__adddf3+0x48c>
    c868:	00a04c63          	bgtz	a0,c880 <__sflush_r+0x1e8>
    c86c:	00c45783          	lhu	a5,12(s0)
    c870:	fff00513          	li	a0,-1
    c874:	0407e793          	ori	a5,a5,64
    c878:	00f41623          	sh	a5,12(s0)
    c87c:	f81ff06f          	j	c7fc <__sflush_r+0x164>
    c880:	00a989b3          	add	s3,s3,a0
    c884:	40a90933          	sub	s2,s2,a0
    c888:	fc5ff06f          	j	c84c <__sflush_r+0x1b4>

0000c88c <_fflush_r>:
    c88c:	0105a783          	lw	a5,16(a1)
    c890:	ff010113          	addi	sp,sp,-16
    c894:	00112623          	sw	ra,12(sp)
    c898:	00812423          	sw	s0,8(sp)
    c89c:	00912223          	sw	s1,4(sp)
    c8a0:	02079063          	bnez	a5,c8c0 <_fflush_r+0x34>
    c8a4:	00000493          	li	s1,0
    c8a8:	00c12083          	lw	ra,12(sp)
    c8ac:	00812403          	lw	s0,8(sp)
    c8b0:	00048513          	mv	a0,s1
    c8b4:	00412483          	lw	s1,4(sp)
    c8b8:	01010113          	addi	sp,sp,16
    c8bc:	00008067          	ret
    c8c0:	00050493          	mv	s1,a0
    c8c4:	00058413          	mv	s0,a1
    c8c8:	00050863          	beqz	a0,c8d8 <_fflush_r+0x4c>
    c8cc:	01852783          	lw	a5,24(a0)
    c8d0:	00079463          	bnez	a5,c8d8 <_fflush_r+0x4c>
    c8d4:	c6cfe0ef          	jal	ra,ad40 <__sinit>
    c8d8:	0000e7b7          	lui	a5,0xe
    c8dc:	a1878793          	addi	a5,a5,-1512 # da18 <__sf_fake_stdin>
    c8e0:	06f41063          	bne	s0,a5,c940 <_fflush_r+0xb4>
    c8e4:	0044a403          	lw	s0,4(s1)
    c8e8:	00c41783          	lh	a5,12(s0)
    c8ec:	fa078ce3          	beqz	a5,c8a4 <_fflush_r+0x18>
    c8f0:	06442703          	lw	a4,100(s0)
    c8f4:	00177713          	andi	a4,a4,1
    c8f8:	00071a63          	bnez	a4,c90c <_fflush_r+0x80>
    c8fc:	2007f793          	andi	a5,a5,512
    c900:	00079663          	bnez	a5,c90c <_fflush_r+0x80>
    c904:	05842503          	lw	a0,88(s0)
    c908:	b90f90ef          	jal	ra,5c98 <__retarget_lock_acquire_recursive>
    c90c:	00048513          	mv	a0,s1
    c910:	00040593          	mv	a1,s0
    c914:	d85ff0ef          	jal	ra,c698 <__sflush_r>
    c918:	06442783          	lw	a5,100(s0)
    c91c:	00050493          	mv	s1,a0
    c920:	0017f793          	andi	a5,a5,1
    c924:	f80792e3          	bnez	a5,c8a8 <_fflush_r+0x1c>
    c928:	00c45783          	lhu	a5,12(s0)
    c92c:	2007f793          	andi	a5,a5,512
    c930:	f6079ce3          	bnez	a5,c8a8 <_fflush_r+0x1c>
    c934:	05842503          	lw	a0,88(s0)
    c938:	b6cf90ef          	jal	ra,5ca4 <__retarget_lock_release_recursive>
    c93c:	f6dff06f          	j	c8a8 <_fflush_r+0x1c>
    c940:	0000e7b7          	lui	a5,0xe
    c944:	a3878793          	addi	a5,a5,-1480 # da38 <__sf_fake_stdout>
    c948:	00f41663          	bne	s0,a5,c954 <_fflush_r+0xc8>
    c94c:	0084a403          	lw	s0,8(s1)
    c950:	f99ff06f          	j	c8e8 <_fflush_r+0x5c>
    c954:	0000e7b7          	lui	a5,0xe
    c958:	9f878793          	addi	a5,a5,-1544 # d9f8 <__sf_fake_stderr>
    c95c:	f8f416e3          	bne	s0,a5,c8e8 <_fflush_r+0x5c>
    c960:	00c4a403          	lw	s0,12(s1)
    c964:	f85ff06f          	j	c8e8 <_fflush_r+0x5c>

0000c968 <fiprintf>:
    c968:	fc010113          	addi	sp,sp,-64
    c96c:	02f12a23          	sw	a5,52(sp)
    c970:	002037b7          	lui	a5,0x203
    c974:	02c12423          	sw	a2,40(sp)
    c978:	00058613          	mv	a2,a1
    c97c:	00050593          	mv	a1,a0
    c980:	76c7a503          	lw	a0,1900(a5) # 20376c <_impure_ptr>
    c984:	02d12623          	sw	a3,44(sp)
    c988:	02810693          	addi	a3,sp,40
    c98c:	00112e23          	sw	ra,28(sp)
    c990:	02e12823          	sw	a4,48(sp)
    c994:	03012c23          	sw	a6,56(sp)
    c998:	03112e23          	sw	a7,60(sp)
    c99c:	00d12623          	sw	a3,12(sp)
    c9a0:	becff0ef          	jal	ra,bd8c <_vfiprintf_r>
    c9a4:	01c12083          	lw	ra,28(sp)
    c9a8:	04010113          	addi	sp,sp,64
    c9ac:	00008067          	ret

0000c9b0 <_lseek_r>:
    c9b0:	ff010113          	addi	sp,sp,-16
    c9b4:	00812423          	sw	s0,8(sp)
    c9b8:	00912223          	sw	s1,4(sp)
    c9bc:	00050413          	mv	s0,a0
    c9c0:	0000e4b7          	lui	s1,0xe
    c9c4:	00058513          	mv	a0,a1
    c9c8:	00060593          	mv	a1,a2
    c9cc:	00068613          	mv	a2,a3
    c9d0:	00112623          	sw	ra,12(sp)
    c9d4:	b604a823          	sw	zero,-1168(s1) # db70 <errno>
    c9d8:	a10f90ef          	jal	ra,5be8 <_lseek>
    c9dc:	fff00793          	li	a5,-1
    c9e0:	00f51863          	bne	a0,a5,c9f0 <_lseek_r+0x40>
    c9e4:	b704a783          	lw	a5,-1168(s1)
    c9e8:	00078463          	beqz	a5,c9f0 <_lseek_r+0x40>
    c9ec:	00f42023          	sw	a5,0(s0)
    c9f0:	00c12083          	lw	ra,12(sp)
    c9f4:	00812403          	lw	s0,8(sp)
    c9f8:	00412483          	lw	s1,4(sp)
    c9fc:	01010113          	addi	sp,sp,16
    ca00:	00008067          	ret

0000ca04 <__swhatbuf_r>:
    ca04:	f9010113          	addi	sp,sp,-112
    ca08:	07212023          	sw	s2,96(sp)
    ca0c:	00058913          	mv	s2,a1
    ca10:	00e59583          	lh	a1,14(a1)
    ca14:	06812423          	sw	s0,104(sp)
    ca18:	06912223          	sw	s1,100(sp)
    ca1c:	06112623          	sw	ra,108(sp)
    ca20:	00060413          	mv	s0,a2
    ca24:	00068493          	mv	s1,a3
    ca28:	0005de63          	bgez	a1,ca44 <__swhatbuf_r+0x40>
    ca2c:	00c91783          	lh	a5,12(s2)
    ca30:	0004a023          	sw	zero,0(s1)
    ca34:	0807f793          	andi	a5,a5,128
    ca38:	02079c63          	bnez	a5,ca70 <__swhatbuf_r+0x6c>
    ca3c:	40000793          	li	a5,1024
    ca40:	0340006f          	j	ca74 <__swhatbuf_r+0x70>
    ca44:	00810613          	addi	a2,sp,8
    ca48:	234000ef          	jal	ra,cc7c <_fstat_r>
    ca4c:	fe0540e3          	bltz	a0,ca2c <__swhatbuf_r+0x28>
    ca50:	00c12703          	lw	a4,12(sp)
    ca54:	0000f7b7          	lui	a5,0xf
    ca58:	00e7f7b3          	and	a5,a5,a4
    ca5c:	ffffe737          	lui	a4,0xffffe
    ca60:	00e787b3          	add	a5,a5,a4
    ca64:	0017b793          	seqz	a5,a5
    ca68:	00f4a023          	sw	a5,0(s1)
    ca6c:	fd1ff06f          	j	ca3c <__swhatbuf_r+0x38>
    ca70:	04000793          	li	a5,64
    ca74:	06c12083          	lw	ra,108(sp)
    ca78:	00f42023          	sw	a5,0(s0)
    ca7c:	06812403          	lw	s0,104(sp)
    ca80:	06412483          	lw	s1,100(sp)
    ca84:	06012903          	lw	s2,96(sp)
    ca88:	00000513          	li	a0,0
    ca8c:	07010113          	addi	sp,sp,112
    ca90:	00008067          	ret

0000ca94 <__smakebuf_r>:
    ca94:	00c5d783          	lhu	a5,12(a1)
    ca98:	fe010113          	addi	sp,sp,-32
    ca9c:	00812c23          	sw	s0,24(sp)
    caa0:	00112e23          	sw	ra,28(sp)
    caa4:	00912a23          	sw	s1,20(sp)
    caa8:	01212823          	sw	s2,16(sp)
    caac:	0027f793          	andi	a5,a5,2
    cab0:	00058413          	mv	s0,a1
    cab4:	02078863          	beqz	a5,cae4 <__smakebuf_r+0x50>
    cab8:	04740793          	addi	a5,s0,71
    cabc:	00f42023          	sw	a5,0(s0)
    cac0:	00f42823          	sw	a5,16(s0)
    cac4:	00100793          	li	a5,1
    cac8:	00f42a23          	sw	a5,20(s0)
    cacc:	01c12083          	lw	ra,28(sp)
    cad0:	01812403          	lw	s0,24(sp)
    cad4:	01412483          	lw	s1,20(sp)
    cad8:	01012903          	lw	s2,16(sp)
    cadc:	02010113          	addi	sp,sp,32
    cae0:	00008067          	ret
    cae4:	00c10693          	addi	a3,sp,12
    cae8:	00810613          	addi	a2,sp,8
    caec:	00050913          	mv	s2,a0
    caf0:	f15ff0ef          	jal	ra,ca04 <__swhatbuf_r>
    caf4:	00812583          	lw	a1,8(sp)
    caf8:	00050493          	mv	s1,a0
    cafc:	00090513          	mv	a0,s2
    cb00:	c1dfb0ef          	jal	ra,871c <_malloc_r>
    cb04:	02051063          	bnez	a0,cb24 <__smakebuf_r+0x90>
    cb08:	00c41783          	lh	a5,12(s0)
    cb0c:	2007f713          	andi	a4,a5,512
    cb10:	fa071ee3          	bnez	a4,cacc <__smakebuf_r+0x38>
    cb14:	ffc7f793          	andi	a5,a5,-4
    cb18:	0027e793          	ori	a5,a5,2
    cb1c:	00f41623          	sh	a5,12(s0)
    cb20:	f99ff06f          	j	cab8 <__smakebuf_r+0x24>
    cb24:	0000b7b7          	lui	a5,0xb
    cb28:	c9878793          	addi	a5,a5,-872 # ac98 <_cleanup_r>
    cb2c:	02f92423          	sw	a5,40(s2)
    cb30:	00c45783          	lhu	a5,12(s0)
    cb34:	00a42023          	sw	a0,0(s0)
    cb38:	00a42823          	sw	a0,16(s0)
    cb3c:	0807e793          	ori	a5,a5,128
    cb40:	00f41623          	sh	a5,12(s0)
    cb44:	00812783          	lw	a5,8(sp)
    cb48:	00f42a23          	sw	a5,20(s0)
    cb4c:	00c12783          	lw	a5,12(sp)
    cb50:	02078263          	beqz	a5,cb74 <__smakebuf_r+0xe0>
    cb54:	00e41583          	lh	a1,14(s0)
    cb58:	00090513          	mv	a0,s2
    cb5c:	170000ef          	jal	ra,cccc <_isatty_r>
    cb60:	00050a63          	beqz	a0,cb74 <__smakebuf_r+0xe0>
    cb64:	00c45783          	lhu	a5,12(s0)
    cb68:	ffc7f793          	andi	a5,a5,-4
    cb6c:	0017e793          	ori	a5,a5,1
    cb70:	00f41623          	sh	a5,12(s0)
    cb74:	00c45503          	lhu	a0,12(s0)
    cb78:	00a4e4b3          	or	s1,s1,a0
    cb7c:	00941623          	sh	s1,12(s0)
    cb80:	f4dff06f          	j	cacc <__smakebuf_r+0x38>

0000cb84 <__ascii_mbtowc>:
    cb84:	02059a63          	bnez	a1,cbb8 <__ascii_mbtowc+0x34>
    cb88:	ff010113          	addi	sp,sp,-16
    cb8c:	00c10593          	addi	a1,sp,12
    cb90:	00000513          	li	a0,0
    cb94:	00060e63          	beqz	a2,cbb0 <__ascii_mbtowc+0x2c>
    cb98:	ffe00513          	li	a0,-2
    cb9c:	00068a63          	beqz	a3,cbb0 <__ascii_mbtowc+0x2c>
    cba0:	00064783          	lbu	a5,0(a2)
    cba4:	00f5a023          	sw	a5,0(a1)
    cba8:	00064503          	lbu	a0,0(a2)
    cbac:	00a03533          	snez	a0,a0
    cbb0:	01010113          	addi	sp,sp,16
    cbb4:	00008067          	ret
    cbb8:	00000513          	li	a0,0
    cbbc:	02060063          	beqz	a2,cbdc <__ascii_mbtowc+0x58>
    cbc0:	ffe00513          	li	a0,-2
    cbc4:	00068c63          	beqz	a3,cbdc <__ascii_mbtowc+0x58>
    cbc8:	00064783          	lbu	a5,0(a2)
    cbcc:	00f5a023          	sw	a5,0(a1)
    cbd0:	00064503          	lbu	a0,0(a2)
    cbd4:	00a03533          	snez	a0,a0
    cbd8:	00008067          	ret
    cbdc:	00008067          	ret

0000cbe0 <_read_r>:
    cbe0:	ff010113          	addi	sp,sp,-16
    cbe4:	00812423          	sw	s0,8(sp)
    cbe8:	00912223          	sw	s1,4(sp)
    cbec:	00050413          	mv	s0,a0
    cbf0:	0000e4b7          	lui	s1,0xe
    cbf4:	00058513          	mv	a0,a1
    cbf8:	00060593          	mv	a1,a2
    cbfc:	00068613          	mv	a2,a3
    cc00:	00112623          	sw	ra,12(sp)
    cc04:	b604a823          	sw	zero,-1168(s1) # db70 <errno>
    cc08:	fc1f80ef          	jal	ra,5bc8 <_read>
    cc0c:	fff00793          	li	a5,-1
    cc10:	00f51863          	bne	a0,a5,cc20 <_read_r+0x40>
    cc14:	b704a783          	lw	a5,-1168(s1)
    cc18:	00078463          	beqz	a5,cc20 <_read_r+0x40>
    cc1c:	00f42023          	sw	a5,0(s0)
    cc20:	00c12083          	lw	ra,12(sp)
    cc24:	00812403          	lw	s0,8(sp)
    cc28:	00412483          	lw	s1,4(sp)
    cc2c:	01010113          	addi	sp,sp,16
    cc30:	00008067          	ret

0000cc34 <__ascii_wctomb>:
    cc34:	02058463          	beqz	a1,cc5c <__ascii_wctomb+0x28>
    cc38:	0ff00793          	li	a5,255
    cc3c:	00c7fa63          	bgeu	a5,a2,cc50 <__ascii_wctomb+0x1c>
    cc40:	08a00793          	li	a5,138
    cc44:	00f52023          	sw	a5,0(a0)
    cc48:	fff00513          	li	a0,-1
    cc4c:	00008067          	ret
    cc50:	00c58023          	sb	a2,0(a1)
    cc54:	00100513          	li	a0,1
    cc58:	00008067          	ret
    cc5c:	00000513          	li	a0,0
    cc60:	00008067          	ret

0000cc64 <abort>:
    cc64:	ff010113          	addi	sp,sp,-16
    cc68:	00600513          	li	a0,6
    cc6c:	00112623          	sw	ra,12(sp)
    cc70:	158000ef          	jal	ra,cdc8 <raise>
    cc74:	00100513          	li	a0,1
    cc78:	fa1f80ef          	jal	ra,5c18 <_exit>

0000cc7c <_fstat_r>:
    cc7c:	ff010113          	addi	sp,sp,-16
    cc80:	00812423          	sw	s0,8(sp)
    cc84:	00912223          	sw	s1,4(sp)
    cc88:	00050413          	mv	s0,a0
    cc8c:	0000e4b7          	lui	s1,0xe
    cc90:	00058513          	mv	a0,a1
    cc94:	00060593          	mv	a1,a2
    cc98:	00112623          	sw	ra,12(sp)
    cc9c:	b604a823          	sw	zero,-1168(s1) # db70 <errno>
    cca0:	f69f80ef          	jal	ra,5c08 <_fstat>
    cca4:	fff00793          	li	a5,-1
    cca8:	00f51863          	bne	a0,a5,ccb8 <_fstat_r+0x3c>
    ccac:	b704a783          	lw	a5,-1168(s1)
    ccb0:	00078463          	beqz	a5,ccb8 <_fstat_r+0x3c>
    ccb4:	00f42023          	sw	a5,0(s0)
    ccb8:	00c12083          	lw	ra,12(sp)
    ccbc:	00812403          	lw	s0,8(sp)
    ccc0:	00412483          	lw	s1,4(sp)
    ccc4:	01010113          	addi	sp,sp,16
    ccc8:	00008067          	ret

0000cccc <_isatty_r>:
    cccc:	ff010113          	addi	sp,sp,-16
    ccd0:	00812423          	sw	s0,8(sp)
    ccd4:	00912223          	sw	s1,4(sp)
    ccd8:	00050413          	mv	s0,a0
    ccdc:	0000e4b7          	lui	s1,0xe
    cce0:	00058513          	mv	a0,a1
    cce4:	00112623          	sw	ra,12(sp)
    cce8:	b604a823          	sw	zero,-1168(s1) # db70 <errno>
    ccec:	f05f80ef          	jal	ra,5bf0 <_isatty>
    ccf0:	fff00793          	li	a5,-1
    ccf4:	00f51863          	bne	a0,a5,cd04 <_isatty_r+0x38>
    ccf8:	b704a783          	lw	a5,-1168(s1)
    ccfc:	00078463          	beqz	a5,cd04 <_isatty_r+0x38>
    cd00:	00f42023          	sw	a5,0(s0)
    cd04:	00c12083          	lw	ra,12(sp)
    cd08:	00812403          	lw	s0,8(sp)
    cd0c:	00412483          	lw	s1,4(sp)
    cd10:	01010113          	addi	sp,sp,16
    cd14:	00008067          	ret

0000cd18 <_raise_r>:
    cd18:	fe010113          	addi	sp,sp,-32
    cd1c:	00812c23          	sw	s0,24(sp)
    cd20:	00112e23          	sw	ra,28(sp)
    cd24:	01f00793          	li	a5,31
    cd28:	00050413          	mv	s0,a0
    cd2c:	02b7f063          	bgeu	a5,a1,cd4c <_raise_r+0x34>
    cd30:	01600793          	li	a5,22
    cd34:	00f52023          	sw	a5,0(a0)
    cd38:	fff00513          	li	a0,-1
    cd3c:	01c12083          	lw	ra,28(sp)
    cd40:	01812403          	lw	s0,24(sp)
    cd44:	02010113          	addi	sp,sp,32
    cd48:	00008067          	ret
    cd4c:	04452783          	lw	a5,68(a0)
    cd50:	00058613          	mv	a2,a1
    cd54:	00078a63          	beqz	a5,cd68 <_raise_r+0x50>
    cd58:	00259713          	slli	a4,a1,0x2
    cd5c:	00e787b3          	add	a5,a5,a4
    cd60:	0007a703          	lw	a4,0(a5)
    cd64:	02071663          	bnez	a4,cd90 <_raise_r+0x78>
    cd68:	00040513          	mv	a0,s0
    cd6c:	00c12623          	sw	a2,12(sp)
    cd70:	0b8000ef          	jal	ra,ce28 <_getpid_r>
    cd74:	00050593          	mv	a1,a0
    cd78:	00040513          	mv	a0,s0
    cd7c:	01812403          	lw	s0,24(sp)
    cd80:	00c12603          	lw	a2,12(sp)
    cd84:	01c12083          	lw	ra,28(sp)
    cd88:	02010113          	addi	sp,sp,32
    cd8c:	04c0006f          	j	cdd8 <_kill_r>
    cd90:	00100693          	li	a3,1
    cd94:	00000513          	li	a0,0
    cd98:	fad702e3          	beq	a4,a3,cd3c <_raise_r+0x24>
    cd9c:	fff00693          	li	a3,-1
    cda0:	00d71a63          	bne	a4,a3,cdb4 <_raise_r+0x9c>
    cda4:	01600793          	li	a5,22
    cda8:	00f42023          	sw	a5,0(s0)
    cdac:	00100513          	li	a0,1
    cdb0:	f8dff06f          	j	cd3c <_raise_r+0x24>
    cdb4:	00058513          	mv	a0,a1
    cdb8:	0007a023          	sw	zero,0(a5)
    cdbc:	000700e7          	jalr	a4 # ffffe000 <CONFIG_SYSTEM_WORKQUEUE_PRIORITY+0xffffe001>
    cdc0:	00000513          	li	a0,0
    cdc4:	f79ff06f          	j	cd3c <_raise_r+0x24>

0000cdc8 <raise>:
    cdc8:	002037b7          	lui	a5,0x203
    cdcc:	00050593          	mv	a1,a0
    cdd0:	76c7a503          	lw	a0,1900(a5) # 20376c <_impure_ptr>
    cdd4:	f45ff06f          	j	cd18 <_raise_r>

0000cdd8 <_kill_r>:
    cdd8:	ff010113          	addi	sp,sp,-16
    cddc:	00812423          	sw	s0,8(sp)
    cde0:	00912223          	sw	s1,4(sp)
    cde4:	00050413          	mv	s0,a0
    cde8:	0000e4b7          	lui	s1,0xe
    cdec:	00058513          	mv	a0,a1
    cdf0:	00060593          	mv	a1,a2
    cdf4:	00112623          	sw	ra,12(sp)
    cdf8:	b604a823          	sw	zero,-1168(s1) # db70 <errno>
    cdfc:	dfdf80ef          	jal	ra,5bf8 <_kill>
    ce00:	fff00793          	li	a5,-1
    ce04:	00f51863          	bne	a0,a5,ce14 <_kill_r+0x3c>
    ce08:	b704a783          	lw	a5,-1168(s1)
    ce0c:	00078463          	beqz	a5,ce14 <_kill_r+0x3c>
    ce10:	00f42023          	sw	a5,0(s0)
    ce14:	00c12083          	lw	ra,12(sp)
    ce18:	00812403          	lw	s0,8(sp)
    ce1c:	00412483          	lw	s1,4(sp)
    ce20:	01010113          	addi	sp,sp,16
    ce24:	00008067          	ret

0000ce28 <_getpid_r>:
    ce28:	dd9f806f          	j	5c00 <_getpid>
