
zephyr.elf:     file format elf32-littleriscv


Disassembly of section vector:

00000000 <__start>:

	/*
	 * Set mtvec (Machine Trap-Vector Base-Address Register)
	 * to __irq_wrapper.
	 */
	la t0, __irq_wrapper
   0:	00000297          	auipc	t0,0x0
   4:	03028293          	addi	t0,t0,48 # 30 <__irq_wrapper>
	csrw mtvec, t0
   8:	30529073          	csrw	mtvec,t0
	/*
	* To avoid having to hardcode the main clock frequency,
	* we read the actual value from register 0x8000103c
	* and store to z_clock_hw_cycles_per_sec
	*/
	li	t0, 0x80001000
   c:	800012b7          	lui	t0,0x80001
	lw	t1, 0x3c(t0)
  10:	03c2a303          	lw	t1,60(t0) # 8000103c <CONFIG_SYSTEM_WORKQUEUE_PRIORITY+0x8000103d>
	la	t0, z_clock_hw_cycles_per_sec
  14:	0000e297          	auipc	t0,0xe
  18:	70828293          	addi	t0,t0,1800 # e71c <z_clock_hw_cycles_per_sec>
	sw	t1, 0(t0)
  1c:	0062a023          	sw	t1,0(t0)

	/* Jump to __initialize */
	tail __initialize
  20:	38c0506f          	j	53ac <__initialize>

Disassembly of section exceptions:

00000030 <__irq_wrapper>:
	 * Save caller-saved registers on current thread stack.
	 * NOTE: need to be updated to account for floating-point registers
	 * floating-point registers should be accounted for when corresponding
	 * config variable is set
	 */
	STORE_CALLER_SAVED()
  30:	fb010113          	addi	sp,sp,-80
  34:	00112023          	sw	ra,0(sp)
  38:	00412223          	sw	tp,4(sp)
  3c:	00512423          	sw	t0,8(sp)
  40:	00612623          	sw	t1,12(sp)
  44:	00712823          	sw	t2,16(sp)
  48:	01c12a23          	sw	t3,20(sp)
  4c:	01d12c23          	sw	t4,24(sp)
  50:	01e12e23          	sw	t5,28(sp)
  54:	03f12023          	sw	t6,32(sp)
  58:	02a12223          	sw	a0,36(sp)
  5c:	02b12423          	sw	a1,40(sp)
  60:	02c12623          	sw	a2,44(sp)
  64:	02d12823          	sw	a3,48(sp)
  68:	02e12a23          	sw	a4,52(sp)
  6c:	02f12c23          	sw	a5,56(sp)
  70:	03012e23          	sw	a6,60(sp)
  74:	05112023          	sw	a7,64(sp)

skip_store_fp_caller_saved:
#endif /* CONFIG_FPU && CONFIG_FPU_SHARING */

	/* Save MEPC register */
	csrr t0, mepc
  78:	341022f3          	csrr	t0,mepc
	RV_OP_STOREREG t0, __z_arch_esf_t_mepc_OFFSET(sp)
  7c:	04512223          	sw	t0,68(sp)

	/* Save SOC-specific MSTATUS register */
	csrr t0, mstatus
  80:	300022f3          	csrr	t0,mstatus
	RV_OP_STOREREG t0, __z_arch_esf_t_mstatus_OFFSET(sp)
  84:	04512423          	sw	t0,72(sp)
	 * SOCs (like pulpino or riscv-qemu), the MSB is never set to indicate
	 * interrupt. Hence, check for interrupt/exception via the __soc_is_irq
	 * function (that needs to be implemented by each SOC). The result is
	 * returned via register a0 (1: interrupt, 0 exception)
	 */
	jal ra, __soc_is_irq
  88:	228000ef          	jal	ra,2b0 <__soc_is_irq>

	/* If a0 != 0, jump to is_interrupt */
	addi t1, x0, 0
  8c:	00000313          	li	t1,0
	bnez a0, is_interrupt
  90:	02051e63          	bnez	a0,cc <is_interrupt>
	/*
	 * If the exception is the result of an ECALL, check whether to
	 * perform a context-switch or an IRQ offload. Otherwise call _Fault
	 * to report the exception.
	 */
	csrr t0, mcause
  94:	342022f3          	csrr	t0,mcause
	li t2, SOC_MCAUSE_EXP_MASK
  98:	800003b7          	lui	t2,0x80000
  9c:	fff38393          	addi	t2,t2,-1 # 7fffffff <CONFIG_SYSTEM_WORKQUEUE_PRIORITY+0x80000000>
	and t0, t0, t2
  a0:	0072f2b3          	and	t0,t0,t2
	li t1, SOC_MCAUSE_ECALL_EXP
  a4:	00b00313          	li	t1,11

	/*
	 * If mcause == SOC_MCAUSE_ECALL_EXP, handle system call from
	 * kernel thread.
	 */
	beq t0, t1, is_kernel_syscall
  a8:	00628a63          	beq	t0,t1,bc <is_kernel_syscall>
	 * Stack pointer is pointing to a z_arch_esf_t structure, pass it
	 * to _Fault (via register a0).
	 * If _Fault shall return, set return address to
	 * no_reschedule to restore stack.
	 */
	addi a0, sp, 0
  ac:	00010513          	mv	a0,sp
	RV_OP_LOADREG t1, _kernel_offset_to_current(t0)
	RV_OP_LOADREG t0, _thread_offset_to_priv_stack_start(t1)
	RV_OP_STOREREG sp, _thread_offset_to_user_sp(t1) /* Update user SP */
	addi sp, t0, CONFIG_PRIVILEGED_STACK_SIZE
#else
	la ra, no_reschedule
  b0:	00000097          	auipc	ra,0x0
  b4:	19408093          	addi	ra,ra,404 # 244 <no_reschedule>
#endif /* CONFIG_USERSPACE */

	tail _Fault
  b8:	2ac0506f          	j	5364 <_Fault>

000000bc <is_kernel_syscall>:
	 * again upon exiting the ISR.
	 *
	 * It's safe to always increment by 4, even with compressed
	 * instructions, because the ecall instruction is always 4 bytes.
	 */
	RV_OP_LOADREG t0, __z_arch_esf_t_mepc_OFFSET(sp)
  bc:	04412283          	lw	t0,68(sp)
	addi t0, t0, 4
  c0:	00428293          	addi	t0,t0,4
	RV_OP_STOREREG t0, __z_arch_esf_t_mepc_OFFSET(sp)
  c4:	04512223          	sw	t0,68(sp)
	j z_riscv_user_mode_enter_syscall
#endif /* CONFIG_USERSPACE */
	/*
	 * Go to reschedule to handle context-switch
	 */
	j reschedule
  c8:	0800006f          	j	148 <reschedule>

000000cc <is_interrupt>:
	 * Save current thread stack pointer and switch
	 * stack pointer to interrupt stack.
	 */

	/* Save thread stack pointer to temp register t0 */
	addi t0, sp, 0
  cc:	00010293          	mv	t0,sp

	/* Switch to interrupt stack */
	la t2, _kernel
  d0:	0000d397          	auipc	t2,0xd
  d4:	e2038393          	addi	t2,t2,-480 # cef0 <_kernel>
	RV_OP_LOADREG sp, _kernel_offset_to_irq_stack(t2)
  d8:	0043a103          	lw	sp,4(t2)

	/*
	 * Save thread stack pointer on interrupt stack
	 * In RISC-V, stack pointer needs to be 16-byte aligned
	 */
	addi sp, sp, -16
  dc:	ff010113          	addi	sp,sp,-16
	RV_OP_STOREREG t0, 0x00(sp)
  e0:	00512023          	sw	t0,0(sp)

000000e4 <on_irq_stack>:
	la t2, _kernel
#endif /* !CONFIG_USERSPACE && !CONFIG_PMP_STACK_GUARD */

on_irq_stack:
	/* Increment _kernel.cpus[0].nested variable */
	lw t3, _kernel_offset_to_nested(t2)
  e4:	0003ae03          	lw	t3,0(t2)
	addi t3, t3, 1
  e8:	001e0e13          	addi	t3,t3,1
	sw t3, _kernel_offset_to_nested(t2)
  ec:	01c3a023          	sw	t3,0(t2)
#ifdef CONFIG_TRACING_ISR
	call sys_trace_isr_enter
#endif

	/* Get IRQ causing interrupt */
	csrr a0, mcause
  f0:	34202573          	csrr	a0,mcause
	li t0, SOC_MCAUSE_EXP_MASK
  f4:	800002b7          	lui	t0,0x80000
  f8:	fff28293          	addi	t0,t0,-1 # 7fffffff <CONFIG_SYSTEM_WORKQUEUE_PRIORITY+0x80000000>
	and a0, a0, t0
  fc:	00557533          	and	a0,a0,t0

	/*
	 * Clear pending IRQ generating the interrupt at SOC level
	 * Pass IRQ number to __soc_handle_irq via register a0
	 */
	jal ra, __soc_handle_irq
 100:	1a0000ef          	jal	ra,2a0 <__soc_handle_irq>

	/*
	 * Call corresponding registered function in _sw_isr_table.
	 * (table is 2-word wide, we should shift index accordingly)
	 */
	la t0, _sw_isr_table
 104:	0000e297          	auipc	t0,0xe
 108:	62028293          	addi	t0,t0,1568 # e724 <_sw_isr_table>
	slli a0, a0, (RV_REGSHIFT + 1)
 10c:	00351513          	slli	a0,a0,0x3
	add t0, t0, a0
 110:	00a282b3          	add	t0,t0,a0

	/* Load argument in a0 register */
	RV_OP_LOADREG a0, 0x00(t0)
 114:	0002a503          	lw	a0,0(t0)

	/* Load ISR function address in register t1 */
	RV_OP_LOADREG t1, RV_REGSIZE(t0)
 118:	0042a303          	lw	t1,4(t0)

	/* Call ISR function */
	jalr ra, t1
 11c:	000300e7          	jalr	t1

00000120 <on_thread_stack>:

on_thread_stack:
	/* Get reference to _kernel */
	la t1, _kernel
 120:	0000d317          	auipc	t1,0xd
 124:	dd030313          	addi	t1,t1,-560 # cef0 <_kernel>

	/* Decrement _kernel.cpus[0].nested variable */
	lw t2, _kernel_offset_to_nested(t1)
 128:	00032383          	lw	t2,0(t1)
	addi t2, t2, -1
 12c:	fff38393          	addi	t2,t2,-1
	sw t2, _kernel_offset_to_nested(t1)
 130:	00732023          	sw	t2,0(t1)

#if !defined(CONFIG_USERSPACE) && !defined(CONFIG_PMP_STACK_GUARD)
	/* Restore thread stack pointer */
	RV_OP_LOADREG t0, 0x00(sp)
 134:	00012283          	lw	t0,0(sp)
	addi sp, t0, 0
 138:	00028113          	mv	sp,t0
	/*
	 * Check if we need to perform a reschedule
	 */

	/* Get pointer to _kernel.current */
	RV_OP_LOADREG t2, _kernel_offset_to_current(t1)
 13c:	00832383          	lw	t2,8(t1)

	/*
	 * Check if next thread to schedule is current thread.
	 * If yes do not perform a reschedule
	 */
	RV_OP_LOADREG t3, _kernel_offset_to_ready_q_cache(t1)
 140:	01832e03          	lw	t3,24(t1)
	beq t3, t2, no_reschedule
 144:	107e0063          	beq	t3,t2,244 <no_reschedule>

00000148 <reschedule>:
	 * Note:
	 *   Sometimes this code is execute back-to-back before the target thread
	 *   has a chance to run. If this happens, the current thread and the
	 *   target thread will be the same.
	 */
	la t0, _kernel
 148:	0000d297          	auipc	t0,0xd
 14c:	da828293          	addi	t0,t0,-600 # cef0 <_kernel>
	RV_OP_LOADREG t2, _kernel_offset_to_current(t0)
 150:	0082a383          	lw	t2,8(t0)
	RV_OP_LOADREG t3, _kernel_offset_to_ready_q_cache(t0)
 154:	0182ae03          	lw	t3,24(t0)
	beq t2, t3, no_reschedule
 158:	0fc38663          	beq	t2,t3,244 <no_reschedule>

#if CONFIG_INSTRUMENT_THREAD_SWITCHING
	call z_thread_mark_switched_out
#endif
	/* Get reference to _kernel */
	la t0, _kernel
 15c:	0000d297          	auipc	t0,0xd
 160:	d9428293          	addi	t0,t0,-620 # cef0 <_kernel>

	/* Get pointer to _kernel.current */
	RV_OP_LOADREG t1, _kernel_offset_to_current(t0)
 164:	0082a303          	lw	t1,8(t0)

	/*
	 * Save callee-saved registers of current kernel thread
	 * prior to handle context-switching
	 */
	STORE_CALLEE_SAVED(t1)
 168:	02832e23          	sw	s0,60(t1)
 16c:	04932023          	sw	s1,64(t1)
 170:	05232223          	sw	s2,68(t1)
 174:	05332423          	sw	s3,72(t1)
 178:	05432623          	sw	s4,76(t1)
 17c:	05532823          	sw	s5,80(t1)
 180:	05632a23          	sw	s6,84(t1)
 184:	05732c23          	sw	s7,88(t1)
 188:	05832e23          	sw	s8,92(t1)
 18c:	07932023          	sw	s9,96(t1)
 190:	07a32223          	sw	s10,100(t1)
 194:	07b32423          	sw	s11,104(t1)

00000198 <skip_callee_saved_reg>:

	/*
	 * Save stack pointer of current thread and set the default return value
	 * of z_swap to _k_neg_eagain for the thread.
	 */
	RV_OP_STOREREG sp, _thread_offset_to_sp(t1)
 198:	02232c23          	sw	sp,56(t1)
	la t2, _k_neg_eagain
 19c:	0000c397          	auipc	t2,0xc
 1a0:	0e438393          	addi	t2,t2,228 # c280 <_k_neg_eagain>
	lw t3, 0x00(t2)
 1a4:	0003ae03          	lw	t3,0(t2)
	sw t3, _thread_offset_to_swap_return_value(t1)
 1a8:	0bc32023          	sw	t3,160(t1)

	/* Get next thread to schedule. */
	RV_OP_LOADREG t1, _kernel_offset_to_ready_q_cache(t0)
 1ac:	0182a303          	lw	t1,24(t0)

	/*
	 * Set _kernel.current to new thread loaded in t1
	 */
	RV_OP_STOREREG t1, _kernel_offset_to_current(t0)
 1b0:	0062a423          	sw	t1,8(t0)

	/* Switch to new thread stack */
	RV_OP_LOADREG sp, _thread_offset_to_sp(t1)
 1b4:	03832103          	lw	sp,56(t1)

	/* Restore callee-saved registers of new thread */
	LOAD_CALLEE_SAVED(t1)
 1b8:	03c32403          	lw	s0,60(t1)
 1bc:	04032483          	lw	s1,64(t1)
 1c0:	04432903          	lw	s2,68(t1)
 1c4:	04832983          	lw	s3,72(t1)
 1c8:	04c32a03          	lw	s4,76(t1)
 1cc:	05032a83          	lw	s5,80(t1)
 1d0:	05432b03          	lw	s6,84(t1)
 1d4:	05832b83          	lw	s7,88(t1)
 1d8:	05c32c03          	lw	s8,92(t1)
 1dc:	06032c83          	lw	s9,96(t1)
 1e0:	06432d03          	lw	s10,100(t1)
 1e4:	06832d83          	lw	s11,104(t1)
	addi a0, sp, __z_arch_esf_t_soc_context_OFFSET
	jal ra, __soc_restore_context
#endif /* CONFIG_RISCV_SOC_CONTEXT_SAVE */

	/* Restore MEPC register */
	RV_OP_LOADREG t0, __z_arch_esf_t_mepc_OFFSET(sp)
 1e8:	04412283          	lw	t0,68(sp)
	csrw mepc, t0
 1ec:	34129073          	csrw	mepc,t0

	/* Restore SOC-specific MSTATUS register */
	RV_OP_LOADREG t0, __z_arch_esf_t_mstatus_OFFSET(sp)
 1f0:	04812283          	lw	t0,72(sp)
	csrw mstatus, t0
 1f4:	30029073          	csrw	mstatus,t0

skip_load_fp_caller_saved_resched:
#endif /* CONFIG_FPU && CONFIG_FPU_SHARING */

	/* Restore caller-saved registers from thread stack */
	LOAD_CALLER_SAVED()
 1f8:	00012083          	lw	ra,0(sp)
 1fc:	00412203          	lw	tp,4(sp)
 200:	00812283          	lw	t0,8(sp)
 204:	00c12303          	lw	t1,12(sp)
 208:	01012383          	lw	t2,16(sp)
 20c:	01412e03          	lw	t3,20(sp)
 210:	01812e83          	lw	t4,24(sp)
 214:	01c12f03          	lw	t5,28(sp)
 218:	02012f83          	lw	t6,32(sp)
 21c:	02412503          	lw	a0,36(sp)
 220:	02812583          	lw	a1,40(sp)
 224:	02c12603          	lw	a2,44(sp)
 228:	03012683          	lw	a3,48(sp)
 22c:	03412703          	lw	a4,52(sp)
 230:	03812783          	lw	a5,56(sp)
 234:	03c12803          	lw	a6,60(sp)
 238:	04012883          	lw	a7,64(sp)
 23c:	05010113          	addi	sp,sp,80

	/* Call SOC_ERET to exit ISR */
	SOC_ERET
 240:	30200073          	mret

00000244 <no_reschedule>:
	addi a0, sp, __z_arch_esf_t_soc_context_OFFSET
	jal ra, __soc_restore_context
#endif /* CONFIG_RISCV_SOC_CONTEXT_SAVE */

	/* Restore MEPC register */
	RV_OP_LOADREG t0, __z_arch_esf_t_mepc_OFFSET(sp)
 244:	04412283          	lw	t0,68(sp)
	csrw mepc, t0
 248:	34129073          	csrw	mepc,t0

	/* Restore SOC-specific MSTATUS register */
	RV_OP_LOADREG t0, __z_arch_esf_t_mstatus_OFFSET(sp)
 24c:	04812283          	lw	t0,72(sp)
	csrw mstatus, t0
 250:	30029073          	csrw	mstatus,t0

skip_load_fp_caller_saved:
#endif /* CONFIG_FPU && CONFIG_FPU_SHARING */

	/* Restore caller-saved registers from thread stack */
	LOAD_CALLER_SAVED()
 254:	00012083          	lw	ra,0(sp)
 258:	00412203          	lw	tp,4(sp)
 25c:	00812283          	lw	t0,8(sp)
 260:	00c12303          	lw	t1,12(sp)
 264:	01012383          	lw	t2,16(sp)
 268:	01412e03          	lw	t3,20(sp)
 26c:	01812e83          	lw	t4,24(sp)
 270:	01c12f03          	lw	t5,28(sp)
 274:	02012f83          	lw	t6,32(sp)
 278:	02412503          	lw	a0,36(sp)
 27c:	02812583          	lw	a1,40(sp)
 280:	02c12603          	lw	a2,44(sp)
 284:	03012683          	lw	a3,48(sp)
 288:	03412703          	lw	a4,52(sp)
 28c:	03812783          	lw	a5,56(sp)
 290:	03c12803          	lw	a6,60(sp)
 294:	04012883          	lw	a7,64(sp)
 298:	05010113          	addi	sp,sp,80

#ifdef CONFIG_PMP_STACK_GUARD
	csrrw sp, mscratch, sp
#endif /* CONFIG_PMP_STACK_GUARD */
	/* Call SOC_ERET to exit ISR */
	SOC_ERET
 29c:	30200073          	mret

000002a0 <__soc_handle_irq>:
 * SOC-specific function to handle pending IRQ number generating the interrupt.
 * Exception number is given as parameter via register a0.
 */
SECTION_FUNC(exception.other, __soc_handle_irq)
	/* Clear exception number from CSR mip register */
	li t1, 1
 2a0:	00100313          	li	t1,1
	sll t0, t1, a0
 2a4:	00a312b3          	sll	t0,t1,a0
	csrrc t1, mip, t0
 2a8:	3442b373          	csrrc	t1,mip,t0

	/* Return */
	jalr x0, ra
 2ac:	00008067          	ret

000002b0 <__soc_is_irq>:
 * return 1 (interrupt) or 0 (exception)
 *
 */
SECTION_FUNC(exception.other, __soc_is_irq)
	/* Read mcause and check if interrupt bit is set */
	csrr t0, mcause
 2b0:	342022f3          	csrr	t0,mcause
	li t1, SOC_MCAUSE_IRQ_MASK
 2b4:	80000337          	lui	t1,0x80000
	and t0, t0, t1
 2b8:	0062f2b3          	and	t0,t0,t1

	/* If interrupt bit is not set, return with 0 */
	addi a0, x0, 0
 2bc:	00000513          	li	a0,0
	beqz t0, not_interrupt
 2c0:	00028463          	beqz	t0,2c8 <not_interrupt>
	addi a0, a0, 1
 2c4:	00150513          	addi	a0,a0,1

000002c8 <not_interrupt>:

not_interrupt:
	/* return */
	jalr x0, ra
 2c8:	00008067          	ret

000002cc <arch_swap>:
 * key is stored in a0 register
 */
SECTION_FUNC(exception.other, arch_swap)

	/* Make a system call to perform context switch */
	ecall
 2cc:	00000073          	ecall
	 * Prior to unlocking irq, load return value of
	 * arch_swap to temp register t2 (from
	 * _thread_offset_to_swap_return_value). Normally, it should be -EAGAIN,
	 * unless someone has previously called arch_thread_return_value_set(..).
	 */
	la t0, _kernel
 2d0:	0000d297          	auipc	t0,0xd
 2d4:	c2028293          	addi	t0,t0,-992 # cef0 <_kernel>

	/* Get pointer to _kernel.current */
	RV_OP_LOADREG t1, _kernel_offset_to_current(t0)
 2d8:	0082a303          	lw	t1,8(t0)

	/* Load return value of arch_swap function in temp register t2 */
	lw t2, _thread_offset_to_swap_return_value(t1)
 2dc:	0a032383          	lw	t2,160(t1) # 800000a0 <CONFIG_SYSTEM_WORKQUEUE_PRIORITY+0x800000a1>

	/*
	 * Unlock irq, following IRQ lock state in a0 register.
	 * Use atomic instruction csrrs to do so.
	 */
	andi a0, a0, MSTATUS_IEN
 2e0:	00857513          	andi	a0,a0,8
	csrrs t0, mstatus, a0
 2e4:	300522f3          	csrrs	t0,mstatus,a0

	/* Set value of return register a0 to value of register t2 */
	addi a0, t2, 0
 2e8:	00038513          	mv	a0,t2

	/* Return */
	jalr x0, ra
 2ec:	00008067          	ret

Disassembly of section text:

000002f0 <__clzsi2>:
     2f0:	000107b7          	lui	a5,0x10
     2f4:	02f57a63          	bgeu	a0,a5,328 <__clzsi2+0x38>
     2f8:	0ff00793          	li	a5,255
     2fc:	00a7b7b3          	sltu	a5,a5,a0
     300:	00379793          	slli	a5,a5,0x3
     304:	0000c737          	lui	a4,0xc
     308:	02000693          	li	a3,32
     30c:	40f686b3          	sub	a3,a3,a5
     310:	00f55533          	srl	a0,a0,a5
     314:	28870793          	addi	a5,a4,648 # c288 <__clz_tab>
     318:	00a78533          	add	a0,a5,a0
     31c:	00054503          	lbu	a0,0(a0)
     320:	40a68533          	sub	a0,a3,a0
     324:	00008067          	ret
     328:	01000737          	lui	a4,0x1000
     32c:	01000793          	li	a5,16
     330:	fce56ae3          	bltu	a0,a4,304 <__clzsi2+0x14>
     334:	01800793          	li	a5,24
     338:	fcdff06f          	j	304 <__clzsi2+0x14>

0000033c <__udivdi3>:
     33c:	00050893          	mv	a7,a0
     340:	00058793          	mv	a5,a1
     344:	00060813          	mv	a6,a2
     348:	00068513          	mv	a0,a3
     34c:	00088313          	mv	t1,a7
     350:	28069463          	bnez	a3,5d8 <CONFIG_MAIN_STACK_SIZE+0x1d8>
     354:	0000c6b7          	lui	a3,0xc
     358:	28868693          	addi	a3,a3,648 # c288 <__clz_tab>
     35c:	0ec5f663          	bgeu	a1,a2,448 <CONFIG_MAIN_STACK_SIZE+0x48>
     360:	00010737          	lui	a4,0x10
     364:	0ce67863          	bgeu	a2,a4,434 <CONFIG_MAIN_STACK_SIZE+0x34>
     368:	0ff00713          	li	a4,255
     36c:	00c73733          	sltu	a4,a4,a2
     370:	00371713          	slli	a4,a4,0x3
     374:	00e65533          	srl	a0,a2,a4
     378:	00a686b3          	add	a3,a3,a0
     37c:	0006c683          	lbu	a3,0(a3)
     380:	02000513          	li	a0,32
     384:	00e68733          	add	a4,a3,a4
     388:	40e506b3          	sub	a3,a0,a4
     38c:	00e50c63          	beq	a0,a4,3a4 <__udivdi3+0x68>
     390:	00d795b3          	sll	a1,a5,a3
     394:	00e8d733          	srl	a4,a7,a4
     398:	00d61833          	sll	a6,a2,a3
     39c:	00b765b3          	or	a1,a4,a1
     3a0:	00d89333          	sll	t1,a7,a3
     3a4:	01085893          	srli	a7,a6,0x10
     3a8:	0315d6b3          	divu	a3,a1,a7
     3ac:	01081613          	slli	a2,a6,0x10
     3b0:	01065613          	srli	a2,a2,0x10
     3b4:	01035793          	srli	a5,t1,0x10
     3b8:	0315f733          	remu	a4,a1,a7
     3bc:	00068513          	mv	a0,a3
     3c0:	02d605b3          	mul	a1,a2,a3
     3c4:	01071713          	slli	a4,a4,0x10
     3c8:	00f767b3          	or	a5,a4,a5
     3cc:	00b7fe63          	bgeu	a5,a1,3e8 <__udivdi3+0xac>
     3d0:	010787b3          	add	a5,a5,a6
     3d4:	fff68513          	addi	a0,a3,-1
     3d8:	0107e863          	bltu	a5,a6,3e8 <__udivdi3+0xac>
     3dc:	00b7f663          	bgeu	a5,a1,3e8 <__udivdi3+0xac>
     3e0:	ffe68513          	addi	a0,a3,-2
     3e4:	010787b3          	add	a5,a5,a6
     3e8:	40b787b3          	sub	a5,a5,a1
     3ec:	0317f733          	remu	a4,a5,a7
     3f0:	01031313          	slli	t1,t1,0x10
     3f4:	01035313          	srli	t1,t1,0x10
     3f8:	0317d7b3          	divu	a5,a5,a7
     3fc:	01071713          	slli	a4,a4,0x10
     400:	00676333          	or	t1,a4,t1
     404:	02f606b3          	mul	a3,a2,a5
     408:	00078613          	mv	a2,a5
     40c:	00d37c63          	bgeu	t1,a3,424 <CONFIG_MAIN_STACK_SIZE+0x24>
     410:	00680333          	add	t1,a6,t1
     414:	fff78613          	addi	a2,a5,-1 # ffff <__data_region_end+0x165f>
     418:	01036663          	bltu	t1,a6,424 <CONFIG_MAIN_STACK_SIZE+0x24>
     41c:	00d37463          	bgeu	t1,a3,424 <CONFIG_MAIN_STACK_SIZE+0x24>
     420:	ffe78613          	addi	a2,a5,-2
     424:	01051513          	slli	a0,a0,0x10
     428:	00c56533          	or	a0,a0,a2
     42c:	00000593          	li	a1,0
     430:	0e40006f          	j	514 <CONFIG_MAIN_STACK_SIZE+0x114>
     434:	01000537          	lui	a0,0x1000
     438:	01000713          	li	a4,16
     43c:	f2a66ce3          	bltu	a2,a0,374 <__udivdi3+0x38>
     440:	01800713          	li	a4,24
     444:	f31ff06f          	j	374 <__udivdi3+0x38>
     448:	00061663          	bnez	a2,454 <CONFIG_MAIN_STACK_SIZE+0x54>
     44c:	00100713          	li	a4,1
     450:	02c75833          	divu	a6,a4,a2
     454:	00010737          	lui	a4,0x10
     458:	0ce87063          	bgeu	a6,a4,518 <CONFIG_MAIN_STACK_SIZE+0x118>
     45c:	0ff00713          	li	a4,255
     460:	01077463          	bgeu	a4,a6,468 <CONFIG_MAIN_STACK_SIZE+0x68>
     464:	00800513          	li	a0,8
     468:	00a85733          	srl	a4,a6,a0
     46c:	00e686b3          	add	a3,a3,a4
     470:	0006c703          	lbu	a4,0(a3)
     474:	02000613          	li	a2,32
     478:	00a70733          	add	a4,a4,a0
     47c:	40e606b3          	sub	a3,a2,a4
     480:	0ae61663          	bne	a2,a4,52c <CONFIG_MAIN_STACK_SIZE+0x12c>
     484:	410787b3          	sub	a5,a5,a6
     488:	00100593          	li	a1,1
     48c:	01085893          	srli	a7,a6,0x10
     490:	01081613          	slli	a2,a6,0x10
     494:	01065613          	srli	a2,a2,0x10
     498:	01035713          	srli	a4,t1,0x10
     49c:	0317f6b3          	remu	a3,a5,a7
     4a0:	0317d7b3          	divu	a5,a5,a7
     4a4:	01069693          	slli	a3,a3,0x10
     4a8:	00e6e733          	or	a4,a3,a4
     4ac:	02f60e33          	mul	t3,a2,a5
     4b0:	00078513          	mv	a0,a5
     4b4:	01c77e63          	bgeu	a4,t3,4d0 <CONFIG_MAIN_STACK_SIZE+0xd0>
     4b8:	01070733          	add	a4,a4,a6
     4bc:	fff78513          	addi	a0,a5,-1
     4c0:	01076863          	bltu	a4,a6,4d0 <CONFIG_MAIN_STACK_SIZE+0xd0>
     4c4:	01c77663          	bgeu	a4,t3,4d0 <CONFIG_MAIN_STACK_SIZE+0xd0>
     4c8:	ffe78513          	addi	a0,a5,-2
     4cc:	01070733          	add	a4,a4,a6
     4d0:	41c70733          	sub	a4,a4,t3
     4d4:	031777b3          	remu	a5,a4,a7
     4d8:	01031313          	slli	t1,t1,0x10
     4dc:	01035313          	srli	t1,t1,0x10
     4e0:	03175733          	divu	a4,a4,a7
     4e4:	01079793          	slli	a5,a5,0x10
     4e8:	0067e333          	or	t1,a5,t1
     4ec:	02e606b3          	mul	a3,a2,a4
     4f0:	00070613          	mv	a2,a4
     4f4:	00d37c63          	bgeu	t1,a3,50c <CONFIG_MAIN_STACK_SIZE+0x10c>
     4f8:	00680333          	add	t1,a6,t1
     4fc:	fff70613          	addi	a2,a4,-1 # ffff <__data_region_end+0x165f>
     500:	01036663          	bltu	t1,a6,50c <CONFIG_MAIN_STACK_SIZE+0x10c>
     504:	00d37463          	bgeu	t1,a3,50c <CONFIG_MAIN_STACK_SIZE+0x10c>
     508:	ffe70613          	addi	a2,a4,-2
     50c:	01051513          	slli	a0,a0,0x10
     510:	00c56533          	or	a0,a0,a2
     514:	00008067          	ret
     518:	01000737          	lui	a4,0x1000
     51c:	01000513          	li	a0,16
     520:	f4e864e3          	bltu	a6,a4,468 <CONFIG_MAIN_STACK_SIZE+0x68>
     524:	01800513          	li	a0,24
     528:	f41ff06f          	j	468 <CONFIG_MAIN_STACK_SIZE+0x68>
     52c:	00d81833          	sll	a6,a6,a3
     530:	00e7d533          	srl	a0,a5,a4
     534:	00d89333          	sll	t1,a7,a3
     538:	00d797b3          	sll	a5,a5,a3
     53c:	00e8d733          	srl	a4,a7,a4
     540:	01085893          	srli	a7,a6,0x10
     544:	00f76633          	or	a2,a4,a5
     548:	03157733          	remu	a4,a0,a7
     54c:	01081793          	slli	a5,a6,0x10
     550:	0107d793          	srli	a5,a5,0x10
     554:	01065593          	srli	a1,a2,0x10
     558:	03155533          	divu	a0,a0,a7
     55c:	01071713          	slli	a4,a4,0x10
     560:	00b76733          	or	a4,a4,a1
     564:	02a786b3          	mul	a3,a5,a0
     568:	00050593          	mv	a1,a0
     56c:	00d77e63          	bgeu	a4,a3,588 <CONFIG_MAIN_STACK_SIZE+0x188>
     570:	01070733          	add	a4,a4,a6
     574:	fff50593          	addi	a1,a0,-1 # ffffff <__data_region_end+0xff165f>
     578:	01076863          	bltu	a4,a6,588 <CONFIG_MAIN_STACK_SIZE+0x188>
     57c:	00d77663          	bgeu	a4,a3,588 <CONFIG_MAIN_STACK_SIZE+0x188>
     580:	ffe50593          	addi	a1,a0,-2
     584:	01070733          	add	a4,a4,a6
     588:	40d706b3          	sub	a3,a4,a3
     58c:	0316f733          	remu	a4,a3,a7
     590:	01061613          	slli	a2,a2,0x10
     594:	01065613          	srli	a2,a2,0x10
     598:	0316d6b3          	divu	a3,a3,a7
     59c:	01071713          	slli	a4,a4,0x10
     5a0:	02d78533          	mul	a0,a5,a3
     5a4:	00c767b3          	or	a5,a4,a2
     5a8:	00068713          	mv	a4,a3
     5ac:	00a7fe63          	bgeu	a5,a0,5c8 <CONFIG_MAIN_STACK_SIZE+0x1c8>
     5b0:	010787b3          	add	a5,a5,a6
     5b4:	fff68713          	addi	a4,a3,-1
     5b8:	0107e863          	bltu	a5,a6,5c8 <CONFIG_MAIN_STACK_SIZE+0x1c8>
     5bc:	00a7f663          	bgeu	a5,a0,5c8 <CONFIG_MAIN_STACK_SIZE+0x1c8>
     5c0:	ffe68713          	addi	a4,a3,-2
     5c4:	010787b3          	add	a5,a5,a6
     5c8:	01059593          	slli	a1,a1,0x10
     5cc:	40a787b3          	sub	a5,a5,a0
     5d0:	00e5e5b3          	or	a1,a1,a4
     5d4:	eb9ff06f          	j	48c <CONFIG_MAIN_STACK_SIZE+0x8c>
     5d8:	18d5e663          	bltu	a1,a3,764 <CONFIG_MAIN_STACK_SIZE+0x364>
     5dc:	00010737          	lui	a4,0x10
     5e0:	04e6f463          	bgeu	a3,a4,628 <CONFIG_MAIN_STACK_SIZE+0x228>
     5e4:	0ff00713          	li	a4,255
     5e8:	00d735b3          	sltu	a1,a4,a3
     5ec:	00359593          	slli	a1,a1,0x3
     5f0:	0000c737          	lui	a4,0xc
     5f4:	00b6d533          	srl	a0,a3,a1
     5f8:	28870713          	addi	a4,a4,648 # c288 <__clz_tab>
     5fc:	00a70733          	add	a4,a4,a0
     600:	00074703          	lbu	a4,0(a4)
     604:	02000513          	li	a0,32
     608:	00b70733          	add	a4,a4,a1
     60c:	40e505b3          	sub	a1,a0,a4
     610:	02e51663          	bne	a0,a4,63c <CONFIG_MAIN_STACK_SIZE+0x23c>
     614:	00100513          	li	a0,1
     618:	eef6eee3          	bltu	a3,a5,514 <CONFIG_MAIN_STACK_SIZE+0x114>
     61c:	00c8b533          	sltu	a0,a7,a2
     620:	00154513          	xori	a0,a0,1
     624:	ef1ff06f          	j	514 <CONFIG_MAIN_STACK_SIZE+0x114>
     628:	01000737          	lui	a4,0x1000
     62c:	01000593          	li	a1,16
     630:	fce6e0e3          	bltu	a3,a4,5f0 <CONFIG_MAIN_STACK_SIZE+0x1f0>
     634:	01800593          	li	a1,24
     638:	fb9ff06f          	j	5f0 <CONFIG_MAIN_STACK_SIZE+0x1f0>
     63c:	00e65833          	srl	a6,a2,a4
     640:	00b696b3          	sll	a3,a3,a1
     644:	00d86833          	or	a6,a6,a3
     648:	00e7de33          	srl	t3,a5,a4
     64c:	01085e93          	srli	t4,a6,0x10
     650:	03de76b3          	remu	a3,t3,t4
     654:	00b797b3          	sll	a5,a5,a1
     658:	00e8d733          	srl	a4,a7,a4
     65c:	00b61333          	sll	t1,a2,a1
     660:	00f76633          	or	a2,a4,a5
     664:	01081793          	slli	a5,a6,0x10
     668:	0107d793          	srli	a5,a5,0x10
     66c:	01065713          	srli	a4,a2,0x10
     670:	03de5e33          	divu	t3,t3,t4
     674:	01069693          	slli	a3,a3,0x10
     678:	00e6e733          	or	a4,a3,a4
     67c:	03c78f33          	mul	t5,a5,t3
     680:	000e0513          	mv	a0,t3
     684:	01e77e63          	bgeu	a4,t5,6a0 <CONFIG_MAIN_STACK_SIZE+0x2a0>
     688:	01070733          	add	a4,a4,a6
     68c:	fffe0513          	addi	a0,t3,-1
     690:	01076863          	bltu	a4,a6,6a0 <CONFIG_MAIN_STACK_SIZE+0x2a0>
     694:	01e77663          	bgeu	a4,t5,6a0 <CONFIG_MAIN_STACK_SIZE+0x2a0>
     698:	ffee0513          	addi	a0,t3,-2
     69c:	01070733          	add	a4,a4,a6
     6a0:	41e70733          	sub	a4,a4,t5
     6a4:	03d776b3          	remu	a3,a4,t4
     6a8:	03d75733          	divu	a4,a4,t4
     6ac:	01069693          	slli	a3,a3,0x10
     6b0:	02e78e33          	mul	t3,a5,a4
     6b4:	01061793          	slli	a5,a2,0x10
     6b8:	0107d793          	srli	a5,a5,0x10
     6bc:	00f6e7b3          	or	a5,a3,a5
     6c0:	00070613          	mv	a2,a4
     6c4:	01c7fe63          	bgeu	a5,t3,6e0 <CONFIG_MAIN_STACK_SIZE+0x2e0>
     6c8:	010787b3          	add	a5,a5,a6
     6cc:	fff70613          	addi	a2,a4,-1 # ffffff <__data_region_end+0xff165f>
     6d0:	0107e863          	bltu	a5,a6,6e0 <CONFIG_MAIN_STACK_SIZE+0x2e0>
     6d4:	01c7f663          	bgeu	a5,t3,6e0 <CONFIG_MAIN_STACK_SIZE+0x2e0>
     6d8:	ffe70613          	addi	a2,a4,-2
     6dc:	010787b3          	add	a5,a5,a6
     6e0:	01051513          	slli	a0,a0,0x10
     6e4:	00010eb7          	lui	t4,0x10
     6e8:	00c56533          	or	a0,a0,a2
     6ec:	fffe8693          	addi	a3,t4,-1 # ffff <__data_region_end+0x165f>
     6f0:	00d57833          	and	a6,a0,a3
     6f4:	01055613          	srli	a2,a0,0x10
     6f8:	00d376b3          	and	a3,t1,a3
     6fc:	01035313          	srli	t1,t1,0x10
     700:	41c787b3          	sub	a5,a5,t3
     704:	02d80e33          	mul	t3,a6,a3
     708:	02d606b3          	mul	a3,a2,a3
     70c:	010e5713          	srli	a4,t3,0x10
     710:	02680833          	mul	a6,a6,t1
     714:	00d80833          	add	a6,a6,a3
     718:	01070733          	add	a4,a4,a6
     71c:	02660633          	mul	a2,a2,t1
     720:	00d77463          	bgeu	a4,a3,728 <CONFIG_MAIN_STACK_SIZE+0x328>
     724:	01d60633          	add	a2,a2,t4
     728:	01075693          	srli	a3,a4,0x10
     72c:	00c68633          	add	a2,a3,a2
     730:	02c7e663          	bltu	a5,a2,75c <CONFIG_MAIN_STACK_SIZE+0x35c>
     734:	cec79ce3          	bne	a5,a2,42c <CONFIG_MAIN_STACK_SIZE+0x2c>
     738:	000107b7          	lui	a5,0x10
     73c:	fff78793          	addi	a5,a5,-1 # ffff <__data_region_end+0x165f>
     740:	00f77733          	and	a4,a4,a5
     744:	01071713          	slli	a4,a4,0x10
     748:	00fe7e33          	and	t3,t3,a5
     74c:	00b898b3          	sll	a7,a7,a1
     750:	01c70733          	add	a4,a4,t3
     754:	00000593          	li	a1,0
     758:	dae8fee3          	bgeu	a7,a4,514 <CONFIG_MAIN_STACK_SIZE+0x114>
     75c:	fff50513          	addi	a0,a0,-1
     760:	ccdff06f          	j	42c <CONFIG_MAIN_STACK_SIZE+0x2c>
     764:	00000593          	li	a1,0
     768:	00000513          	li	a0,0
     76c:	da9ff06f          	j	514 <CONFIG_MAIN_STACK_SIZE+0x114>

00000770 <__umoddi3>:
     770:	00050e93          	mv	t4,a0
     774:	00058313          	mv	t1,a1
     778:	00060813          	mv	a6,a2
     77c:	00068793          	mv	a5,a3
     780:	22069a63          	bnez	a3,9b4 <CONFIG_ISR_STACK_SIZE+0x1b4>
     784:	0000c737          	lui	a4,0xc
     788:	28870713          	addi	a4,a4,648 # c288 <__clz_tab>
     78c:	0cc5fc63          	bgeu	a1,a2,864 <CONFIG_ISR_STACK_SIZE+0x64>
     790:	000106b7          	lui	a3,0x10
     794:	0ad67e63          	bgeu	a2,a3,850 <CONFIG_ISR_STACK_SIZE+0x50>
     798:	0ff00693          	li	a3,255
     79c:	00c6f463          	bgeu	a3,a2,7a4 <__umoddi3+0x34>
     7a0:	00800793          	li	a5,8
     7a4:	00f656b3          	srl	a3,a2,a5
     7a8:	00d70733          	add	a4,a4,a3
     7ac:	00074703          	lbu	a4,0(a4)
     7b0:	00f707b3          	add	a5,a4,a5
     7b4:	02000713          	li	a4,32
     7b8:	40f708b3          	sub	a7,a4,a5
     7bc:	00f70c63          	beq	a4,a5,7d4 <__umoddi3+0x64>
     7c0:	011315b3          	sll	a1,t1,a7
     7c4:	00fed7b3          	srl	a5,t4,a5
     7c8:	01161833          	sll	a6,a2,a7
     7cc:	00b7e5b3          	or	a1,a5,a1
     7d0:	011e9533          	sll	a0,t4,a7
     7d4:	01085693          	srli	a3,a6,0x10
     7d8:	02d5f7b3          	remu	a5,a1,a3
     7dc:	01081613          	slli	a2,a6,0x10
     7e0:	01065613          	srli	a2,a2,0x10
     7e4:	01055713          	srli	a4,a0,0x10
     7e8:	02d5d5b3          	divu	a1,a1,a3
     7ec:	01079793          	slli	a5,a5,0x10
     7f0:	00e7e733          	or	a4,a5,a4
     7f4:	02b605b3          	mul	a1,a2,a1
     7f8:	00b77a63          	bgeu	a4,a1,80c <CONFIG_ISR_STACK_SIZE+0xc>
     7fc:	01070733          	add	a4,a4,a6
     800:	01076663          	bltu	a4,a6,80c <CONFIG_ISR_STACK_SIZE+0xc>
     804:	00b77463          	bgeu	a4,a1,80c <CONFIG_ISR_STACK_SIZE+0xc>
     808:	01070733          	add	a4,a4,a6
     80c:	40b70733          	sub	a4,a4,a1
     810:	02d777b3          	remu	a5,a4,a3
     814:	01051513          	slli	a0,a0,0x10
     818:	01055513          	srli	a0,a0,0x10
     81c:	02d75733          	divu	a4,a4,a3
     820:	01079793          	slli	a5,a5,0x10
     824:	00a7e533          	or	a0,a5,a0
     828:	02e60733          	mul	a4,a2,a4
     82c:	00e57a63          	bgeu	a0,a4,840 <CONFIG_ISR_STACK_SIZE+0x40>
     830:	01050533          	add	a0,a0,a6
     834:	01056663          	bltu	a0,a6,840 <CONFIG_ISR_STACK_SIZE+0x40>
     838:	00e57463          	bgeu	a0,a4,840 <CONFIG_ISR_STACK_SIZE+0x40>
     83c:	01050533          	add	a0,a0,a6
     840:	40e50533          	sub	a0,a0,a4
     844:	01155533          	srl	a0,a0,a7
     848:	00000593          	li	a1,0
     84c:	00008067          	ret
     850:	010006b7          	lui	a3,0x1000
     854:	01000793          	li	a5,16
     858:	f4d666e3          	bltu	a2,a3,7a4 <__umoddi3+0x34>
     85c:	01800793          	li	a5,24
     860:	f45ff06f          	j	7a4 <__umoddi3+0x34>
     864:	00061663          	bnez	a2,870 <CONFIG_ISR_STACK_SIZE+0x70>
     868:	00100693          	li	a3,1
     86c:	02c6d833          	divu	a6,a3,a2
     870:	000106b7          	lui	a3,0x10
     874:	12d87663          	bgeu	a6,a3,9a0 <CONFIG_ISR_STACK_SIZE+0x1a0>
     878:	0ff00693          	li	a3,255
     87c:	0106f463          	bgeu	a3,a6,884 <CONFIG_ISR_STACK_SIZE+0x84>
     880:	00800793          	li	a5,8
     884:	00f856b3          	srl	a3,a6,a5
     888:	00d70733          	add	a4,a4,a3
     88c:	00074603          	lbu	a2,0(a4)
     890:	410305b3          	sub	a1,t1,a6
     894:	00f60633          	add	a2,a2,a5
     898:	02000793          	li	a5,32
     89c:	40c788b3          	sub	a7,a5,a2
     8a0:	08c78663          	beq	a5,a2,92c <CONFIG_ISR_STACK_SIZE+0x12c>
     8a4:	01181833          	sll	a6,a6,a7
     8a8:	00c357b3          	srl	a5,t1,a2
     8ac:	011315b3          	sll	a1,t1,a7
     8b0:	01085313          	srli	t1,a6,0x10
     8b4:	00ced633          	srl	a2,t4,a2
     8b8:	00b66633          	or	a2,a2,a1
     8bc:	01081593          	slli	a1,a6,0x10
     8c0:	0105d593          	srli	a1,a1,0x10
     8c4:	011e9533          	sll	a0,t4,a7
     8c8:	0267d6b3          	divu	a3,a5,t1
     8cc:	0267f733          	remu	a4,a5,t1
     8d0:	01065793          	srli	a5,a2,0x10
     8d4:	02d586b3          	mul	a3,a1,a3
     8d8:	01071713          	slli	a4,a4,0x10
     8dc:	00f76733          	or	a4,a4,a5
     8e0:	00d77a63          	bgeu	a4,a3,8f4 <CONFIG_ISR_STACK_SIZE+0xf4>
     8e4:	01070733          	add	a4,a4,a6
     8e8:	01076663          	bltu	a4,a6,8f4 <CONFIG_ISR_STACK_SIZE+0xf4>
     8ec:	00d77463          	bgeu	a4,a3,8f4 <CONFIG_ISR_STACK_SIZE+0xf4>
     8f0:	01070733          	add	a4,a4,a6
     8f4:	40d706b3          	sub	a3,a4,a3
     8f8:	0266f733          	remu	a4,a3,t1
     8fc:	01061613          	slli	a2,a2,0x10
     900:	01065613          	srli	a2,a2,0x10
     904:	0266d6b3          	divu	a3,a3,t1
     908:	01071713          	slli	a4,a4,0x10
     90c:	02d586b3          	mul	a3,a1,a3
     910:	00c765b3          	or	a1,a4,a2
     914:	00d5fa63          	bgeu	a1,a3,928 <CONFIG_ISR_STACK_SIZE+0x128>
     918:	010585b3          	add	a1,a1,a6
     91c:	0105e663          	bltu	a1,a6,928 <CONFIG_ISR_STACK_SIZE+0x128>
     920:	00d5f463          	bgeu	a1,a3,928 <CONFIG_ISR_STACK_SIZE+0x128>
     924:	010585b3          	add	a1,a1,a6
     928:	40d585b3          	sub	a1,a1,a3
     92c:	01085693          	srli	a3,a6,0x10
     930:	02d5f733          	remu	a4,a1,a3
     934:	01081793          	slli	a5,a6,0x10
     938:	0107d793          	srli	a5,a5,0x10
     93c:	01055613          	srli	a2,a0,0x10
     940:	02d5d5b3          	divu	a1,a1,a3
     944:	01071713          	slli	a4,a4,0x10
     948:	00c76733          	or	a4,a4,a2
     94c:	02b785b3          	mul	a1,a5,a1
     950:	00b77a63          	bgeu	a4,a1,964 <CONFIG_ISR_STACK_SIZE+0x164>
     954:	01070733          	add	a4,a4,a6
     958:	01076663          	bltu	a4,a6,964 <CONFIG_ISR_STACK_SIZE+0x164>
     95c:	00b77463          	bgeu	a4,a1,964 <CONFIG_ISR_STACK_SIZE+0x164>
     960:	01070733          	add	a4,a4,a6
     964:	40b705b3          	sub	a1,a4,a1
     968:	02d5f733          	remu	a4,a1,a3
     96c:	01051513          	slli	a0,a0,0x10
     970:	01055513          	srli	a0,a0,0x10
     974:	02d5d5b3          	divu	a1,a1,a3
     978:	02b785b3          	mul	a1,a5,a1
     97c:	01071793          	slli	a5,a4,0x10
     980:	00a7e533          	or	a0,a5,a0
     984:	00b57a63          	bgeu	a0,a1,998 <CONFIG_ISR_STACK_SIZE+0x198>
     988:	01050533          	add	a0,a0,a6
     98c:	01056663          	bltu	a0,a6,998 <CONFIG_ISR_STACK_SIZE+0x198>
     990:	00b57463          	bgeu	a0,a1,998 <CONFIG_ISR_STACK_SIZE+0x198>
     994:	01050533          	add	a0,a0,a6
     998:	40b50533          	sub	a0,a0,a1
     99c:	ea9ff06f          	j	844 <CONFIG_ISR_STACK_SIZE+0x44>
     9a0:	010006b7          	lui	a3,0x1000
     9a4:	01000793          	li	a5,16
     9a8:	ecd86ee3          	bltu	a6,a3,884 <CONFIG_ISR_STACK_SIZE+0x84>
     9ac:	01800793          	li	a5,24
     9b0:	ed5ff06f          	j	884 <CONFIG_ISR_STACK_SIZE+0x84>
     9b4:	e8d5ece3          	bltu	a1,a3,84c <CONFIG_ISR_STACK_SIZE+0x4c>
     9b8:	000107b7          	lui	a5,0x10
     9bc:	04f6f863          	bgeu	a3,a5,a0c <CONFIG_ISR_STACK_SIZE+0x20c>
     9c0:	0ff00893          	li	a7,255
     9c4:	00d8b7b3          	sltu	a5,a7,a3
     9c8:	00379793          	slli	a5,a5,0x3
     9cc:	0000c737          	lui	a4,0xc
     9d0:	00f6d833          	srl	a6,a3,a5
     9d4:	28870713          	addi	a4,a4,648 # c288 <__clz_tab>
     9d8:	01070733          	add	a4,a4,a6
     9dc:	00074883          	lbu	a7,0(a4)
     9e0:	00f888b3          	add	a7,a7,a5
     9e4:	02000793          	li	a5,32
     9e8:	41178833          	sub	a6,a5,a7
     9ec:	03179a63          	bne	a5,a7,a20 <CONFIG_ISR_STACK_SIZE+0x220>
     9f0:	0066e463          	bltu	a3,t1,9f8 <CONFIG_ISR_STACK_SIZE+0x1f8>
     9f4:	e4ceece3          	bltu	t4,a2,84c <CONFIG_ISR_STACK_SIZE+0x4c>
     9f8:	40ce8533          	sub	a0,t4,a2
     9fc:	40d305b3          	sub	a1,t1,a3
     a00:	00aebeb3          	sltu	t4,t4,a0
     a04:	41d585b3          	sub	a1,a1,t4
     a08:	e45ff06f          	j	84c <CONFIG_ISR_STACK_SIZE+0x4c>
     a0c:	01000737          	lui	a4,0x1000
     a10:	01000793          	li	a5,16
     a14:	fae6ece3          	bltu	a3,a4,9cc <CONFIG_ISR_STACK_SIZE+0x1cc>
     a18:	01800793          	li	a5,24
     a1c:	fb1ff06f          	j	9cc <CONFIG_ISR_STACK_SIZE+0x1cc>
     a20:	011657b3          	srl	a5,a2,a7
     a24:	010696b3          	sll	a3,a3,a6
     a28:	00d7ee33          	or	t3,a5,a3
     a2c:	01135f33          	srl	t5,t1,a7
     a30:	011ed7b3          	srl	a5,t4,a7
     a34:	010e9533          	sll	a0,t4,a6
     a38:	010e5e93          	srli	t4,t3,0x10
     a3c:	010315b3          	sll	a1,t1,a6
     a40:	03df5333          	divu	t1,t5,t4
     a44:	00b7e7b3          	or	a5,a5,a1
     a48:	010e1593          	slli	a1,t3,0x10
     a4c:	0105d593          	srli	a1,a1,0x10
     a50:	0107d713          	srli	a4,a5,0x10
     a54:	01061633          	sll	a2,a2,a6
     a58:	03df76b3          	remu	a3,t5,t4
     a5c:	02658f33          	mul	t5,a1,t1
     a60:	01069693          	slli	a3,a3,0x10
     a64:	00e6e733          	or	a4,a3,a4
     a68:	00030693          	mv	a3,t1
     a6c:	01e77e63          	bgeu	a4,t5,a88 <CONFIG_ISR_STACK_SIZE+0x288>
     a70:	01c70733          	add	a4,a4,t3
     a74:	fff30693          	addi	a3,t1,-1
     a78:	01c76863          	bltu	a4,t3,a88 <CONFIG_ISR_STACK_SIZE+0x288>
     a7c:	01e77663          	bgeu	a4,t5,a88 <CONFIG_ISR_STACK_SIZE+0x288>
     a80:	ffe30693          	addi	a3,t1,-2
     a84:	01c70733          	add	a4,a4,t3
     a88:	41e70733          	sub	a4,a4,t5
     a8c:	03d77333          	remu	t1,a4,t4
     a90:	01079793          	slli	a5,a5,0x10
     a94:	0107d793          	srli	a5,a5,0x10
     a98:	03d75733          	divu	a4,a4,t4
     a9c:	01031313          	slli	t1,t1,0x10
     aa0:	00f36333          	or	t1,t1,a5
     aa4:	02e585b3          	mul	a1,a1,a4
     aa8:	00070793          	mv	a5,a4
     aac:	00b37e63          	bgeu	t1,a1,ac8 <CONFIG_ISR_STACK_SIZE+0x2c8>
     ab0:	01c30333          	add	t1,t1,t3
     ab4:	fff70793          	addi	a5,a4,-1 # ffffff <__data_region_end+0xff165f>
     ab8:	01c36863          	bltu	t1,t3,ac8 <CONFIG_ISR_STACK_SIZE+0x2c8>
     abc:	00b37663          	bgeu	t1,a1,ac8 <CONFIG_ISR_STACK_SIZE+0x2c8>
     ac0:	ffe70793          	addi	a5,a4,-2
     ac4:	01c30333          	add	t1,t1,t3
     ac8:	01069693          	slli	a3,a3,0x10
     acc:	00010f37          	lui	t5,0x10
     ad0:	00f6e6b3          	or	a3,a3,a5
     ad4:	40b305b3          	sub	a1,t1,a1
     ad8:	ffff0313          	addi	t1,t5,-1 # ffff <__data_region_end+0x165f>
     adc:	0066feb3          	and	t4,a3,t1
     ae0:	01065713          	srli	a4,a2,0x10
     ae4:	0106d693          	srli	a3,a3,0x10
     ae8:	00667333          	and	t1,a2,t1
     aec:	026e87b3          	mul	a5,t4,t1
     af0:	02668333          	mul	t1,a3,t1
     af4:	02ee8eb3          	mul	t4,t4,a4
     af8:	02e686b3          	mul	a3,a3,a4
     afc:	006e8eb3          	add	t4,t4,t1
     b00:	0107d713          	srli	a4,a5,0x10
     b04:	01d70733          	add	a4,a4,t4
     b08:	00677463          	bgeu	a4,t1,b10 <CONFIG_ISR_STACK_SIZE+0x310>
     b0c:	01e686b3          	add	a3,a3,t5
     b10:	01075313          	srli	t1,a4,0x10
     b14:	00d306b3          	add	a3,t1,a3
     b18:	00010337          	lui	t1,0x10
     b1c:	fff30313          	addi	t1,t1,-1 # ffff <__data_region_end+0x165f>
     b20:	00677733          	and	a4,a4,t1
     b24:	01071713          	slli	a4,a4,0x10
     b28:	0067f7b3          	and	a5,a5,t1
     b2c:	00f707b3          	add	a5,a4,a5
     b30:	00d5e663          	bltu	a1,a3,b3c <CONFIG_ISR_STACK_SIZE+0x33c>
     b34:	00d59e63          	bne	a1,a3,b50 <CONFIG_ISR_STACK_SIZE+0x350>
     b38:	00f57c63          	bgeu	a0,a5,b50 <CONFIG_ISR_STACK_SIZE+0x350>
     b3c:	40c78633          	sub	a2,a5,a2
     b40:	00c7b7b3          	sltu	a5,a5,a2
     b44:	01c787b3          	add	a5,a5,t3
     b48:	40f686b3          	sub	a3,a3,a5
     b4c:	00060793          	mv	a5,a2
     b50:	40f507b3          	sub	a5,a0,a5
     b54:	00f53533          	sltu	a0,a0,a5
     b58:	40d585b3          	sub	a1,a1,a3
     b5c:	40a585b3          	sub	a1,a1,a0
     b60:	011598b3          	sll	a7,a1,a7
     b64:	0107d533          	srl	a0,a5,a6
     b68:	00a8e533          	or	a0,a7,a0
     b6c:	0105d5b3          	srl	a1,a1,a6
     b70:	cddff06f          	j	84c <CONFIG_ISR_STACK_SIZE+0x4c>

00000b74 <__divdf3>:
     b74:	fd010113          	addi	sp,sp,-48
     b78:	03212023          	sw	s2,32(sp)
     b7c:	0145d913          	srli	s2,a1,0x14
     b80:	02912223          	sw	s1,36(sp)
     b84:	01312e23          	sw	s3,28(sp)
     b88:	01412c23          	sw	s4,24(sp)
     b8c:	01612823          	sw	s6,16(sp)
     b90:	01812423          	sw	s8,8(sp)
     b94:	00c59493          	slli	s1,a1,0xc
     b98:	02112623          	sw	ra,44(sp)
     b9c:	02812423          	sw	s0,40(sp)
     ba0:	01512a23          	sw	s5,20(sp)
     ba4:	01712623          	sw	s7,12(sp)
     ba8:	7ff97913          	andi	s2,s2,2047
     bac:	00050a13          	mv	s4,a0
     bb0:	00060b13          	mv	s6,a2
     bb4:	00068c13          	mv	s8,a3
     bb8:	00c4d493          	srli	s1,s1,0xc
     bbc:	01f5d993          	srli	s3,a1,0x1f
     bc0:	0a090063          	beqz	s2,c60 <__divdf3+0xec>
     bc4:	7ff00793          	li	a5,2047
     bc8:	0ef90e63          	beq	s2,a5,cc4 <__divdf3+0x150>
     bcc:	01d55a93          	srli	s5,a0,0x1d
     bd0:	00349493          	slli	s1,s1,0x3
     bd4:	009ae4b3          	or	s1,s5,s1
     bd8:	00800ab7          	lui	s5,0x800
     bdc:	0154eab3          	or	s5,s1,s5
     be0:	00351413          	slli	s0,a0,0x3
     be4:	c0190913          	addi	s2,s2,-1023
     be8:	00000b93          	li	s7,0
     bec:	00cc1513          	slli	a0,s8,0xc
     bf0:	00c55493          	srli	s1,a0,0xc
     bf4:	014c5513          	srli	a0,s8,0x14
     bf8:	7ff57593          	andi	a1,a0,2047
     bfc:	01fc5c13          	srli	s8,s8,0x1f
     c00:	10058063          	beqz	a1,d00 <__divdf3+0x18c>
     c04:	7ff00793          	li	a5,2047
     c08:	16f58263          	beq	a1,a5,d6c <__divdf3+0x1f8>
     c0c:	00349513          	slli	a0,s1,0x3
     c10:	01db5793          	srli	a5,s6,0x1d
     c14:	00a7e533          	or	a0,a5,a0
     c18:	008004b7          	lui	s1,0x800
     c1c:	009564b3          	or	s1,a0,s1
     c20:	003b1f93          	slli	t6,s6,0x3
     c24:	c0158513          	addi	a0,a1,-1023
     c28:	00000793          	li	a5,0
     c2c:	002b9713          	slli	a4,s7,0x2
     c30:	00f76733          	or	a4,a4,a5
     c34:	fff70713          	addi	a4,a4,-1
     c38:	00e00613          	li	a2,14
     c3c:	0189c6b3          	xor	a3,s3,s8
     c40:	40a905b3          	sub	a1,s2,a0
     c44:	16e66063          	bltu	a2,a4,da4 <__divdf3+0x230>
     c48:	0000c637          	lui	a2,0xc
     c4c:	00271713          	slli	a4,a4,0x2
     c50:	38860613          	addi	a2,a2,904 # c388 <__clz_tab+0x100>
     c54:	00c70733          	add	a4,a4,a2
     c58:	00072703          	lw	a4,0(a4)
     c5c:	00070067          	jr	a4
     c60:	00a4eab3          	or	s5,s1,a0
     c64:	060a8e63          	beqz	s5,ce0 <__divdf3+0x16c>
     c68:	04048063          	beqz	s1,ca8 <__divdf3+0x134>
     c6c:	00048513          	mv	a0,s1
     c70:	e80ff0ef          	jal	ra,2f0 <__clzsi2>
     c74:	ff550793          	addi	a5,a0,-11
     c78:	01c00713          	li	a4,28
     c7c:	02f74c63          	blt	a4,a5,cb4 <__divdf3+0x140>
     c80:	01d00a93          	li	s5,29
     c84:	ff850413          	addi	s0,a0,-8
     c88:	40fa8ab3          	sub	s5,s5,a5
     c8c:	008494b3          	sll	s1,s1,s0
     c90:	015a5ab3          	srl	s5,s4,s5
     c94:	009aeab3          	or	s5,s5,s1
     c98:	008a1433          	sll	s0,s4,s0
     c9c:	c0d00593          	li	a1,-1011
     ca0:	40a58933          	sub	s2,a1,a0
     ca4:	f45ff06f          	j	be8 <__divdf3+0x74>
     ca8:	e48ff0ef          	jal	ra,2f0 <__clzsi2>
     cac:	02050513          	addi	a0,a0,32
     cb0:	fc5ff06f          	j	c74 <__divdf3+0x100>
     cb4:	fd850493          	addi	s1,a0,-40
     cb8:	009a1ab3          	sll	s5,s4,s1
     cbc:	00000413          	li	s0,0
     cc0:	fddff06f          	j	c9c <__divdf3+0x128>
     cc4:	00a4eab3          	or	s5,s1,a0
     cc8:	020a8463          	beqz	s5,cf0 <__divdf3+0x17c>
     ccc:	00050413          	mv	s0,a0
     cd0:	00048a93          	mv	s5,s1
     cd4:	7ff00913          	li	s2,2047
     cd8:	00300b93          	li	s7,3
     cdc:	f11ff06f          	j	bec <__divdf3+0x78>
     ce0:	00000413          	li	s0,0
     ce4:	00000913          	li	s2,0
     ce8:	00100b93          	li	s7,1
     cec:	f01ff06f          	j	bec <__divdf3+0x78>
     cf0:	00000413          	li	s0,0
     cf4:	7ff00913          	li	s2,2047
     cf8:	00200b93          	li	s7,2
     cfc:	ef1ff06f          	j	bec <__divdf3+0x78>
     d00:	0164efb3          	or	t6,s1,s6
     d04:	080f8063          	beqz	t6,d84 <__divdf3+0x210>
     d08:	04048263          	beqz	s1,d4c <__divdf3+0x1d8>
     d0c:	00048513          	mv	a0,s1
     d10:	de0ff0ef          	jal	ra,2f0 <__clzsi2>
     d14:	00050593          	mv	a1,a0
     d18:	ff558793          	addi	a5,a1,-11
     d1c:	01c00713          	li	a4,28
     d20:	02f74e63          	blt	a4,a5,d5c <__divdf3+0x1e8>
     d24:	01d00693          	li	a3,29
     d28:	ff858f93          	addi	t6,a1,-8
     d2c:	40f686b3          	sub	a3,a3,a5
     d30:	01f49533          	sll	a0,s1,t6
     d34:	00db56b3          	srl	a3,s6,a3
     d38:	00a6e4b3          	or	s1,a3,a0
     d3c:	01fb1fb3          	sll	t6,s6,t6
     d40:	c0d00693          	li	a3,-1011
     d44:	40b68533          	sub	a0,a3,a1
     d48:	ee1ff06f          	j	c28 <__divdf3+0xb4>
     d4c:	000b0513          	mv	a0,s6
     d50:	da0ff0ef          	jal	ra,2f0 <__clzsi2>
     d54:	02050593          	addi	a1,a0,32
     d58:	fc1ff06f          	j	d18 <__divdf3+0x1a4>
     d5c:	fd858513          	addi	a0,a1,-40
     d60:	00ab14b3          	sll	s1,s6,a0
     d64:	00000f93          	li	t6,0
     d68:	fd9ff06f          	j	d40 <__divdf3+0x1cc>
     d6c:	0164efb3          	or	t6,s1,s6
     d70:	020f8263          	beqz	t6,d94 <__divdf3+0x220>
     d74:	000b0f93          	mv	t6,s6
     d78:	7ff00513          	li	a0,2047
     d7c:	00300793          	li	a5,3
     d80:	eadff06f          	j	c2c <__divdf3+0xb8>
     d84:	00000493          	li	s1,0
     d88:	00000513          	li	a0,0
     d8c:	00100793          	li	a5,1
     d90:	e9dff06f          	j	c2c <__divdf3+0xb8>
     d94:	00000493          	li	s1,0
     d98:	7ff00513          	li	a0,2047
     d9c:	00200793          	li	a5,2
     da0:	e8dff06f          	j	c2c <__divdf3+0xb8>
     da4:	0154e663          	bltu	s1,s5,db0 <__divdf3+0x23c>
     da8:	349a9e63          	bne	s5,s1,1104 <__divdf3+0x590>
     dac:	35f46c63          	bltu	s0,t6,1104 <__divdf3+0x590>
     db0:	01fa9613          	slli	a2,s5,0x1f
     db4:	00145713          	srli	a4,s0,0x1
     db8:	01f41793          	slli	a5,s0,0x1f
     dbc:	001ada93          	srli	s5,s5,0x1
     dc0:	00e66433          	or	s0,a2,a4
     dc4:	00849513          	slli	a0,s1,0x8
     dc8:	018fd893          	srli	a7,t6,0x18
     dcc:	00a8e8b3          	or	a7,a7,a0
     dd0:	01055513          	srli	a0,a0,0x10
     dd4:	02aade33          	divu	t3,s5,a0
     dd8:	01089e93          	slli	t4,a7,0x10
     ddc:	010ede93          	srli	t4,t4,0x10
     de0:	01045713          	srli	a4,s0,0x10
     de4:	008f9313          	slli	t1,t6,0x8
     de8:	02aafab3          	remu	s5,s5,a0
     dec:	000e0613          	mv	a2,t3
     df0:	03ce8833          	mul	a6,t4,t3
     df4:	010a9a93          	slli	s5,s5,0x10
     df8:	01576733          	or	a4,a4,s5
     dfc:	01077e63          	bgeu	a4,a6,e18 <__divdf3+0x2a4>
     e00:	01170733          	add	a4,a4,a7
     e04:	fffe0613          	addi	a2,t3,-1
     e08:	01176863          	bltu	a4,a7,e18 <__divdf3+0x2a4>
     e0c:	01077663          	bgeu	a4,a6,e18 <__divdf3+0x2a4>
     e10:	ffee0613          	addi	a2,t3,-2
     e14:	01170733          	add	a4,a4,a7
     e18:	41070733          	sub	a4,a4,a6
     e1c:	02a75e33          	divu	t3,a4,a0
     e20:	01041413          	slli	s0,s0,0x10
     e24:	01045413          	srli	s0,s0,0x10
     e28:	02a77733          	remu	a4,a4,a0
     e2c:	000e0293          	mv	t0,t3
     e30:	03ce8833          	mul	a6,t4,t3
     e34:	01071713          	slli	a4,a4,0x10
     e38:	00e46733          	or	a4,s0,a4
     e3c:	01077e63          	bgeu	a4,a6,e58 <__divdf3+0x2e4>
     e40:	01170733          	add	a4,a4,a7
     e44:	fffe0293          	addi	t0,t3,-1
     e48:	01176863          	bltu	a4,a7,e58 <__divdf3+0x2e4>
     e4c:	01077663          	bgeu	a4,a6,e58 <__divdf3+0x2e4>
     e50:	ffee0293          	addi	t0,t3,-2
     e54:	01170733          	add	a4,a4,a7
     e58:	41070433          	sub	s0,a4,a6
     e5c:	01061613          	slli	a2,a2,0x10
     e60:	00010837          	lui	a6,0x10
     e64:	005662b3          	or	t0,a2,t0
     e68:	fff80e13          	addi	t3,a6,-1 # ffff <__data_region_end+0x165f>
     e6c:	0102d613          	srli	a2,t0,0x10
     e70:	01c2f733          	and	a4,t0,t3
     e74:	01035f13          	srli	t5,t1,0x10
     e78:	01c37e33          	and	t3,t1,t3
     e7c:	02ee03b3          	mul	t2,t3,a4
     e80:	03c604b3          	mul	s1,a2,t3
     e84:	02ef0733          	mul	a4,t5,a4
     e88:	03e60fb3          	mul	t6,a2,t5
     e8c:	00970633          	add	a2,a4,s1
     e90:	0103d713          	srli	a4,t2,0x10
     e94:	00c70733          	add	a4,a4,a2
     e98:	00977463          	bgeu	a4,s1,ea0 <__divdf3+0x32c>
     e9c:	010f8fb3          	add	t6,t6,a6
     ea0:	01075613          	srli	a2,a4,0x10
     ea4:	01f60633          	add	a2,a2,t6
     ea8:	00010fb7          	lui	t6,0x10
     eac:	ffff8f93          	addi	t6,t6,-1 # ffff <__data_region_end+0x165f>
     eb0:	01f77833          	and	a6,a4,t6
     eb4:	01081813          	slli	a6,a6,0x10
     eb8:	01f3f3b3          	and	t2,t2,t6
     ebc:	00780833          	add	a6,a6,t2
     ec0:	00c46863          	bltu	s0,a2,ed0 <__divdf3+0x35c>
     ec4:	00028493          	mv	s1,t0
     ec8:	04c41463          	bne	s0,a2,f10 <__divdf3+0x39c>
     ecc:	0507f263          	bgeu	a5,a6,f10 <__divdf3+0x39c>
     ed0:	006787b3          	add	a5,a5,t1
     ed4:	0067b733          	sltu	a4,a5,t1
     ed8:	01170733          	add	a4,a4,a7
     edc:	00e40433          	add	s0,s0,a4
     ee0:	fff28493          	addi	s1,t0,-1
     ee4:	0088e663          	bltu	a7,s0,ef0 <__divdf3+0x37c>
     ee8:	02889463          	bne	a7,s0,f10 <__divdf3+0x39c>
     eec:	0267e263          	bltu	a5,t1,f10 <__divdf3+0x39c>
     ef0:	00c46663          	bltu	s0,a2,efc <__divdf3+0x388>
     ef4:	00861e63          	bne	a2,s0,f10 <__divdf3+0x39c>
     ef8:	0107fc63          	bgeu	a5,a6,f10 <__divdf3+0x39c>
     efc:	006787b3          	add	a5,a5,t1
     f00:	0067b733          	sltu	a4,a5,t1
     f04:	01170733          	add	a4,a4,a7
     f08:	ffe28493          	addi	s1,t0,-2
     f0c:	00e40433          	add	s0,s0,a4
     f10:	41078833          	sub	a6,a5,a6
     f14:	40c40433          	sub	s0,s0,a2
     f18:	0107b7b3          	sltu	a5,a5,a6
     f1c:	40f40433          	sub	s0,s0,a5
     f20:	fff00f93          	li	t6,-1
     f24:	12888463          	beq	a7,s0,104c <__divdf3+0x4d8>
     f28:	02a45fb3          	divu	t6,s0,a0
     f2c:	01085713          	srli	a4,a6,0x10
     f30:	02a47433          	remu	s0,s0,a0
     f34:	000f8613          	mv	a2,t6
     f38:	03fe87b3          	mul	a5,t4,t6
     f3c:	01041413          	slli	s0,s0,0x10
     f40:	00876433          	or	s0,a4,s0
     f44:	00f47e63          	bgeu	s0,a5,f60 <__divdf3+0x3ec>
     f48:	01140433          	add	s0,s0,a7
     f4c:	ffff8613          	addi	a2,t6,-1
     f50:	01146863          	bltu	s0,a7,f60 <__divdf3+0x3ec>
     f54:	00f47663          	bgeu	s0,a5,f60 <__divdf3+0x3ec>
     f58:	ffef8613          	addi	a2,t6,-2
     f5c:	01140433          	add	s0,s0,a7
     f60:	40f40433          	sub	s0,s0,a5
     f64:	02a45733          	divu	a4,s0,a0
     f68:	01081813          	slli	a6,a6,0x10
     f6c:	01085813          	srli	a6,a6,0x10
     f70:	02a47433          	remu	s0,s0,a0
     f74:	00070793          	mv	a5,a4
     f78:	02ee8eb3          	mul	t4,t4,a4
     f7c:	01041413          	slli	s0,s0,0x10
     f80:	00886433          	or	s0,a6,s0
     f84:	01d47e63          	bgeu	s0,t4,fa0 <__divdf3+0x42c>
     f88:	01140433          	add	s0,s0,a7
     f8c:	fff70793          	addi	a5,a4,-1
     f90:	01146863          	bltu	s0,a7,fa0 <__divdf3+0x42c>
     f94:	01d47663          	bgeu	s0,t4,fa0 <__divdf3+0x42c>
     f98:	ffe70793          	addi	a5,a4,-2
     f9c:	01140433          	add	s0,s0,a7
     fa0:	01061613          	slli	a2,a2,0x10
     fa4:	00f66633          	or	a2,a2,a5
     fa8:	01061793          	slli	a5,a2,0x10
     fac:	0107d793          	srli	a5,a5,0x10
     fb0:	01065713          	srli	a4,a2,0x10
     fb4:	02ef0833          	mul	a6,t5,a4
     fb8:	41d40433          	sub	s0,s0,t4
     fbc:	02ff0f33          	mul	t5,t5,a5
     fc0:	03c78eb3          	mul	t4,a5,t3
     fc4:	03c70e33          	mul	t3,a4,t3
     fc8:	010ed793          	srli	a5,t4,0x10
     fcc:	01cf0f33          	add	t5,t5,t3
     fd0:	01e787b3          	add	a5,a5,t5
     fd4:	01c7f663          	bgeu	a5,t3,fe0 <__divdf3+0x46c>
     fd8:	00010737          	lui	a4,0x10
     fdc:	00e80833          	add	a6,a6,a4
     fe0:	0107d713          	srli	a4,a5,0x10
     fe4:	01070733          	add	a4,a4,a6
     fe8:	00010837          	lui	a6,0x10
     fec:	fff80813          	addi	a6,a6,-1 # ffff <__data_region_end+0x165f>
     ff0:	0107f533          	and	a0,a5,a6
     ff4:	01051513          	slli	a0,a0,0x10
     ff8:	010efeb3          	and	t4,t4,a6
     ffc:	01d50533          	add	a0,a0,t4
    1000:	00e46863          	bltu	s0,a4,1010 <__divdf3+0x49c>
    1004:	24e41463          	bne	s0,a4,124c <__divdf3+0x6d8>
    1008:	00060f93          	mv	t6,a2
    100c:	04050063          	beqz	a0,104c <__divdf3+0x4d8>
    1010:	00888433          	add	s0,a7,s0
    1014:	fff60f93          	addi	t6,a2,-1
    1018:	03146463          	bltu	s0,a7,1040 <__divdf3+0x4cc>
    101c:	00e46663          	bltu	s0,a4,1028 <__divdf3+0x4b4>
    1020:	22e41463          	bne	s0,a4,1248 <__divdf3+0x6d4>
    1024:	02a37063          	bgeu	t1,a0,1044 <__divdf3+0x4d0>
    1028:	00131793          	slli	a5,t1,0x1
    102c:	0067b333          	sltu	t1,a5,t1
    1030:	011308b3          	add	a7,t1,a7
    1034:	ffe60f93          	addi	t6,a2,-2
    1038:	01140433          	add	s0,s0,a7
    103c:	00078313          	mv	t1,a5
    1040:	00e41463          	bne	s0,a4,1048 <__divdf3+0x4d4>
    1044:	00650463          	beq	a0,t1,104c <__divdf3+0x4d8>
    1048:	001fef93          	ori	t6,t6,1
    104c:	3ff58793          	addi	a5,a1,1023
    1050:	10f05a63          	blez	a5,1164 <__divdf3+0x5f0>
    1054:	007ff713          	andi	a4,t6,7
    1058:	02070063          	beqz	a4,1078 <__divdf3+0x504>
    105c:	00fff713          	andi	a4,t6,15
    1060:	00400613          	li	a2,4
    1064:	00c70a63          	beq	a4,a2,1078 <__divdf3+0x504>
    1068:	004f8613          	addi	a2,t6,4
    106c:	01f63fb3          	sltu	t6,a2,t6
    1070:	01f484b3          	add	s1,s1,t6
    1074:	00060f93          	mv	t6,a2
    1078:	01000737          	lui	a4,0x1000
    107c:	00e4f733          	and	a4,s1,a4
    1080:	00070a63          	beqz	a4,1094 <__divdf3+0x520>
    1084:	ff0007b7          	lui	a5,0xff000
    1088:	fff78793          	addi	a5,a5,-1 # feffffff <CONFIG_SYSTEM_WORKQUEUE_PRIORITY+0xff000000>
    108c:	00f4f4b3          	and	s1,s1,a5
    1090:	40058793          	addi	a5,a1,1024
    1094:	7fe00713          	li	a4,2046
    1098:	0af74063          	blt	a4,a5,1138 <__divdf3+0x5c4>
    109c:	003fdf93          	srli	t6,t6,0x3
    10a0:	01d49713          	slli	a4,s1,0x1d
    10a4:	01f76733          	or	a4,a4,t6
    10a8:	0034d513          	srli	a0,s1,0x3
    10ac:	01479793          	slli	a5,a5,0x14
    10b0:	7ff00637          	lui	a2,0x7ff00
    10b4:	00c51513          	slli	a0,a0,0xc
    10b8:	02c12083          	lw	ra,44(sp)
    10bc:	02812403          	lw	s0,40(sp)
    10c0:	00c7f7b3          	and	a5,a5,a2
    10c4:	00c55513          	srli	a0,a0,0xc
    10c8:	00a7e533          	or	a0,a5,a0
    10cc:	01f69693          	slli	a3,a3,0x1f
    10d0:	00d567b3          	or	a5,a0,a3
    10d4:	02412483          	lw	s1,36(sp)
    10d8:	02012903          	lw	s2,32(sp)
    10dc:	01c12983          	lw	s3,28(sp)
    10e0:	01812a03          	lw	s4,24(sp)
    10e4:	01412a83          	lw	s5,20(sp)
    10e8:	01012b03          	lw	s6,16(sp)
    10ec:	00c12b83          	lw	s7,12(sp)
    10f0:	00812c03          	lw	s8,8(sp)
    10f4:	00070513          	mv	a0,a4
    10f8:	00078593          	mv	a1,a5
    10fc:	03010113          	addi	sp,sp,48
    1100:	00008067          	ret
    1104:	fff58593          	addi	a1,a1,-1
    1108:	00000793          	li	a5,0
    110c:	cb9ff06f          	j	dc4 <__divdf3+0x250>
    1110:	00098693          	mv	a3,s3
    1114:	000a8493          	mv	s1,s5
    1118:	00040f93          	mv	t6,s0
    111c:	000b8793          	mv	a5,s7
    1120:	00300713          	li	a4,3
    1124:	0ee78a63          	beq	a5,a4,1218 <__divdf3+0x6a4>
    1128:	00100713          	li	a4,1
    112c:	10e78063          	beq	a5,a4,122c <__divdf3+0x6b8>
    1130:	00200713          	li	a4,2
    1134:	f0e79ce3          	bne	a5,a4,104c <__divdf3+0x4d8>
    1138:	00000513          	li	a0,0
    113c:	00000713          	li	a4,0
    1140:	7ff00793          	li	a5,2047
    1144:	f69ff06f          	j	10ac <__divdf3+0x538>
    1148:	000c0693          	mv	a3,s8
    114c:	fd5ff06f          	j	1120 <__divdf3+0x5ac>
    1150:	000804b7          	lui	s1,0x80
    1154:	00000f93          	li	t6,0
    1158:	00000693          	li	a3,0
    115c:	00300793          	li	a5,3
    1160:	fc1ff06f          	j	1120 <__divdf3+0x5ac>
    1164:	00100513          	li	a0,1
    1168:	40f50533          	sub	a0,a0,a5
    116c:	03800713          	li	a4,56
    1170:	0aa74e63          	blt	a4,a0,122c <__divdf3+0x6b8>
    1174:	01f00713          	li	a4,31
    1178:	06a74663          	blt	a4,a0,11e4 <__divdf3+0x670>
    117c:	41e58593          	addi	a1,a1,1054
    1180:	00b497b3          	sll	a5,s1,a1
    1184:	00afd733          	srl	a4,t6,a0
    1188:	00bf95b3          	sll	a1,t6,a1
    118c:	00e7e7b3          	or	a5,a5,a4
    1190:	00b035b3          	snez	a1,a1
    1194:	00b7e7b3          	or	a5,a5,a1
    1198:	00a4d533          	srl	a0,s1,a0
    119c:	0077f713          	andi	a4,a5,7
    11a0:	02070063          	beqz	a4,11c0 <__divdf3+0x64c>
    11a4:	00f7f713          	andi	a4,a5,15
    11a8:	00400613          	li	a2,4
    11ac:	00c70a63          	beq	a4,a2,11c0 <__divdf3+0x64c>
    11b0:	00478713          	addi	a4,a5,4
    11b4:	00f737b3          	sltu	a5,a4,a5
    11b8:	00f50533          	add	a0,a0,a5
    11bc:	00070793          	mv	a5,a4
    11c0:	00800737          	lui	a4,0x800
    11c4:	00e57733          	and	a4,a0,a4
    11c8:	06071863          	bnez	a4,1238 <__divdf3+0x6c4>
    11cc:	01d51713          	slli	a4,a0,0x1d
    11d0:	0037d793          	srli	a5,a5,0x3
    11d4:	00f76733          	or	a4,a4,a5
    11d8:	00355513          	srli	a0,a0,0x3
    11dc:	00000793          	li	a5,0
    11e0:	ecdff06f          	j	10ac <__divdf3+0x538>
    11e4:	fe100713          	li	a4,-31
    11e8:	40f707b3          	sub	a5,a4,a5
    11ec:	02000613          	li	a2,32
    11f0:	00f4d7b3          	srl	a5,s1,a5
    11f4:	00000713          	li	a4,0
    11f8:	00c50663          	beq	a0,a2,1204 <__divdf3+0x690>
    11fc:	43e58713          	addi	a4,a1,1086
    1200:	00e49733          	sll	a4,s1,a4
    1204:	01f76733          	or	a4,a4,t6
    1208:	00e03733          	snez	a4,a4
    120c:	00e7e7b3          	or	a5,a5,a4
    1210:	00000513          	li	a0,0
    1214:	f89ff06f          	j	119c <__divdf3+0x628>
    1218:	00080537          	lui	a0,0x80
    121c:	00000713          	li	a4,0
    1220:	7ff00793          	li	a5,2047
    1224:	00000693          	li	a3,0
    1228:	e85ff06f          	j	10ac <__divdf3+0x538>
    122c:	00000513          	li	a0,0
    1230:	00000713          	li	a4,0
    1234:	fa9ff06f          	j	11dc <__divdf3+0x668>
    1238:	00000513          	li	a0,0
    123c:	00000713          	li	a4,0
    1240:	00100793          	li	a5,1
    1244:	e69ff06f          	j	10ac <__divdf3+0x538>
    1248:	000f8613          	mv	a2,t6
    124c:	00060f93          	mv	t6,a2
    1250:	df9ff06f          	j	1048 <__divdf3+0x4d4>

00001254 <__gedf2>:
    1254:	00100737          	lui	a4,0x100
    1258:	fff70713          	addi	a4,a4,-1 # fffff <__data_region_end+0xf165f>
    125c:	0145d813          	srli	a6,a1,0x14
    1260:	00b778b3          	and	a7,a4,a1
    1264:	00050793          	mv	a5,a0
    1268:	00050313          	mv	t1,a0
    126c:	7ff87813          	andi	a6,a6,2047
    1270:	01f5d513          	srli	a0,a1,0x1f
    1274:	7ff00e93          	li	t4,2047
    1278:	0146d593          	srli	a1,a3,0x14
    127c:	00d77733          	and	a4,a4,a3
    1280:	00060e13          	mv	t3,a2
    1284:	7ff5f593          	andi	a1,a1,2047
    1288:	01f6d693          	srli	a3,a3,0x1f
    128c:	01d81a63          	bne	a6,t4,12a0 <__gedf2+0x4c>
    1290:	00f8eeb3          	or	t4,a7,a5
    1294:	080e8a63          	beqz	t4,1328 <__gedf2+0xd4>
    1298:	ffe00513          	li	a0,-2
    129c:	00008067          	ret
    12a0:	01d59663          	bne	a1,t4,12ac <__gedf2+0x58>
    12a4:	00c76eb3          	or	t4,a4,a2
    12a8:	fe0e98e3          	bnez	t4,1298 <__gedf2+0x44>
    12ac:	08081063          	bnez	a6,132c <__gedf2+0xd8>
    12b0:	00f8e7b3          	or	a5,a7,a5
    12b4:	0017b793          	seqz	a5,a5
    12b8:	00059663          	bnez	a1,12c4 <__gedf2+0x70>
    12bc:	00c76633          	or	a2,a4,a2
    12c0:	04060c63          	beqz	a2,1318 <__gedf2+0xc4>
    12c4:	00079c63          	bnez	a5,12dc <__gedf2+0x88>
    12c8:	00d51463          	bne	a0,a3,12d0 <__gedf2+0x7c>
    12cc:	0305d063          	bge	a1,a6,12ec <__gedf2+0x98>
    12d0:	04050063          	beqz	a0,1310 <__gedf2+0xbc>
    12d4:	fff00513          	li	a0,-1
    12d8:	00008067          	ret
    12dc:	fff00513          	li	a0,-1
    12e0:	00068a63          	beqz	a3,12f4 <__gedf2+0xa0>
    12e4:	00068513          	mv	a0,a3
    12e8:	00008067          	ret
    12ec:	00b85663          	bge	a6,a1,12f8 <__gedf2+0xa4>
    12f0:	fe0502e3          	beqz	a0,12d4 <__gedf2+0x80>
    12f4:	00008067          	ret
    12f8:	fd176ce3          	bltu	a4,a7,12d0 <__gedf2+0x7c>
    12fc:	02e89263          	bne	a7,a4,1320 <__gedf2+0xcc>
    1300:	fc6e68e3          	bltu	t3,t1,12d0 <__gedf2+0x7c>
    1304:	ffc366e3          	bltu	t1,t3,12f0 <__gedf2+0x9c>
    1308:	00000513          	li	a0,0
    130c:	00008067          	ret
    1310:	00100513          	li	a0,1
    1314:	00008067          	ret
    1318:	fe0798e3          	bnez	a5,1308 <__gedf2+0xb4>
    131c:	fb5ff06f          	j	12d0 <__gedf2+0x7c>
    1320:	fce8e8e3          	bltu	a7,a4,12f0 <__gedf2+0x9c>
    1324:	fe5ff06f          	j	1308 <__gedf2+0xb4>
    1328:	f7058ee3          	beq	a1,a6,12a4 <__gedf2+0x50>
    132c:	f8059ee3          	bnez	a1,12c8 <__gedf2+0x74>
    1330:	00000793          	li	a5,0
    1334:	f89ff06f          	j	12bc <__gedf2+0x68>

00001338 <__muldf3>:
    1338:	fd010113          	addi	sp,sp,-48
    133c:	01312e23          	sw	s3,28(sp)
    1340:	0145d993          	srli	s3,a1,0x14
    1344:	02812423          	sw	s0,40(sp)
    1348:	02912223          	sw	s1,36(sp)
    134c:	01412c23          	sw	s4,24(sp)
    1350:	01512a23          	sw	s5,20(sp)
    1354:	01712623          	sw	s7,12(sp)
    1358:	00c59493          	slli	s1,a1,0xc
    135c:	02112623          	sw	ra,44(sp)
    1360:	03212023          	sw	s2,32(sp)
    1364:	01612823          	sw	s6,16(sp)
    1368:	7ff9f993          	andi	s3,s3,2047
    136c:	00050413          	mv	s0,a0
    1370:	00060b93          	mv	s7,a2
    1374:	00068a93          	mv	s5,a3
    1378:	00c4d493          	srli	s1,s1,0xc
    137c:	01f5da13          	srli	s4,a1,0x1f
    1380:	0a098263          	beqz	s3,1424 <__muldf3+0xec>
    1384:	7ff00793          	li	a5,2047
    1388:	10f98063          	beq	s3,a5,1488 <__muldf3+0x150>
    138c:	01d55793          	srli	a5,a0,0x1d
    1390:	00349493          	slli	s1,s1,0x3
    1394:	0097e4b3          	or	s1,a5,s1
    1398:	008007b7          	lui	a5,0x800
    139c:	00f4e4b3          	or	s1,s1,a5
    13a0:	00351913          	slli	s2,a0,0x3
    13a4:	c0198993          	addi	s3,s3,-1023
    13a8:	00000b13          	li	s6,0
    13ac:	014ad513          	srli	a0,s5,0x14
    13b0:	00ca9413          	slli	s0,s5,0xc
    13b4:	7ff57513          	andi	a0,a0,2047
    13b8:	00c45413          	srli	s0,s0,0xc
    13bc:	01fada93          	srli	s5,s5,0x1f
    13c0:	10050063          	beqz	a0,14c0 <__muldf3+0x188>
    13c4:	7ff00793          	li	a5,2047
    13c8:	16f50063          	beq	a0,a5,1528 <__muldf3+0x1f0>
    13cc:	01dbd793          	srli	a5,s7,0x1d
    13d0:	00341413          	slli	s0,s0,0x3
    13d4:	0087e433          	or	s0,a5,s0
    13d8:	008007b7          	lui	a5,0x800
    13dc:	00f46433          	or	s0,s0,a5
    13e0:	c0150513          	addi	a0,a0,-1023 # 7fc01 <__data_region_end+0x71261>
    13e4:	003b9793          	slli	a5,s7,0x3
    13e8:	00000713          	li	a4,0
    13ec:	002b1693          	slli	a3,s6,0x2
    13f0:	00e6e6b3          	or	a3,a3,a4
    13f4:	00a98533          	add	a0,s3,a0
    13f8:	fff68693          	addi	a3,a3,-1 # ffffff <__data_region_end+0xff165f>
    13fc:	00e00813          	li	a6,14
    1400:	015a4633          	xor	a2,s4,s5
    1404:	00150593          	addi	a1,a0,1
    1408:	14d86c63          	bltu	a6,a3,1560 <__muldf3+0x228>
    140c:	0000c537          	lui	a0,0xc
    1410:	00269693          	slli	a3,a3,0x2
    1414:	3c450513          	addi	a0,a0,964 # c3c4 <__clz_tab+0x13c>
    1418:	00a686b3          	add	a3,a3,a0
    141c:	0006a683          	lw	a3,0(a3)
    1420:	00068067          	jr	a3
    1424:	00a4e933          	or	s2,s1,a0
    1428:	06090c63          	beqz	s2,14a0 <__muldf3+0x168>
    142c:	04048063          	beqz	s1,146c <__muldf3+0x134>
    1430:	00048513          	mv	a0,s1
    1434:	ebdfe0ef          	jal	ra,2f0 <__clzsi2>
    1438:	ff550713          	addi	a4,a0,-11
    143c:	01c00793          	li	a5,28
    1440:	02e7cc63          	blt	a5,a4,1478 <__muldf3+0x140>
    1444:	01d00793          	li	a5,29
    1448:	ff850913          	addi	s2,a0,-8
    144c:	40e787b3          	sub	a5,a5,a4
    1450:	012494b3          	sll	s1,s1,s2
    1454:	00f457b3          	srl	a5,s0,a5
    1458:	0097e4b3          	or	s1,a5,s1
    145c:	01241933          	sll	s2,s0,s2
    1460:	c0d00993          	li	s3,-1011
    1464:	40a989b3          	sub	s3,s3,a0
    1468:	f41ff06f          	j	13a8 <__muldf3+0x70>
    146c:	e85fe0ef          	jal	ra,2f0 <__clzsi2>
    1470:	02050513          	addi	a0,a0,32
    1474:	fc5ff06f          	j	1438 <__muldf3+0x100>
    1478:	fd850493          	addi	s1,a0,-40
    147c:	009414b3          	sll	s1,s0,s1
    1480:	00000913          	li	s2,0
    1484:	fddff06f          	j	1460 <__muldf3+0x128>
    1488:	00a4e933          	or	s2,s1,a0
    148c:	02090263          	beqz	s2,14b0 <__muldf3+0x178>
    1490:	00050913          	mv	s2,a0
    1494:	7ff00993          	li	s3,2047
    1498:	00300b13          	li	s6,3
    149c:	f11ff06f          	j	13ac <__muldf3+0x74>
    14a0:	00000493          	li	s1,0
    14a4:	00000993          	li	s3,0
    14a8:	00100b13          	li	s6,1
    14ac:	f01ff06f          	j	13ac <__muldf3+0x74>
    14b0:	00000493          	li	s1,0
    14b4:	7ff00993          	li	s3,2047
    14b8:	00200b13          	li	s6,2
    14bc:	ef1ff06f          	j	13ac <__muldf3+0x74>
    14c0:	017467b3          	or	a5,s0,s7
    14c4:	06078e63          	beqz	a5,1540 <__muldf3+0x208>
    14c8:	04040063          	beqz	s0,1508 <__muldf3+0x1d0>
    14cc:	00040513          	mv	a0,s0
    14d0:	e21fe0ef          	jal	ra,2f0 <__clzsi2>
    14d4:	ff550693          	addi	a3,a0,-11
    14d8:	01c00793          	li	a5,28
    14dc:	02d7ce63          	blt	a5,a3,1518 <__muldf3+0x1e0>
    14e0:	01d00713          	li	a4,29
    14e4:	ff850793          	addi	a5,a0,-8
    14e8:	40d70733          	sub	a4,a4,a3
    14ec:	00f41433          	sll	s0,s0,a5
    14f0:	00ebd733          	srl	a4,s7,a4
    14f4:	00876433          	or	s0,a4,s0
    14f8:	00fb97b3          	sll	a5,s7,a5
    14fc:	c0d00713          	li	a4,-1011
    1500:	40a70533          	sub	a0,a4,a0
    1504:	ee5ff06f          	j	13e8 <__muldf3+0xb0>
    1508:	000b8513          	mv	a0,s7
    150c:	de5fe0ef          	jal	ra,2f0 <__clzsi2>
    1510:	02050513          	addi	a0,a0,32
    1514:	fc1ff06f          	j	14d4 <__muldf3+0x19c>
    1518:	fd850413          	addi	s0,a0,-40
    151c:	008b9433          	sll	s0,s7,s0
    1520:	00000793          	li	a5,0
    1524:	fd9ff06f          	j	14fc <__muldf3+0x1c4>
    1528:	017467b3          	or	a5,s0,s7
    152c:	02078263          	beqz	a5,1550 <__muldf3+0x218>
    1530:	000b8793          	mv	a5,s7
    1534:	7ff00513          	li	a0,2047
    1538:	00300713          	li	a4,3
    153c:	eb1ff06f          	j	13ec <__muldf3+0xb4>
    1540:	00000413          	li	s0,0
    1544:	00000513          	li	a0,0
    1548:	00100713          	li	a4,1
    154c:	ea1ff06f          	j	13ec <__muldf3+0xb4>
    1550:	00000413          	li	s0,0
    1554:	7ff00513          	li	a0,2047
    1558:	00200713          	li	a4,2
    155c:	e91ff06f          	j	13ec <__muldf3+0xb4>
    1560:	00010f37          	lui	t5,0x10
    1564:	ffff0e93          	addi	t4,t5,-1 # ffff <__data_region_end+0x165f>
    1568:	01095713          	srli	a4,s2,0x10
    156c:	0107d893          	srli	a7,a5,0x10
    1570:	01d97933          	and	s2,s2,t4
    1574:	01d7f7b3          	and	a5,a5,t4
    1578:	03288833          	mul	a6,a7,s2
    157c:	02f906b3          	mul	a3,s2,a5
    1580:	02f70fb3          	mul	t6,a4,a5
    1584:	01f80333          	add	t1,a6,t6
    1588:	0106d813          	srli	a6,a3,0x10
    158c:	00680833          	add	a6,a6,t1
    1590:	03170e33          	mul	t3,a4,a7
    1594:	01f87463          	bgeu	a6,t6,159c <__muldf3+0x264>
    1598:	01ee0e33          	add	t3,t3,t5
    159c:	01085393          	srli	t2,a6,0x10
    15a0:	01d87833          	and	a6,a6,t4
    15a4:	01d6f6b3          	and	a3,a3,t4
    15a8:	01045f13          	srli	t5,s0,0x10
    15ac:	01d472b3          	and	t0,s0,t4
    15b0:	01081813          	slli	a6,a6,0x10
    15b4:	00d80833          	add	a6,a6,a3
    15b8:	02570eb3          	mul	t4,a4,t0
    15bc:	025906b3          	mul	a3,s2,t0
    15c0:	032f0933          	mul	s2,t5,s2
    15c4:	01d90333          	add	t1,s2,t4
    15c8:	0106d913          	srli	s2,a3,0x10
    15cc:	00690933          	add	s2,s2,t1
    15d0:	03e70733          	mul	a4,a4,t5
    15d4:	01d97663          	bgeu	s2,t4,15e0 <__muldf3+0x2a8>
    15d8:	00010337          	lui	t1,0x10
    15dc:	00670733          	add	a4,a4,t1
    15e0:	01095e93          	srli	t4,s2,0x10
    15e4:	000109b7          	lui	s3,0x10
    15e8:	00ee8eb3          	add	t4,t4,a4
    15ec:	fff98713          	addi	a4,s3,-1 # ffff <__data_region_end+0x165f>
    15f0:	00e97933          	and	s2,s2,a4
    15f4:	00e6f6b3          	and	a3,a3,a4
    15f8:	0104d413          	srli	s0,s1,0x10
    15fc:	01091913          	slli	s2,s2,0x10
    1600:	00e4f4b3          	and	s1,s1,a4
    1604:	02978733          	mul	a4,a5,s1
    1608:	00d90933          	add	s2,s2,a3
    160c:	012383b3          	add	t2,t2,s2
    1610:	02f40333          	mul	t1,s0,a5
    1614:	029886b3          	mul	a3,a7,s1
    1618:	028887b3          	mul	a5,a7,s0
    161c:	006688b3          	add	a7,a3,t1
    1620:	01075693          	srli	a3,a4,0x10
    1624:	011686b3          	add	a3,a3,a7
    1628:	0066f463          	bgeu	a3,t1,1630 <__muldf3+0x2f8>
    162c:	013787b3          	add	a5,a5,s3
    1630:	0106d893          	srli	a7,a3,0x10
    1634:	000109b7          	lui	s3,0x10
    1638:	00f88fb3          	add	t6,a7,a5
    163c:	fff98793          	addi	a5,s3,-1 # ffff <__data_region_end+0x165f>
    1640:	029288b3          	mul	a7,t0,s1
    1644:	00f6f6b3          	and	a3,a3,a5
    1648:	00f77733          	and	a4,a4,a5
    164c:	01069693          	slli	a3,a3,0x10
    1650:	00e686b3          	add	a3,a3,a4
    1654:	025407b3          	mul	a5,s0,t0
    1658:	029f04b3          	mul	s1,t5,s1
    165c:	028f0333          	mul	t1,t5,s0
    1660:	00f484b3          	add	s1,s1,a5
    1664:	0108d413          	srli	s0,a7,0x10
    1668:	009404b3          	add	s1,s0,s1
    166c:	00f4f463          	bgeu	s1,a5,1674 <__muldf3+0x33c>
    1670:	01330333          	add	t1,t1,s3
    1674:	000107b7          	lui	a5,0x10
    1678:	fff78793          	addi	a5,a5,-1 # ffff <__data_region_end+0x165f>
    167c:	00f4f733          	and	a4,s1,a5
    1680:	00f8f8b3          	and	a7,a7,a5
    1684:	01071713          	slli	a4,a4,0x10
    1688:	007e0e33          	add	t3,t3,t2
    168c:	01170733          	add	a4,a4,a7
    1690:	012e3933          	sltu	s2,t3,s2
    1694:	01d70733          	add	a4,a4,t4
    1698:	01270433          	add	s0,a4,s2
    169c:	00de0e33          	add	t3,t3,a3
    16a0:	00de36b3          	sltu	a3,t3,a3
    16a4:	01f408b3          	add	a7,s0,t6
    16a8:	00d88f33          	add	t5,a7,a3
    16ac:	01d73733          	sltu	a4,a4,t4
    16b0:	01243433          	sltu	s0,s0,s2
    16b4:	00876433          	or	s0,a4,s0
    16b8:	0104d493          	srli	s1,s1,0x10
    16bc:	01f8b8b3          	sltu	a7,a7,t6
    16c0:	00df36b3          	sltu	a3,t5,a3
    16c4:	00940433          	add	s0,s0,s1
    16c8:	00d8e6b3          	or	a3,a7,a3
    16cc:	00d40433          	add	s0,s0,a3
    16d0:	00640433          	add	s0,s0,t1
    16d4:	017f5793          	srli	a5,t5,0x17
    16d8:	00941413          	slli	s0,s0,0x9
    16dc:	00f46433          	or	s0,s0,a5
    16e0:	009e1793          	slli	a5,t3,0x9
    16e4:	0107e7b3          	or	a5,a5,a6
    16e8:	00f037b3          	snez	a5,a5
    16ec:	017e5e13          	srli	t3,t3,0x17
    16f0:	009f1713          	slli	a4,t5,0x9
    16f4:	01c7e7b3          	or	a5,a5,t3
    16f8:	00e7e7b3          	or	a5,a5,a4
    16fc:	01000737          	lui	a4,0x1000
    1700:	00e47733          	and	a4,s0,a4
    1704:	10070663          	beqz	a4,1810 <__muldf3+0x4d8>
    1708:	0017d713          	srli	a4,a5,0x1
    170c:	0017f793          	andi	a5,a5,1
    1710:	00f767b3          	or	a5,a4,a5
    1714:	01f41713          	slli	a4,s0,0x1f
    1718:	00e7e7b3          	or	a5,a5,a4
    171c:	00145413          	srli	s0,s0,0x1
    1720:	3ff58693          	addi	a3,a1,1023
    1724:	0ed05a63          	blez	a3,1818 <__muldf3+0x4e0>
    1728:	0077f713          	andi	a4,a5,7
    172c:	02070063          	beqz	a4,174c <__muldf3+0x414>
    1730:	00f7f713          	andi	a4,a5,15
    1734:	00400513          	li	a0,4
    1738:	00a70a63          	beq	a4,a0,174c <__muldf3+0x414>
    173c:	00478713          	addi	a4,a5,4
    1740:	00f737b3          	sltu	a5,a4,a5
    1744:	00f40433          	add	s0,s0,a5
    1748:	00070793          	mv	a5,a4
    174c:	01000737          	lui	a4,0x1000
    1750:	00e47733          	and	a4,s0,a4
    1754:	00070a63          	beqz	a4,1768 <__muldf3+0x430>
    1758:	ff000737          	lui	a4,0xff000
    175c:	fff70713          	addi	a4,a4,-1 # feffffff <CONFIG_SYSTEM_WORKQUEUE_PRIORITY+0xff000000>
    1760:	00e47433          	and	s0,s0,a4
    1764:	40058693          	addi	a3,a1,1024
    1768:	7fe00713          	li	a4,2046
    176c:	16d74a63          	blt	a4,a3,18e0 <__muldf3+0x5a8>
    1770:	0037d713          	srli	a4,a5,0x3
    1774:	01d41793          	slli	a5,s0,0x1d
    1778:	00e7e7b3          	or	a5,a5,a4
    177c:	00345413          	srli	s0,s0,0x3
    1780:	01469713          	slli	a4,a3,0x14
    1784:	00c41413          	slli	s0,s0,0xc
    1788:	7ff006b7          	lui	a3,0x7ff00
    178c:	00d77733          	and	a4,a4,a3
    1790:	00c45413          	srli	s0,s0,0xc
    1794:	00876433          	or	s0,a4,s0
    1798:	01f61613          	slli	a2,a2,0x1f
    179c:	02c12083          	lw	ra,44(sp)
    17a0:	00c46733          	or	a4,s0,a2
    17a4:	02812403          	lw	s0,40(sp)
    17a8:	02412483          	lw	s1,36(sp)
    17ac:	02012903          	lw	s2,32(sp)
    17b0:	01c12983          	lw	s3,28(sp)
    17b4:	01812a03          	lw	s4,24(sp)
    17b8:	01412a83          	lw	s5,20(sp)
    17bc:	01012b03          	lw	s6,16(sp)
    17c0:	00c12b83          	lw	s7,12(sp)
    17c4:	00078513          	mv	a0,a5
    17c8:	00070593          	mv	a1,a4
    17cc:	03010113          	addi	sp,sp,48
    17d0:	00008067          	ret
    17d4:	000a0613          	mv	a2,s4
    17d8:	00048413          	mv	s0,s1
    17dc:	00090793          	mv	a5,s2
    17e0:	000b0713          	mv	a4,s6
    17e4:	00200693          	li	a3,2
    17e8:	0ed70c63          	beq	a4,a3,18e0 <__muldf3+0x5a8>
    17ec:	00300693          	li	a3,3
    17f0:	0cd70e63          	beq	a4,a3,18cc <__muldf3+0x594>
    17f4:	00100693          	li	a3,1
    17f8:	f2d714e3          	bne	a4,a3,1720 <__muldf3+0x3e8>
    17fc:	00000413          	li	s0,0
    1800:	00000793          	li	a5,0
    1804:	08c0006f          	j	1890 <__muldf3+0x558>
    1808:	000a8613          	mv	a2,s5
    180c:	fd9ff06f          	j	17e4 <__muldf3+0x4ac>
    1810:	00050593          	mv	a1,a0
    1814:	f0dff06f          	j	1720 <__muldf3+0x3e8>
    1818:	00100513          	li	a0,1
    181c:	40d50533          	sub	a0,a0,a3
    1820:	03800713          	li	a4,56
    1824:	fca74ce3          	blt	a4,a0,17fc <__muldf3+0x4c4>
    1828:	01f00713          	li	a4,31
    182c:	06a74663          	blt	a4,a0,1898 <__muldf3+0x560>
    1830:	41e58593          	addi	a1,a1,1054
    1834:	00b41733          	sll	a4,s0,a1
    1838:	00a7d6b3          	srl	a3,a5,a0
    183c:	00b797b3          	sll	a5,a5,a1
    1840:	00d76733          	or	a4,a4,a3
    1844:	00f037b3          	snez	a5,a5
    1848:	00f767b3          	or	a5,a4,a5
    184c:	00a45433          	srl	s0,s0,a0
    1850:	0077f713          	andi	a4,a5,7
    1854:	02070063          	beqz	a4,1874 <__muldf3+0x53c>
    1858:	00f7f713          	andi	a4,a5,15
    185c:	00400693          	li	a3,4
    1860:	00d70a63          	beq	a4,a3,1874 <__muldf3+0x53c>
    1864:	00478713          	addi	a4,a5,4
    1868:	00f737b3          	sltu	a5,a4,a5
    186c:	00f40433          	add	s0,s0,a5
    1870:	00070793          	mv	a5,a4
    1874:	00800737          	lui	a4,0x800
    1878:	00e47733          	and	a4,s0,a4
    187c:	06071a63          	bnez	a4,18f0 <__muldf3+0x5b8>
    1880:	01d41713          	slli	a4,s0,0x1d
    1884:	0037d793          	srli	a5,a5,0x3
    1888:	00f767b3          	or	a5,a4,a5
    188c:	00345413          	srli	s0,s0,0x3
    1890:	00000693          	li	a3,0
    1894:	eedff06f          	j	1780 <__muldf3+0x448>
    1898:	fe100713          	li	a4,-31
    189c:	40d70733          	sub	a4,a4,a3
    18a0:	02000813          	li	a6,32
    18a4:	00e45733          	srl	a4,s0,a4
    18a8:	00000693          	li	a3,0
    18ac:	01050663          	beq	a0,a6,18b8 <__muldf3+0x580>
    18b0:	43e58593          	addi	a1,a1,1086
    18b4:	00b416b3          	sll	a3,s0,a1
    18b8:	00f6e7b3          	or	a5,a3,a5
    18bc:	00f037b3          	snez	a5,a5
    18c0:	00f767b3          	or	a5,a4,a5
    18c4:	00000413          	li	s0,0
    18c8:	f89ff06f          	j	1850 <__muldf3+0x518>
    18cc:	00080437          	lui	s0,0x80
    18d0:	00000793          	li	a5,0
    18d4:	7ff00693          	li	a3,2047
    18d8:	00000613          	li	a2,0
    18dc:	ea5ff06f          	j	1780 <__muldf3+0x448>
    18e0:	00000413          	li	s0,0
    18e4:	00000793          	li	a5,0
    18e8:	7ff00693          	li	a3,2047
    18ec:	e95ff06f          	j	1780 <__muldf3+0x448>
    18f0:	00000413          	li	s0,0
    18f4:	00000793          	li	a5,0
    18f8:	00100693          	li	a3,1
    18fc:	e85ff06f          	j	1780 <__muldf3+0x448>

00001900 <__subdf3>:
    1900:	00100837          	lui	a6,0x100
    1904:	fff80813          	addi	a6,a6,-1 # fffff <__data_region_end+0xf165f>
    1908:	fe010113          	addi	sp,sp,-32
    190c:	00b877b3          	and	a5,a6,a1
    1910:	0145d713          	srli	a4,a1,0x14
    1914:	00d87833          	and	a6,a6,a3
    1918:	0146d313          	srli	t1,a3,0x14
    191c:	00812c23          	sw	s0,24(sp)
    1920:	00379793          	slli	a5,a5,0x3
    1924:	7ff77413          	andi	s0,a4,2047
    1928:	01d55713          	srli	a4,a0,0x1d
    192c:	00912a23          	sw	s1,20(sp)
    1930:	00f767b3          	or	a5,a4,a5
    1934:	01f5d493          	srli	s1,a1,0x1f
    1938:	01d65713          	srli	a4,a2,0x1d
    193c:	00351593          	slli	a1,a0,0x3
    1940:	00381813          	slli	a6,a6,0x3
    1944:	00112e23          	sw	ra,28(sp)
    1948:	01212823          	sw	s2,16(sp)
    194c:	01312623          	sw	s3,12(sp)
    1950:	7ff37313          	andi	t1,t1,2047
    1954:	7ff00513          	li	a0,2047
    1958:	01f6d693          	srli	a3,a3,0x1f
    195c:	01076733          	or	a4,a4,a6
    1960:	00361613          	slli	a2,a2,0x3
    1964:	00a31663          	bne	t1,a0,1970 <__subdf3+0x70>
    1968:	00c76533          	or	a0,a4,a2
    196c:	00051463          	bnez	a0,1974 <__subdf3+0x74>
    1970:	0016c693          	xori	a3,a3,1
    1974:	40640833          	sub	a6,s0,t1
    1978:	2c969863          	bne	a3,s1,1c48 <__subdf3+0x348>
    197c:	13005063          	blez	a6,1a9c <__subdf3+0x19c>
    1980:	04031063          	bnez	t1,19c0 <__subdf3+0xc0>
    1984:	00c766b3          	or	a3,a4,a2
    1988:	70068c63          	beqz	a3,20a0 <CONFIG_SRAM_SIZE+0xa0>
    198c:	fff80513          	addi	a0,a6,-1
    1990:	02051063          	bnez	a0,19b0 <__subdf3+0xb0>
    1994:	00c58633          	add	a2,a1,a2
    1998:	00b63533          	sltu	a0,a2,a1
    199c:	00e787b3          	add	a5,a5,a4
    19a0:	00a787b3          	add	a5,a5,a0
    19a4:	00060593          	mv	a1,a2
    19a8:	00100413          	li	s0,1
    19ac:	0700006f          	j	1a1c <__subdf3+0x11c>
    19b0:	7ff00693          	li	a3,2047
    19b4:	02d81063          	bne	a6,a3,19d4 <__subdf3+0xd4>
    19b8:	7ff00413          	li	s0,2047
    19bc:	2140006f          	j	1bd0 <__subdf3+0x2d0>
    19c0:	7ff00693          	li	a3,2047
    19c4:	20d40663          	beq	s0,a3,1bd0 <__subdf3+0x2d0>
    19c8:	008006b7          	lui	a3,0x800
    19cc:	00d76733          	or	a4,a4,a3
    19d0:	00080513          	mv	a0,a6
    19d4:	03800693          	li	a3,56
    19d8:	0aa6cc63          	blt	a3,a0,1a90 <__subdf3+0x190>
    19dc:	01f00693          	li	a3,31
    19e0:	06a6ce63          	blt	a3,a0,1a5c <__subdf3+0x15c>
    19e4:	02000813          	li	a6,32
    19e8:	40a80833          	sub	a6,a6,a0
    19ec:	010716b3          	sll	a3,a4,a6
    19f0:	00a658b3          	srl	a7,a2,a0
    19f4:	01061633          	sll	a2,a2,a6
    19f8:	0116e6b3          	or	a3,a3,a7
    19fc:	00c03633          	snez	a2,a2
    1a00:	00c6e633          	or	a2,a3,a2
    1a04:	00a75733          	srl	a4,a4,a0
    1a08:	00b60633          	add	a2,a2,a1
    1a0c:	00b63533          	sltu	a0,a2,a1
    1a10:	00f70733          	add	a4,a4,a5
    1a14:	00a707b3          	add	a5,a4,a0
    1a18:	00060593          	mv	a1,a2
    1a1c:	00800737          	lui	a4,0x800
    1a20:	00e7f733          	and	a4,a5,a4
    1a24:	1a070663          	beqz	a4,1bd0 <__subdf3+0x2d0>
    1a28:	00140413          	addi	s0,s0,1 # 80001 <__data_region_end+0x71661>
    1a2c:	7ff00713          	li	a4,2047
    1a30:	5ce40a63          	beq	s0,a4,2004 <CONFIG_SRAM_SIZE+0x4>
    1a34:	ff800737          	lui	a4,0xff800
    1a38:	fff70713          	addi	a4,a4,-1 # ff7fffff <CONFIG_SYSTEM_WORKQUEUE_PRIORITY+0xff800000>
    1a3c:	00e7f7b3          	and	a5,a5,a4
    1a40:	0015f513          	andi	a0,a1,1
    1a44:	0015d713          	srli	a4,a1,0x1
    1a48:	00a76533          	or	a0,a4,a0
    1a4c:	01f79593          	slli	a1,a5,0x1f
    1a50:	00a5e5b3          	or	a1,a1,a0
    1a54:	0017d793          	srli	a5,a5,0x1
    1a58:	1780006f          	j	1bd0 <__subdf3+0x2d0>
    1a5c:	fe050693          	addi	a3,a0,-32
    1a60:	02000893          	li	a7,32
    1a64:	00d756b3          	srl	a3,a4,a3
    1a68:	00000813          	li	a6,0
    1a6c:	01150863          	beq	a0,a7,1a7c <__subdf3+0x17c>
    1a70:	04000813          	li	a6,64
    1a74:	40a80533          	sub	a0,a6,a0
    1a78:	00a71833          	sll	a6,a4,a0
    1a7c:	00c86633          	or	a2,a6,a2
    1a80:	00c03633          	snez	a2,a2
    1a84:	00c6e633          	or	a2,a3,a2
    1a88:	00000713          	li	a4,0
    1a8c:	f7dff06f          	j	1a08 <__subdf3+0x108>
    1a90:	00c76633          	or	a2,a4,a2
    1a94:	00c03633          	snez	a2,a2
    1a98:	ff1ff06f          	j	1a88 <__subdf3+0x188>
    1a9c:	0e080263          	beqz	a6,1b80 <__subdf3+0x280>
    1aa0:	40830533          	sub	a0,t1,s0
    1aa4:	02041e63          	bnez	s0,1ae0 <__subdf3+0x1e0>
    1aa8:	00b7e6b3          	or	a3,a5,a1
    1aac:	52068c63          	beqz	a3,1fe4 <__kernel_ram_size+0x224>
    1ab0:	fff50693          	addi	a3,a0,-1
    1ab4:	00069c63          	bnez	a3,1acc <__subdf3+0x1cc>
    1ab8:	00c585b3          	add	a1,a1,a2
    1abc:	00e787b3          	add	a5,a5,a4
    1ac0:	00c5b633          	sltu	a2,a1,a2
    1ac4:	00c787b3          	add	a5,a5,a2
    1ac8:	ee1ff06f          	j	19a8 <__subdf3+0xa8>
    1acc:	7ff00813          	li	a6,2047
    1ad0:	03051263          	bne	a0,a6,1af4 <__subdf3+0x1f4>
    1ad4:	00070793          	mv	a5,a4
    1ad8:	00060593          	mv	a1,a2
    1adc:	eddff06f          	j	19b8 <__subdf3+0xb8>
    1ae0:	7ff00693          	li	a3,2047
    1ae4:	fed308e3          	beq	t1,a3,1ad4 <__subdf3+0x1d4>
    1ae8:	008006b7          	lui	a3,0x800
    1aec:	00d7e7b3          	or	a5,a5,a3
    1af0:	00050693          	mv	a3,a0
    1af4:	03800513          	li	a0,56
    1af8:	06d54e63          	blt	a0,a3,1b74 <__subdf3+0x274>
    1afc:	01f00513          	li	a0,31
    1b00:	04d54063          	blt	a0,a3,1b40 <__subdf3+0x240>
    1b04:	02000813          	li	a6,32
    1b08:	40d80833          	sub	a6,a6,a3
    1b0c:	01079533          	sll	a0,a5,a6
    1b10:	00d5d8b3          	srl	a7,a1,a3
    1b14:	010595b3          	sll	a1,a1,a6
    1b18:	01156533          	or	a0,a0,a7
    1b1c:	00b035b3          	snez	a1,a1
    1b20:	00b56533          	or	a0,a0,a1
    1b24:	00d7d7b3          	srl	a5,a5,a3
    1b28:	00c505b3          	add	a1,a0,a2
    1b2c:	00e787b3          	add	a5,a5,a4
    1b30:	00c5b633          	sltu	a2,a1,a2
    1b34:	00c787b3          	add	a5,a5,a2
    1b38:	00030413          	mv	s0,t1
    1b3c:	ee1ff06f          	j	1a1c <__subdf3+0x11c>
    1b40:	fe068513          	addi	a0,a3,-32 # 7fffe0 <__data_region_end+0x7f1640>
    1b44:	02000893          	li	a7,32
    1b48:	00a7d833          	srl	a6,a5,a0
    1b4c:	00000513          	li	a0,0
    1b50:	01168863          	beq	a3,a7,1b60 <__subdf3+0x260>
    1b54:	04000513          	li	a0,64
    1b58:	40d50533          	sub	a0,a0,a3
    1b5c:	00a79533          	sll	a0,a5,a0
    1b60:	00b56533          	or	a0,a0,a1
    1b64:	00a03533          	snez	a0,a0
    1b68:	00a86533          	or	a0,a6,a0
    1b6c:	00000793          	li	a5,0
    1b70:	fb9ff06f          	j	1b28 <__subdf3+0x228>
    1b74:	00b7e533          	or	a0,a5,a1
    1b78:	00a03533          	snez	a0,a0
    1b7c:	ff1ff06f          	j	1b6c <__subdf3+0x26c>
    1b80:	00140693          	addi	a3,s0,1
    1b84:	7fe6f513          	andi	a0,a3,2046
    1b88:	08051863          	bnez	a0,1c18 <__subdf3+0x318>
    1b8c:	00b7e6b3          	or	a3,a5,a1
    1b90:	06041463          	bnez	s0,1bf8 <__subdf3+0x2f8>
    1b94:	46068063          	beqz	a3,1ff4 <__kernel_ram_size+0x234>
    1b98:	00c766b3          	or	a3,a4,a2
    1b9c:	02068a63          	beqz	a3,1bd0 <__subdf3+0x2d0>
    1ba0:	00c58633          	add	a2,a1,a2
    1ba4:	00e787b3          	add	a5,a5,a4
    1ba8:	00b63533          	sltu	a0,a2,a1
    1bac:	00a787b3          	add	a5,a5,a0
    1bb0:	00800737          	lui	a4,0x800
    1bb4:	00e7f733          	and	a4,a5,a4
    1bb8:	00060593          	mv	a1,a2
    1bbc:	00070a63          	beqz	a4,1bd0 <__subdf3+0x2d0>
    1bc0:	ff800737          	lui	a4,0xff800
    1bc4:	fff70713          	addi	a4,a4,-1 # ff7fffff <CONFIG_SYSTEM_WORKQUEUE_PRIORITY+0xff800000>
    1bc8:	00e7f7b3          	and	a5,a5,a4
    1bcc:	00100413          	li	s0,1
    1bd0:	0075f713          	andi	a4,a1,7
    1bd4:	42070c63          	beqz	a4,200c <CONFIG_SRAM_SIZE+0xc>
    1bd8:	00f5f713          	andi	a4,a1,15
    1bdc:	00400693          	li	a3,4
    1be0:	42d70663          	beq	a4,a3,200c <CONFIG_SRAM_SIZE+0xc>
    1be4:	00458713          	addi	a4,a1,4
    1be8:	00b73533          	sltu	a0,a4,a1
    1bec:	00a787b3          	add	a5,a5,a0
    1bf0:	00070593          	mv	a1,a4
    1bf4:	4180006f          	j	200c <CONFIG_SRAM_SIZE+0xc>
    1bf8:	ec068ee3          	beqz	a3,1ad4 <__subdf3+0x1d4>
    1bfc:	00c76633          	or	a2,a4,a2
    1c00:	da060ce3          	beqz	a2,19b8 <__subdf3+0xb8>
    1c04:	00000493          	li	s1,0
    1c08:	004007b7          	lui	a5,0x400
    1c0c:	00000593          	li	a1,0
    1c10:	7ff00413          	li	s0,2047
    1c14:	3f80006f          	j	200c <CONFIG_SRAM_SIZE+0xc>
    1c18:	7ff00513          	li	a0,2047
    1c1c:	3ea68263          	beq	a3,a0,2000 <CONFIG_SRAM_SIZE>
    1c20:	00c58633          	add	a2,a1,a2
    1c24:	00b63533          	sltu	a0,a2,a1
    1c28:	00e787b3          	add	a5,a5,a4
    1c2c:	00a787b3          	add	a5,a5,a0
    1c30:	01f79513          	slli	a0,a5,0x1f
    1c34:	00165613          	srli	a2,a2,0x1
    1c38:	00c565b3          	or	a1,a0,a2
    1c3c:	0017d793          	srli	a5,a5,0x1
    1c40:	00068413          	mv	s0,a3
    1c44:	f8dff06f          	j	1bd0 <__subdf3+0x2d0>
    1c48:	0f005c63          	blez	a6,1d40 <__subdf3+0x440>
    1c4c:	08031e63          	bnez	t1,1ce8 <__subdf3+0x3e8>
    1c50:	00c766b3          	or	a3,a4,a2
    1c54:	44068663          	beqz	a3,20a0 <CONFIG_SRAM_SIZE+0xa0>
    1c58:	fff80513          	addi	a0,a6,-1
    1c5c:	02051063          	bnez	a0,1c7c <__subdf3+0x37c>
    1c60:	40c58633          	sub	a2,a1,a2
    1c64:	00c5b533          	sltu	a0,a1,a2
    1c68:	40e787b3          	sub	a5,a5,a4
    1c6c:	40a787b3          	sub	a5,a5,a0
    1c70:	00060593          	mv	a1,a2
    1c74:	00100413          	li	s0,1
    1c78:	0540006f          	j	1ccc <__subdf3+0x3cc>
    1c7c:	7ff00693          	li	a3,2047
    1c80:	d2d80ce3          	beq	a6,a3,19b8 <__subdf3+0xb8>
    1c84:	03800693          	li	a3,56
    1c88:	0aa6c663          	blt	a3,a0,1d34 <__subdf3+0x434>
    1c8c:	01f00693          	li	a3,31
    1c90:	06a6c863          	blt	a3,a0,1d00 <__subdf3+0x400>
    1c94:	02000813          	li	a6,32
    1c98:	40a80833          	sub	a6,a6,a0
    1c9c:	010716b3          	sll	a3,a4,a6
    1ca0:	00a658b3          	srl	a7,a2,a0
    1ca4:	01061633          	sll	a2,a2,a6
    1ca8:	0116e6b3          	or	a3,a3,a7
    1cac:	00c03633          	snez	a2,a2
    1cb0:	00c6e633          	or	a2,a3,a2
    1cb4:	00a75733          	srl	a4,a4,a0
    1cb8:	40c58633          	sub	a2,a1,a2
    1cbc:	00c5b533          	sltu	a0,a1,a2
    1cc0:	40e78733          	sub	a4,a5,a4
    1cc4:	40a707b3          	sub	a5,a4,a0
    1cc8:	00060593          	mv	a1,a2
    1ccc:	00800937          	lui	s2,0x800
    1cd0:	0127f733          	and	a4,a5,s2
    1cd4:	ee070ee3          	beqz	a4,1bd0 <__subdf3+0x2d0>
    1cd8:	fff90913          	addi	s2,s2,-1 # 7fffff <__data_region_end+0x7f165f>
    1cdc:	0127f933          	and	s2,a5,s2
    1ce0:	00058993          	mv	s3,a1
    1ce4:	2140006f          	j	1ef8 <__kernel_ram_size+0x138>
    1ce8:	7ff00693          	li	a3,2047
    1cec:	eed402e3          	beq	s0,a3,1bd0 <__subdf3+0x2d0>
    1cf0:	008006b7          	lui	a3,0x800
    1cf4:	00d76733          	or	a4,a4,a3
    1cf8:	00080513          	mv	a0,a6
    1cfc:	f89ff06f          	j	1c84 <__subdf3+0x384>
    1d00:	fe050693          	addi	a3,a0,-32
    1d04:	02000893          	li	a7,32
    1d08:	00d756b3          	srl	a3,a4,a3
    1d0c:	00000813          	li	a6,0
    1d10:	01150863          	beq	a0,a7,1d20 <__subdf3+0x420>
    1d14:	04000813          	li	a6,64
    1d18:	40a80533          	sub	a0,a6,a0
    1d1c:	00a71833          	sll	a6,a4,a0
    1d20:	00c86633          	or	a2,a6,a2
    1d24:	00c03633          	snez	a2,a2
    1d28:	00c6e633          	or	a2,a3,a2
    1d2c:	00000713          	li	a4,0
    1d30:	f89ff06f          	j	1cb8 <__subdf3+0x3b8>
    1d34:	00c76633          	or	a2,a4,a2
    1d38:	00c03633          	snez	a2,a2
    1d3c:	ff1ff06f          	j	1d2c <__subdf3+0x42c>
    1d40:	0e080863          	beqz	a6,1e30 <__kernel_ram_size+0x70>
    1d44:	40830533          	sub	a0,t1,s0
    1d48:	04041263          	bnez	s0,1d8c <__subdf3+0x48c>
    1d4c:	00b7e833          	or	a6,a5,a1
    1d50:	34080c63          	beqz	a6,20a8 <CONFIG_SRAM_SIZE+0xa8>
    1d54:	fff50813          	addi	a6,a0,-1
    1d58:	00081e63          	bnez	a6,1d74 <__subdf3+0x474>
    1d5c:	40b605b3          	sub	a1,a2,a1
    1d60:	40f707b3          	sub	a5,a4,a5
    1d64:	00b63633          	sltu	a2,a2,a1
    1d68:	40c787b3          	sub	a5,a5,a2
    1d6c:	00068493          	mv	s1,a3
    1d70:	f05ff06f          	j	1c74 <__subdf3+0x374>
    1d74:	7ff00893          	li	a7,2047
    1d78:	03151463          	bne	a0,a7,1da0 <__subdf3+0x4a0>
    1d7c:	00070793          	mv	a5,a4
    1d80:	00060593          	mv	a1,a2
    1d84:	7ff00413          	li	s0,2047
    1d88:	0d00006f          	j	1e58 <__kernel_ram_size+0x98>
    1d8c:	7ff00813          	li	a6,2047
    1d90:	ff0306e3          	beq	t1,a6,1d7c <__subdf3+0x47c>
    1d94:	00800837          	lui	a6,0x800
    1d98:	0107e7b3          	or	a5,a5,a6
    1d9c:	00050813          	mv	a6,a0
    1da0:	03800513          	li	a0,56
    1da4:	09054063          	blt	a0,a6,1e24 <__kernel_ram_size+0x64>
    1da8:	01f00513          	li	a0,31
    1dac:	05054263          	blt	a0,a6,1df0 <__kernel_ram_size+0x30>
    1db0:	02000893          	li	a7,32
    1db4:	410888b3          	sub	a7,a7,a6
    1db8:	01179533          	sll	a0,a5,a7
    1dbc:	0105de33          	srl	t3,a1,a6
    1dc0:	011595b3          	sll	a1,a1,a7
    1dc4:	01c56533          	or	a0,a0,t3
    1dc8:	00b035b3          	snez	a1,a1
    1dcc:	00b56533          	or	a0,a0,a1
    1dd0:	0107d7b3          	srl	a5,a5,a6
    1dd4:	40a605b3          	sub	a1,a2,a0
    1dd8:	40f707b3          	sub	a5,a4,a5
    1ddc:	00b63633          	sltu	a2,a2,a1
    1de0:	40c787b3          	sub	a5,a5,a2
    1de4:	00030413          	mv	s0,t1
    1de8:	00068493          	mv	s1,a3
    1dec:	ee1ff06f          	j	1ccc <__subdf3+0x3cc>
    1df0:	fe080513          	addi	a0,a6,-32 # 7fffe0 <__data_region_end+0x7f1640>
    1df4:	02000e13          	li	t3,32
    1df8:	00a7d8b3          	srl	a7,a5,a0
    1dfc:	00000513          	li	a0,0
    1e00:	01c80863          	beq	a6,t3,1e10 <__kernel_ram_size+0x50>
    1e04:	04000513          	li	a0,64
    1e08:	41050533          	sub	a0,a0,a6
    1e0c:	00a79533          	sll	a0,a5,a0
    1e10:	00b56533          	or	a0,a0,a1
    1e14:	00a03533          	snez	a0,a0
    1e18:	00a8e533          	or	a0,a7,a0
    1e1c:	00000793          	li	a5,0
    1e20:	fb5ff06f          	j	1dd4 <__kernel_ram_size+0x14>
    1e24:	00b7e533          	or	a0,a5,a1
    1e28:	00a03533          	snez	a0,a0
    1e2c:	ff1ff06f          	j	1e1c <__kernel_ram_size+0x5c>
    1e30:	00140513          	addi	a0,s0,1
    1e34:	7fe57513          	andi	a0,a0,2046
    1e38:	08051863          	bnez	a0,1ec8 <__kernel_ram_size+0x108>
    1e3c:	00c76533          	or	a0,a4,a2
    1e40:	00b7e833          	or	a6,a5,a1
    1e44:	06041263          	bnez	s0,1ea8 <__kernel_ram_size+0xe8>
    1e48:	00081c63          	bnez	a6,1e60 <__kernel_ram_size+0xa0>
    1e4c:	26050663          	beqz	a0,20b8 <CONFIG_SRAM_SIZE+0xb8>
    1e50:	00070793          	mv	a5,a4
    1e54:	00060593          	mv	a1,a2
    1e58:	00068493          	mv	s1,a3
    1e5c:	d75ff06f          	j	1bd0 <__subdf3+0x2d0>
    1e60:	d60508e3          	beqz	a0,1bd0 <__subdf3+0x2d0>
    1e64:	40c58833          	sub	a6,a1,a2
    1e68:	0105b8b3          	sltu	a7,a1,a6
    1e6c:	40e78533          	sub	a0,a5,a4
    1e70:	41150533          	sub	a0,a0,a7
    1e74:	008008b7          	lui	a7,0x800
    1e78:	011578b3          	and	a7,a0,a7
    1e7c:	00088c63          	beqz	a7,1e94 <__kernel_ram_size+0xd4>
    1e80:	40b605b3          	sub	a1,a2,a1
    1e84:	40f707b3          	sub	a5,a4,a5
    1e88:	00b63633          	sltu	a2,a2,a1
    1e8c:	40c787b3          	sub	a5,a5,a2
    1e90:	fc9ff06f          	j	1e58 <__kernel_ram_size+0x98>
    1e94:	00a865b3          	or	a1,a6,a0
    1e98:	22058863          	beqz	a1,20c8 <CONFIG_SRAM_SIZE+0xc8>
    1e9c:	00050793          	mv	a5,a0
    1ea0:	00080593          	mv	a1,a6
    1ea4:	d2dff06f          	j	1bd0 <__subdf3+0x2d0>
    1ea8:	00081c63          	bnez	a6,1ec0 <__kernel_ram_size+0x100>
    1eac:	22050263          	beqz	a0,20d0 <CONFIG_SRAM_SIZE+0xd0>
    1eb0:	00070793          	mv	a5,a4
    1eb4:	00060593          	mv	a1,a2
    1eb8:	00068493          	mv	s1,a3
    1ebc:	afdff06f          	j	19b8 <__subdf3+0xb8>
    1ec0:	ae050ce3          	beqz	a0,19b8 <__subdf3+0xb8>
    1ec4:	d41ff06f          	j	1c04 <__subdf3+0x304>
    1ec8:	40c589b3          	sub	s3,a1,a2
    1ecc:	0135b533          	sltu	a0,a1,s3
    1ed0:	40e78933          	sub	s2,a5,a4
    1ed4:	40a90933          	sub	s2,s2,a0
    1ed8:	00800537          	lui	a0,0x800
    1edc:	00a97533          	and	a0,s2,a0
    1ee0:	08050463          	beqz	a0,1f68 <__kernel_ram_size+0x1a8>
    1ee4:	40b609b3          	sub	s3,a2,a1
    1ee8:	40f707b3          	sub	a5,a4,a5
    1eec:	01363633          	sltu	a2,a2,s3
    1ef0:	40c78933          	sub	s2,a5,a2
    1ef4:	00068493          	mv	s1,a3
    1ef8:	08090263          	beqz	s2,1f7c <__kernel_ram_size+0x1bc>
    1efc:	00090513          	mv	a0,s2
    1f00:	bf0fe0ef          	jal	ra,2f0 <__clzsi2>
    1f04:	ff850713          	addi	a4,a0,-8 # 7ffff8 <__data_region_end+0x7f1658>
    1f08:	01f00793          	li	a5,31
    1f0c:	08e7c063          	blt	a5,a4,1f8c <__kernel_ram_size+0x1cc>
    1f10:	02000793          	li	a5,32
    1f14:	40e787b3          	sub	a5,a5,a4
    1f18:	00e91933          	sll	s2,s2,a4
    1f1c:	00f9d7b3          	srl	a5,s3,a5
    1f20:	0127e7b3          	or	a5,a5,s2
    1f24:	00e995b3          	sll	a1,s3,a4
    1f28:	0a874463          	blt	a4,s0,1fd0 <__kernel_ram_size+0x210>
    1f2c:	40870733          	sub	a4,a4,s0
    1f30:	00170693          	addi	a3,a4,1
    1f34:	01f00613          	li	a2,31
    1f38:	06d64263          	blt	a2,a3,1f9c <__kernel_ram_size+0x1dc>
    1f3c:	02000713          	li	a4,32
    1f40:	40d70733          	sub	a4,a4,a3
    1f44:	00e79633          	sll	a2,a5,a4
    1f48:	00d5d533          	srl	a0,a1,a3
    1f4c:	00e595b3          	sll	a1,a1,a4
    1f50:	00a66633          	or	a2,a2,a0
    1f54:	00b035b3          	snez	a1,a1
    1f58:	00b665b3          	or	a1,a2,a1
    1f5c:	00d7d7b3          	srl	a5,a5,a3
    1f60:	00000413          	li	s0,0
    1f64:	c6dff06f          	j	1bd0 <__subdf3+0x2d0>
    1f68:	0129e5b3          	or	a1,s3,s2
    1f6c:	f80596e3          	bnez	a1,1ef8 <__kernel_ram_size+0x138>
    1f70:	00000793          	li	a5,0
    1f74:	00000413          	li	s0,0
    1f78:	1480006f          	j	20c0 <CONFIG_SRAM_SIZE+0xc0>
    1f7c:	00098513          	mv	a0,s3
    1f80:	b70fe0ef          	jal	ra,2f0 <__clzsi2>
    1f84:	02050513          	addi	a0,a0,32
    1f88:	f7dff06f          	j	1f04 <__kernel_ram_size+0x144>
    1f8c:	fd850793          	addi	a5,a0,-40
    1f90:	00f997b3          	sll	a5,s3,a5
    1f94:	00000593          	li	a1,0
    1f98:	f91ff06f          	j	1f28 <__kernel_ram_size+0x168>
    1f9c:	fe170713          	addi	a4,a4,-31
    1fa0:	02000613          	li	a2,32
    1fa4:	00e7d733          	srl	a4,a5,a4
    1fa8:	00000513          	li	a0,0
    1fac:	00c68863          	beq	a3,a2,1fbc <__kernel_ram_size+0x1fc>
    1fb0:	04000513          	li	a0,64
    1fb4:	40d50533          	sub	a0,a0,a3
    1fb8:	00a79533          	sll	a0,a5,a0
    1fbc:	00a5e533          	or	a0,a1,a0
    1fc0:	00a03533          	snez	a0,a0
    1fc4:	00a765b3          	or	a1,a4,a0
    1fc8:	00000793          	li	a5,0
    1fcc:	f95ff06f          	j	1f60 <__kernel_ram_size+0x1a0>
    1fd0:	40e40433          	sub	s0,s0,a4
    1fd4:	ff800737          	lui	a4,0xff800
    1fd8:	fff70713          	addi	a4,a4,-1 # ff7fffff <CONFIG_SYSTEM_WORKQUEUE_PRIORITY+0xff800000>
    1fdc:	00e7f7b3          	and	a5,a5,a4
    1fe0:	bf1ff06f          	j	1bd0 <__subdf3+0x2d0>
    1fe4:	00070793          	mv	a5,a4
    1fe8:	00060593          	mv	a1,a2
    1fec:	00050413          	mv	s0,a0
    1ff0:	be1ff06f          	j	1bd0 <__subdf3+0x2d0>
    1ff4:	00070793          	mv	a5,a4
    1ff8:	00060593          	mv	a1,a2
    1ffc:	bd5ff06f          	j	1bd0 <__subdf3+0x2d0>
    2000:	7ff00413          	li	s0,2047
    2004:	00000793          	li	a5,0
    2008:	00000593          	li	a1,0
    200c:	00800737          	lui	a4,0x800
    2010:	00e7f733          	and	a4,a5,a4
    2014:	00070e63          	beqz	a4,2030 <CONFIG_SRAM_SIZE+0x30>
    2018:	00140413          	addi	s0,s0,1
    201c:	7ff00713          	li	a4,2047
    2020:	0ce40063          	beq	s0,a4,20e0 <CONFIG_SRAM_SIZE+0xe0>
    2024:	ff800737          	lui	a4,0xff800
    2028:	fff70713          	addi	a4,a4,-1 # ff7fffff <CONFIG_SYSTEM_WORKQUEUE_PRIORITY+0xff800000>
    202c:	00e7f7b3          	and	a5,a5,a4
    2030:	01d79713          	slli	a4,a5,0x1d
    2034:	0035d513          	srli	a0,a1,0x3
    2038:	00a76533          	or	a0,a4,a0
    203c:	7ff00713          	li	a4,2047
    2040:	0037d793          	srli	a5,a5,0x3
    2044:	00e41e63          	bne	s0,a4,2060 <CONFIG_SRAM_SIZE+0x60>
    2048:	00f56533          	or	a0,a0,a5
    204c:	00000793          	li	a5,0
    2050:	00050863          	beqz	a0,2060 <CONFIG_SRAM_SIZE+0x60>
    2054:	000807b7          	lui	a5,0x80
    2058:	00000513          	li	a0,0
    205c:	00000493          	li	s1,0
    2060:	01441713          	slli	a4,s0,0x14
    2064:	7ff006b7          	lui	a3,0x7ff00
    2068:	00c79793          	slli	a5,a5,0xc
    206c:	01c12083          	lw	ra,28(sp)
    2070:	01812403          	lw	s0,24(sp)
    2074:	00d77733          	and	a4,a4,a3
    2078:	00c7d793          	srli	a5,a5,0xc
    207c:	01f49493          	slli	s1,s1,0x1f
    2080:	00f767b3          	or	a5,a4,a5
    2084:	0097e733          	or	a4,a5,s1
    2088:	01012903          	lw	s2,16(sp)
    208c:	01412483          	lw	s1,20(sp)
    2090:	00c12983          	lw	s3,12(sp)
    2094:	00070593          	mv	a1,a4
    2098:	02010113          	addi	sp,sp,32
    209c:	00008067          	ret
    20a0:	00080413          	mv	s0,a6
    20a4:	b2dff06f          	j	1bd0 <__subdf3+0x2d0>
    20a8:	00070793          	mv	a5,a4
    20ac:	00060593          	mv	a1,a2
    20b0:	00050413          	mv	s0,a0
    20b4:	da5ff06f          	j	1e58 <__kernel_ram_size+0x98>
    20b8:	00000793          	li	a5,0
    20bc:	00000593          	li	a1,0
    20c0:	00000493          	li	s1,0
    20c4:	f49ff06f          	j	200c <CONFIG_SRAM_SIZE+0xc>
    20c8:	00000793          	li	a5,0
    20cc:	ff5ff06f          	j	20c0 <CONFIG_SRAM_SIZE+0xc0>
    20d0:	00000593          	li	a1,0
    20d4:	00000493          	li	s1,0
    20d8:	004007b7          	lui	a5,0x400
    20dc:	b35ff06f          	j	1c10 <__subdf3+0x310>
    20e0:	00000793          	li	a5,0
    20e4:	00000593          	li	a1,0
    20e8:	f49ff06f          	j	2030 <CONFIG_SRAM_SIZE+0x30>

000020ec <__floatunsidf>:
    20ec:	ff010113          	addi	sp,sp,-16
    20f0:	00812423          	sw	s0,8(sp)
    20f4:	00112623          	sw	ra,12(sp)
    20f8:	00050413          	mv	s0,a0
    20fc:	06050263          	beqz	a0,2160 <__floatunsidf+0x74>
    2100:	9f0fe0ef          	jal	ra,2f0 <__clzsi2>
    2104:	41e00713          	li	a4,1054
    2108:	00a00793          	li	a5,10
    210c:	40a70733          	sub	a4,a4,a0
    2110:	04a7c063          	blt	a5,a0,2150 <__floatunsidf+0x64>
    2114:	00b00793          	li	a5,11
    2118:	40a787b3          	sub	a5,a5,a0
    211c:	01550513          	addi	a0,a0,21
    2120:	00f457b3          	srl	a5,s0,a5
    2124:	00a41433          	sll	s0,s0,a0
    2128:	00c12083          	lw	ra,12(sp)
    212c:	00040513          	mv	a0,s0
    2130:	00c79793          	slli	a5,a5,0xc
    2134:	00812403          	lw	s0,8(sp)
    2138:	01471713          	slli	a4,a4,0x14
    213c:	00c7d793          	srli	a5,a5,0xc
    2140:	00f766b3          	or	a3,a4,a5
    2144:	00068593          	mv	a1,a3
    2148:	01010113          	addi	sp,sp,16
    214c:	00008067          	ret
    2150:	ff550793          	addi	a5,a0,-11
    2154:	00f417b3          	sll	a5,s0,a5
    2158:	00000413          	li	s0,0
    215c:	fcdff06f          	j	2128 <__floatunsidf+0x3c>
    2160:	00000793          	li	a5,0
    2164:	00000713          	li	a4,0
    2168:	fc1ff06f          	j	2128 <__floatunsidf+0x3c>

0000216c <__addsf3>:
    216c:	00800737          	lui	a4,0x800
    2170:	ff010113          	addi	sp,sp,-16
    2174:	fff70713          	addi	a4,a4,-1 # 7fffff <__data_region_end+0x7f165f>
    2178:	00a777b3          	and	a5,a4,a0
    217c:	00812423          	sw	s0,8(sp)
    2180:	00912223          	sw	s1,4(sp)
    2184:	01755413          	srli	s0,a0,0x17
    2188:	01f55493          	srli	s1,a0,0x1f
    218c:	0175d513          	srli	a0,a1,0x17
    2190:	00b77733          	and	a4,a4,a1
    2194:	0ff47413          	andi	s0,s0,255
    2198:	0ff57513          	andi	a0,a0,255
    219c:	00112623          	sw	ra,12(sp)
    21a0:	01212023          	sw	s2,0(sp)
    21a4:	01f5d593          	srli	a1,a1,0x1f
    21a8:	00379793          	slli	a5,a5,0x3
    21ac:	00371713          	slli	a4,a4,0x3
    21b0:	40a406b3          	sub	a3,s0,a0
    21b4:	18b49a63          	bne	s1,a1,2348 <__addsf3+0x1dc>
    21b8:	0ad05063          	blez	a3,2258 <__addsf3+0xec>
    21bc:	02051663          	bnez	a0,21e8 <__addsf3+0x7c>
    21c0:	18070063          	beqz	a4,2340 <__addsf3+0x1d4>
    21c4:	fff68613          	addi	a2,a3,-1 # 7fefffff <CONFIG_SYS_CLOCK_HW_CYCLES_PER_SEC+0x7cf50f7f>
    21c8:	00061863          	bnez	a2,21d8 <__addsf3+0x6c>
    21cc:	00e787b3          	add	a5,a5,a4
    21d0:	00100413          	li	s0,1
    21d4:	0500006f          	j	2224 <__addsf3+0xb8>
    21d8:	0ff00593          	li	a1,255
    21dc:	02b69063          	bne	a3,a1,21fc <__addsf3+0x90>
    21e0:	0ff00413          	li	s0,255
    21e4:	1180006f          	j	22fc <__addsf3+0x190>
    21e8:	0ff00613          	li	a2,255
    21ec:	10c40863          	beq	s0,a2,22fc <__addsf3+0x190>
    21f0:	04000637          	lui	a2,0x4000
    21f4:	00c76733          	or	a4,a4,a2
    21f8:	00068613          	mv	a2,a3
    21fc:	01b00593          	li	a1,27
    2200:	00100693          	li	a3,1
    2204:	00c5ce63          	blt	a1,a2,2220 <__addsf3+0xb4>
    2208:	02000693          	li	a3,32
    220c:	40c686b3          	sub	a3,a3,a2
    2210:	00c755b3          	srl	a1,a4,a2
    2214:	00d71733          	sll	a4,a4,a3
    2218:	00e03733          	snez	a4,a4
    221c:	00e5e6b3          	or	a3,a1,a4
    2220:	00d787b3          	add	a5,a5,a3
    2224:	04000737          	lui	a4,0x4000
    2228:	00e7f733          	and	a4,a5,a4
    222c:	0c070863          	beqz	a4,22fc <__addsf3+0x190>
    2230:	00140413          	addi	s0,s0,1
    2234:	0ff00713          	li	a4,255
    2238:	30e40263          	beq	s0,a4,253c <__addsf3+0x3d0>
    223c:	7e000737          	lui	a4,0x7e000
    2240:	0017f693          	andi	a3,a5,1
    2244:	fff70713          	addi	a4,a4,-1 # 7dffffff <CONFIG_SYS_CLOCK_HW_CYCLES_PER_SEC+0x7b050f7f>
    2248:	0017d793          	srli	a5,a5,0x1
    224c:	00e7f7b3          	and	a5,a5,a4
    2250:	00d7e7b3          	or	a5,a5,a3
    2254:	0a80006f          	j	22fc <__addsf3+0x190>
    2258:	06068663          	beqz	a3,22c4 <__addsf3+0x158>
    225c:	408506b3          	sub	a3,a0,s0
    2260:	02041063          	bnez	s0,2280 <__addsf3+0x114>
    2264:	2c078263          	beqz	a5,2528 <__addsf3+0x3bc>
    2268:	fff68613          	addi	a2,a3,-1
    226c:	f60600e3          	beqz	a2,21cc <__addsf3+0x60>
    2270:	0ff00593          	li	a1,255
    2274:	02b69063          	bne	a3,a1,2294 <__addsf3+0x128>
    2278:	00070793          	mv	a5,a4
    227c:	f65ff06f          	j	21e0 <__addsf3+0x74>
    2280:	0ff00613          	li	a2,255
    2284:	fec50ae3          	beq	a0,a2,2278 <__addsf3+0x10c>
    2288:	04000637          	lui	a2,0x4000
    228c:	00c7e7b3          	or	a5,a5,a2
    2290:	00068613          	mv	a2,a3
    2294:	01b00593          	li	a1,27
    2298:	00100693          	li	a3,1
    229c:	00c5ce63          	blt	a1,a2,22b8 <__addsf3+0x14c>
    22a0:	02000693          	li	a3,32
    22a4:	40c686b3          	sub	a3,a3,a2
    22a8:	00c7d5b3          	srl	a1,a5,a2
    22ac:	00d797b3          	sll	a5,a5,a3
    22b0:	00f037b3          	snez	a5,a5
    22b4:	00f5e6b3          	or	a3,a1,a5
    22b8:	00e687b3          	add	a5,a3,a4
    22bc:	00050413          	mv	s0,a0
    22c0:	f65ff06f          	j	2224 <__addsf3+0xb8>
    22c4:	00140693          	addi	a3,s0,1
    22c8:	0fe6f613          	andi	a2,a3,254
    22cc:	06061263          	bnez	a2,2330 <__addsf3+0x1c4>
    22d0:	04041463          	bnez	s0,2318 <__addsf3+0x1ac>
    22d4:	24078e63          	beqz	a5,2530 <__addsf3+0x3c4>
    22d8:	02070263          	beqz	a4,22fc <__addsf3+0x190>
    22dc:	00e787b3          	add	a5,a5,a4
    22e0:	04000737          	lui	a4,0x4000
    22e4:	00e7f733          	and	a4,a5,a4
    22e8:	00070a63          	beqz	a4,22fc <__addsf3+0x190>
    22ec:	fc000737          	lui	a4,0xfc000
    22f0:	fff70713          	addi	a4,a4,-1 # fbffffff <CONFIG_SYSTEM_WORKQUEUE_PRIORITY+0xfc000000>
    22f4:	00e7f7b3          	and	a5,a5,a4
    22f8:	00100413          	li	s0,1
    22fc:	0077f713          	andi	a4,a5,7
    2300:	24070063          	beqz	a4,2540 <__addsf3+0x3d4>
    2304:	00f7f713          	andi	a4,a5,15
    2308:	00400693          	li	a3,4
    230c:	22d70a63          	beq	a4,a3,2540 <__addsf3+0x3d4>
    2310:	00478793          	addi	a5,a5,4 # 400004 <__data_region_end+0x3f1664>
    2314:	22c0006f          	j	2540 <__addsf3+0x3d4>
    2318:	f60780e3          	beqz	a5,2278 <__addsf3+0x10c>
    231c:	ec0702e3          	beqz	a4,21e0 <__addsf3+0x74>
    2320:	00000493          	li	s1,0
    2324:	020007b7          	lui	a5,0x2000
    2328:	0ff00413          	li	s0,255
    232c:	2140006f          	j	2540 <__addsf3+0x3d4>
    2330:	0ff00613          	li	a2,255
    2334:	20c68263          	beq	a3,a2,2538 <__addsf3+0x3cc>
    2338:	00e787b3          	add	a5,a5,a4
    233c:	0017d793          	srli	a5,a5,0x1
    2340:	00068413          	mv	s0,a3
    2344:	fb9ff06f          	j	22fc <__addsf3+0x190>
    2348:	08d05063          	blez	a3,23c8 <__addsf3+0x25c>
    234c:	06051263          	bnez	a0,23b0 <__addsf3+0x244>
    2350:	fe0708e3          	beqz	a4,2340 <__addsf3+0x1d4>
    2354:	fff68613          	addi	a2,a3,-1
    2358:	00061863          	bnez	a2,2368 <__addsf3+0x1fc>
    235c:	40e787b3          	sub	a5,a5,a4
    2360:	00100413          	li	s0,1
    2364:	0340006f          	j	2398 <__addsf3+0x22c>
    2368:	0ff00593          	li	a1,255
    236c:	e6b68ae3          	beq	a3,a1,21e0 <__addsf3+0x74>
    2370:	01b00593          	li	a1,27
    2374:	00100693          	li	a3,1
    2378:	00c5ce63          	blt	a1,a2,2394 <__addsf3+0x228>
    237c:	02000693          	li	a3,32
    2380:	40c686b3          	sub	a3,a3,a2
    2384:	00c755b3          	srl	a1,a4,a2
    2388:	00d71733          	sll	a4,a4,a3
    238c:	00e03733          	snez	a4,a4
    2390:	00e5e6b3          	or	a3,a1,a4
    2394:	40d787b3          	sub	a5,a5,a3
    2398:	04000937          	lui	s2,0x4000
    239c:	0127f733          	and	a4,a5,s2
    23a0:	f4070ee3          	beqz	a4,22fc <__addsf3+0x190>
    23a4:	fff90913          	addi	s2,s2,-1 # 3ffffff <CONFIG_SYS_CLOCK_HW_CYCLES_PER_SEC+0x1050f7f>
    23a8:	0127f933          	and	s2,a5,s2
    23ac:	1180006f          	j	24c4 <__addsf3+0x358>
    23b0:	0ff00613          	li	a2,255
    23b4:	f4c404e3          	beq	s0,a2,22fc <__addsf3+0x190>
    23b8:	04000637          	lui	a2,0x4000
    23bc:	00c76733          	or	a4,a4,a2
    23c0:	00068613          	mv	a2,a3
    23c4:	fadff06f          	j	2370 <__addsf3+0x204>
    23c8:	08068063          	beqz	a3,2448 <__addsf3+0x2dc>
    23cc:	408506b3          	sub	a3,a0,s0
    23d0:	02041863          	bnez	s0,2400 <__addsf3+0x294>
    23d4:	1e078063          	beqz	a5,25b4 <__addsf3+0x448>
    23d8:	fff68613          	addi	a2,a3,-1
    23dc:	00061863          	bnez	a2,23ec <__addsf3+0x280>
    23e0:	40f707b3          	sub	a5,a4,a5
    23e4:	00058493          	mv	s1,a1
    23e8:	f79ff06f          	j	2360 <__addsf3+0x1f4>
    23ec:	0ff00813          	li	a6,255
    23f0:	03069263          	bne	a3,a6,2414 <__addsf3+0x2a8>
    23f4:	00070793          	mv	a5,a4
    23f8:	0ff00413          	li	s0,255
    23fc:	06c0006f          	j	2468 <__addsf3+0x2fc>
    2400:	0ff00613          	li	a2,255
    2404:	fec508e3          	beq	a0,a2,23f4 <__addsf3+0x288>
    2408:	04000637          	lui	a2,0x4000
    240c:	00c7e7b3          	or	a5,a5,a2
    2410:	00068613          	mv	a2,a3
    2414:	01b00813          	li	a6,27
    2418:	00100693          	li	a3,1
    241c:	00c84e63          	blt	a6,a2,2438 <__addsf3+0x2cc>
    2420:	02000693          	li	a3,32
    2424:	40c686b3          	sub	a3,a3,a2
    2428:	00c7d833          	srl	a6,a5,a2
    242c:	00d797b3          	sll	a5,a5,a3
    2430:	00f037b3          	snez	a5,a5
    2434:	00f866b3          	or	a3,a6,a5
    2438:	40d707b3          	sub	a5,a4,a3
    243c:	00050413          	mv	s0,a0
    2440:	00058493          	mv	s1,a1
    2444:	f55ff06f          	j	2398 <__addsf3+0x22c>
    2448:	00140693          	addi	a3,s0,1
    244c:	0fe6f693          	andi	a3,a3,254
    2450:	04069e63          	bnez	a3,24ac <__addsf3+0x340>
    2454:	04041263          	bnez	s0,2498 <__addsf3+0x32c>
    2458:	00079c63          	bnez	a5,2470 <__addsf3+0x304>
    245c:	00000493          	li	s1,0
    2460:	0e070063          	beqz	a4,2540 <__addsf3+0x3d4>
    2464:	00070793          	mv	a5,a4
    2468:	00058493          	mv	s1,a1
    246c:	e91ff06f          	j	22fc <__addsf3+0x190>
    2470:	e80706e3          	beqz	a4,22fc <__addsf3+0x190>
    2474:	40e786b3          	sub	a3,a5,a4
    2478:	04000637          	lui	a2,0x4000
    247c:	00c6f633          	and	a2,a3,a2
    2480:	40f707b3          	sub	a5,a4,a5
    2484:	fe0612e3          	bnez	a2,2468 <__addsf3+0x2fc>
    2488:	00000793          	li	a5,0
    248c:	08068063          	beqz	a3,250c <__addsf3+0x3a0>
    2490:	00068793          	mv	a5,a3
    2494:	e69ff06f          	j	22fc <__addsf3+0x190>
    2498:	e80792e3          	bnez	a5,231c <__addsf3+0x1b0>
    249c:	e80702e3          	beqz	a4,2320 <__addsf3+0x1b4>
    24a0:	00070793          	mv	a5,a4
    24a4:	00058493          	mv	s1,a1
    24a8:	d39ff06f          	j	21e0 <__addsf3+0x74>
    24ac:	40e78933          	sub	s2,a5,a4
    24b0:	040006b7          	lui	a3,0x4000
    24b4:	00d976b3          	and	a3,s2,a3
    24b8:	04068463          	beqz	a3,2500 <__addsf3+0x394>
    24bc:	40f70933          	sub	s2,a4,a5
    24c0:	00058493          	mv	s1,a1
    24c4:	00090513          	mv	a0,s2
    24c8:	e29fd0ef          	jal	ra,2f0 <__clzsi2>
    24cc:	ffb50513          	addi	a0,a0,-5
    24d0:	00a91933          	sll	s2,s2,a0
    24d4:	04854063          	blt	a0,s0,2514 <__addsf3+0x3a8>
    24d8:	40850533          	sub	a0,a0,s0
    24dc:	00150513          	addi	a0,a0,1
    24e0:	02000413          	li	s0,32
    24e4:	00a957b3          	srl	a5,s2,a0
    24e8:	40a40533          	sub	a0,s0,a0
    24ec:	00a91933          	sll	s2,s2,a0
    24f0:	01203933          	snez	s2,s2
    24f4:	0127e7b3          	or	a5,a5,s2
    24f8:	00000413          	li	s0,0
    24fc:	e01ff06f          	j	22fc <__addsf3+0x190>
    2500:	fc0912e3          	bnez	s2,24c4 <__addsf3+0x358>
    2504:	00000793          	li	a5,0
    2508:	00000413          	li	s0,0
    250c:	00000493          	li	s1,0
    2510:	0300006f          	j	2540 <__addsf3+0x3d4>
    2514:	fc0007b7          	lui	a5,0xfc000
    2518:	fff78793          	addi	a5,a5,-1 # fbffffff <CONFIG_SYSTEM_WORKQUEUE_PRIORITY+0xfc000000>
    251c:	40a40433          	sub	s0,s0,a0
    2520:	00f977b3          	and	a5,s2,a5
    2524:	dd9ff06f          	j	22fc <__addsf3+0x190>
    2528:	00070793          	mv	a5,a4
    252c:	e15ff06f          	j	2340 <__addsf3+0x1d4>
    2530:	00070793          	mv	a5,a4
    2534:	dc9ff06f          	j	22fc <__addsf3+0x190>
    2538:	0ff00413          	li	s0,255
    253c:	00000793          	li	a5,0
    2540:	04000737          	lui	a4,0x4000
    2544:	00e7f733          	and	a4,a5,a4
    2548:	00070e63          	beqz	a4,2564 <__addsf3+0x3f8>
    254c:	00140413          	addi	s0,s0,1
    2550:	0ff00713          	li	a4,255
    2554:	06e40663          	beq	s0,a4,25c0 <__addsf3+0x454>
    2558:	fc000737          	lui	a4,0xfc000
    255c:	fff70713          	addi	a4,a4,-1 # fbffffff <CONFIG_SYSTEM_WORKQUEUE_PRIORITY+0xfc000000>
    2560:	00e7f7b3          	and	a5,a5,a4
    2564:	0ff00713          	li	a4,255
    2568:	0037d793          	srli	a5,a5,0x3
    256c:	00e41863          	bne	s0,a4,257c <__addsf3+0x410>
    2570:	00078663          	beqz	a5,257c <__addsf3+0x410>
    2574:	004007b7          	lui	a5,0x400
    2578:	00000493          	li	s1,0
    257c:	7f800537          	lui	a0,0x7f800
    2580:	01741413          	slli	s0,s0,0x17
    2584:	00979793          	slli	a5,a5,0x9
    2588:	00a47433          	and	s0,s0,a0
    258c:	0097d793          	srli	a5,a5,0x9
    2590:	00c12083          	lw	ra,12(sp)
    2594:	00f467b3          	or	a5,s0,a5
    2598:	00812403          	lw	s0,8(sp)
    259c:	01f49513          	slli	a0,s1,0x1f
    25a0:	00012903          	lw	s2,0(sp)
    25a4:	00412483          	lw	s1,4(sp)
    25a8:	00a7e533          	or	a0,a5,a0
    25ac:	01010113          	addi	sp,sp,16
    25b0:	00008067          	ret
    25b4:	00070793          	mv	a5,a4
    25b8:	00068413          	mv	s0,a3
    25bc:	eadff06f          	j	2468 <__addsf3+0x2fc>
    25c0:	00000793          	li	a5,0
    25c4:	fa1ff06f          	j	2564 <__addsf3+0x3f8>

000025c8 <__mulsf3>:
    25c8:	fe010113          	addi	sp,sp,-32
    25cc:	01212823          	sw	s2,16(sp)
    25d0:	01755913          	srli	s2,a0,0x17
    25d4:	00912a23          	sw	s1,20(sp)
    25d8:	01312623          	sw	s3,12(sp)
    25dc:	01412423          	sw	s4,8(sp)
    25e0:	00951493          	slli	s1,a0,0x9
    25e4:	00112e23          	sw	ra,28(sp)
    25e8:	00812c23          	sw	s0,24(sp)
    25ec:	01512223          	sw	s5,4(sp)
    25f0:	0ff97913          	andi	s2,s2,255
    25f4:	00058a13          	mv	s4,a1
    25f8:	0094d493          	srli	s1,s1,0x9
    25fc:	01f55993          	srli	s3,a0,0x1f
    2600:	08090663          	beqz	s2,268c <__mulsf3+0xc4>
    2604:	0ff00793          	li	a5,255
    2608:	0af90263          	beq	s2,a5,26ac <__mulsf3+0xe4>
    260c:	00349493          	slli	s1,s1,0x3
    2610:	040007b7          	lui	a5,0x4000
    2614:	00f4e4b3          	or	s1,s1,a5
    2618:	f8190913          	addi	s2,s2,-127
    261c:	00000a93          	li	s5,0
    2620:	017a5513          	srli	a0,s4,0x17
    2624:	009a1413          	slli	s0,s4,0x9
    2628:	0ff57513          	andi	a0,a0,255
    262c:	00945413          	srli	s0,s0,0x9
    2630:	01fa5a13          	srli	s4,s4,0x1f
    2634:	08050c63          	beqz	a0,26cc <__mulsf3+0x104>
    2638:	0ff00793          	li	a5,255
    263c:	0af50863          	beq	a0,a5,26ec <__mulsf3+0x124>
    2640:	00341413          	slli	s0,s0,0x3
    2644:	040007b7          	lui	a5,0x4000
    2648:	00f46433          	or	s0,s0,a5
    264c:	f8150513          	addi	a0,a0,-127 # 7f7fff81 <CONFIG_SYS_CLOCK_HW_CYCLES_PER_SEC+0x7c850f01>
    2650:	00000793          	li	a5,0
    2654:	002a9713          	slli	a4,s5,0x2
    2658:	00f76733          	or	a4,a4,a5
    265c:	00a90533          	add	a0,s2,a0
    2660:	fff70713          	addi	a4,a4,-1
    2664:	00e00593          	li	a1,14
    2668:	0149c6b3          	xor	a3,s3,s4
    266c:	00150613          	addi	a2,a0,1
    2670:	08e5ee63          	bltu	a1,a4,270c <__mulsf3+0x144>
    2674:	0000c5b7          	lui	a1,0xc
    2678:	00271713          	slli	a4,a4,0x2
    267c:	40058593          	addi	a1,a1,1024 # c400 <__clz_tab+0x178>
    2680:	00b70733          	add	a4,a4,a1
    2684:	00072703          	lw	a4,0(a4)
    2688:	00070067          	jr	a4
    268c:	02048a63          	beqz	s1,26c0 <__mulsf3+0xf8>
    2690:	00048513          	mv	a0,s1
    2694:	c5dfd0ef          	jal	ra,2f0 <__clzsi2>
    2698:	ffb50793          	addi	a5,a0,-5
    269c:	f8a00913          	li	s2,-118
    26a0:	00f494b3          	sll	s1,s1,a5
    26a4:	40a90933          	sub	s2,s2,a0
    26a8:	f75ff06f          	j	261c <__mulsf3+0x54>
    26ac:	0ff00913          	li	s2,255
    26b0:	00200a93          	li	s5,2
    26b4:	f60486e3          	beqz	s1,2620 <__mulsf3+0x58>
    26b8:	00300a93          	li	s5,3
    26bc:	f65ff06f          	j	2620 <__mulsf3+0x58>
    26c0:	00000913          	li	s2,0
    26c4:	00100a93          	li	s5,1
    26c8:	f59ff06f          	j	2620 <__mulsf3+0x58>
    26cc:	02040a63          	beqz	s0,2700 <__mulsf3+0x138>
    26d0:	00040513          	mv	a0,s0
    26d4:	c1dfd0ef          	jal	ra,2f0 <__clzsi2>
    26d8:	ffb50793          	addi	a5,a0,-5
    26dc:	00f41433          	sll	s0,s0,a5
    26e0:	f8a00793          	li	a5,-118
    26e4:	40a78533          	sub	a0,a5,a0
    26e8:	f69ff06f          	j	2650 <__mulsf3+0x88>
    26ec:	0ff00513          	li	a0,255
    26f0:	00200793          	li	a5,2
    26f4:	f60400e3          	beqz	s0,2654 <__mulsf3+0x8c>
    26f8:	00300793          	li	a5,3
    26fc:	f59ff06f          	j	2654 <__mulsf3+0x8c>
    2700:	00000513          	li	a0,0
    2704:	00100793          	li	a5,1
    2708:	f4dff06f          	j	2654 <__mulsf3+0x8c>
    270c:	000107b7          	lui	a5,0x10
    2710:	fff78313          	addi	t1,a5,-1 # ffff <__data_region_end+0x165f>
    2714:	0104d713          	srli	a4,s1,0x10
    2718:	01045593          	srli	a1,s0,0x10
    271c:	0064f4b3          	and	s1,s1,t1
    2720:	00647433          	and	s0,s0,t1
    2724:	029408b3          	mul	a7,s0,s1
    2728:	02870833          	mul	a6,a4,s0
    272c:	02b70433          	mul	s0,a4,a1
    2730:	029585b3          	mul	a1,a1,s1
    2734:	0108d493          	srli	s1,a7,0x10
    2738:	010585b3          	add	a1,a1,a6
    273c:	00b484b3          	add	s1,s1,a1
    2740:	0104f463          	bgeu	s1,a6,2748 <__mulsf3+0x180>
    2744:	00f40433          	add	s0,s0,a5
    2748:	0064f7b3          	and	a5,s1,t1
    274c:	01079793          	slli	a5,a5,0x10
    2750:	0068f8b3          	and	a7,a7,t1
    2754:	011787b3          	add	a5,a5,a7
    2758:	00679713          	slli	a4,a5,0x6
    275c:	0104d493          	srli	s1,s1,0x10
    2760:	00e03733          	snez	a4,a4
    2764:	01a7d793          	srli	a5,a5,0x1a
    2768:	00848433          	add	s0,s1,s0
    276c:	00f767b3          	or	a5,a4,a5
    2770:	00641413          	slli	s0,s0,0x6
    2774:	00f46433          	or	s0,s0,a5
    2778:	080007b7          	lui	a5,0x8000
    277c:	00f477b3          	and	a5,s0,a5
    2780:	08078e63          	beqz	a5,281c <__mulsf3+0x254>
    2784:	00145793          	srli	a5,s0,0x1
    2788:	00147413          	andi	s0,s0,1
    278c:	0087e433          	or	s0,a5,s0
    2790:	07f60713          	addi	a4,a2,127 # 400007f <CONFIG_SYS_CLOCK_HW_CYCLES_PER_SEC+0x1050fff>
    2794:	08e05863          	blez	a4,2824 <__mulsf3+0x25c>
    2798:	00747793          	andi	a5,s0,7
    279c:	00078a63          	beqz	a5,27b0 <__mulsf3+0x1e8>
    27a0:	00f47793          	andi	a5,s0,15
    27a4:	00400593          	li	a1,4
    27a8:	00b78463          	beq	a5,a1,27b0 <__mulsf3+0x1e8>
    27ac:	00440413          	addi	s0,s0,4
    27b0:	080007b7          	lui	a5,0x8000
    27b4:	00f477b3          	and	a5,s0,a5
    27b8:	00078a63          	beqz	a5,27cc <__mulsf3+0x204>
    27bc:	f80007b7          	lui	a5,0xf8000
    27c0:	fff78793          	addi	a5,a5,-1 # f7ffffff <CONFIG_SYSTEM_WORKQUEUE_PRIORITY+0xf8000000>
    27c4:	00f47433          	and	s0,s0,a5
    27c8:	08060713          	addi	a4,a2,128
    27cc:	0fe00793          	li	a5,254
    27d0:	00345413          	srli	s0,s0,0x3
    27d4:	0ae7da63          	bge	a5,a4,2888 <__mulsf3+0x2c0>
    27d8:	00000413          	li	s0,0
    27dc:	0ff00713          	li	a4,255
    27e0:	0a80006f          	j	2888 <__mulsf3+0x2c0>
    27e4:	00098693          	mv	a3,s3
    27e8:	00048413          	mv	s0,s1
    27ec:	000a8793          	mv	a5,s5
    27f0:	00200713          	li	a4,2
    27f4:	fee782e3          	beq	a5,a4,27d8 <__mulsf3+0x210>
    27f8:	00300713          	li	a4,3
    27fc:	08e78063          	beq	a5,a4,287c <__mulsf3+0x2b4>
    2800:	00100713          	li	a4,1
    2804:	f8e796e3          	bne	a5,a4,2790 <__mulsf3+0x1c8>
    2808:	00000413          	li	s0,0
    280c:	00000713          	li	a4,0
    2810:	0780006f          	j	2888 <__mulsf3+0x2c0>
    2814:	000a0693          	mv	a3,s4
    2818:	fd9ff06f          	j	27f0 <__mulsf3+0x228>
    281c:	00050613          	mv	a2,a0
    2820:	f71ff06f          	j	2790 <__mulsf3+0x1c8>
    2824:	00100793          	li	a5,1
    2828:	40e787b3          	sub	a5,a5,a4
    282c:	01b00713          	li	a4,27
    2830:	fcf74ce3          	blt	a4,a5,2808 <__mulsf3+0x240>
    2834:	09e60613          	addi	a2,a2,158
    2838:	00f457b3          	srl	a5,s0,a5
    283c:	00c41433          	sll	s0,s0,a2
    2840:	00803433          	snez	s0,s0
    2844:	0087e433          	or	s0,a5,s0
    2848:	00747793          	andi	a5,s0,7
    284c:	00078a63          	beqz	a5,2860 <__mulsf3+0x298>
    2850:	00f47793          	andi	a5,s0,15
    2854:	00400713          	li	a4,4
    2858:	00e78463          	beq	a5,a4,2860 <__mulsf3+0x298>
    285c:	00440413          	addi	s0,s0,4
    2860:	040007b7          	lui	a5,0x4000
    2864:	00f477b3          	and	a5,s0,a5
    2868:	00345413          	srli	s0,s0,0x3
    286c:	fa0780e3          	beqz	a5,280c <__mulsf3+0x244>
    2870:	00000413          	li	s0,0
    2874:	00100713          	li	a4,1
    2878:	0100006f          	j	2888 <__mulsf3+0x2c0>
    287c:	00400437          	lui	s0,0x400
    2880:	0ff00713          	li	a4,255
    2884:	00000693          	li	a3,0
    2888:	01771793          	slli	a5,a4,0x17
    288c:	00941413          	slli	s0,s0,0x9
    2890:	7f800737          	lui	a4,0x7f800
    2894:	00e7f7b3          	and	a5,a5,a4
    2898:	00945413          	srli	s0,s0,0x9
    289c:	0087e433          	or	s0,a5,s0
    28a0:	01f69513          	slli	a0,a3,0x1f
    28a4:	01c12083          	lw	ra,28(sp)
    28a8:	00a46533          	or	a0,s0,a0
    28ac:	01812403          	lw	s0,24(sp)
    28b0:	01412483          	lw	s1,20(sp)
    28b4:	01012903          	lw	s2,16(sp)
    28b8:	00c12983          	lw	s3,12(sp)
    28bc:	00812a03          	lw	s4,8(sp)
    28c0:	00412a83          	lw	s5,4(sp)
    28c4:	02010113          	addi	sp,sp,32
    28c8:	00008067          	ret

000028cc <__subsf3>:
    28cc:	00800737          	lui	a4,0x800
    28d0:	ff010113          	addi	sp,sp,-16
    28d4:	fff70713          	addi	a4,a4,-1 # 7fffff <__data_region_end+0x7f165f>
    28d8:	0175d613          	srli	a2,a1,0x17
    28dc:	00a777b3          	and	a5,a4,a0
    28e0:	00812423          	sw	s0,8(sp)
    28e4:	00b77733          	and	a4,a4,a1
    28e8:	00912223          	sw	s1,4(sp)
    28ec:	01755413          	srli	s0,a0,0x17
    28f0:	00112623          	sw	ra,12(sp)
    28f4:	01212023          	sw	s2,0(sp)
    28f8:	0ff67613          	andi	a2,a2,255
    28fc:	0ff00693          	li	a3,255
    2900:	0ff47413          	andi	s0,s0,255
    2904:	01f55493          	srli	s1,a0,0x1f
    2908:	00379793          	slli	a5,a5,0x3
    290c:	01f5d593          	srli	a1,a1,0x1f
    2910:	00371713          	slli	a4,a4,0x3
    2914:	00d61463          	bne	a2,a3,291c <__subsf3+0x50>
    2918:	00071463          	bnez	a4,2920 <__subsf3+0x54>
    291c:	0015c593          	xori	a1,a1,1
    2920:	40c406b3          	sub	a3,s0,a2
    2924:	18959a63          	bne	a1,s1,2ab8 <__subsf3+0x1ec>
    2928:	0ad05063          	blez	a3,29c8 <__subsf3+0xfc>
    292c:	02061663          	bnez	a2,2958 <__subsf3+0x8c>
    2930:	18070063          	beqz	a4,2ab0 <__subsf3+0x1e4>
    2934:	fff68613          	addi	a2,a3,-1 # 3ffffff <CONFIG_SYS_CLOCK_HW_CYCLES_PER_SEC+0x1050f7f>
    2938:	00061863          	bnez	a2,2948 <__subsf3+0x7c>
    293c:	00e787b3          	add	a5,a5,a4
    2940:	00100413          	li	s0,1
    2944:	0500006f          	j	2994 <__subsf3+0xc8>
    2948:	0ff00593          	li	a1,255
    294c:	02b69063          	bne	a3,a1,296c <__subsf3+0xa0>
    2950:	0ff00413          	li	s0,255
    2954:	1180006f          	j	2a6c <__subsf3+0x1a0>
    2958:	0ff00613          	li	a2,255
    295c:	10c40863          	beq	s0,a2,2a6c <__subsf3+0x1a0>
    2960:	04000637          	lui	a2,0x4000
    2964:	00c76733          	or	a4,a4,a2
    2968:	00068613          	mv	a2,a3
    296c:	01b00593          	li	a1,27
    2970:	00100693          	li	a3,1
    2974:	00c5ce63          	blt	a1,a2,2990 <__subsf3+0xc4>
    2978:	02000693          	li	a3,32
    297c:	40c686b3          	sub	a3,a3,a2
    2980:	00c755b3          	srl	a1,a4,a2
    2984:	00d71733          	sll	a4,a4,a3
    2988:	00e03733          	snez	a4,a4
    298c:	00e5e6b3          	or	a3,a1,a4
    2990:	00d787b3          	add	a5,a5,a3
    2994:	04000737          	lui	a4,0x4000
    2998:	00e7f733          	and	a4,a5,a4
    299c:	0c070863          	beqz	a4,2a6c <__subsf3+0x1a0>
    29a0:	00140413          	addi	s0,s0,1 # 400001 <__data_region_end+0x3f1661>
    29a4:	0ff00713          	li	a4,255
    29a8:	30e40263          	beq	s0,a4,2cac <__subsf3+0x3e0>
    29ac:	7e000737          	lui	a4,0x7e000
    29b0:	0017f693          	andi	a3,a5,1
    29b4:	fff70713          	addi	a4,a4,-1 # 7dffffff <CONFIG_SYS_CLOCK_HW_CYCLES_PER_SEC+0x7b050f7f>
    29b8:	0017d793          	srli	a5,a5,0x1
    29bc:	00e7f7b3          	and	a5,a5,a4
    29c0:	00d7e7b3          	or	a5,a5,a3
    29c4:	0a80006f          	j	2a6c <__subsf3+0x1a0>
    29c8:	06068663          	beqz	a3,2a34 <__subsf3+0x168>
    29cc:	408606b3          	sub	a3,a2,s0
    29d0:	02041063          	bnez	s0,29f0 <__subsf3+0x124>
    29d4:	2c078263          	beqz	a5,2c98 <__subsf3+0x3cc>
    29d8:	fff68593          	addi	a1,a3,-1
    29dc:	f60580e3          	beqz	a1,293c <__subsf3+0x70>
    29e0:	0ff00513          	li	a0,255
    29e4:	02a69063          	bne	a3,a0,2a04 <__subsf3+0x138>
    29e8:	00070793          	mv	a5,a4
    29ec:	f65ff06f          	j	2950 <__subsf3+0x84>
    29f0:	0ff00593          	li	a1,255
    29f4:	feb60ae3          	beq	a2,a1,29e8 <__subsf3+0x11c>
    29f8:	040005b7          	lui	a1,0x4000
    29fc:	00b7e7b3          	or	a5,a5,a1
    2a00:	00068593          	mv	a1,a3
    2a04:	01b00513          	li	a0,27
    2a08:	00100693          	li	a3,1
    2a0c:	00b54e63          	blt	a0,a1,2a28 <__subsf3+0x15c>
    2a10:	02000693          	li	a3,32
    2a14:	40b686b3          	sub	a3,a3,a1
    2a18:	00b7d533          	srl	a0,a5,a1
    2a1c:	00d797b3          	sll	a5,a5,a3
    2a20:	00f037b3          	snez	a5,a5
    2a24:	00f566b3          	or	a3,a0,a5
    2a28:	00e687b3          	add	a5,a3,a4
    2a2c:	00060413          	mv	s0,a2
    2a30:	f65ff06f          	j	2994 <__subsf3+0xc8>
    2a34:	00140693          	addi	a3,s0,1
    2a38:	0fe6f613          	andi	a2,a3,254
    2a3c:	06061263          	bnez	a2,2aa0 <__subsf3+0x1d4>
    2a40:	04041463          	bnez	s0,2a88 <__subsf3+0x1bc>
    2a44:	24078e63          	beqz	a5,2ca0 <__subsf3+0x3d4>
    2a48:	02070263          	beqz	a4,2a6c <__subsf3+0x1a0>
    2a4c:	00e787b3          	add	a5,a5,a4
    2a50:	04000737          	lui	a4,0x4000
    2a54:	00e7f733          	and	a4,a5,a4
    2a58:	00070a63          	beqz	a4,2a6c <__subsf3+0x1a0>
    2a5c:	fc000737          	lui	a4,0xfc000
    2a60:	fff70713          	addi	a4,a4,-1 # fbffffff <CONFIG_SYSTEM_WORKQUEUE_PRIORITY+0xfc000000>
    2a64:	00e7f7b3          	and	a5,a5,a4
    2a68:	00100413          	li	s0,1
    2a6c:	0077f713          	andi	a4,a5,7
    2a70:	24070063          	beqz	a4,2cb0 <__subsf3+0x3e4>
    2a74:	00f7f713          	andi	a4,a5,15
    2a78:	00400693          	li	a3,4
    2a7c:	22d70a63          	beq	a4,a3,2cb0 <__subsf3+0x3e4>
    2a80:	00478793          	addi	a5,a5,4 # 4000004 <CONFIG_SYS_CLOCK_HW_CYCLES_PER_SEC+0x1050f84>
    2a84:	22c0006f          	j	2cb0 <__subsf3+0x3e4>
    2a88:	f60780e3          	beqz	a5,29e8 <__subsf3+0x11c>
    2a8c:	ec0702e3          	beqz	a4,2950 <__subsf3+0x84>
    2a90:	00000493          	li	s1,0
    2a94:	020007b7          	lui	a5,0x2000
    2a98:	0ff00413          	li	s0,255
    2a9c:	2140006f          	j	2cb0 <__subsf3+0x3e4>
    2aa0:	0ff00613          	li	a2,255
    2aa4:	20c68263          	beq	a3,a2,2ca8 <__subsf3+0x3dc>
    2aa8:	00e787b3          	add	a5,a5,a4
    2aac:	0017d793          	srli	a5,a5,0x1
    2ab0:	00068413          	mv	s0,a3
    2ab4:	fb9ff06f          	j	2a6c <__subsf3+0x1a0>
    2ab8:	08d05063          	blez	a3,2b38 <__subsf3+0x26c>
    2abc:	06061263          	bnez	a2,2b20 <__subsf3+0x254>
    2ac0:	fe0708e3          	beqz	a4,2ab0 <__subsf3+0x1e4>
    2ac4:	fff68613          	addi	a2,a3,-1
    2ac8:	00061863          	bnez	a2,2ad8 <__subsf3+0x20c>
    2acc:	40e787b3          	sub	a5,a5,a4
    2ad0:	00100413          	li	s0,1
    2ad4:	0340006f          	j	2b08 <__subsf3+0x23c>
    2ad8:	0ff00593          	li	a1,255
    2adc:	e6b68ae3          	beq	a3,a1,2950 <__subsf3+0x84>
    2ae0:	01b00593          	li	a1,27
    2ae4:	00100693          	li	a3,1
    2ae8:	00c5ce63          	blt	a1,a2,2b04 <__subsf3+0x238>
    2aec:	02000693          	li	a3,32
    2af0:	40c686b3          	sub	a3,a3,a2
    2af4:	00c755b3          	srl	a1,a4,a2
    2af8:	00d71733          	sll	a4,a4,a3
    2afc:	00e03733          	snez	a4,a4
    2b00:	00e5e6b3          	or	a3,a1,a4
    2b04:	40d787b3          	sub	a5,a5,a3
    2b08:	04000937          	lui	s2,0x4000
    2b0c:	0127f733          	and	a4,a5,s2
    2b10:	f4070ee3          	beqz	a4,2a6c <__subsf3+0x1a0>
    2b14:	fff90913          	addi	s2,s2,-1 # 3ffffff <CONFIG_SYS_CLOCK_HW_CYCLES_PER_SEC+0x1050f7f>
    2b18:	0127f933          	and	s2,a5,s2
    2b1c:	1180006f          	j	2c34 <__subsf3+0x368>
    2b20:	0ff00613          	li	a2,255
    2b24:	f4c404e3          	beq	s0,a2,2a6c <__subsf3+0x1a0>
    2b28:	04000637          	lui	a2,0x4000
    2b2c:	00c76733          	or	a4,a4,a2
    2b30:	00068613          	mv	a2,a3
    2b34:	fadff06f          	j	2ae0 <__subsf3+0x214>
    2b38:	08068063          	beqz	a3,2bb8 <__subsf3+0x2ec>
    2b3c:	408606b3          	sub	a3,a2,s0
    2b40:	02041863          	bnez	s0,2b70 <__subsf3+0x2a4>
    2b44:	1e078063          	beqz	a5,2d24 <__subsf3+0x458>
    2b48:	fff68513          	addi	a0,a3,-1
    2b4c:	00051863          	bnez	a0,2b5c <__subsf3+0x290>
    2b50:	40f707b3          	sub	a5,a4,a5
    2b54:	00058493          	mv	s1,a1
    2b58:	f79ff06f          	j	2ad0 <__subsf3+0x204>
    2b5c:	0ff00813          	li	a6,255
    2b60:	03069263          	bne	a3,a6,2b84 <__subsf3+0x2b8>
    2b64:	00070793          	mv	a5,a4
    2b68:	0ff00413          	li	s0,255
    2b6c:	06c0006f          	j	2bd8 <__subsf3+0x30c>
    2b70:	0ff00513          	li	a0,255
    2b74:	fea608e3          	beq	a2,a0,2b64 <__subsf3+0x298>
    2b78:	04000537          	lui	a0,0x4000
    2b7c:	00a7e7b3          	or	a5,a5,a0
    2b80:	00068513          	mv	a0,a3
    2b84:	01b00813          	li	a6,27
    2b88:	00100693          	li	a3,1
    2b8c:	00a84e63          	blt	a6,a0,2ba8 <__subsf3+0x2dc>
    2b90:	02000693          	li	a3,32
    2b94:	40a686b3          	sub	a3,a3,a0
    2b98:	00a7d833          	srl	a6,a5,a0
    2b9c:	00d797b3          	sll	a5,a5,a3
    2ba0:	00f037b3          	snez	a5,a5
    2ba4:	00f866b3          	or	a3,a6,a5
    2ba8:	40d707b3          	sub	a5,a4,a3
    2bac:	00060413          	mv	s0,a2
    2bb0:	00058493          	mv	s1,a1
    2bb4:	f55ff06f          	j	2b08 <__subsf3+0x23c>
    2bb8:	00140693          	addi	a3,s0,1
    2bbc:	0fe6f693          	andi	a3,a3,254
    2bc0:	04069e63          	bnez	a3,2c1c <__subsf3+0x350>
    2bc4:	04041263          	bnez	s0,2c08 <__subsf3+0x33c>
    2bc8:	00079c63          	bnez	a5,2be0 <__subsf3+0x314>
    2bcc:	00000493          	li	s1,0
    2bd0:	0e070063          	beqz	a4,2cb0 <__subsf3+0x3e4>
    2bd4:	00070793          	mv	a5,a4
    2bd8:	00058493          	mv	s1,a1
    2bdc:	e91ff06f          	j	2a6c <__subsf3+0x1a0>
    2be0:	e80706e3          	beqz	a4,2a6c <__subsf3+0x1a0>
    2be4:	40e786b3          	sub	a3,a5,a4
    2be8:	04000637          	lui	a2,0x4000
    2bec:	00c6f633          	and	a2,a3,a2
    2bf0:	40f707b3          	sub	a5,a4,a5
    2bf4:	fe0612e3          	bnez	a2,2bd8 <__subsf3+0x30c>
    2bf8:	00000793          	li	a5,0
    2bfc:	08068063          	beqz	a3,2c7c <__subsf3+0x3b0>
    2c00:	00068793          	mv	a5,a3
    2c04:	e69ff06f          	j	2a6c <__subsf3+0x1a0>
    2c08:	e80792e3          	bnez	a5,2a8c <__subsf3+0x1c0>
    2c0c:	e80702e3          	beqz	a4,2a90 <__subsf3+0x1c4>
    2c10:	00070793          	mv	a5,a4
    2c14:	00058493          	mv	s1,a1
    2c18:	d39ff06f          	j	2950 <__subsf3+0x84>
    2c1c:	40e78933          	sub	s2,a5,a4
    2c20:	040006b7          	lui	a3,0x4000
    2c24:	00d976b3          	and	a3,s2,a3
    2c28:	04068463          	beqz	a3,2c70 <__subsf3+0x3a4>
    2c2c:	40f70933          	sub	s2,a4,a5
    2c30:	00058493          	mv	s1,a1
    2c34:	00090513          	mv	a0,s2
    2c38:	eb8fd0ef          	jal	ra,2f0 <__clzsi2>
    2c3c:	ffb50513          	addi	a0,a0,-5 # 3fffffb <CONFIG_SYS_CLOCK_HW_CYCLES_PER_SEC+0x1050f7b>
    2c40:	00a91933          	sll	s2,s2,a0
    2c44:	04854063          	blt	a0,s0,2c84 <__subsf3+0x3b8>
    2c48:	40850533          	sub	a0,a0,s0
    2c4c:	00150513          	addi	a0,a0,1
    2c50:	02000413          	li	s0,32
    2c54:	00a957b3          	srl	a5,s2,a0
    2c58:	40a40533          	sub	a0,s0,a0
    2c5c:	00a91933          	sll	s2,s2,a0
    2c60:	01203933          	snez	s2,s2
    2c64:	0127e7b3          	or	a5,a5,s2
    2c68:	00000413          	li	s0,0
    2c6c:	e01ff06f          	j	2a6c <__subsf3+0x1a0>
    2c70:	fc0912e3          	bnez	s2,2c34 <__subsf3+0x368>
    2c74:	00000793          	li	a5,0
    2c78:	00000413          	li	s0,0
    2c7c:	00000493          	li	s1,0
    2c80:	0300006f          	j	2cb0 <__subsf3+0x3e4>
    2c84:	fc0007b7          	lui	a5,0xfc000
    2c88:	fff78793          	addi	a5,a5,-1 # fbffffff <CONFIG_SYSTEM_WORKQUEUE_PRIORITY+0xfc000000>
    2c8c:	40a40433          	sub	s0,s0,a0
    2c90:	00f977b3          	and	a5,s2,a5
    2c94:	dd9ff06f          	j	2a6c <__subsf3+0x1a0>
    2c98:	00070793          	mv	a5,a4
    2c9c:	e15ff06f          	j	2ab0 <__subsf3+0x1e4>
    2ca0:	00070793          	mv	a5,a4
    2ca4:	dc9ff06f          	j	2a6c <__subsf3+0x1a0>
    2ca8:	0ff00413          	li	s0,255
    2cac:	00000793          	li	a5,0
    2cb0:	04000737          	lui	a4,0x4000
    2cb4:	00e7f733          	and	a4,a5,a4
    2cb8:	00070e63          	beqz	a4,2cd4 <__subsf3+0x408>
    2cbc:	00140413          	addi	s0,s0,1
    2cc0:	0ff00713          	li	a4,255
    2cc4:	06e40663          	beq	s0,a4,2d30 <__subsf3+0x464>
    2cc8:	fc000737          	lui	a4,0xfc000
    2ccc:	fff70713          	addi	a4,a4,-1 # fbffffff <CONFIG_SYSTEM_WORKQUEUE_PRIORITY+0xfc000000>
    2cd0:	00e7f7b3          	and	a5,a5,a4
    2cd4:	0ff00713          	li	a4,255
    2cd8:	0037d793          	srli	a5,a5,0x3
    2cdc:	00e41863          	bne	s0,a4,2cec <__subsf3+0x420>
    2ce0:	00078663          	beqz	a5,2cec <__subsf3+0x420>
    2ce4:	004007b7          	lui	a5,0x400
    2ce8:	00000493          	li	s1,0
    2cec:	7f800537          	lui	a0,0x7f800
    2cf0:	01741413          	slli	s0,s0,0x17
    2cf4:	00979793          	slli	a5,a5,0x9
    2cf8:	00a47433          	and	s0,s0,a0
    2cfc:	0097d793          	srli	a5,a5,0x9
    2d00:	00c12083          	lw	ra,12(sp)
    2d04:	00f467b3          	or	a5,s0,a5
    2d08:	00812403          	lw	s0,8(sp)
    2d0c:	01f49513          	slli	a0,s1,0x1f
    2d10:	00012903          	lw	s2,0(sp)
    2d14:	00412483          	lw	s1,4(sp)
    2d18:	00a7e533          	or	a0,a5,a0
    2d1c:	01010113          	addi	sp,sp,16
    2d20:	00008067          	ret
    2d24:	00070793          	mv	a5,a4
    2d28:	00068413          	mv	s0,a3
    2d2c:	eadff06f          	j	2bd8 <__subsf3+0x30c>
    2d30:	00000793          	li	a5,0
    2d34:	fa1ff06f          	j	2cd4 <__subsf3+0x408>

00002d38 <__floatsisf>:
    2d38:	ff010113          	addi	sp,sp,-16
    2d3c:	00112623          	sw	ra,12(sp)
    2d40:	00812423          	sw	s0,8(sp)
    2d44:	00912223          	sw	s1,4(sp)
    2d48:	0e050663          	beqz	a0,2e34 <__floatsisf+0xfc>
    2d4c:	41f55793          	srai	a5,a0,0x1f
    2d50:	00a7c433          	xor	s0,a5,a0
    2d54:	40f40433          	sub	s0,s0,a5
    2d58:	01f55493          	srli	s1,a0,0x1f
    2d5c:	00040513          	mv	a0,s0
    2d60:	d90fd0ef          	jal	ra,2f0 <__clzsi2>
    2d64:	09e00793          	li	a5,158
    2d68:	00050713          	mv	a4,a0
    2d6c:	40a78533          	sub	a0,a5,a0
    2d70:	09600793          	li	a5,150
    2d74:	04a7c063          	blt	a5,a0,2db4 <__floatsisf+0x7c>
    2d78:	00800793          	li	a5,8
    2d7c:	00e7d663          	bge	a5,a4,2d88 <__floatsisf+0x50>
    2d80:	ff870713          	addi	a4,a4,-8
    2d84:	00e41433          	sll	s0,s0,a4
    2d88:	00941413          	slli	s0,s0,0x9
    2d8c:	01751513          	slli	a0,a0,0x17
    2d90:	00945413          	srli	s0,s0,0x9
    2d94:	00856433          	or	s0,a0,s0
    2d98:	01f49513          	slli	a0,s1,0x1f
    2d9c:	00c12083          	lw	ra,12(sp)
    2da0:	00a46533          	or	a0,s0,a0
    2da4:	00812403          	lw	s0,8(sp)
    2da8:	00412483          	lw	s1,4(sp)
    2dac:	01010113          	addi	sp,sp,16
    2db0:	00008067          	ret
    2db4:	09900793          	li	a5,153
    2db8:	02a7d063          	bge	a5,a0,2dd8 <__floatsisf+0xa0>
    2dbc:	00500793          	li	a5,5
    2dc0:	40e787b3          	sub	a5,a5,a4
    2dc4:	01b70693          	addi	a3,a4,27
    2dc8:	00f457b3          	srl	a5,s0,a5
    2dcc:	00d41433          	sll	s0,s0,a3
    2dd0:	00803433          	snez	s0,s0
    2dd4:	0087e433          	or	s0,a5,s0
    2dd8:	00500793          	li	a5,5
    2ddc:	00e7d663          	bge	a5,a4,2de8 <__floatsisf+0xb0>
    2de0:	ffb70793          	addi	a5,a4,-5
    2de4:	00f41433          	sll	s0,s0,a5
    2de8:	fc0006b7          	lui	a3,0xfc000
    2dec:	fff68693          	addi	a3,a3,-1 # fbffffff <CONFIG_SYSTEM_WORKQUEUE_PRIORITY+0xfc000000>
    2df0:	00747793          	andi	a5,s0,7
    2df4:	00d476b3          	and	a3,s0,a3
    2df8:	00078a63          	beqz	a5,2e0c <__floatsisf+0xd4>
    2dfc:	00f47413          	andi	s0,s0,15
    2e00:	00400793          	li	a5,4
    2e04:	00f40463          	beq	s0,a5,2e0c <__floatsisf+0xd4>
    2e08:	00468693          	addi	a3,a3,4
    2e0c:	040007b7          	lui	a5,0x4000
    2e10:	00f6f7b3          	and	a5,a3,a5
    2e14:	00078c63          	beqz	a5,2e2c <__floatsisf+0xf4>
    2e18:	fc0007b7          	lui	a5,0xfc000
    2e1c:	fff78793          	addi	a5,a5,-1 # fbffffff <CONFIG_SYSTEM_WORKQUEUE_PRIORITY+0xfc000000>
    2e20:	00f6f6b3          	and	a3,a3,a5
    2e24:	09f00793          	li	a5,159
    2e28:	40e78533          	sub	a0,a5,a4
    2e2c:	0036d413          	srli	s0,a3,0x3
    2e30:	f59ff06f          	j	2d88 <__floatsisf+0x50>
    2e34:	00000493          	li	s1,0
    2e38:	00000413          	li	s0,0
    2e3c:	f4dff06f          	j	2d88 <__floatsisf+0x50>

00002e40 <__extendsfdf2>:
    2e40:	01755713          	srli	a4,a0,0x17
    2e44:	0ff77713          	andi	a4,a4,255
    2e48:	ff010113          	addi	sp,sp,-16
    2e4c:	00170793          	addi	a5,a4,1
    2e50:	00812423          	sw	s0,8(sp)
    2e54:	00912223          	sw	s1,4(sp)
    2e58:	00951413          	slli	s0,a0,0x9
    2e5c:	00112623          	sw	ra,12(sp)
    2e60:	0fe7f793          	andi	a5,a5,254
    2e64:	00945413          	srli	s0,s0,0x9
    2e68:	01f55493          	srli	s1,a0,0x1f
    2e6c:	04078263          	beqz	a5,2eb0 <__extendsfdf2+0x70>
    2e70:	00345793          	srli	a5,s0,0x3
    2e74:	38070713          	addi	a4,a4,896
    2e78:	01d41413          	slli	s0,s0,0x1d
    2e7c:	00c79793          	slli	a5,a5,0xc
    2e80:	01471713          	slli	a4,a4,0x14
    2e84:	00c7d793          	srli	a5,a5,0xc
    2e88:	01f49513          	slli	a0,s1,0x1f
    2e8c:	00f767b3          	or	a5,a4,a5
    2e90:	00c12083          	lw	ra,12(sp)
    2e94:	00a7e733          	or	a4,a5,a0
    2e98:	00040513          	mv	a0,s0
    2e9c:	00812403          	lw	s0,8(sp)
    2ea0:	00412483          	lw	s1,4(sp)
    2ea4:	00070593          	mv	a1,a4
    2ea8:	01010113          	addi	sp,sp,16
    2eac:	00008067          	ret
    2eb0:	04071663          	bnez	a4,2efc <__extendsfdf2+0xbc>
    2eb4:	00000793          	li	a5,0
    2eb8:	fc0402e3          	beqz	s0,2e7c <__extendsfdf2+0x3c>
    2ebc:	00040513          	mv	a0,s0
    2ec0:	c30fd0ef          	jal	ra,2f0 <__clzsi2>
    2ec4:	00a00793          	li	a5,10
    2ec8:	02a7c263          	blt	a5,a0,2eec <__extendsfdf2+0xac>
    2ecc:	00b00793          	li	a5,11
    2ed0:	40a787b3          	sub	a5,a5,a0
    2ed4:	01550713          	addi	a4,a0,21 # 7f800015 <CONFIG_SYS_CLOCK_HW_CYCLES_PER_SEC+0x7c850f95>
    2ed8:	00f457b3          	srl	a5,s0,a5
    2edc:	00e41433          	sll	s0,s0,a4
    2ee0:	38900713          	li	a4,905
    2ee4:	40a70733          	sub	a4,a4,a0
    2ee8:	f95ff06f          	j	2e7c <__extendsfdf2+0x3c>
    2eec:	ff550793          	addi	a5,a0,-11
    2ef0:	00f417b3          	sll	a5,s0,a5
    2ef4:	00000413          	li	s0,0
    2ef8:	fe9ff06f          	j	2ee0 <__extendsfdf2+0xa0>
    2efc:	00000793          	li	a5,0
    2f00:	00040a63          	beqz	s0,2f14 <__extendsfdf2+0xd4>
    2f04:	00345793          	srli	a5,s0,0x3
    2f08:	00080737          	lui	a4,0x80
    2f0c:	01d41413          	slli	s0,s0,0x1d
    2f10:	00e7e7b3          	or	a5,a5,a4
    2f14:	7ff00713          	li	a4,2047
    2f18:	f65ff06f          	j	2e7c <__extendsfdf2+0x3c>

00002f1c <memcpy>:
    2f1c:	00050313          	mv	t1,a0
    2f20:	00060e63          	beqz	a2,2f3c <memcpy+0x20>
    2f24:	00058383          	lb	t2,0(a1) # 4000000 <CONFIG_SYS_CLOCK_HW_CYCLES_PER_SEC+0x1050f80>
    2f28:	00730023          	sb	t2,0(t1) # 10000 <__data_region_end+0x1660>
    2f2c:	fff60613          	addi	a2,a2,-1 # 3ffffff <CONFIG_SYS_CLOCK_HW_CYCLES_PER_SEC+0x1050f7f>
    2f30:	00130313          	addi	t1,t1,1
    2f34:	00158593          	addi	a1,a1,1
    2f38:	fe0616e3          	bnez	a2,2f24 <memcpy+0x8>
    2f3c:	00008067          	ret

00002f40 <memset>:
    2f40:	00050313          	mv	t1,a0
    2f44:	00060a63          	beqz	a2,2f58 <memset+0x18>
    2f48:	00b30023          	sb	a1,0(t1)
    2f4c:	fff60613          	addi	a2,a2,-1
    2f50:	00130313          	addi	t1,t1,1
    2f54:	fe061ae3          	bnez	a2,2f48 <memset+0x8>
    2f58:	00008067          	ret

00002f5c <__adddf3>:
    2f5c:	00100837          	lui	a6,0x100
    2f60:	fff80813          	addi	a6,a6,-1 # fffff <__data_region_end+0xf165f>
    2f64:	fe010113          	addi	sp,sp,-32
    2f68:	00b877b3          	and	a5,a6,a1
    2f6c:	0145d713          	srli	a4,a1,0x14
    2f70:	00d87833          	and	a6,a6,a3
    2f74:	0146d313          	srli	t1,a3,0x14
    2f78:	00812c23          	sw	s0,24(sp)
    2f7c:	00379793          	slli	a5,a5,0x3
    2f80:	7ff77413          	andi	s0,a4,2047
    2f84:	01d55713          	srli	a4,a0,0x1d
    2f88:	00381813          	slli	a6,a6,0x3
    2f8c:	00912a23          	sw	s1,20(sp)
    2f90:	00f767b3          	or	a5,a4,a5
    2f94:	01f5d493          	srli	s1,a1,0x1f
    2f98:	01d65713          	srli	a4,a2,0x1d
    2f9c:	7ff37313          	andi	t1,t1,2047
    2fa0:	00112e23          	sw	ra,28(sp)
    2fa4:	01212823          	sw	s2,16(sp)
    2fa8:	01312623          	sw	s3,12(sp)
    2fac:	01f6d693          	srli	a3,a3,0x1f
    2fb0:	01076733          	or	a4,a4,a6
    2fb4:	00351593          	slli	a1,a0,0x3
    2fb8:	00361613          	slli	a2,a2,0x3
    2fbc:	40640833          	sub	a6,s0,t1
    2fc0:	2cd49863          	bne	s1,a3,3290 <__adddf3+0x334>
    2fc4:	13005063          	blez	a6,30e4 <__adddf3+0x188>
    2fc8:	04031063          	bnez	t1,3008 <__adddf3+0xac>
    2fcc:	00c766b3          	or	a3,a4,a2
    2fd0:	70068c63          	beqz	a3,36e8 <__adddf3+0x78c>
    2fd4:	fff80513          	addi	a0,a6,-1
    2fd8:	02051063          	bnez	a0,2ff8 <__adddf3+0x9c>
    2fdc:	00c58633          	add	a2,a1,a2
    2fe0:	00b63533          	sltu	a0,a2,a1
    2fe4:	00e787b3          	add	a5,a5,a4
    2fe8:	00a787b3          	add	a5,a5,a0
    2fec:	00060593          	mv	a1,a2
    2ff0:	00100413          	li	s0,1
    2ff4:	0700006f          	j	3064 <__adddf3+0x108>
    2ff8:	7ff00693          	li	a3,2047
    2ffc:	02d81063          	bne	a6,a3,301c <__adddf3+0xc0>
    3000:	7ff00413          	li	s0,2047
    3004:	2140006f          	j	3218 <__adddf3+0x2bc>
    3008:	7ff00693          	li	a3,2047
    300c:	20d40663          	beq	s0,a3,3218 <__adddf3+0x2bc>
    3010:	008006b7          	lui	a3,0x800
    3014:	00d76733          	or	a4,a4,a3
    3018:	00080513          	mv	a0,a6
    301c:	03800693          	li	a3,56
    3020:	0aa6cc63          	blt	a3,a0,30d8 <__adddf3+0x17c>
    3024:	01f00693          	li	a3,31
    3028:	06a6ce63          	blt	a3,a0,30a4 <__adddf3+0x148>
    302c:	02000813          	li	a6,32
    3030:	40a80833          	sub	a6,a6,a0
    3034:	010716b3          	sll	a3,a4,a6
    3038:	00a658b3          	srl	a7,a2,a0
    303c:	01061633          	sll	a2,a2,a6
    3040:	0116e6b3          	or	a3,a3,a7
    3044:	00c03633          	snez	a2,a2
    3048:	00c6e633          	or	a2,a3,a2
    304c:	00a75733          	srl	a4,a4,a0
    3050:	00b60633          	add	a2,a2,a1
    3054:	00b63533          	sltu	a0,a2,a1
    3058:	00f70733          	add	a4,a4,a5
    305c:	00a707b3          	add	a5,a4,a0
    3060:	00060593          	mv	a1,a2
    3064:	00800737          	lui	a4,0x800
    3068:	00e7f733          	and	a4,a5,a4
    306c:	1a070663          	beqz	a4,3218 <__adddf3+0x2bc>
    3070:	00140413          	addi	s0,s0,1
    3074:	7ff00713          	li	a4,2047
    3078:	5ce40a63          	beq	s0,a4,364c <__adddf3+0x6f0>
    307c:	ff800737          	lui	a4,0xff800
    3080:	fff70713          	addi	a4,a4,-1 # ff7fffff <CONFIG_SYSTEM_WORKQUEUE_PRIORITY+0xff800000>
    3084:	00e7f7b3          	and	a5,a5,a4
    3088:	0015f513          	andi	a0,a1,1
    308c:	0015d713          	srli	a4,a1,0x1
    3090:	00a76533          	or	a0,a4,a0
    3094:	01f79593          	slli	a1,a5,0x1f
    3098:	00a5e5b3          	or	a1,a1,a0
    309c:	0017d793          	srli	a5,a5,0x1
    30a0:	1780006f          	j	3218 <__adddf3+0x2bc>
    30a4:	fe050693          	addi	a3,a0,-32
    30a8:	02000893          	li	a7,32
    30ac:	00d756b3          	srl	a3,a4,a3
    30b0:	00000813          	li	a6,0
    30b4:	01150863          	beq	a0,a7,30c4 <__adddf3+0x168>
    30b8:	04000813          	li	a6,64
    30bc:	40a80533          	sub	a0,a6,a0
    30c0:	00a71833          	sll	a6,a4,a0
    30c4:	00c86633          	or	a2,a6,a2
    30c8:	00c03633          	snez	a2,a2
    30cc:	00c6e633          	or	a2,a3,a2
    30d0:	00000713          	li	a4,0
    30d4:	f7dff06f          	j	3050 <__adddf3+0xf4>
    30d8:	00c76633          	or	a2,a4,a2
    30dc:	00c03633          	snez	a2,a2
    30e0:	ff1ff06f          	j	30d0 <__adddf3+0x174>
    30e4:	0e080263          	beqz	a6,31c8 <__adddf3+0x26c>
    30e8:	40830533          	sub	a0,t1,s0
    30ec:	02041e63          	bnez	s0,3128 <__adddf3+0x1cc>
    30f0:	00b7e6b3          	or	a3,a5,a1
    30f4:	52068c63          	beqz	a3,362c <__adddf3+0x6d0>
    30f8:	fff50693          	addi	a3,a0,-1
    30fc:	00069c63          	bnez	a3,3114 <__adddf3+0x1b8>
    3100:	00c585b3          	add	a1,a1,a2
    3104:	00e787b3          	add	a5,a5,a4
    3108:	00c5b633          	sltu	a2,a1,a2
    310c:	00c787b3          	add	a5,a5,a2
    3110:	ee1ff06f          	j	2ff0 <__adddf3+0x94>
    3114:	7ff00813          	li	a6,2047
    3118:	03051263          	bne	a0,a6,313c <__adddf3+0x1e0>
    311c:	00070793          	mv	a5,a4
    3120:	00060593          	mv	a1,a2
    3124:	eddff06f          	j	3000 <__adddf3+0xa4>
    3128:	7ff00693          	li	a3,2047
    312c:	fed308e3          	beq	t1,a3,311c <__adddf3+0x1c0>
    3130:	008006b7          	lui	a3,0x800
    3134:	00d7e7b3          	or	a5,a5,a3
    3138:	00050693          	mv	a3,a0
    313c:	03800513          	li	a0,56
    3140:	06d54e63          	blt	a0,a3,31bc <__adddf3+0x260>
    3144:	01f00513          	li	a0,31
    3148:	04d54063          	blt	a0,a3,3188 <__adddf3+0x22c>
    314c:	02000813          	li	a6,32
    3150:	40d80833          	sub	a6,a6,a3
    3154:	01079533          	sll	a0,a5,a6
    3158:	00d5d8b3          	srl	a7,a1,a3
    315c:	010595b3          	sll	a1,a1,a6
    3160:	01156533          	or	a0,a0,a7
    3164:	00b035b3          	snez	a1,a1
    3168:	00b56533          	or	a0,a0,a1
    316c:	00d7d7b3          	srl	a5,a5,a3
    3170:	00c505b3          	add	a1,a0,a2
    3174:	00e787b3          	add	a5,a5,a4
    3178:	00c5b633          	sltu	a2,a1,a2
    317c:	00c787b3          	add	a5,a5,a2
    3180:	00030413          	mv	s0,t1
    3184:	ee1ff06f          	j	3064 <__adddf3+0x108>
    3188:	fe068513          	addi	a0,a3,-32 # 7fffe0 <__data_region_end+0x7f1640>
    318c:	02000893          	li	a7,32
    3190:	00a7d833          	srl	a6,a5,a0
    3194:	00000513          	li	a0,0
    3198:	01168863          	beq	a3,a7,31a8 <__adddf3+0x24c>
    319c:	04000513          	li	a0,64
    31a0:	40d50533          	sub	a0,a0,a3
    31a4:	00a79533          	sll	a0,a5,a0
    31a8:	00b56533          	or	a0,a0,a1
    31ac:	00a03533          	snez	a0,a0
    31b0:	00a86533          	or	a0,a6,a0
    31b4:	00000793          	li	a5,0
    31b8:	fb9ff06f          	j	3170 <__adddf3+0x214>
    31bc:	00b7e533          	or	a0,a5,a1
    31c0:	00a03533          	snez	a0,a0
    31c4:	ff1ff06f          	j	31b4 <__adddf3+0x258>
    31c8:	00140693          	addi	a3,s0,1
    31cc:	7fe6f513          	andi	a0,a3,2046
    31d0:	08051863          	bnez	a0,3260 <__adddf3+0x304>
    31d4:	00b7e6b3          	or	a3,a5,a1
    31d8:	06041463          	bnez	s0,3240 <__adddf3+0x2e4>
    31dc:	46068063          	beqz	a3,363c <__adddf3+0x6e0>
    31e0:	00c766b3          	or	a3,a4,a2
    31e4:	02068a63          	beqz	a3,3218 <__adddf3+0x2bc>
    31e8:	00c58633          	add	a2,a1,a2
    31ec:	00e787b3          	add	a5,a5,a4
    31f0:	00b63533          	sltu	a0,a2,a1
    31f4:	00a787b3          	add	a5,a5,a0
    31f8:	00800737          	lui	a4,0x800
    31fc:	00e7f733          	and	a4,a5,a4
    3200:	00060593          	mv	a1,a2
    3204:	00070a63          	beqz	a4,3218 <__adddf3+0x2bc>
    3208:	ff800737          	lui	a4,0xff800
    320c:	fff70713          	addi	a4,a4,-1 # ff7fffff <CONFIG_SYSTEM_WORKQUEUE_PRIORITY+0xff800000>
    3210:	00e7f7b3          	and	a5,a5,a4
    3214:	00100413          	li	s0,1
    3218:	0075f713          	andi	a4,a1,7
    321c:	42070c63          	beqz	a4,3654 <__adddf3+0x6f8>
    3220:	00f5f713          	andi	a4,a1,15
    3224:	00400693          	li	a3,4
    3228:	42d70663          	beq	a4,a3,3654 <__adddf3+0x6f8>
    322c:	00458713          	addi	a4,a1,4
    3230:	00b73533          	sltu	a0,a4,a1
    3234:	00a787b3          	add	a5,a5,a0
    3238:	00070593          	mv	a1,a4
    323c:	4180006f          	j	3654 <__adddf3+0x6f8>
    3240:	ec068ee3          	beqz	a3,311c <__adddf3+0x1c0>
    3244:	00c76633          	or	a2,a4,a2
    3248:	da060ce3          	beqz	a2,3000 <__adddf3+0xa4>
    324c:	00000493          	li	s1,0
    3250:	004007b7          	lui	a5,0x400
    3254:	00000593          	li	a1,0
    3258:	7ff00413          	li	s0,2047
    325c:	3f80006f          	j	3654 <__adddf3+0x6f8>
    3260:	7ff00513          	li	a0,2047
    3264:	3ea68263          	beq	a3,a0,3648 <__adddf3+0x6ec>
    3268:	00c58633          	add	a2,a1,a2
    326c:	00b63533          	sltu	a0,a2,a1
    3270:	00e787b3          	add	a5,a5,a4
    3274:	00a787b3          	add	a5,a5,a0
    3278:	01f79513          	slli	a0,a5,0x1f
    327c:	00165613          	srli	a2,a2,0x1
    3280:	00c565b3          	or	a1,a0,a2
    3284:	0017d793          	srli	a5,a5,0x1
    3288:	00068413          	mv	s0,a3
    328c:	f8dff06f          	j	3218 <__adddf3+0x2bc>
    3290:	0f005c63          	blez	a6,3388 <__adddf3+0x42c>
    3294:	08031e63          	bnez	t1,3330 <__adddf3+0x3d4>
    3298:	00c766b3          	or	a3,a4,a2
    329c:	44068663          	beqz	a3,36e8 <__adddf3+0x78c>
    32a0:	fff80513          	addi	a0,a6,-1
    32a4:	02051063          	bnez	a0,32c4 <__adddf3+0x368>
    32a8:	40c58633          	sub	a2,a1,a2
    32ac:	00c5b533          	sltu	a0,a1,a2
    32b0:	40e787b3          	sub	a5,a5,a4
    32b4:	40a787b3          	sub	a5,a5,a0
    32b8:	00060593          	mv	a1,a2
    32bc:	00100413          	li	s0,1
    32c0:	0540006f          	j	3314 <__adddf3+0x3b8>
    32c4:	7ff00693          	li	a3,2047
    32c8:	d2d80ce3          	beq	a6,a3,3000 <__adddf3+0xa4>
    32cc:	03800693          	li	a3,56
    32d0:	0aa6c663          	blt	a3,a0,337c <__adddf3+0x420>
    32d4:	01f00693          	li	a3,31
    32d8:	06a6c863          	blt	a3,a0,3348 <__adddf3+0x3ec>
    32dc:	02000813          	li	a6,32
    32e0:	40a80833          	sub	a6,a6,a0
    32e4:	010716b3          	sll	a3,a4,a6
    32e8:	00a658b3          	srl	a7,a2,a0
    32ec:	01061633          	sll	a2,a2,a6
    32f0:	0116e6b3          	or	a3,a3,a7
    32f4:	00c03633          	snez	a2,a2
    32f8:	00c6e633          	or	a2,a3,a2
    32fc:	00a75733          	srl	a4,a4,a0
    3300:	40c58633          	sub	a2,a1,a2
    3304:	00c5b533          	sltu	a0,a1,a2
    3308:	40e78733          	sub	a4,a5,a4
    330c:	40a707b3          	sub	a5,a4,a0
    3310:	00060593          	mv	a1,a2
    3314:	00800937          	lui	s2,0x800
    3318:	0127f733          	and	a4,a5,s2
    331c:	ee070ee3          	beqz	a4,3218 <__adddf3+0x2bc>
    3320:	fff90913          	addi	s2,s2,-1 # 7fffff <__data_region_end+0x7f165f>
    3324:	0127f933          	and	s2,a5,s2
    3328:	00058993          	mv	s3,a1
    332c:	2140006f          	j	3540 <__adddf3+0x5e4>
    3330:	7ff00693          	li	a3,2047
    3334:	eed402e3          	beq	s0,a3,3218 <__adddf3+0x2bc>
    3338:	008006b7          	lui	a3,0x800
    333c:	00d76733          	or	a4,a4,a3
    3340:	00080513          	mv	a0,a6
    3344:	f89ff06f          	j	32cc <__adddf3+0x370>
    3348:	fe050693          	addi	a3,a0,-32
    334c:	02000893          	li	a7,32
    3350:	00d756b3          	srl	a3,a4,a3
    3354:	00000813          	li	a6,0
    3358:	01150863          	beq	a0,a7,3368 <__adddf3+0x40c>
    335c:	04000813          	li	a6,64
    3360:	40a80533          	sub	a0,a6,a0
    3364:	00a71833          	sll	a6,a4,a0
    3368:	00c86633          	or	a2,a6,a2
    336c:	00c03633          	snez	a2,a2
    3370:	00c6e633          	or	a2,a3,a2
    3374:	00000713          	li	a4,0
    3378:	f89ff06f          	j	3300 <__adddf3+0x3a4>
    337c:	00c76633          	or	a2,a4,a2
    3380:	00c03633          	snez	a2,a2
    3384:	ff1ff06f          	j	3374 <__adddf3+0x418>
    3388:	0e080863          	beqz	a6,3478 <__adddf3+0x51c>
    338c:	40830533          	sub	a0,t1,s0
    3390:	04041263          	bnez	s0,33d4 <__adddf3+0x478>
    3394:	00b7e833          	or	a6,a5,a1
    3398:	34080c63          	beqz	a6,36f0 <__adddf3+0x794>
    339c:	fff50813          	addi	a6,a0,-1
    33a0:	00081e63          	bnez	a6,33bc <__adddf3+0x460>
    33a4:	40b605b3          	sub	a1,a2,a1
    33a8:	40f707b3          	sub	a5,a4,a5
    33ac:	00b63633          	sltu	a2,a2,a1
    33b0:	40c787b3          	sub	a5,a5,a2
    33b4:	00068493          	mv	s1,a3
    33b8:	f05ff06f          	j	32bc <__adddf3+0x360>
    33bc:	7ff00893          	li	a7,2047
    33c0:	03151463          	bne	a0,a7,33e8 <__adddf3+0x48c>
    33c4:	00070793          	mv	a5,a4
    33c8:	00060593          	mv	a1,a2
    33cc:	7ff00413          	li	s0,2047
    33d0:	0d00006f          	j	34a0 <__adddf3+0x544>
    33d4:	7ff00813          	li	a6,2047
    33d8:	ff0306e3          	beq	t1,a6,33c4 <__adddf3+0x468>
    33dc:	00800837          	lui	a6,0x800
    33e0:	0107e7b3          	or	a5,a5,a6
    33e4:	00050813          	mv	a6,a0
    33e8:	03800513          	li	a0,56
    33ec:	09054063          	blt	a0,a6,346c <__adddf3+0x510>
    33f0:	01f00513          	li	a0,31
    33f4:	05054263          	blt	a0,a6,3438 <__adddf3+0x4dc>
    33f8:	02000893          	li	a7,32
    33fc:	410888b3          	sub	a7,a7,a6
    3400:	01179533          	sll	a0,a5,a7
    3404:	0105de33          	srl	t3,a1,a6
    3408:	011595b3          	sll	a1,a1,a7
    340c:	01c56533          	or	a0,a0,t3
    3410:	00b035b3          	snez	a1,a1
    3414:	00b56533          	or	a0,a0,a1
    3418:	0107d7b3          	srl	a5,a5,a6
    341c:	40a605b3          	sub	a1,a2,a0
    3420:	40f707b3          	sub	a5,a4,a5
    3424:	00b63633          	sltu	a2,a2,a1
    3428:	40c787b3          	sub	a5,a5,a2
    342c:	00030413          	mv	s0,t1
    3430:	00068493          	mv	s1,a3
    3434:	ee1ff06f          	j	3314 <__adddf3+0x3b8>
    3438:	fe080513          	addi	a0,a6,-32 # 7fffe0 <__data_region_end+0x7f1640>
    343c:	02000e13          	li	t3,32
    3440:	00a7d8b3          	srl	a7,a5,a0
    3444:	00000513          	li	a0,0
    3448:	01c80863          	beq	a6,t3,3458 <__adddf3+0x4fc>
    344c:	04000513          	li	a0,64
    3450:	41050533          	sub	a0,a0,a6
    3454:	00a79533          	sll	a0,a5,a0
    3458:	00b56533          	or	a0,a0,a1
    345c:	00a03533          	snez	a0,a0
    3460:	00a8e533          	or	a0,a7,a0
    3464:	00000793          	li	a5,0
    3468:	fb5ff06f          	j	341c <__adddf3+0x4c0>
    346c:	00b7e533          	or	a0,a5,a1
    3470:	00a03533          	snez	a0,a0
    3474:	ff1ff06f          	j	3464 <__adddf3+0x508>
    3478:	00140513          	addi	a0,s0,1
    347c:	7fe57513          	andi	a0,a0,2046
    3480:	08051863          	bnez	a0,3510 <__adddf3+0x5b4>
    3484:	00b7e833          	or	a6,a5,a1
    3488:	00c76533          	or	a0,a4,a2
    348c:	06041263          	bnez	s0,34f0 <__adddf3+0x594>
    3490:	00081c63          	bnez	a6,34a8 <__adddf3+0x54c>
    3494:	26050663          	beqz	a0,3700 <__adddf3+0x7a4>
    3498:	00070793          	mv	a5,a4
    349c:	00060593          	mv	a1,a2
    34a0:	00068493          	mv	s1,a3
    34a4:	d75ff06f          	j	3218 <__adddf3+0x2bc>
    34a8:	d60508e3          	beqz	a0,3218 <__adddf3+0x2bc>
    34ac:	40c58833          	sub	a6,a1,a2
    34b0:	0105b8b3          	sltu	a7,a1,a6
    34b4:	40e78533          	sub	a0,a5,a4
    34b8:	41150533          	sub	a0,a0,a7
    34bc:	008008b7          	lui	a7,0x800
    34c0:	011578b3          	and	a7,a0,a7
    34c4:	00088c63          	beqz	a7,34dc <__adddf3+0x580>
    34c8:	40b605b3          	sub	a1,a2,a1
    34cc:	40f707b3          	sub	a5,a4,a5
    34d0:	00b63633          	sltu	a2,a2,a1
    34d4:	40c787b3          	sub	a5,a5,a2
    34d8:	fc9ff06f          	j	34a0 <__adddf3+0x544>
    34dc:	00a865b3          	or	a1,a6,a0
    34e0:	22058863          	beqz	a1,3710 <__adddf3+0x7b4>
    34e4:	00050793          	mv	a5,a0
    34e8:	00080593          	mv	a1,a6
    34ec:	d2dff06f          	j	3218 <__adddf3+0x2bc>
    34f0:	00081c63          	bnez	a6,3508 <__adddf3+0x5ac>
    34f4:	22050263          	beqz	a0,3718 <__adddf3+0x7bc>
    34f8:	00070793          	mv	a5,a4
    34fc:	00060593          	mv	a1,a2
    3500:	00068493          	mv	s1,a3
    3504:	afdff06f          	j	3000 <__adddf3+0xa4>
    3508:	ae050ce3          	beqz	a0,3000 <__adddf3+0xa4>
    350c:	d41ff06f          	j	324c <__adddf3+0x2f0>
    3510:	40c589b3          	sub	s3,a1,a2
    3514:	0135b533          	sltu	a0,a1,s3
    3518:	40e78933          	sub	s2,a5,a4
    351c:	40a90933          	sub	s2,s2,a0
    3520:	00800537          	lui	a0,0x800
    3524:	00a97533          	and	a0,s2,a0
    3528:	08050463          	beqz	a0,35b0 <__adddf3+0x654>
    352c:	40b609b3          	sub	s3,a2,a1
    3530:	40f707b3          	sub	a5,a4,a5
    3534:	01363633          	sltu	a2,a2,s3
    3538:	40c78933          	sub	s2,a5,a2
    353c:	00068493          	mv	s1,a3
    3540:	08090263          	beqz	s2,35c4 <__adddf3+0x668>
    3544:	00090513          	mv	a0,s2
    3548:	da9fc0ef          	jal	ra,2f0 <__clzsi2>
    354c:	ff850713          	addi	a4,a0,-8 # 7ffff8 <__data_region_end+0x7f1658>
    3550:	01f00793          	li	a5,31
    3554:	08e7c063          	blt	a5,a4,35d4 <__adddf3+0x678>
    3558:	02000793          	li	a5,32
    355c:	40e787b3          	sub	a5,a5,a4
    3560:	00e91933          	sll	s2,s2,a4
    3564:	00f9d7b3          	srl	a5,s3,a5
    3568:	0127e7b3          	or	a5,a5,s2
    356c:	00e995b3          	sll	a1,s3,a4
    3570:	0a874463          	blt	a4,s0,3618 <__adddf3+0x6bc>
    3574:	40870733          	sub	a4,a4,s0
    3578:	00170693          	addi	a3,a4,1
    357c:	01f00613          	li	a2,31
    3580:	06d64263          	blt	a2,a3,35e4 <__adddf3+0x688>
    3584:	02000713          	li	a4,32
    3588:	40d70733          	sub	a4,a4,a3
    358c:	00e79633          	sll	a2,a5,a4
    3590:	00d5d533          	srl	a0,a1,a3
    3594:	00e595b3          	sll	a1,a1,a4
    3598:	00a66633          	or	a2,a2,a0
    359c:	00b035b3          	snez	a1,a1
    35a0:	00b665b3          	or	a1,a2,a1
    35a4:	00d7d7b3          	srl	a5,a5,a3
    35a8:	00000413          	li	s0,0
    35ac:	c6dff06f          	j	3218 <__adddf3+0x2bc>
    35b0:	0129e5b3          	or	a1,s3,s2
    35b4:	f80596e3          	bnez	a1,3540 <__adddf3+0x5e4>
    35b8:	00000793          	li	a5,0
    35bc:	00000413          	li	s0,0
    35c0:	1480006f          	j	3708 <__adddf3+0x7ac>
    35c4:	00098513          	mv	a0,s3
    35c8:	d29fc0ef          	jal	ra,2f0 <__clzsi2>
    35cc:	02050513          	addi	a0,a0,32
    35d0:	f7dff06f          	j	354c <__adddf3+0x5f0>
    35d4:	fd850793          	addi	a5,a0,-40
    35d8:	00f997b3          	sll	a5,s3,a5
    35dc:	00000593          	li	a1,0
    35e0:	f91ff06f          	j	3570 <__adddf3+0x614>
    35e4:	fe170713          	addi	a4,a4,-31
    35e8:	02000613          	li	a2,32
    35ec:	00e7d733          	srl	a4,a5,a4
    35f0:	00000513          	li	a0,0
    35f4:	00c68863          	beq	a3,a2,3604 <__adddf3+0x6a8>
    35f8:	04000513          	li	a0,64
    35fc:	40d50533          	sub	a0,a0,a3
    3600:	00a79533          	sll	a0,a5,a0
    3604:	00a5e533          	or	a0,a1,a0
    3608:	00a03533          	snez	a0,a0
    360c:	00a765b3          	or	a1,a4,a0
    3610:	00000793          	li	a5,0
    3614:	f95ff06f          	j	35a8 <__adddf3+0x64c>
    3618:	40e40433          	sub	s0,s0,a4
    361c:	ff800737          	lui	a4,0xff800
    3620:	fff70713          	addi	a4,a4,-1 # ff7fffff <CONFIG_SYSTEM_WORKQUEUE_PRIORITY+0xff800000>
    3624:	00e7f7b3          	and	a5,a5,a4
    3628:	bf1ff06f          	j	3218 <__adddf3+0x2bc>
    362c:	00070793          	mv	a5,a4
    3630:	00060593          	mv	a1,a2
    3634:	00050413          	mv	s0,a0
    3638:	be1ff06f          	j	3218 <__adddf3+0x2bc>
    363c:	00070793          	mv	a5,a4
    3640:	00060593          	mv	a1,a2
    3644:	bd5ff06f          	j	3218 <__adddf3+0x2bc>
    3648:	7ff00413          	li	s0,2047
    364c:	00000793          	li	a5,0
    3650:	00000593          	li	a1,0
    3654:	00800737          	lui	a4,0x800
    3658:	00e7f733          	and	a4,a5,a4
    365c:	00070e63          	beqz	a4,3678 <__adddf3+0x71c>
    3660:	00140413          	addi	s0,s0,1
    3664:	7ff00713          	li	a4,2047
    3668:	0ce40063          	beq	s0,a4,3728 <__adddf3+0x7cc>
    366c:	ff800737          	lui	a4,0xff800
    3670:	fff70713          	addi	a4,a4,-1 # ff7fffff <CONFIG_SYSTEM_WORKQUEUE_PRIORITY+0xff800000>
    3674:	00e7f7b3          	and	a5,a5,a4
    3678:	01d79713          	slli	a4,a5,0x1d
    367c:	0035d513          	srli	a0,a1,0x3
    3680:	00a76533          	or	a0,a4,a0
    3684:	7ff00713          	li	a4,2047
    3688:	0037d793          	srli	a5,a5,0x3
    368c:	00e41e63          	bne	s0,a4,36a8 <__adddf3+0x74c>
    3690:	00f56533          	or	a0,a0,a5
    3694:	00000793          	li	a5,0
    3698:	00050863          	beqz	a0,36a8 <__adddf3+0x74c>
    369c:	000807b7          	lui	a5,0x80
    36a0:	00000513          	li	a0,0
    36a4:	00000493          	li	s1,0
    36a8:	01441713          	slli	a4,s0,0x14
    36ac:	7ff006b7          	lui	a3,0x7ff00
    36b0:	00c79793          	slli	a5,a5,0xc
    36b4:	01c12083          	lw	ra,28(sp)
    36b8:	01812403          	lw	s0,24(sp)
    36bc:	00d77733          	and	a4,a4,a3
    36c0:	00c7d793          	srli	a5,a5,0xc
    36c4:	01f49493          	slli	s1,s1,0x1f
    36c8:	00f767b3          	or	a5,a4,a5
    36cc:	0097e733          	or	a4,a5,s1
    36d0:	01012903          	lw	s2,16(sp)
    36d4:	01412483          	lw	s1,20(sp)
    36d8:	00c12983          	lw	s3,12(sp)
    36dc:	00070593          	mv	a1,a4
    36e0:	02010113          	addi	sp,sp,32
    36e4:	00008067          	ret
    36e8:	00080413          	mv	s0,a6
    36ec:	b2dff06f          	j	3218 <__adddf3+0x2bc>
    36f0:	00070793          	mv	a5,a4
    36f4:	00060593          	mv	a1,a2
    36f8:	00050413          	mv	s0,a0
    36fc:	da5ff06f          	j	34a0 <__adddf3+0x544>
    3700:	00000793          	li	a5,0
    3704:	00000593          	li	a1,0
    3708:	00000493          	li	s1,0
    370c:	f49ff06f          	j	3654 <__adddf3+0x6f8>
    3710:	00000793          	li	a5,0
    3714:	ff5ff06f          	j	3708 <__adddf3+0x7ac>
    3718:	00000593          	li	a1,0
    371c:	00000493          	li	s1,0
    3720:	004007b7          	lui	a5,0x400
    3724:	b35ff06f          	j	3258 <__adddf3+0x2fc>
    3728:	00000793          	li	a5,0
    372c:	00000593          	li	a1,0
    3730:	f49ff06f          	j	3678 <__adddf3+0x71c>

00003734 <__eqdf2>:
    3734:	0145d713          	srli	a4,a1,0x14
    3738:	001007b7          	lui	a5,0x100
    373c:	fff78793          	addi	a5,a5,-1 # fffff <__data_region_end+0xf165f>
    3740:	0146d813          	srli	a6,a3,0x14
    3744:	00050313          	mv	t1,a0
    3748:	00050e93          	mv	t4,a0
    374c:	7ff77713          	andi	a4,a4,2047
    3750:	7ff00513          	li	a0,2047
    3754:	00b7f8b3          	and	a7,a5,a1
    3758:	00060f13          	mv	t5,a2
    375c:	00d7f7b3          	and	a5,a5,a3
    3760:	01f5d593          	srli	a1,a1,0x1f
    3764:	7ff87813          	andi	a6,a6,2047
    3768:	01f6d693          	srli	a3,a3,0x1f
    376c:	00a71c63          	bne	a4,a0,3784 <__eqdf2+0x50>
    3770:	0068ee33          	or	t3,a7,t1
    3774:	00100513          	li	a0,1
    3778:	000e1463          	bnez	t3,3780 <__eqdf2+0x4c>
    377c:	00e80663          	beq	a6,a4,3788 <__eqdf2+0x54>
    3780:	00008067          	ret
    3784:	00a81863          	bne	a6,a0,3794 <__eqdf2+0x60>
    3788:	00c7e633          	or	a2,a5,a2
    378c:	00100513          	li	a0,1
    3790:	fe0618e3          	bnez	a2,3780 <__eqdf2+0x4c>
    3794:	00100513          	li	a0,1
    3798:	ff0714e3          	bne	a4,a6,3780 <__eqdf2+0x4c>
    379c:	fef892e3          	bne	a7,a5,3780 <__eqdf2+0x4c>
    37a0:	ffee90e3          	bne	t4,t5,3780 <__eqdf2+0x4c>
    37a4:	00d58a63          	beq	a1,a3,37b8 <__eqdf2+0x84>
    37a8:	fc071ce3          	bnez	a4,3780 <__eqdf2+0x4c>
    37ac:	0068e533          	or	a0,a7,t1
    37b0:	00a03533          	snez	a0,a0
    37b4:	00008067          	ret
    37b8:	00000513          	li	a0,0
    37bc:	00008067          	ret

000037c0 <__ledf2>:
    37c0:	00100737          	lui	a4,0x100
    37c4:	fff70713          	addi	a4,a4,-1 # fffff <__data_region_end+0xf165f>
    37c8:	0145d813          	srli	a6,a1,0x14
    37cc:	00b778b3          	and	a7,a4,a1
    37d0:	00050793          	mv	a5,a0
    37d4:	00050313          	mv	t1,a0
    37d8:	7ff87813          	andi	a6,a6,2047
    37dc:	01f5d513          	srli	a0,a1,0x1f
    37e0:	7ff00e93          	li	t4,2047
    37e4:	0146d593          	srli	a1,a3,0x14
    37e8:	00d77733          	and	a4,a4,a3
    37ec:	00060e13          	mv	t3,a2
    37f0:	7ff5f593          	andi	a1,a1,2047
    37f4:	01f6d693          	srli	a3,a3,0x1f
    37f8:	01d81a63          	bne	a6,t4,380c <__ledf2+0x4c>
    37fc:	00f8eeb3          	or	t4,a7,a5
    3800:	080e8a63          	beqz	t4,3894 <__ledf2+0xd4>
    3804:	00200513          	li	a0,2
    3808:	00008067          	ret
    380c:	01d59663          	bne	a1,t4,3818 <__ledf2+0x58>
    3810:	00c76eb3          	or	t4,a4,a2
    3814:	fe0e98e3          	bnez	t4,3804 <__ledf2+0x44>
    3818:	08081063          	bnez	a6,3898 <__ledf2+0xd8>
    381c:	00f8e7b3          	or	a5,a7,a5
    3820:	0017b793          	seqz	a5,a5
    3824:	00059663          	bnez	a1,3830 <__ledf2+0x70>
    3828:	00c76633          	or	a2,a4,a2
    382c:	04060c63          	beqz	a2,3884 <__ledf2+0xc4>
    3830:	00079c63          	bnez	a5,3848 <__ledf2+0x88>
    3834:	00d51463          	bne	a0,a3,383c <__ledf2+0x7c>
    3838:	0305d063          	bge	a1,a6,3858 <__ledf2+0x98>
    383c:	04050063          	beqz	a0,387c <__ledf2+0xbc>
    3840:	fff00513          	li	a0,-1
    3844:	00008067          	ret
    3848:	fff00513          	li	a0,-1
    384c:	00068a63          	beqz	a3,3860 <__ledf2+0xa0>
    3850:	00068513          	mv	a0,a3
    3854:	00008067          	ret
    3858:	00b85663          	bge	a6,a1,3864 <__ledf2+0xa4>
    385c:	fe0502e3          	beqz	a0,3840 <__ledf2+0x80>
    3860:	00008067          	ret
    3864:	fd176ce3          	bltu	a4,a7,383c <__ledf2+0x7c>
    3868:	02e89263          	bne	a7,a4,388c <__ledf2+0xcc>
    386c:	fc6e68e3          	bltu	t3,t1,383c <__ledf2+0x7c>
    3870:	ffc366e3          	bltu	t1,t3,385c <__ledf2+0x9c>
    3874:	00000513          	li	a0,0
    3878:	00008067          	ret
    387c:	00100513          	li	a0,1
    3880:	00008067          	ret
    3884:	fe0798e3          	bnez	a5,3874 <__ledf2+0xb4>
    3888:	fb5ff06f          	j	383c <__ledf2+0x7c>
    388c:	fce8e8e3          	bltu	a7,a4,385c <__ledf2+0x9c>
    3890:	fe5ff06f          	j	3874 <__ledf2+0xb4>
    3894:	f7058ee3          	beq	a1,a6,3810 <__ledf2+0x50>
    3898:	f8059ee3          	bnez	a1,3834 <__ledf2+0x74>
    389c:	00000793          	li	a5,0
    38a0:	f89ff06f          	j	3828 <__ledf2+0x68>

000038a4 <__unorddf2>:
    38a4:	00100737          	lui	a4,0x100
    38a8:	fff70793          	addi	a5,a4,-1 # fffff <__data_region_end+0xf165f>
    38ac:	00b7f733          	and	a4,a5,a1
    38b0:	0145d593          	srli	a1,a1,0x14
    38b4:	00d7f7b3          	and	a5,a5,a3
    38b8:	7ff5f593          	andi	a1,a1,2047
    38bc:	0146d693          	srli	a3,a3,0x14
    38c0:	7ff00813          	li	a6,2047
    38c4:	7ff6f693          	andi	a3,a3,2047
    38c8:	01059863          	bne	a1,a6,38d8 <__unorddf2+0x34>
    38cc:	00a76733          	or	a4,a4,a0
    38d0:	00100513          	li	a0,1
    38d4:	00071c63          	bnez	a4,38ec <__unorddf2+0x48>
    38d8:	7ff00713          	li	a4,2047
    38dc:	00000513          	li	a0,0
    38e0:	00e69663          	bne	a3,a4,38ec <__unorddf2+0x48>
    38e4:	00c7e7b3          	or	a5,a5,a2
    38e8:	00f03533          	snez	a0,a5
    38ec:	00008067          	ret

000038f0 <__fixdfsi>:
    38f0:	0145d713          	srli	a4,a1,0x14
    38f4:	001006b7          	lui	a3,0x100
    38f8:	fff68793          	addi	a5,a3,-1 # fffff <__data_region_end+0xf165f>
    38fc:	7ff77713          	andi	a4,a4,2047
    3900:	3fe00613          	li	a2,1022
    3904:	00b7f7b3          	and	a5,a5,a1
    3908:	01f5d593          	srli	a1,a1,0x1f
    390c:	04e65e63          	bge	a2,a4,3968 <__fixdfsi+0x78>
    3910:	41d00613          	li	a2,1053
    3914:	00e65a63          	bge	a2,a4,3928 <__fixdfsi+0x38>
    3918:	80000537          	lui	a0,0x80000
    391c:	fff54513          	not	a0,a0
    3920:	00a58533          	add	a0,a1,a0
    3924:	00008067          	ret
    3928:	00d7e7b3          	or	a5,a5,a3
    392c:	43300693          	li	a3,1075
    3930:	40e686b3          	sub	a3,a3,a4
    3934:	01f00613          	li	a2,31
    3938:	02d64063          	blt	a2,a3,3958 <__fixdfsi+0x68>
    393c:	bed70713          	addi	a4,a4,-1043
    3940:	00e797b3          	sll	a5,a5,a4
    3944:	00d55533          	srl	a0,a0,a3
    3948:	00a7e533          	or	a0,a5,a0
    394c:	02058063          	beqz	a1,396c <__fixdfsi+0x7c>
    3950:	40a00533          	neg	a0,a0
    3954:	00008067          	ret
    3958:	41300513          	li	a0,1043
    395c:	40e50533          	sub	a0,a0,a4
    3960:	00a7d533          	srl	a0,a5,a0
    3964:	fe9ff06f          	j	394c <__fixdfsi+0x5c>
    3968:	00000513          	li	a0,0
    396c:	00008067          	ret

00003970 <__floatsidf>:
    3970:	ff010113          	addi	sp,sp,-16
    3974:	00112623          	sw	ra,12(sp)
    3978:	00812423          	sw	s0,8(sp)
    397c:	00912223          	sw	s1,4(sp)
    3980:	08050663          	beqz	a0,3a0c <__floatsidf+0x9c>
    3984:	41f55793          	srai	a5,a0,0x1f
    3988:	00a7c433          	xor	s0,a5,a0
    398c:	40f40433          	sub	s0,s0,a5
    3990:	01f55493          	srli	s1,a0,0x1f
    3994:	00040513          	mv	a0,s0
    3998:	959fc0ef          	jal	ra,2f0 <__clzsi2>
    399c:	41e00713          	li	a4,1054
    39a0:	00a00793          	li	a5,10
    39a4:	40a70733          	sub	a4,a4,a0
    39a8:	04a7c863          	blt	a5,a0,39f8 <__floatsidf+0x88>
    39ac:	00b00793          	li	a5,11
    39b0:	40a787b3          	sub	a5,a5,a0
    39b4:	01550513          	addi	a0,a0,21 # 80000015 <CONFIG_SYSTEM_WORKQUEUE_PRIORITY+0x80000016>
    39b8:	00f457b3          	srl	a5,s0,a5
    39bc:	00a41433          	sll	s0,s0,a0
    39c0:	00048513          	mv	a0,s1
    39c4:	00c79793          	slli	a5,a5,0xc
    39c8:	01471713          	slli	a4,a4,0x14
    39cc:	00c7d793          	srli	a5,a5,0xc
    39d0:	01f51513          	slli	a0,a0,0x1f
    39d4:	00f767b3          	or	a5,a4,a5
    39d8:	00c12083          	lw	ra,12(sp)
    39dc:	00a7e733          	or	a4,a5,a0
    39e0:	00040513          	mv	a0,s0
    39e4:	00812403          	lw	s0,8(sp)
    39e8:	00412483          	lw	s1,4(sp)
    39ec:	00070593          	mv	a1,a4
    39f0:	01010113          	addi	sp,sp,16
    39f4:	00008067          	ret
    39f8:	ff550513          	addi	a0,a0,-11
    39fc:	00a417b3          	sll	a5,s0,a0
    3a00:	00048513          	mv	a0,s1
    3a04:	00000413          	li	s0,0
    3a08:	fbdff06f          	j	39c4 <__floatsidf+0x54>
    3a0c:	00000713          	li	a4,0
    3a10:	00000793          	li	a5,0
    3a14:	ff1ff06f          	j	3a04 <__floatsidf+0x94>

00003a18 <__trunctfdf2>:
    3a18:	fd010113          	addi	sp,sp,-48
    3a1c:	00852783          	lw	a5,8(a0)
    3a20:	02812423          	sw	s0,40(sp)
    3a24:	00c52403          	lw	s0,12(a0)
    3a28:	00452703          	lw	a4,4(a0)
    3a2c:	00052683          	lw	a3,0(a0)
    3a30:	00f12423          	sw	a5,8(sp)
    3a34:	00f12c23          	sw	a5,24(sp)
    3a38:	01041793          	slli	a5,s0,0x10
    3a3c:	00e12223          	sw	a4,4(sp)
    3a40:	00e12a23          	sw	a4,20(sp)
    3a44:	0107d793          	srli	a5,a5,0x10
    3a48:	00141713          	slli	a4,s0,0x1
    3a4c:	00812623          	sw	s0,12(sp)
    3a50:	02112623          	sw	ra,44(sp)
    3a54:	02912223          	sw	s1,36(sp)
    3a58:	00d12023          	sw	a3,0(sp)
    3a5c:	00d12823          	sw	a3,16(sp)
    3a60:	00f12e23          	sw	a5,28(sp)
    3a64:	01175713          	srli	a4,a4,0x11
    3a68:	01f45413          	srli	s0,s0,0x1f
    3a6c:	01010513          	addi	a0,sp,16
    3a70:	01c10613          	addi	a2,sp,28
    3a74:	00062783          	lw	a5,0(a2)
    3a78:	ffc62683          	lw	a3,-4(a2)
    3a7c:	ffc60613          	addi	a2,a2,-4
    3a80:	00379793          	slli	a5,a5,0x3
    3a84:	01d6d693          	srli	a3,a3,0x1d
    3a88:	00d7e7b3          	or	a5,a5,a3
    3a8c:	00f62223          	sw	a5,4(a2)
    3a90:	fec512e3          	bne	a0,a2,3a74 <__trunctfdf2+0x5c>
    3a94:	01012683          	lw	a3,16(sp)
    3a98:	00170793          	addi	a5,a4,1
    3a9c:	00369593          	slli	a1,a3,0x3
    3aa0:	000086b7          	lui	a3,0x8
    3aa4:	ffe68693          	addi	a3,a3,-2 # 7ffe <_printf_float+0x276>
    3aa8:	00b12823          	sw	a1,16(sp)
    3aac:	00d7f7b3          	and	a5,a5,a3
    3ab0:	1c078063          	beqz	a5,3c70 <__trunctfdf2+0x258>
    3ab4:	ffffc7b7          	lui	a5,0xffffc
    3ab8:	40078793          	addi	a5,a5,1024 # ffffc400 <CONFIG_SYSTEM_WORKQUEUE_PRIORITY+0xffffc401>
    3abc:	00f70733          	add	a4,a4,a5
    3ac0:	7fe00793          	li	a5,2046
    3ac4:	20e7c263          	blt	a5,a4,3cc8 <__trunctfdf2+0x2b0>
    3ac8:	06e05863          	blez	a4,3b38 <__trunctfdf2+0x120>
    3acc:	01812503          	lw	a0,24(sp)
    3ad0:	01c12603          	lw	a2,28(sp)
    3ad4:	01412783          	lw	a5,20(sp)
    3ad8:	01c55693          	srli	a3,a0,0x1c
    3adc:	00461613          	slli	a2,a2,0x4
    3ae0:	00d66633          	or	a2,a2,a3
    3ae4:	00479693          	slli	a3,a5,0x4
    3ae8:	00b6e6b3          	or	a3,a3,a1
    3aec:	01c7d793          	srli	a5,a5,0x1c
    3af0:	00451513          	slli	a0,a0,0x4
    3af4:	00d036b3          	snez	a3,a3
    3af8:	00a7e7b3          	or	a5,a5,a0
    3afc:	00f6e6b3          	or	a3,a3,a5
    3b00:	00c12a23          	sw	a2,20(sp)
    3b04:	00d12823          	sw	a3,16(sp)
    3b08:	01012683          	lw	a3,16(sp)
    3b0c:	01412783          	lw	a5,20(sp)
    3b10:	0076f613          	andi	a2,a3,7
    3b14:	1c060063          	beqz	a2,3cd4 <__trunctfdf2+0x2bc>
    3b18:	00f6f613          	andi	a2,a3,15
    3b1c:	00400593          	li	a1,4
    3b20:	1ab60a63          	beq	a2,a1,3cd4 <__trunctfdf2+0x2bc>
    3b24:	00468613          	addi	a2,a3,4
    3b28:	00d636b3          	sltu	a3,a2,a3
    3b2c:	00d787b3          	add	a5,a5,a3
    3b30:	00060693          	mv	a3,a2
    3b34:	1a00006f          	j	3cd4 <__trunctfdf2+0x2bc>
    3b38:	fcc00793          	li	a5,-52
    3b3c:	00f75c63          	bge	a4,a5,3b54 <__trunctfdf2+0x13c>
    3b40:	00012a23          	sw	zero,20(sp)
    3b44:	00100793          	li	a5,1
    3b48:	00f12823          	sw	a5,16(sp)
    3b4c:	00000713          	li	a4,0
    3b50:	fb9ff06f          	j	3b08 <__trunctfdf2+0xf0>
    3b54:	01c12783          	lw	a5,28(sp)
    3b58:	000808b7          	lui	a7,0x80
    3b5c:	00050593          	mv	a1,a0
    3b60:	00f8e8b3          	or	a7,a7,a5
    3b64:	03d00793          	li	a5,61
    3b68:	40e78733          	sub	a4,a5,a4
    3b6c:	01112e23          	sw	a7,28(sp)
    3b70:	40575793          	srai	a5,a4,0x5
    3b74:	00000693          	li	a3,0
    3b78:	00000493          	li	s1,0
    3b7c:	0005a803          	lw	a6,0(a1)
    3b80:	00168693          	addi	a3,a3,1
    3b84:	00458593          	addi	a1,a1,4
    3b88:	0104e4b3          	or	s1,s1,a6
    3b8c:	fed798e3          	bne	a5,a3,3b7c <__trunctfdf2+0x164>
    3b90:	01f77713          	andi	a4,a4,31
    3b94:	00279693          	slli	a3,a5,0x2
    3b98:	02071863          	bnez	a4,3bc8 <__trunctfdf2+0x1b0>
    3b9c:	00300593          	li	a1,3
    3ba0:	40f585b3          	sub	a1,a1,a5
    3ba4:	00d60833          	add	a6,a2,a3
    3ba8:	00082803          	lw	a6,0(a6)
    3bac:	00170713          	addi	a4,a4,1
    3bb0:	00460613          	addi	a2,a2,4
    3bb4:	ff062e23          	sw	a6,-4(a2)
    3bb8:	fee5d6e3          	bge	a1,a4,3ba4 <__trunctfdf2+0x18c>
    3bbc:	00400713          	li	a4,4
    3bc0:	40f707b3          	sub	a5,a4,a5
    3bc4:	0580006f          	j	3c1c <__trunctfdf2+0x204>
    3bc8:	ffc00e13          	li	t3,-4
    3bcc:	03c78e33          	mul	t3,a5,t3
    3bd0:	02010613          	addi	a2,sp,32
    3bd4:	00d60633          	add	a2,a2,a3
    3bd8:	ff062603          	lw	a2,-16(a2)
    3bdc:	02000813          	li	a6,32
    3be0:	40e80833          	sub	a6,a6,a4
    3be4:	01061633          	sll	a2,a2,a6
    3be8:	00c4e4b3          	or	s1,s1,a2
    3bec:	00300613          	li	a2,3
    3bf0:	00d506b3          	add	a3,a0,a3
    3bf4:	00000313          	li	t1,0
    3bf8:	40f60633          	sub	a2,a2,a5
    3bfc:	04c34663          	blt	t1,a2,3c48 <__trunctfdf2+0x230>
    3c00:	00400693          	li	a3,4
    3c04:	40f687b3          	sub	a5,a3,a5
    3c08:	00261613          	slli	a2,a2,0x2
    3c0c:	02010693          	addi	a3,sp,32
    3c10:	00c68633          	add	a2,a3,a2
    3c14:	00e8d733          	srl	a4,a7,a4
    3c18:	fee62823          	sw	a4,-16(a2)
    3c1c:	00400613          	li	a2,4
    3c20:	40f60633          	sub	a2,a2,a5
    3c24:	00279793          	slli	a5,a5,0x2
    3c28:	00f50533          	add	a0,a0,a5
    3c2c:	00261613          	slli	a2,a2,0x2
    3c30:	00000593          	li	a1,0
    3c34:	b0cff0ef          	jal	ra,2f40 <memset>
    3c38:	01012703          	lw	a4,16(sp)
    3c3c:	009037b3          	snez	a5,s1
    3c40:	00f767b3          	or	a5,a4,a5
    3c44:	f05ff06f          	j	3b48 <__trunctfdf2+0x130>
    3c48:	0006a583          	lw	a1,0(a3)
    3c4c:	0046ae83          	lw	t4,4(a3)
    3c50:	01c68f33          	add	t5,a3,t3
    3c54:	00e5d5b3          	srl	a1,a1,a4
    3c58:	010e9eb3          	sll	t4,t4,a6
    3c5c:	01d5e5b3          	or	a1,a1,t4
    3c60:	00bf2023          	sw	a1,0(t5)
    3c64:	00130313          	addi	t1,t1,1
    3c68:	00468693          	addi	a3,a3,4
    3c6c:	f91ff06f          	j	3bfc <__trunctfdf2+0x1e4>
    3c70:	01412603          	lw	a2,20(sp)
    3c74:	01812783          	lw	a5,24(sp)
    3c78:	01c12503          	lw	a0,28(sp)
    3c7c:	00c7e6b3          	or	a3,a5,a2
    3c80:	00a6e6b3          	or	a3,a3,a0
    3c84:	00b6e6b3          	or	a3,a3,a1
    3c88:	00071863          	bnez	a4,3c98 <__trunctfdf2+0x280>
    3c8c:	00d036b3          	snez	a3,a3
    3c90:	00000793          	li	a5,0
    3c94:	e7dff06f          	j	3b10 <__trunctfdf2+0xf8>
    3c98:	0c068663          	beqz	a3,3d64 <__trunctfdf2+0x34c>
    3c9c:	01c65693          	srli	a3,a2,0x1c
    3ca0:	00451513          	slli	a0,a0,0x4
    3ca4:	00479613          	slli	a2,a5,0x4
    3ca8:	01c7d793          	srli	a5,a5,0x1c
    3cac:	00400737          	lui	a4,0x400
    3cb0:	00c6e6b3          	or	a3,a3,a2
    3cb4:	00a7e7b3          	or	a5,a5,a0
    3cb8:	00e7e7b3          	or	a5,a5,a4
    3cbc:	ff86f693          	andi	a3,a3,-8
    3cc0:	7ff00713          	li	a4,2047
    3cc4:	e4dff06f          	j	3b10 <__trunctfdf2+0xf8>
    3cc8:	00000793          	li	a5,0
    3ccc:	00000693          	li	a3,0
    3cd0:	7ff00713          	li	a4,2047
    3cd4:	00800637          	lui	a2,0x800
    3cd8:	00c7f633          	and	a2,a5,a2
    3cdc:	00060e63          	beqz	a2,3cf8 <__trunctfdf2+0x2e0>
    3ce0:	00170713          	addi	a4,a4,1 # 400001 <__data_region_end+0x3f1661>
    3ce4:	7ff00613          	li	a2,2047
    3ce8:	08c70263          	beq	a4,a2,3d6c <__trunctfdf2+0x354>
    3cec:	ff800637          	lui	a2,0xff800
    3cf0:	fff60613          	addi	a2,a2,-1 # ff7fffff <CONFIG_SYSTEM_WORKQUEUE_PRIORITY+0xff800000>
    3cf4:	00c7f7b3          	and	a5,a5,a2
    3cf8:	01d79613          	slli	a2,a5,0x1d
    3cfc:	0036d693          	srli	a3,a3,0x3
    3d00:	00d666b3          	or	a3,a2,a3
    3d04:	7ff00613          	li	a2,2047
    3d08:	0037d793          	srli	a5,a5,0x3
    3d0c:	00c71e63          	bne	a4,a2,3d28 <__trunctfdf2+0x310>
    3d10:	00f6e6b3          	or	a3,a3,a5
    3d14:	00000793          	li	a5,0
    3d18:	00068863          	beqz	a3,3d28 <__trunctfdf2+0x310>
    3d1c:	000807b7          	lui	a5,0x80
    3d20:	00000693          	li	a3,0
    3d24:	00000413          	li	s0,0
    3d28:	01471713          	slli	a4,a4,0x14
    3d2c:	7ff00637          	lui	a2,0x7ff00
    3d30:	00c79793          	slli	a5,a5,0xc
    3d34:	00c77733          	and	a4,a4,a2
    3d38:	00c7d793          	srli	a5,a5,0xc
    3d3c:	01f41413          	slli	s0,s0,0x1f
    3d40:	00f767b3          	or	a5,a4,a5
    3d44:	02c12083          	lw	ra,44(sp)
    3d48:	0087e733          	or	a4,a5,s0
    3d4c:	02812403          	lw	s0,40(sp)
    3d50:	02412483          	lw	s1,36(sp)
    3d54:	00068513          	mv	a0,a3
    3d58:	00070593          	mv	a1,a4
    3d5c:	03010113          	addi	sp,sp,48
    3d60:	00008067          	ret
    3d64:	00000793          	li	a5,0
    3d68:	f69ff06f          	j	3cd0 <__trunctfdf2+0x2b8>
    3d6c:	00000793          	li	a5,0
    3d70:	00000693          	li	a3,0
    3d74:	f85ff06f          	j	3cf8 <__trunctfdf2+0x2e0>

00003d78 <_OffsetAbsSyms>:
 * point regs
 */
GEN_ABSOLUTE_SYM(_K_THREAD_NO_FLOAT_SIZEOF,
		 STACK_ROUND_UP(sizeof(struct k_thread)));

GEN_ABS_SYM_END
    3d78:	00008067          	ret

00003d7c <my_isr>:
}

void my_isr(const void *arg) {
    volatile int *acceleratorGIER = (int *)(ACCELERATOR_BASE_ADDRESS + 0x04);
    volatile int *acceleratorIP_IER = (int *)(ACCELERATOR_BASE_ADDRESS + 0x08);
    *acceleratorGIER = 0;
    3d7c:	900007b7          	lui	a5,0x90000
    3d80:	0007a223          	sw	zero,4(a5) # 90000004 <CONFIG_SYSTEM_WORKQUEUE_PRIORITY+0x90000005>
    *acceleratorIP_IER = 0;
    3d84:	0007a423          	sw	zero,8(a5)
    *acceleratorBusyFlag = 0;
    3d88:	0000e7b7          	lui	a5,0xe
    3d8c:	6ec7a783          	lw	a5,1772(a5) # e6ec <acceleratorBusyFlag>
    3d90:	0007a023          	sw	zero,0(a5)
		arch_syscall_invoke1(*(uintptr_t *)&sem, K_SYSCALL_K_SEM_GIVE);
		return;
	}
#endif
	compiler_barrier();
	z_impl_k_sem_give(sem);
    3d94:	0000f537          	lui	a0,0xf
    3d98:	99050513          	addi	a0,a0,-1648 # e990 <usingAccelerator_sem>
    3d9c:	1810206f          	j	671c <z_impl_k_sem_give>

00003da0 <thread_accelerator>:

		k_sem_give(&thread_accelerator_sem);
    }
}

void thread_accelerator() {
    3da0:	fd010113          	addi	sp,sp,-48
    3da4:	01312e23          	sw	s3,28(sp)
    3da8:	01412c23          	sw	s4,24(sp)
    3dac:	01512a23          	sw	s5,20(sp)
    3db0:	01612823          	sw	s6,16(sp)
    3db4:	01712623          	sw	s7,12(sp)
    3db8:	01812423          	sw	s8,8(sp)
    3dbc:	01912223          	sw	s9,4(sp)
    3dc0:	01a12023          	sw	s10,0(sp)
    3dc4:	02112623          	sw	ra,44(sp)
    3dc8:	02812423          	sw	s0,40(sp)
    3dcc:	02912223          	sw	s1,36(sp)
    3dd0:	03212023          	sw	s2,32(sp)
	return z_impl_k_sem_take(sem, timeout);
    3dd4:	0000fd37          	lui	s10,0xf
        // uint32_t start_ms, finish_ms;
    while(1) {
        k_sem_take(&thread_accelerator_sem, K_FOREVER);

        printf("Perfoming matmul between identity and matrix %d in hardware!\n", matrixID);
    3dd8:	0000dcb7          	lui	s9,0xd
    3ddc:	0000cc37          	lui	s8,0xc
        multiply_mat_hw(mat_address_1, mat_address_2, RESULT_HW_BASE_ADDRESS, mat_rows_1, mat_cols_1, mat_cols_2);
    3de0:	0000dbb7          	lui	s7,0xd
    3de4:	0000dab7          	lui	s5,0xd
    3de8:	0000db37          	lui	s6,0xd
    3dec:	0000da37          	lui	s4,0xd
    3df0:	0000d9b7          	lui	s3,0xd
    3df4:	fff00613          	li	a2,-1
    3df8:	fff00593          	li	a1,-1
    3dfc:	970d0513          	addi	a0,s10,-1680 # e970 <thread_accelerator_sem>
    3e00:	189020ef          	jal	ra,6788 <z_impl_k_sem_take>
        printf("Perfoming matmul between identity and matrix %d in hardware!\n", matrixID);
    3e04:	c10ca583          	lw	a1,-1008(s9) # cc10 <matrixID>
    3e08:	530c0513          	addi	a0,s8,1328 # c530 <__mprec_tens+0xc8>
        multiply_mat_hw(mat_address_1, mat_address_2, RESULT_HW_BASE_ADDRESS, mat_rows_1, mat_cols_1, mat_cols_2);
    3e0c:	bfcb8913          	addi	s2,s7,-1028 # cbfc <mat_cols_2>
        printf("Perfoming matmul between identity and matrix %d in hardware!\n", matrixID);
    3e10:	45d040ef          	jal	ra,8a6c <iprintf>
        multiply_mat_hw(mat_address_1, mat_address_2, RESULT_HW_BASE_ADDRESS, mat_rows_1, mat_cols_1, mat_cols_2);
    3e14:	c00b0493          	addi	s1,s6,-1024 # cc00 <mat_rows_1>
    3e18:	00092783          	lw	a5,0(s2)
    3e1c:	bf8aa703          	lw	a4,-1032(s5) # cbf8 <mat_cols_1>
    3e20:	0004a683          	lw	a3,0(s1) # 80000 <__data_region_end+0x71660>
    3e24:	bf4a2583          	lw	a1,-1036(s4) # cbf4 <mat_address_2>
    3e28:	bf09a503          	lw	a0,-1040(s3) # cbf0 <mat_address_1>
    3e2c:	02000437          	lui	s0,0x2000
    3e30:	50040613          	addi	a2,s0,1280 # 2000500 <__data_region_end+0x1ff1b60>
    3e34:	634000ef          	jal	ra,4468 <multiply_mat_hw>
	z_impl_k_sem_give(sem);
    3e38:	0000f537          	lui	a0,0xf
    3e3c:	98050513          	addi	a0,a0,-1664 # e980 <thread_software_sem>
    3e40:	0dd020ef          	jal	ra,671c <z_impl_k_sem_give>
	return z_impl_k_sem_take(sem, timeout);
    3e44:	0000f537          	lui	a0,0xf
    3e48:	fff00593          	li	a1,-1
    3e4c:	fff00613          	li	a2,-1
    3e50:	99050513          	addi	a0,a0,-1648 # e990 <usingAccelerator_sem>
    3e54:	135020ef          	jal	ra,6788 <z_impl_k_sem_take>

		k_sem_give(&thread_software_sem);

        k_sem_take(&usingAccelerator_sem, K_FOREVER);
        int num_errors = verify_matmul(RESULT_HW_BASE_ADDRESS, RESULT_SW_BASE_ADDRESS, mat_rows_1, mat_cols_2);
    3e58:	00092683          	lw	a3,0(s2)
    3e5c:	0004a603          	lw	a2,0(s1)
    3e60:	40040593          	addi	a1,s0,1024
    3e64:	50040513          	addi	a0,s0,1280
    3e68:	3d4000ef          	jal	ra,423c <verify_matmul>
    3e6c:	00050593          	mv	a1,a0
        printf("Hardware matmul done with %d errors!\n", num_errors);
    3e70:	0000c537          	lui	a0,0xc
    3e74:	57050513          	addi	a0,a0,1392 # c570 <__mprec_tens+0x108>
    3e78:	3f5040ef          	jal	ra,8a6c <iprintf>
    while(1) {
    3e7c:	f79ff06f          	j	3df4 <thread_accelerator+0x54>

00003e80 <my_isr_installer>:
    arch_irq_enable(MY_DEV_IRQ);
    3e80:	00f00513          	li	a0,15
    3e84:	1350106f          	j	57b8 <arch_irq_enable>

00003e88 <init_mats>:

    }
}

void init_mats() {
    3e88:	fd010113          	addi	sp,sp,-48
    for(int i=0; i<MATI_ROWS ; i++)
        for(int j=0; j<MATI_COLS; j++) {
            if(i == j) matI[i*MATI_COLS + j] = 1;
            else matI[i*MATI_COLS + j] = 0;
    3e8c:	0000e7b7          	lui	a5,0xe
void init_mats() {
    3e90:	01412c23          	sw	s4,24(sp)
            else matI[i*MATI_COLS + j] = 0;
    3e94:	6fc7aa03          	lw	s4,1788(a5) # e6fc <matI>
            mat1[i*MATI_COLS + j] = 1;
    3e98:	0000e7b7          	lui	a5,0xe
void init_mats() {
    3e9c:	01512a23          	sw	s5,20(sp)
            mat1[i*MATI_COLS + j] = 1;
    3ea0:	6f07aa83          	lw	s5,1776(a5) # e6f0 <mat1>
            mat2[i*MATI_COLS + j] = 2;
    3ea4:	0000e7b7          	lui	a5,0xe
void init_mats() {
    3ea8:	01612823          	sw	s6,16(sp)
            mat2[i*MATI_COLS + j] = 2;
    3eac:	6f47ab03          	lw	s6,1780(a5) # e6f4 <mat2>
            mat3[i*MATI_COLS + j] = i;
    3eb0:	0000e7b7          	lui	a5,0xe
void init_mats() {
    3eb4:	01712623          	sw	s7,12(sp)
            mat3[i*MATI_COLS + j] = i;
    3eb8:	6f87ab83          	lw	s7,1784(a5) # e6f8 <mat3>
    3ebc:	0000c7b7          	lui	a5,0xc
void init_mats() {
    3ec0:	01312e23          	sw	s3,28(sp)
            if(i == j) matI[i*MATI_COLS + j] = 1;
    3ec4:	2707a983          	lw	s3,624(a5) # c270 <__device_handles_end+0x58>
            mat2[i*MATI_COLS + j] = 2;
    3ec8:	0000c7b7          	lui	a5,0xc
void init_mats() {
    3ecc:	01812423          	sw	s8,8(sp)
            mat2[i*MATI_COLS + j] = 2;
    3ed0:	2747ac03          	lw	s8,628(a5) # c274 <__device_handles_end+0x5c>
void init_mats() {
    3ed4:	02912223          	sw	s1,36(sp)
    3ed8:	01912223          	sw	s9,4(sp)
    3edc:	02112623          	sw	ra,44(sp)
    3ee0:	02812423          	sw	s0,40(sp)
    3ee4:	03212023          	sw	s2,32(sp)
    3ee8:	01a12023          	sw	s10,0(sp)
    for(int i=0; i<MATI_ROWS ; i++)
    3eec:	00000493          	li	s1,0
        for(int j=0; j<MATI_COLS; j++) {
    3ef0:	00800c93          	li	s9,8
    3ef4:	00549413          	slli	s0,s1,0x5
    3ef8:	00000913          	li	s2,0
            if(i == j) matI[i*MATI_COLS + j] = 1;
    3efc:	008a07b3          	add	a5,s4,s0
    3f00:	07249a63          	bne	s1,s2,3f74 <init_mats+0xec>
    3f04:	0137a023          	sw	s3,0(a5)
            mat1[i*MATI_COLS + j] = 1;
    3f08:	008a87b3          	add	a5,s5,s0
    3f0c:	0137a023          	sw	s3,0(a5)
            mat2[i*MATI_COLS + j] = 2;
    3f10:	008b07b3          	add	a5,s6,s0
    3f14:	0187a023          	sw	s8,0(a5)
            mat3[i*MATI_COLS + j] = i;
    3f18:	00048513          	mv	a0,s1
    3f1c:	008b8d33          	add	s10,s7,s0
    3f20:	e19fe0ef          	jal	ra,2d38 <__floatsisf>
    3f24:	00ad2023          	sw	a0,0(s10)
        for(int j=0; j<MATI_COLS; j++) {
    3f28:	00190913          	addi	s2,s2,1
    3f2c:	00440413          	addi	s0,s0,4
    3f30:	fd9916e3          	bne	s2,s9,3efc <init_mats+0x74>
    for(int i=0; i<MATI_ROWS ; i++)
    3f34:	00148493          	addi	s1,s1,1
    3f38:	fb249ee3          	bne	s1,s2,3ef4 <init_mats+0x6c>
        }
}
    3f3c:	02c12083          	lw	ra,44(sp)
    3f40:	02812403          	lw	s0,40(sp)
    3f44:	02412483          	lw	s1,36(sp)
    3f48:	02012903          	lw	s2,32(sp)
    3f4c:	01c12983          	lw	s3,28(sp)
    3f50:	01812a03          	lw	s4,24(sp)
    3f54:	01412a83          	lw	s5,20(sp)
    3f58:	01012b03          	lw	s6,16(sp)
    3f5c:	00c12b83          	lw	s7,12(sp)
    3f60:	00812c03          	lw	s8,8(sp)
    3f64:	00412c83          	lw	s9,4(sp)
    3f68:	00012d03          	lw	s10,0(sp)
    3f6c:	03010113          	addi	sp,sp,48
    3f70:	00008067          	ret
            else matI[i*MATI_COLS + j] = 0;
    3f74:	00000713          	li	a4,0
    3f78:	00e7a023          	sw	a4,0(a5)
    3f7c:	f8dff06f          	j	3f08 <init_mats+0x80>

00003f80 <main>:
    printf("Installing ISR...\n");
    3f80:	0000c537          	lui	a0,0xc
{
    3f84:	fd010113          	addi	sp,sp,-48
    printf("Installing ISR...\n");
    3f88:	59850513          	addi	a0,a0,1432 # c598 <__mprec_tens+0x130>
{
    3f8c:	02112623          	sw	ra,44(sp)
    3f90:	03212023          	sw	s2,32(sp)
    3f94:	01312e23          	sw	s3,28(sp)
    3f98:	02812423          	sw	s0,40(sp)
    3f9c:	02912223          	sw	s1,36(sp)
    printf("Installing ISR...\n");
    3fa0:	2cd040ef          	jal	ra,8a6c <iprintf>
    my_isr_installer();
    3fa4:	eddff0ef          	jal	ra,3e80 <my_isr_installer>
    printf("Defining matrices for matmul...\n");
    3fa8:	0000c537          	lui	a0,0xc
    3fac:	5ac50513          	addi	a0,a0,1452 # c5ac <__mprec_tens+0x144>
    3fb0:	2bd040ef          	jal	ra,8a6c <iprintf>
    init_mats();
    3fb4:	ed5ff0ef          	jal	ra,3e88 <init_mats>
    k_thread_create(&threadA_data, threadA_stack_area,
    3fb8:	fff00913          	li	s2,-1
    3fbc:	fff00993          	li	s3,-1
	return z_impl_k_thread_create(new_thread, stack, stack_size, entry, p1, p2, p3, prio, options, delay);
    3fc0:	0000d4b7          	lui	s1,0xd
    3fc4:	000046b7          	lui	a3,0x4
    3fc8:	0000d5b7          	lui	a1,0xd
    3fcc:	01212423          	sw	s2,8(sp)
    3fd0:	01312623          	sw	s3,12(sp)
    3fd4:	00012023          	sw	zero,0(sp)
    3fd8:	00700893          	li	a7,7
    3fdc:	00000813          	li	a6,0
    3fe0:	00000793          	li	a5,0
    3fe4:	00000713          	li	a4,0
    3fe8:	da068693          	addi	a3,a3,-608 # 3da0 <thread_accelerator>
    3fec:	40000613          	li	a2,1024
    3ff0:	f2058593          	addi	a1,a1,-224 # cf20 <threadA_stack_area>
    3ff4:	c5048513          	addi	a0,s1,-944 # cc50 <threadA_data>
    3ff8:	318020ef          	jal	ra,6310 <z_impl_k_thread_create>
	return z_impl_k_thread_name_set(thread, str);
    3ffc:	0000c5b7          	lui	a1,0xc
    4000:	5d058593          	addi	a1,a1,1488 # c5d0 <__mprec_tens+0x168>
    4004:	c5048513          	addi	a0,s1,-944
    4008:	20c020ef          	jal	ra,6214 <z_impl_k_thread_name_set>
	return z_impl_k_thread_create(new_thread, stack, stack_size, entry, p1, p2, p3, prio, options, delay);
    400c:	0000d437          	lui	s0,0xd
    4010:	000046b7          	lui	a3,0x4
    4014:	0000d5b7          	lui	a1,0xd
    4018:	01212423          	sw	s2,8(sp)
    401c:	01312623          	sw	s3,12(sp)
    4020:	00012023          	sw	zero,0(sp)
    4024:	00700893          	li	a7,7
    4028:	00000813          	li	a6,0
    402c:	00000793          	li	a5,0
    4030:	00000713          	li	a4,0
    4034:	16468693          	addi	a3,a3,356 # 4164 <thread_software>
    4038:	40000613          	li	a2,1024
    403c:	32058593          	addi	a1,a1,800 # d320 <threadB_stack_area>
    4040:	cf840513          	addi	a0,s0,-776 # ccf8 <threadB_data>
    4044:	2cc020ef          	jal	ra,6310 <z_impl_k_thread_create>
	return z_impl_k_thread_name_set(thread, str);
    4048:	0000c5b7          	lui	a1,0xc
    404c:	5e458593          	addi	a1,a1,1508 # c5e4 <__mprec_tens+0x17c>
    4050:	cf840513          	addi	a0,s0,-776
    4054:	1c0020ef          	jal	ra,6214 <z_impl_k_thread_name_set>
	z_impl_k_thread_start(thread);
    4058:	c5048513          	addi	a0,s1,-944
    405c:	1f8020ef          	jal	ra,6254 <z_impl_k_thread_start>
    4060:	cf840513          	addi	a0,s0,-776
    4064:	1f0020ef          	jal	ra,6254 <z_impl_k_thread_start>
}
    4068:	02c12083          	lw	ra,44(sp)
    406c:	02812403          	lw	s0,40(sp)
    4070:	02412483          	lw	s1,36(sp)
    4074:	02012903          	lw	s2,32(sp)
    4078:	01c12983          	lw	s3,28(sp)
    407c:	00000513          	li	a0,0
    4080:	03010113          	addi	sp,sp,48
    4084:	00008067          	ret

00004088 <define_mats>:

void define_mats() {
    mat_address_1 = MATI_BASE_ADDRESS;
    4088:	0000d737          	lui	a4,0xd
    408c:	020007b7          	lui	a5,0x2000
    mat_rows_1 = MATI_ROWS;
    4090:	0000d6b7          	lui	a3,0xd
    mat_address_1 = MATI_BASE_ADDRESS;
    4094:	bef72823          	sw	a5,-1040(a4) # cbf0 <mat_address_1>
    mat_rows_1 = MATI_ROWS;
    4098:	00800713          	li	a4,8
    409c:	c0e6a023          	sw	a4,-1024(a3) # cc00 <mat_rows_1>
    mat_cols_1 = MATI_COLS;
    40a0:	0000d6b7          	lui	a3,0xd
    40a4:	bee6ac23          	sw	a4,-1032(a3) # cbf8 <mat_cols_1>
    matrix1 = matI;
    40a8:	0000e6b7          	lui	a3,0xe
    40ac:	6fc6a883          	lw	a7,1788(a3) # e6fc <matI>
    40b0:	0000d6b7          	lui	a3,0xd
    40b4:	0000d537          	lui	a0,0xd
    40b8:	c116a423          	sw	a7,-1016(a3) # cc08 <matrix1>

    switch (matrixID) {
    40bc:	0000d6b7          	lui	a3,0xd
    40c0:	c106a803          	lw	a6,-1008(a3) # cc10 <matrixID>
    40c4:	0000d5b7          	lui	a1,0xd
    40c8:	0000d637          	lui	a2,0xd
    40cc:	0000d6b7          	lui	a3,0xd
    40d0:	00200313          	li	t1,2
    40d4:	bf450513          	addi	a0,a0,-1036 # cbf4 <mat_address_2>
    40d8:	c0458593          	addi	a1,a1,-1020 # cc04 <mat_rows_2>
    40dc:	bfc60613          	addi	a2,a2,-1028 # cbfc <mat_cols_2>
    40e0:	c0c68693          	addi	a3,a3,-1012 # cc0c <matrix2>
    40e4:	02680a63          	beq	a6,t1,4118 <define_mats+0x90>
    40e8:	00300313          	li	t1,3
    40ec:	04680463          	beq	a6,t1,4134 <define_mats+0xac>
    40f0:	00100313          	li	t1,1
    40f4:	04681e63          	bne	a6,t1,4150 <define_mats+0xc8>
    case 1:
        mat_address_2 = MAT1_BASE_ADDRESS;
    40f8:	10078793          	addi	a5,a5,256 # 2000100 <__data_region_end+0x1ff1760>
    40fc:	00f52023          	sw	a5,0(a0)
        mat_rows_2 = MAT1_ROWS;
        mat_cols_2 = MAT1_COLS;
        matrix2 = mat1;
    4100:	0000e7b7          	lui	a5,0xe
    4104:	6f07a783          	lw	a5,1776(a5) # e6f0 <mat1>
        mat_rows_2 = MAT1_ROWS;
    4108:	00e5a023          	sw	a4,0(a1)
        mat_cols_2 = MAT1_COLS;
    410c:	00e62023          	sw	a4,0(a2)
        break;
    case 2:
        mat_address_2 = MAT2_BASE_ADDRESS;
        mat_rows_2 = MAT2_ROWS;
        mat_cols_2 = MAT2_COLS;
        matrix2 = mat2;
    4110:	00f6a023          	sw	a5,0(a3)
        break;
    4114:	00008067          	ret
        mat_address_2 = MAT2_BASE_ADDRESS;
    4118:	20078793          	addi	a5,a5,512
    411c:	00f52023          	sw	a5,0(a0)
        matrix2 = mat2;
    4120:	0000e7b7          	lui	a5,0xe
    4124:	6f47a783          	lw	a5,1780(a5) # e6f4 <mat2>
        mat_rows_2 = MAT2_ROWS;
    4128:	00e5a023          	sw	a4,0(a1)
        mat_cols_2 = MAT2_COLS;
    412c:	00e62023          	sw	a4,0(a2)
        matrix2 = mat2;
    4130:	fe1ff06f          	j	4110 <define_mats+0x88>
    case 3:
        mat_address_2 = MAT3_BASE_ADDRESS;
    4134:	30078793          	addi	a5,a5,768
    4138:	00f52023          	sw	a5,0(a0)
        mat_rows_2 = MAT3_ROWS;
        mat_cols_2 = MAT3_COLS;
        matrix2 = mat3;
    413c:	0000e7b7          	lui	a5,0xe
    4140:	6f87a783          	lw	a5,1784(a5) # e6f8 <mat3>
        mat_rows_2 = MAT3_ROWS;
    4144:	00e5a023          	sw	a4,0(a1)
        mat_cols_2 = MAT3_COLS;
    4148:	00e62023          	sw	a4,0(a2)
        matrix2 = mat3;
    414c:	fc5ff06f          	j	4110 <define_mats+0x88>
        break;
    default:
        mat_address_2 = MATI_BASE_ADDRESS;
    4150:	00f52023          	sw	a5,0(a0)
        mat_rows_2 = MATI_ROWS;
    4154:	00e5a023          	sw	a4,0(a1)
        mat_cols_2 = MATI_COLS;
    4158:	00e62023          	sw	a4,0(a2)
        matrix2 = matI;
    415c:	0116a023          	sw	a7,0(a3)
    }
    4160:	00008067          	ret

00004164 <thread_software>:
void thread_software() {
    4164:	fd010113          	addi	sp,sp,-48
    4168:	02912223          	sw	s1,36(sp)
    416c:	03212023          	sw	s2,32(sp)
    4170:	01312e23          	sw	s3,28(sp)
    4174:	01412c23          	sw	s4,24(sp)
    4178:	01512a23          	sw	s5,20(sp)
    417c:	01612823          	sw	s6,16(sp)
    4180:	01712623          	sw	s7,12(sp)
    4184:	01812423          	sw	s8,8(sp)
    4188:	02112623          	sw	ra,44(sp)
    418c:	02812423          	sw	s0,40(sp)
	return z_impl_k_sem_take(sem, timeout);
    4190:	0000fc37          	lui	s8,0xf
        printf("Doing other stuff...\n");
    4194:	0000cbb7          	lui	s7,0xc
        printf("Defining matrices for matmul!\n");
    4198:	0000cb37          	lui	s6,0xc
        matrixID = sys_rand32_get()%NUM_MATS + 1;
    419c:	0000dab7          	lui	s5,0xd
        printf("Perfoming matmul between identity and matrix %d in software!\n", matrixID);
    41a0:	0000ca37          	lui	s4,0xc
        multiply_mat_sw(mat_address_1, mat_address_2, RESULT_SW_BASE_ADDRESS, mat_rows_1, mat_cols_1, mat_cols_2);
    41a4:	0000d9b7          	lui	s3,0xd
    41a8:	0000d937          	lui	s2,0xd
    41ac:	0000d4b7          	lui	s1,0xd
    41b0:	fff00593          	li	a1,-1
    41b4:	fff00613          	li	a2,-1
    41b8:	980c0513          	addi	a0,s8,-1664 # e980 <thread_software_sem>
    41bc:	5cc020ef          	jal	ra,6788 <z_impl_k_sem_take>
        printf("Doing other stuff...\n");
    41c0:	5f0b8513          	addi	a0,s7,1520 # c5f0 <__mprec_tens+0x188>
    41c4:	0a9040ef          	jal	ra,8a6c <iprintf>
	return z_impl_k_sleep(timeout);
    41c8:	00000593          	li	a1,0
    41cc:	03200513          	li	a0,50
    41d0:	11c030ef          	jal	ra,72ec <z_impl_k_sleep>
        printf("Defining matrices for matmul!\n");
    41d4:	608b0513          	addi	a0,s6,1544 # c608 <__mprec_tens+0x1a0>
    41d8:	095040ef          	jal	ra,8a6c <iprintf>
		/* coverity[OVERRUN] */
		return (uint32_t) arch_syscall_invoke0(K_SYSCALL_SYS_RAND32_GET);
	}
#endif
	compiler_barrier();
	return z_impl_sys_rand32_get();
    41dc:	454010ef          	jal	ra,5630 <z_impl_sys_rand32_get>
        matrixID = sys_rand32_get()%NUM_MATS + 1;
    41e0:	00300793          	li	a5,3
    41e4:	02f57533          	remu	a0,a0,a5
    41e8:	c10a8413          	addi	s0,s5,-1008 # cc10 <matrixID>
    41ec:	00150513          	addi	a0,a0,1
    41f0:	00a42023          	sw	a0,0(s0)
        define_mats();
    41f4:	e95ff0ef          	jal	ra,4088 <define_mats>
        printf("Perfoming matmul between identity and matrix %d in software!\n", matrixID);
    41f8:	00042583          	lw	a1,0(s0)
    41fc:	628a0513          	addi	a0,s4,1576 # c628 <__mprec_tens+0x1c0>
    4200:	06d040ef          	jal	ra,8a6c <iprintf>
        multiply_mat_sw(mat_address_1, mat_address_2, RESULT_SW_BASE_ADDRESS, mat_rows_1, mat_cols_1, mat_cols_2);
    4204:	0000d5b7          	lui	a1,0xd
    4208:	0000d537          	lui	a0,0xd
    420c:	bfc9a783          	lw	a5,-1028(s3) # cbfc <mat_cols_2>
    4210:	bf892703          	lw	a4,-1032(s2) # cbf8 <mat_cols_1>
    4214:	c004a683          	lw	a3,-1024(s1) # cc00 <mat_rows_1>
    4218:	bf45a583          	lw	a1,-1036(a1) # cbf4 <mat_address_2>
    421c:	bf052503          	lw	a0,-1040(a0) # cbf0 <mat_address_1>
    4220:	02000637          	lui	a2,0x2000
    4224:	40060613          	addi	a2,a2,1024 # 2000400 <__data_region_end+0x1ff1a60>
    4228:	100000ef          	jal	ra,4328 <multiply_mat_sw>
	z_impl_k_sem_give(sem);
    422c:	0000f537          	lui	a0,0xf
    4230:	97050513          	addi	a0,a0,-1680 # e970 <thread_accelerator_sem>
    4234:	4e8020ef          	jal	ra,671c <z_impl_k_sem_give>
    while(1) {
    4238:	f79ff06f          	j	41b0 <thread_software+0x4c>

0000423c <verify_matmul>:
    }
    printk("\n\n");
}

int verify_matmul(int mat1Address, int mat2Address, int rows, int cols)
{
    423c:	fd010113          	addi	sp,sp,-48
    float *mat2 = (float *)mat2Address;
    int num_errors = 0;

    for (int i=0; i<rows; i++) {
        for (int j=0; j<cols; j++) {
            if(mat1[i*cols+j]-mat2[i*cols+j] >= 0.01) num_errors++;
    4240:	0000c7b7          	lui	a5,0xc
{
    4244:	01412c23          	sw	s4,24(sp)
    4248:	01512a23          	sw	s5,20(sp)
            if(mat1[i*cols+j]-mat2[i*cols+j] >= 0.01) num_errors++;
    424c:	2187aa03          	lw	s4,536(a5) # c218 <__device_handles_end>
    4250:	21c7aa83          	lw	s5,540(a5)
{
    4254:	02912223          	sw	s1,36(sp)
    4258:	03212023          	sw	s2,32(sp)
    425c:	01312e23          	sw	s3,28(sp)
    4260:	01712623          	sw	s7,12(sp)
    4264:	01812423          	sw	s8,8(sp)
    4268:	01912223          	sw	s9,4(sp)
    426c:	01a12023          	sw	s10,0(sp)
    4270:	02112623          	sw	ra,44(sp)
    4274:	02812423          	sw	s0,40(sp)
    4278:	01612823          	sw	s6,16(sp)
    427c:	00050493          	mv	s1,a0
    4280:	00060c93          	mv	s9,a2
    4284:	00068913          	mv	s2,a3
    for (int i=0; i<rows; i++) {
    4288:	00000b93          	li	s7,0
    428c:	00000c13          	li	s8,0
    int num_errors = 0;
    4290:	00000993          	li	s3,0
            if(mat1[i*cols+j]-mat2[i*cols+j] >= 0.01) num_errors++;
    4294:	40a58d33          	sub	s10,a1,a0
    for (int i=0; i<rows; i++) {
    4298:	059c5a63          	bge	s8,s9,42ec <verify_matmul+0xb0>
    429c:	002b9413          	slli	s0,s7,0x2
    42a0:	00940433          	add	s0,s0,s1
        for (int j=0; j<cols; j++) {
    42a4:	00000b13          	li	s6,0
    42a8:	0340006f          	j	42dc <verify_matmul+0xa0>
            if(mat1[i*cols+j]-mat2[i*cols+j] >= 0.01) num_errors++;
    42ac:	008d07b3          	add	a5,s10,s0
    42b0:	0007a583          	lw	a1,0(a5)
    42b4:	00042503          	lw	a0,0(s0)
    42b8:	e14fe0ef          	jal	ra,28cc <__subsf3>
    42bc:	b85fe0ef          	jal	ra,2e40 <__extendsfdf2>
    42c0:	000a0613          	mv	a2,s4
    42c4:	000a8693          	mv	a3,s5
    42c8:	f8dfc0ef          	jal	ra,1254 <__gedf2>
    42cc:	00054463          	bltz	a0,42d4 <verify_matmul+0x98>
    42d0:	00198993          	addi	s3,s3,1
        for (int j=0; j<cols; j++) {
    42d4:	001b0b13          	addi	s6,s6,1
    42d8:	00440413          	addi	s0,s0,4
    42dc:	fd2b48e3          	blt	s6,s2,42ac <verify_matmul+0x70>
    for (int i=0; i<rows; i++) {
    42e0:	001c0c13          	addi	s8,s8,1
    42e4:	012b8bb3          	add	s7,s7,s2
    42e8:	fb1ff06f          	j	4298 <verify_matmul+0x5c>
        }
    }

    return num_errors;
    42ec:	02c12083          	lw	ra,44(sp)
    42f0:	02812403          	lw	s0,40(sp)
    42f4:	02412483          	lw	s1,36(sp)
    42f8:	02012903          	lw	s2,32(sp)
    42fc:	01812a03          	lw	s4,24(sp)
    4300:	01412a83          	lw	s5,20(sp)
    4304:	01012b03          	lw	s6,16(sp)
    4308:	00c12b83          	lw	s7,12(sp)
    430c:	00812c03          	lw	s8,8(sp)
    4310:	00412c83          	lw	s9,4(sp)
    4314:	00012d03          	lw	s10,0(sp)
    4318:	00098513          	mv	a0,s3
    431c:	01c12983          	lw	s3,28(sp)
    4320:	03010113          	addi	sp,sp,48
    4324:	00008067          	ret

00004328 <multiply_mat_sw>:
#include "multiply.h"

void multiply_mat_sw(int mat1Address, int mat2Address, int resultAddress, int rows1, int cols1, int cols2)
{
    4328:	fa010113          	addi	sp,sp,-96
    432c:	04912a23          	sw	s1,84(sp)
    4330:	05512223          	sw	s5,68(sp)
    4334:	03712e23          	sw	s7,60(sp)
    4338:	03812c23          	sw	s8,56(sp)
    433c:	03912a23          	sw	s9,52(sp)
    4340:	03a12823          	sw	s10,48(sp)
    4344:	03b12623          	sw	s11,44(sp)
    4348:	00060c93          	mv	s9,a2
    434c:	04112e23          	sw	ra,92(sp)
    4350:	04812c23          	sw	s0,88(sp)
    4354:	05212823          	sw	s2,80(sp)
    4358:	05312623          	sw	s3,76(sp)
    435c:	05412423          	sw	s4,72(sp)
    4360:	05612023          	sw	s6,64(sp)
    4364:	00050b93          	mv	s7,a0
    4368:	00058813          	mv	a6,a1
    436c:	00070a93          	mv	s5,a4
    4370:	00078493          	mv	s1,a5
    4374:	00279613          	slli	a2,a5,0x2
    float *result = (float *)resultAddress;
    float *mat1 = (float *)mat1Address;
    float *mat2 = (float *)mat2Address;

    for (int i=0; i<rows1; i++) {
    4378:	00000c13          	li	s8,0
    437c:	00000d13          	li	s10,0
    4380:	00000d93          	li	s11,0
    4384:	0addd463          	bge	s11,a3,442c <multiply_mat_sw+0x104>
    4388:	002d1413          	slli	s0,s10,0x2
    438c:	002c1b13          	slli	s6,s8,0x2
    4390:	01940433          	add	s0,s0,s9
    4394:	017b0b33          	add	s6,s6,s7
        for (int j=0; j<cols2; j++) {
    4398:	00000a13          	li	s4,0
    439c:	0640006f          	j	4400 <multiply_mat_sw+0xd8>
            float val = 0;
            for (int k=0; k<cols1; k++) {
                val += mat1[i*cols1+k]*mat2[k*cols2+j];
    43a0:	0009a583          	lw	a1,0(s3)
    43a4:	00072503          	lw	a0,0(a4)
    43a8:	00d12e23          	sw	a3,28(sp)
    43ac:	01012c23          	sw	a6,24(sp)
    43b0:	00c12a23          	sw	a2,20(sp)
    43b4:	00f12823          	sw	a5,16(sp)
    43b8:	00e12623          	sw	a4,12(sp)
    43bc:	a0cfe0ef          	jal	ra,25c8 <__mulsf3>
    43c0:	00050593          	mv	a1,a0
    43c4:	00090513          	mv	a0,s2
    43c8:	da5fd0ef          	jal	ra,216c <__addsf3>
            for (int k=0; k<cols1; k++) {
    43cc:	01012783          	lw	a5,16(sp)
    43d0:	00c12703          	lw	a4,12(sp)
    43d4:	01412603          	lw	a2,20(sp)
    43d8:	01c12683          	lw	a3,28(sp)
    43dc:	01812803          	lw	a6,24(sp)
                val += mat1[i*cols1+k]*mat2[k*cols2+j];
    43e0:	00050913          	mv	s2,a0
            for (int k=0; k<cols1; k++) {
    43e4:	00178793          	addi	a5,a5,1
    43e8:	00470713          	addi	a4,a4,4
    43ec:	00c989b3          	add	s3,s3,a2
    43f0:	fb57c8e3          	blt	a5,s5,43a0 <multiply_mat_sw+0x78>
            }
            result[i*cols2+j] = val;
    43f4:	01242023          	sw	s2,0(s0)
        for (int j=0; j<cols2; j++) {
    43f8:	001a0a13          	addi	s4,s4,1
    43fc:	00440413          	addi	s0,s0,4
    4400:	009a5e63          	bge	s4,s1,441c <multiply_mat_sw+0xf4>
    4404:	002a1993          	slli	s3,s4,0x2
    4408:	010989b3          	add	s3,s3,a6
    440c:	000b0713          	mv	a4,s6
            for (int k=0; k<cols1; k++) {
    4410:	00000793          	li	a5,0
            float val = 0;
    4414:	00000913          	li	s2,0
    4418:	fd9ff06f          	j	43f0 <multiply_mat_sw+0xc8>
    for (int i=0; i<rows1; i++) {
    441c:	001d8d93          	addi	s11,s11,1
    4420:	009d0d33          	add	s10,s10,s1
    4424:	015c0c33          	add	s8,s8,s5
    4428:	f5dff06f          	j	4384 <multiply_mat_sw+0x5c>
        }
    }
}
    442c:	05c12083          	lw	ra,92(sp)
    4430:	05812403          	lw	s0,88(sp)
    4434:	05412483          	lw	s1,84(sp)
    4438:	05012903          	lw	s2,80(sp)
    443c:	04c12983          	lw	s3,76(sp)
    4440:	04812a03          	lw	s4,72(sp)
    4444:	04412a83          	lw	s5,68(sp)
    4448:	04012b03          	lw	s6,64(sp)
    444c:	03c12b83          	lw	s7,60(sp)
    4450:	03812c03          	lw	s8,56(sp)
    4454:	03412c83          	lw	s9,52(sp)
    4458:	03012d03          	lw	s10,48(sp)
    445c:	02c12d83          	lw	s11,44(sp)
    4460:	06010113          	addi	sp,sp,96
    4464:	00008067          	ret

00004468 <multiply_mat_hw>:
	volatile int *colsA = (int *)(ACCELERATOR_BASE_ADDRESS + 0x30);
	volatile int *colsB = (int *)(ACCELERATOR_BASE_ADDRESS + 0x38);

    int *acceleratorBusyFlag = (int *)ACCELERATOR_BUSY_FLAG_ADDR;

    if(*acceleratorBusyFlag) {
    4468:	02000837          	lui	a6,0x2000
    446c:	60082883          	lw	a7,1536(a6) # 2000600 <__data_region_end+0x1ff1c60>
    4470:	00088863          	beqz	a7,4480 <multiply_mat_hw+0x18>
        printf("Accelerator busy!\n");
    4474:	0000c537          	lui	a0,0xc
    4478:	66850513          	addi	a0,a0,1640 # c668 <__mprec_tens+0x200>
    447c:	5f00406f          	j	8a6c <iprintf>
        return;
    }

    *acceleratorBusyFlag = 1;
    4480:	00100893          	li	a7,1
    4484:	61182023          	sw	a7,1536(a6)

    *acceleratorGIER = 1;
    4488:	90000837          	lui	a6,0x90000
    448c:	01182223          	sw	a7,4(a6) # 90000004 <CONFIG_SYSTEM_WORKQUEUE_PRIORITY+0x90000005>
    *acceleratorIP_IER = 1;
    4490:	01182423          	sw	a7,8(a6)

    *a = mat1Address;
    4494:	00a82823          	sw	a0,16(a6)
    *b = mat2Address;
    4498:	00b82c23          	sw	a1,24(a6)
    *c = resultAddress;
    449c:	02c82023          	sw	a2,32(a6)
    *rowsA = rows1;
    44a0:	02d82423          	sw	a3,40(a6)
    *colsA = cols1;
    44a4:	02e82823          	sw	a4,48(a6)
    *colsB = cols2;
    44a8:	02f82c23          	sw	a5,56(a6)

    *do_matp_mem = 1;
    44ac:	01182023          	sw	a7,0(a6)

    // while ((*do_matp_mem & 2) == 0);
    44b0:	00008067          	ret

000044b4 <arch_printk_char_out>:
{
	ARG_UNUSED(c);

	/* do nothing */
	return 0;
}
    44b4:	00000513          	li	a0,0
    44b8:	00008067          	ret

000044bc <char_out>:

static int char_out(int c, void *ctx_p)
{
	struct out_context *ctx = ctx_p;

	ctx->count++;
    44bc:	0005a783          	lw	a5,0(a1)
    44c0:	00178793          	addi	a5,a5,1
    44c4:	00f5a023          	sw	a5,0(a1)
	return _char_out(c);
    44c8:	0000e7b7          	lui	a5,0xe
    44cc:	7007a783          	lw	a5,1792(a5) # e700 <_char_out>
    44d0:	00078067          	jr	a5

000044d4 <str_out>:
	int count;
};

static int str_out(int c, struct str_context *ctx)
{
	if (ctx->str == NULL || ctx->count >= ctx->max) {
    44d4:	0085a703          	lw	a4,8(a1)
    44d8:	0005a783          	lw	a5,0(a1)
		ctx->count++;
		return c;
	}

	if (ctx->count == ctx->max - 1) {
		ctx->str[ctx->count++] = '\0';
    44dc:	00170613          	addi	a2,a4,1
	if (ctx->str == NULL || ctx->count >= ctx->max) {
    44e0:	00078663          	beqz	a5,44ec <str_out+0x18>
    44e4:	0045a683          	lw	a3,4(a1)
    44e8:	00d74663          	blt	a4,a3,44f4 <str_out+0x20>
		ctx->count++;
    44ec:	00c5a423          	sw	a2,8(a1)
		return c;
    44f0:	00008067          	ret
	if (ctx->count == ctx->max - 1) {
    44f4:	fff68693          	addi	a3,a3,-1
		ctx->str[ctx->count++] = '\0';
    44f8:	00c5a423          	sw	a2,8(a1)
    44fc:	00e787b3          	add	a5,a5,a4
	if (ctx->count == ctx->max - 1) {
    4500:	00e69663          	bne	a3,a4,450c <str_out+0x38>
		ctx->str[ctx->count++] = '\0';
    4504:	00078023          	sb	zero,0(a5)
    4508:	00008067          	ret
	} else {
		ctx->str[ctx->count++] = c;
    450c:	00a78023          	sb	a0,0(a5)
	}

	return c;
}
    4510:	00008067          	ret

00004514 <__printk_hook_install>:
	_char_out = fn;
    4514:	0000e7b7          	lui	a5,0xe
    4518:	70a7a023          	sw	a0,1792(a5) # e700 <_char_out>
}
    451c:	00008067          	ret

00004520 <vprintk>:
{
    4520:	fe010113          	addi	sp,sp,-32
    4524:	00050613          	mv	a2,a0
		cbvprintf(char_out, &ctx, fmt, ap);
    4528:	00004537          	lui	a0,0x4
{
    452c:	00058693          	mv	a3,a1
		cbvprintf(char_out, &ctx, fmt, ap);
    4530:	4bc50513          	addi	a0,a0,1212 # 44bc <char_out>
    4534:	00c10593          	addi	a1,sp,12
{
    4538:	00112e23          	sw	ra,28(sp)
		struct out_context ctx = { 0 };
    453c:	00012623          	sw	zero,12(sp)
		cbvprintf(char_out, &ctx, fmt, ap);
    4540:	320000ef          	jal	ra,4860 <cbvprintf>
}
    4544:	01c12083          	lw	ra,28(sp)
    4548:	02010113          	addi	sp,sp,32
    454c:	00008067          	ret

00004550 <printk>:
{
    4550:	fc010113          	addi	sp,sp,-64
    4554:	02b12223          	sw	a1,36(sp)
	va_start(ap, fmt);
    4558:	02410593          	addi	a1,sp,36
{
    455c:	00112e23          	sw	ra,28(sp)
    4560:	02c12423          	sw	a2,40(sp)
    4564:	02d12623          	sw	a3,44(sp)
    4568:	02e12823          	sw	a4,48(sp)
    456c:	02f12a23          	sw	a5,52(sp)
    4570:	03012c23          	sw	a6,56(sp)
    4574:	03112e23          	sw	a7,60(sp)
	va_start(ap, fmt);
    4578:	00b12623          	sw	a1,12(sp)
	vprintk(fmt, ap);
    457c:	fa5ff0ef          	jal	ra,4520 <vprintk>
}
    4580:	01c12083          	lw	ra,28(sp)
    4584:	04010113          	addi	sp,sp,64
    4588:	00008067          	ret

0000458c <vsnprintk>:

	return ret;
}

int vsnprintk(char *str, size_t size, const char *fmt, va_list ap)
{
    458c:	fe010113          	addi	sp,sp,-32
    4590:	00812c23          	sw	s0,24(sp)
	struct str_context ctx = { str, size, 0 };
    4594:	00a12223          	sw	a0,4(sp)
{
    4598:	00050413          	mv	s0,a0

	cbvprintf(str_out, &ctx, fmt, ap);
    459c:	00004537          	lui	a0,0x4
	struct str_context ctx = { str, size, 0 };
    45a0:	00b12423          	sw	a1,8(sp)
	cbvprintf(str_out, &ctx, fmt, ap);
    45a4:	4d450513          	addi	a0,a0,1236 # 44d4 <str_out>
    45a8:	00410593          	addi	a1,sp,4
{
    45ac:	00112e23          	sw	ra,28(sp)
	struct str_context ctx = { str, size, 0 };
    45b0:	00012623          	sw	zero,12(sp)
	cbvprintf(str_out, &ctx, fmt, ap);
    45b4:	2ac000ef          	jal	ra,4860 <cbvprintf>

	if (ctx.count < ctx.max) {
    45b8:	00c12503          	lw	a0,12(sp)
    45bc:	00812783          	lw	a5,8(sp)
    45c0:	00f55663          	bge	a0,a5,45cc <vsnprintk+0x40>
		str[ctx.count] = '\0';
    45c4:	00a40433          	add	s0,s0,a0
    45c8:	00040023          	sb	zero,0(s0)
	}

	return ctx.count;
}
    45cc:	01c12083          	lw	ra,28(sp)
    45d0:	01812403          	lw	s0,24(sp)
    45d4:	02010113          	addi	sp,sp,32
    45d8:	00008067          	ret

000045dc <snprintk>:
{
    45dc:	fc010113          	addi	sp,sp,-64
    45e0:	02d12623          	sw	a3,44(sp)
	va_start(ap, fmt);
    45e4:	02c10693          	addi	a3,sp,44
{
    45e8:	00112e23          	sw	ra,28(sp)
    45ec:	02e12823          	sw	a4,48(sp)
    45f0:	02f12a23          	sw	a5,52(sp)
    45f4:	03012c23          	sw	a6,56(sp)
    45f8:	03112e23          	sw	a7,60(sp)
	va_start(ap, fmt);
    45fc:	00d12623          	sw	a3,12(sp)
	ret = vsnprintk(str, size, fmt, ap);
    4600:	f8dff0ef          	jal	ra,458c <vsnprintk>
}
    4604:	01c12083          	lw	ra,28(sp)
    4608:	04010113          	addi	sp,sp,64
    460c:	00008067          	ret

00004610 <z_thread_entry>:
 * This routine does not return, and is marked as such so the compiler won't
 * generate preamble code that is only used by functions that actually return.
 */
FUNC_NORETURN void z_thread_entry(k_thread_entry_t entry,
				 void *p1, void *p2, void *p3)
{
    4610:	ff010113          	addi	sp,sp,-16
    4614:	00050793          	mv	a5,a0
    4618:	00058513          	mv	a0,a1
    461c:	00060593          	mv	a1,a2
#ifdef CONFIG_THREAD_LOCAL_STORAGE
	z_tls_current = z_current_get();
#endif
	entry(p1, p2, p3);
    4620:	00068613          	mv	a2,a3
{
    4624:	00112623          	sw	ra,12(sp)
	entry(p1, p2, p3);
    4628:	000780e7          	jalr	a5
	return z_impl_z_current_get();
    462c:	501020ef          	jal	ra,732c <z_impl_z_current_get>
	z_impl_k_thread_abort(thread);
    4630:	5fd020ef          	jal	ra,742c <z_impl_k_thread_abort>

00004634 <extract_decimal>:
static size_t extract_decimal(const char **str)
{
	const char *sp = *str;
	size_t val = 0;

	while (isdigit((int)(unsigned char)*sp)) {
    4634:	0000d637          	lui	a2,0xd
	const char *sp = *str;
    4638:	00052683          	lw	a3,0(a0)
{
    463c:	00050713          	mv	a4,a0
	while (isdigit((int)(unsigned char)*sp)) {
    4640:	87960613          	addi	a2,a2,-1927 # c879 <_ctype_+0x1>
	size_t val = 0;
    4644:	00000513          	li	a0,0
		val = 10U * val + *sp++ - '0';
    4648:	00a00813          	li	a6,10
	while (isdigit((int)(unsigned char)*sp)) {
    464c:	0006c583          	lbu	a1,0(a3)
    4650:	00c587b3          	add	a5,a1,a2
    4654:	0007c783          	lbu	a5,0(a5)
    4658:	0047f793          	andi	a5,a5,4
    465c:	00079663          	bnez	a5,4668 <extract_decimal+0x34>
	}
	*str = sp;
    4660:	00d72023          	sw	a3,0(a4)
	return val;
}
    4664:	00008067          	ret
		val = 10U * val + *sp++ - '0';
    4668:	03050533          	mul	a0,a0,a6
    466c:	00168693          	addi	a3,a3,1
    4670:	fd050793          	addi	a5,a0,-48
    4674:	00b78533          	add	a0,a5,a1
    4678:	fd5ff06f          	j	464c <extract_decimal+0x18>

0000467c <encode_uint>:
 */
static char *encode_uint(uint_value_type value,
			 struct conversion *conv,
			 char *bps,
			 const char *bpe)
{
    467c:	fd010113          	addi	sp,sp,-48
    4680:	02812423          	sw	s0,40(sp)
    4684:	02912223          	sw	s1,36(sp)
    4688:	03212023          	sw	s2,32(sp)
    468c:	01712623          	sw	s7,12(sp)
    4690:	01812423          	sw	s8,8(sp)
    4694:	01912223          	sw	s9,4(sp)
    4698:	02112623          	sw	ra,44(sp)
    469c:	01312e23          	sw	s3,28(sp)
    46a0:	01412c23          	sw	s4,24(sp)
    46a4:	01512a23          	sw	s5,20(sp)
    46a8:	01612823          	sw	s6,16(sp)
	bool upcase = isupper((int)conv->specifier);
    46ac:	00364783          	lbu	a5,3(a2)
{
    46b0:	00068913          	mv	s2,a3
	bool upcase = isupper((int)conv->specifier);
    46b4:	0000d6b7          	lui	a3,0xd
    46b8:	87968693          	addi	a3,a3,-1927 # c879 <_ctype_+0x1>
    46bc:	00d786b3          	add	a3,a5,a3
    46c0:	0006c983          	lbu	s3,0(a3)
{
    46c4:	00070413          	mv	s0,a4
	switch (specifier) {
    46c8:	06f00713          	li	a4,111
{
    46cc:	00050c13          	mv	s8,a0
    46d0:	00058c93          	mv	s9,a1
    46d4:	00060b93          	mv	s7,a2
    46d8:	0039f993          	andi	s3,s3,3
	switch (specifier) {
    46dc:	00800493          	li	s1,8
    46e0:	00e78c63          	beq	a5,a4,46f8 <encode_uint+0x7c>
    46e4:	0cf76263          	bltu	a4,a5,47a8 <encode_uint+0x12c>
    46e8:	05800713          	li	a4,88
		return 10;
    46ec:	00a00493          	li	s1,10
	switch (specifier) {
    46f0:	00e79463          	bne	a5,a4,46f8 <encode_uint+0x7c>
		return 16;
    46f4:	01000493          	li	s1,16
	const unsigned int radix = conversion_radix(conv->specifier);
	char *bp = bps + (bpe - bps);

	do {
		unsigned int lsv = (unsigned int)(value % radix);
    46f8:	00000a93          	li	s5,0

		*--bp = (lsv <= 9) ? ('0' + lsv)
    46fc:	00900a13          	li	s4,9
    4700:	00100b13          	li	s6,1
		unsigned int lsv = (unsigned int)(value % radix);
    4704:	00048613          	mv	a2,s1
    4708:	00000693          	li	a3,0
    470c:	000c0513          	mv	a0,s8
    4710:	000c8593          	mv	a1,s9
    4714:	85cfc0ef          	jal	ra,770 <__umoddi3>
		*--bp = (lsv <= 9) ? ('0' + lsv)
    4718:	0ff57793          	andi	a5,a0,255
    471c:	0aaa6263          	bltu	s4,a0,47c0 <encode_uint+0x144>
    4720:	03078793          	addi	a5,a5,48
    4724:	0ff7f793          	andi	a5,a5,255
			: upcase ? ('A' + lsv - 10) : ('a' + lsv - 10);
		value /= radix;
    4728:	00048613          	mv	a2,s1
    472c:	00000693          	li	a3,0
    4730:	000c0513          	mv	a0,s8
    4734:	000c8593          	mv	a1,s9
		*--bp = (lsv <= 9) ? ('0' + lsv)
    4738:	fef40fa3          	sb	a5,-1(s0)
    473c:	fff40413          	addi	s0,s0,-1
		value /= radix;
    4740:	bfdfb0ef          	jal	ra,33c <__udivdi3>
	} while ((value != 0) && (bps < bp));
    4744:	019a9463          	bne	s5,s9,474c <encode_uint+0xd0>
    4748:	009c6463          	bltu	s8,s1,4750 <encode_uint+0xd4>
    474c:	06896463          	bltu	s2,s0,47b4 <encode_uint+0x138>

	/* Record required alternate forms.  This can be determined
	 * from the radix without re-checking specifier.
	 */
	if (conv->flag_hash) {
    4750:	000bd783          	lhu	a5,0(s7)
    4754:	0207f793          	andi	a5,a5,32
    4758:	00078c63          	beqz	a5,4770 <encode_uint+0xf4>
		if (radix == 8) {
    475c:	00800793          	li	a5,8
    4760:	06f49a63          	bne	s1,a5,47d4 <encode_uint+0x158>
			conv->altform_0 = true;
    4764:	002bc783          	lbu	a5,2(s7)
    4768:	0087e793          	ori	a5,a5,8
		} else if (radix == 16) {
			conv->altform_0c = true;
    476c:	00fb8123          	sb	a5,2(s7)
			;
		}
	}

	return bp;
}
    4770:	02c12083          	lw	ra,44(sp)
    4774:	00040513          	mv	a0,s0
    4778:	02812403          	lw	s0,40(sp)
    477c:	02412483          	lw	s1,36(sp)
    4780:	02012903          	lw	s2,32(sp)
    4784:	01c12983          	lw	s3,28(sp)
    4788:	01812a03          	lw	s4,24(sp)
    478c:	01412a83          	lw	s5,20(sp)
    4790:	01012b03          	lw	s6,16(sp)
    4794:	00c12b83          	lw	s7,12(sp)
    4798:	00812c03          	lw	s8,8(sp)
    479c:	00412c83          	lw	s9,4(sp)
    47a0:	03010113          	addi	sp,sp,48
    47a4:	00008067          	ret
	switch (specifier) {
    47a8:	0f77f793          	andi	a5,a5,247
    47ac:	07000713          	li	a4,112
    47b0:	f3dff06f          	j	46ec <encode_uint+0x70>
		value /= radix;
    47b4:	00050c13          	mv	s8,a0
    47b8:	00058c93          	mv	s9,a1
    47bc:	f49ff06f          	j	4704 <encode_uint+0x88>
		*--bp = (lsv <= 9) ? ('0' + lsv)
    47c0:	01699663          	bne	s3,s6,47cc <encode_uint+0x150>
    47c4:	03778793          	addi	a5,a5,55
    47c8:	f5dff06f          	j	4724 <encode_uint+0xa8>
    47cc:	05778793          	addi	a5,a5,87
    47d0:	f55ff06f          	j	4724 <encode_uint+0xa8>
		} else if (radix == 16) {
    47d4:	01000793          	li	a5,16
    47d8:	f8f49ce3          	bne	s1,a5,4770 <encode_uint+0xf4>
			conv->altform_0c = true;
    47dc:	002bc783          	lbu	a5,2(s7)
    47e0:	0107e793          	ori	a5,a5,16
    47e4:	f89ff06f          	j	476c <encode_uint+0xf0>

000047e8 <outs>:
/* Outline function to emit all characters in [sp, ep). */
static int outs(cbprintf_cb out,
		void *ctx,
		const char *sp,
		const char *ep)
{
    47e8:	fe010113          	addi	sp,sp,-32
    47ec:	00812c23          	sw	s0,24(sp)
    47f0:	00912a23          	sw	s1,20(sp)
    47f4:	01212823          	sw	s2,16(sp)
    47f8:	01312623          	sw	s3,12(sp)
    47fc:	01412423          	sw	s4,8(sp)
    4800:	00112e23          	sw	ra,28(sp)
    4804:	00050993          	mv	s3,a0
    4808:	00058a13          	mv	s4,a1
    480c:	00060493          	mv	s1,a2
    4810:	00068913          	mv	s2,a3
	size_t count = 0;

	while ((sp < ep) || ((ep == NULL) && *sp)) {
    4814:	00060413          	mv	s0,a2
    4818:	40940533          	sub	a0,s0,s1
    481c:	01246863          	bltu	s0,s2,482c <outs+0x44>
    4820:	02091063          	bnez	s2,4840 <outs+0x58>
    4824:	00044783          	lbu	a5,0(s0)
    4828:	00078c63          	beqz	a5,4840 <outs+0x58>
		int rc = out((int)*sp++, ctx);
    482c:	00044503          	lbu	a0,0(s0)
    4830:	000a0593          	mv	a1,s4
    4834:	00140413          	addi	s0,s0,1
    4838:	000980e7          	jalr	s3

		if (rc < 0) {
    483c:	fc055ee3          	bgez	a0,4818 <outs+0x30>
		}
		++count;
	}

	return (int)count;
}
    4840:	01c12083          	lw	ra,28(sp)
    4844:	01812403          	lw	s0,24(sp)
    4848:	01412483          	lw	s1,20(sp)
    484c:	01012903          	lw	s2,16(sp)
    4850:	00c12983          	lw	s3,12(sp)
    4854:	00812a03          	lw	s4,8(sp)
    4858:	02010113          	addi	sp,sp,32
    485c:	00008067          	ret

00004860 <cbvprintf>:

int cbvprintf(cbprintf_cb out, void *ctx, const char *fp, va_list ap)
{
    4860:	f7010113          	addi	sp,sp,-144
    4864:	07512a23          	sw	s5,116(sp)
	switch (conv->specifier) {
    4868:	0000cab7          	lui	s5,0xc
    486c:	684a8793          	addi	a5,s5,1668 # c684 <__mprec_tens+0x21c>
{
    4870:	07612823          	sw	s6,112(sp)
		}

		/* Do formatting, either into the buffer or
		 * referencing external data.
		 */
		switch (conv->specifier) {
    4874:	0000cb37          	lui	s6,0xc
{
    4878:	07712623          	sw	s7,108(sp)
    487c:	07812423          	sw	s8,104(sp)
	switch (conv->specifier) {
    4880:	00f12223          	sw	a5,4(sp)
	switch ((enum length_mod_enum)conv->length_mod) {
    4884:	0000cbb7          	lui	s7,0xc
		switch (conv->specifier) {
    4888:	708b0793          	addi	a5,s6,1800 # c708 <__mprec_tens+0x2a0>

				goto prec_int_pad0;
			}

			bps = "(nil)";
			bpe = bps + 5;
    488c:	0000cc37          	lui	s8,0xc
{
    4890:	08812423          	sw	s0,136(sp)
    4894:	09212023          	sw	s2,128(sp)
    4898:	07312e23          	sw	s3,124(sp)
    489c:	07912223          	sw	s9,100(sp)
    48a0:	05b12e23          	sw	s11,92(sp)
    48a4:	08112623          	sw	ra,140(sp)
    48a8:	08912223          	sw	s1,132(sp)
    48ac:	07412c23          	sw	s4,120(sp)
    48b0:	07a12023          	sw	s10,96(sp)
    48b4:	00050913          	mv	s2,a0
    48b8:	00058993          	mv	s3,a1
    48bc:	00060c93          	mv	s9,a2
    48c0:	00068413          	mv	s0,a3
	size_t count = 0;
    48c4:	00000d93          	li	s11,0
		switch (conv->specifier) {
    48c8:	00f12423          	sw	a5,8(sp)
	switch ((enum length_mod_enum)conv->length_mod) {
    48cc:	760b8b93          	addi	s7,s7,1888 # c760 <__mprec_tens+0x2f8>
			bpe = bps + 5;
    48d0:	681c0c13          	addi	s8,s8,1665 # c681 <__mprec_tens+0x219>
	while (*fp != 0) {
    48d4:	000cc483          	lbu	s1,0(s9)
    48d8:	00049663          	bnez	s1,48e4 <cbvprintf+0x84>
			OUTC(' ');
			--width;
		}
	}

	return count;
    48dc:	000d8513          	mv	a0,s11
    48e0:	1990006f          	j	5278 <cbvprintf+0xa18>
		if (*fp != '%') {
    48e4:	02500793          	li	a5,37
			OUTC(*fp++);
    48e8:	001c8a13          	addi	s4,s9,1
		if (*fp != '%') {
    48ec:	00f48e63          	beq	s1,a5,4908 <cbvprintf+0xa8>
			OUTC(*fp++);
    48f0:	00098593          	mv	a1,s3
    48f4:	00048513          	mv	a0,s1
			OUTC('%');
    48f8:	000900e7          	jalr	s2
    48fc:	16054ee3          	bltz	a0,5278 <cbvprintf+0xa18>
    4900:	001d8d93          	addi	s11,s11,1
			break;
    4904:	5200006f          	j	4e24 <cbvprintf+0x5c4>
		} state = {
    4908:	02000613          	li	a2,32
    490c:	00000593          	li	a1,0
    4910:	03010513          	addi	a0,sp,48
    4914:	e2cfe0ef          	jal	ra,2f40 <memset>
	if (*sp == '%') {
    4918:	001cc783          	lbu	a5,1(s9)
    491c:	10978263          	beq	a5,s1,4a20 <cbvprintf+0x1c0>
		switch (*sp) {
    4920:	02b00693          	li	a3,43
    4924:	02d00613          	li	a2,45
    4928:	03000593          	li	a1,48
    492c:	02000513          	li	a0,32
    4930:	02300813          	li	a6,35
    4934:	000a4703          	lbu	a4,0(s4)
    4938:	04015783          	lhu	a5,64(sp)
    493c:	14d70c63          	beq	a4,a3,4a94 <cbvprintf+0x234>
    4940:	12e6ea63          	bltu	a3,a4,4a74 <cbvprintf+0x214>
    4944:	14a70c63          	beq	a4,a0,4a9c <cbvprintf+0x23c>
    4948:	15070e63          	beq	a4,a6,4aa4 <cbvprintf+0x244>
	if (conv->flag_zero && conv->flag_dash) {
    494c:	04012703          	lw	a4,64(sp)
    4950:	04400693          	li	a3,68
    4954:	04477713          	andi	a4,a4,68
    4958:	00d71663          	bne	a4,a3,4964 <cbvprintf+0x104>
		conv->flag_zero = false;
    495c:	fbf7f793          	andi	a5,a5,-65
    4960:	04f11023          	sh	a5,64(sp)
	conv->width_present = true;
    4964:	04015783          	lhu	a5,64(sp)
    4968:	01412a23          	sw	s4,20(sp)
    496c:	0807e713          	ori	a4,a5,128
    4970:	04e11023          	sh	a4,64(sp)
	if (*sp == '*') {
    4974:	000a4683          	lbu	a3,0(s4)
    4978:	02a00713          	li	a4,42
    497c:	12e69863          	bne	a3,a4,4aac <cbvprintf+0x24c>
		conv->width_star = true;
    4980:	1807e793          	ori	a5,a5,384
    4984:	04f11023          	sh	a5,64(sp)
		return ++sp;
    4988:	001a0793          	addi	a5,s4,1
	sp = extract_prec(conv, sp);
    498c:	00f12a23          	sw	a5,20(sp)
	conv->prec_present = (*sp == '.');
    4990:	0007c603          	lbu	a2,0(a5)
    4994:	fd260713          	addi	a4,a2,-46
    4998:	00173713          	seqz	a4,a4
    499c:	00971693          	slli	a3,a4,0x9
    49a0:	04015703          	lhu	a4,64(sp)
    49a4:	dff77713          	andi	a4,a4,-513
    49a8:	00d76733          	or	a4,a4,a3
    49ac:	04e11023          	sh	a4,64(sp)
	if (!conv->prec_present) {
    49b0:	02e00693          	li	a3,46
    49b4:	02d61263          	bne	a2,a3,49d8 <cbvprintf+0x178>
	++sp;
    49b8:	00178693          	addi	a3,a5,1
    49bc:	00d12a23          	sw	a3,20(sp)
	if (*sp == '*') {
    49c0:	0017c603          	lbu	a2,1(a5)
    49c4:	02a00693          	li	a3,42
    49c8:	12d61463          	bne	a2,a3,4af0 <cbvprintf+0x290>
		conv->prec_star = true;
    49cc:	40076713          	ori	a4,a4,1024
    49d0:	04e11023          	sh	a4,64(sp)
		return ++sp;
    49d4:	00278793          	addi	a5,a5,2
	switch (*sp) {
    49d8:	0007c603          	lbu	a2,0(a5)
    49dc:	06c00713          	li	a4,108
		if (*++sp == 'h') {
    49e0:	00178593          	addi	a1,a5,1
	switch (*sp) {
    49e4:	22e60263          	beq	a2,a4,4c08 <cbvprintf+0x3a8>
    49e8:	14c76263          	bltu	a4,a2,4b2c <cbvprintf+0x2cc>
    49ec:	06800713          	li	a4,104
    49f0:	16e60663          	beq	a2,a4,4b5c <cbvprintf+0x2fc>
    49f4:	06a00713          	li	a4,106
    49f8:	22e60e63          	beq	a2,a4,4c34 <cbvprintf+0x3d4>
    49fc:	04c00713          	li	a4,76
    4a00:	26e60263          	beq	a2,a4,4c64 <cbvprintf+0x404>
		conv->length_mod = LENGTH_NONE;
    4a04:	04015703          	lhu	a4,64(sp)
    4a08:	ffff86b7          	lui	a3,0xffff8
    4a0c:	7ff68693          	addi	a3,a3,2047 # ffff87ff <CONFIG_SYSTEM_WORKQUEUE_PRIORITY+0xffff8800>
    4a10:	00d77733          	and	a4,a4,a3
    4a14:	04e11023          	sh	a4,64(sp)
		break;
    4a18:	00078593          	mv	a1,a5
    4a1c:	16c0006f          	j	4b88 <cbvprintf+0x328>
		conv->specifier = *sp++;
    4a20:	002c8a13          	addi	s4,s9,2
    4a24:	04f101a3          	sb	a5,67(sp)
		if (conv->width_star) {
    4a28:	04015783          	lhu	a5,64(sp)
    4a2c:	1007f713          	andi	a4,a5,256
    4a30:	32070c63          	beqz	a4,4d68 <cbvprintf+0x508>
			width = va_arg(ap, int);
    4a34:	00042483          	lw	s1,0(s0)
    4a38:	00440693          	addi	a3,s0,4
			if (width < 0) {
    4a3c:	0004d863          	bgez	s1,4a4c <cbvprintf+0x1ec>
				conv->flag_dash = true;
    4a40:	0047e793          	ori	a5,a5,4
    4a44:	04f11023          	sh	a5,64(sp)
				width = -width;
    4a48:	409004b3          	neg	s1,s1
		if (conv->prec_star) {
    4a4c:	04015703          	lhu	a4,64(sp)
    4a50:	40077793          	andi	a5,a4,1024
    4a54:	32078a63          	beqz	a5,4d88 <cbvprintf+0x528>
			int arg = va_arg(ap, int);
    4a58:	0006aa83          	lw	s5,0(a3)
    4a5c:	00468413          	addi	s0,a3,4
			if (arg < 0) {
    4a60:	320adc63          	bgez	s5,4d98 <cbvprintf+0x538>
				conv->prec_present = false;
    4a64:	dff77713          	andi	a4,a4,-513
    4a68:	04e11023          	sh	a4,64(sp)
		int precision = -1;
    4a6c:	fff00a93          	li	s5,-1
    4a70:	3280006f          	j	4d98 <cbvprintf+0x538>
		switch (*sp) {
    4a74:	00c70863          	beq	a4,a2,4a84 <cbvprintf+0x224>
    4a78:	ecb71ae3          	bne	a4,a1,494c <cbvprintf+0xec>
			conv->flag_zero = true;
    4a7c:	0407e793          	ori	a5,a5,64
    4a80:	0080006f          	j	4a88 <cbvprintf+0x228>
			conv->flag_dash = true;
    4a84:	0047e793          	ori	a5,a5,4
			conv->flag_zero = true;
    4a88:	04f11023          	sh	a5,64(sp)
			++sp;
    4a8c:	001a0a13          	addi	s4,s4,1
	} while (loop);
    4a90:	ea5ff06f          	j	4934 <cbvprintf+0xd4>
			conv->flag_plus = true;
    4a94:	0087e793          	ori	a5,a5,8
    4a98:	ff1ff06f          	j	4a88 <cbvprintf+0x228>
			conv->flag_space = true;
    4a9c:	0107e793          	ori	a5,a5,16
    4aa0:	fe9ff06f          	j	4a88 <cbvprintf+0x228>
			conv->flag_hash = true;
    4aa4:	0207e793          	ori	a5,a5,32
    4aa8:	fe1ff06f          	j	4a88 <cbvprintf+0x228>
	size_t width = extract_decimal(&sp);
    4aac:	01410513          	addi	a0,sp,20
    4ab0:	b85ff0ef          	jal	ra,4634 <extract_decimal>
	if (sp != wp) {
    4ab4:	01412783          	lw	a5,20(sp)
    4ab8:	ed478ae3          	beq	a5,s4,498c <cbvprintf+0x12c>
		conv->unsupported |= ((conv->width_value < 0)
    4abc:	04012703          	lw	a4,64(sp)
    4ac0:	04014683          	lbu	a3,64(sp)
		conv->width_value = width;
    4ac4:	04a12223          	sw	a0,68(sp)
		conv->unsupported |= ((conv->width_value < 0)
    4ac8:	00175713          	srli	a4,a4,0x1
    4acc:	00177713          	andi	a4,a4,1
				      || (width != (size_t)conv->width_value));
    4ad0:	01f55513          	srli	a0,a0,0x1f
		conv->unsupported |= ((conv->width_value < 0)
    4ad4:	00a76733          	or	a4,a4,a0
    4ad8:	00171713          	slli	a4,a4,0x1
    4adc:	f8076713          	ori	a4,a4,-128
    4ae0:	07d6f693          	andi	a3,a3,125
    4ae4:	00d76733          	or	a4,a4,a3
    4ae8:	04e10023          	sb	a4,64(sp)
    4aec:	ea1ff06f          	j	498c <cbvprintf+0x12c>
	size_t prec = extract_decimal(&sp);
    4af0:	01410513          	addi	a0,sp,20
    4af4:	b41ff0ef          	jal	ra,4634 <extract_decimal>
	conv->unsupported |= ((conv->prec_value < 0)
    4af8:	04012783          	lw	a5,64(sp)
    4afc:	04015703          	lhu	a4,64(sp)
	conv->prec_value = prec;
    4b00:	04a12423          	sw	a0,72(sp)
	conv->unsupported |= ((conv->prec_value < 0)
    4b04:	0017d793          	srli	a5,a5,0x1
    4b08:	0017f793          	andi	a5,a5,1
			      || (prec != (size_t)conv->prec_value));
    4b0c:	01f55513          	srli	a0,a0,0x1f
	conv->unsupported |= ((conv->prec_value < 0)
    4b10:	00a7e7b3          	or	a5,a5,a0
    4b14:	00179793          	slli	a5,a5,0x1
    4b18:	ffd77713          	andi	a4,a4,-3
    4b1c:	00f767b3          	or	a5,a4,a5
    4b20:	04f11023          	sh	a5,64(sp)
	return sp;
    4b24:	01412783          	lw	a5,20(sp)
    4b28:	eb1ff06f          	j	49d8 <cbvprintf+0x178>
	switch (*sp) {
    4b2c:	07400693          	li	a3,116
    4b30:	04015703          	lhu	a4,64(sp)
    4b34:	10d60e63          	beq	a2,a3,4c50 <cbvprintf+0x3f0>
    4b38:	07a00693          	li	a3,122
    4b3c:	ecd614e3          	bne	a2,a3,4a04 <cbvprintf+0x1a4>
		conv->length_mod = LENGTH_Z;
    4b40:	ffff87b7          	lui	a5,0xffff8
    4b44:	7ff78793          	addi	a5,a5,2047 # ffff87ff <CONFIG_SYSTEM_WORKQUEUE_PRIORITY+0xffff8800>
    4b48:	00e7f7b3          	and	a5,a5,a4
    4b4c:	00003737          	lui	a4,0x3
		conv->unsupported = true;
    4b50:	00e7e7b3          	or	a5,a5,a4
    4b54:	04f11023          	sh	a5,64(sp)
		break;
    4b58:	0300006f          	j	4b88 <cbvprintf+0x328>
		if (*++sp == 'h') {
    4b5c:	04015503          	lhu	a0,64(sp)
    4b60:	0017c803          	lbu	a6,1(a5)
    4b64:	ffff86b7          	lui	a3,0xffff8
    4b68:	7ff68713          	addi	a4,a3,2047 # ffff87ff <CONFIG_SYSTEM_WORKQUEUE_PRIORITY+0xffff8800>
			conv->length_mod = LENGTH_HH;
    4b6c:	00a77733          	and	a4,a4,a0
		if (*++sp == 'h') {
    4b70:	08c81463          	bne	a6,a2,4bf8 <cbvprintf+0x398>
			conv->length_mod = LENGTH_HH;
    4b74:	000016b7          	lui	a3,0x1
    4b78:	80068693          	addi	a3,a3,-2048 # 800 <CONFIG_ISR_STACK_SIZE>
			conv->length_mod = LENGTH_LL;
    4b7c:	00d76733          	or	a4,a4,a3
    4b80:	04e11023          	sh	a4,64(sp)
			++sp;
    4b84:	00278593          	addi	a1,a5,2
	conv->specifier = *sp++;
    4b88:	0005c703          	lbu	a4,0(a1)
	switch (conv->specifier) {
    4b8c:	07800793          	li	a5,120
	conv->specifier = *sp++;
    4b90:	00158a13          	addi	s4,a1,1
    4b94:	04e101a3          	sb	a4,67(sp)
	switch (conv->specifier) {
    4b98:	1ae7ee63          	bltu	a5,a4,4d54 <cbvprintf+0x4f4>
    4b9c:	05700793          	li	a5,87
    4ba0:	0ee7e063          	bltu	a5,a4,4c80 <cbvprintf+0x420>
    4ba4:	04100793          	li	a5,65
    4ba8:	00f70a63          	beq	a4,a5,4bbc <cbvprintf+0x35c>
    4bac:	fbb70713          	addi	a4,a4,-69 # 2fbb <__adddf3+0x5f>
    4bb0:	0ff77713          	andi	a4,a4,255
    4bb4:	00200793          	li	a5,2
    4bb8:	18e7ee63          	bltu	a5,a4,4d54 <cbvprintf+0x4f4>
		conv->specifier_cat = SPECIFIER_FP;
    4bbc:	04214783          	lbu	a5,66(sp)
    4bc0:	ff87f793          	andi	a5,a5,-8
    4bc4:	0047e793          	ori	a5,a5,4
    4bc8:	04f10123          	sb	a5,66(sp)
			unsupported = true;
    4bcc:	00100793          	li	a5,1
	conv->unsupported |= unsupported;
    4bd0:	04012703          	lw	a4,64(sp)
    4bd4:	00175713          	srli	a4,a4,0x1
    4bd8:	00177713          	andi	a4,a4,1
    4bdc:	00e7e7b3          	or	a5,a5,a4
    4be0:	04015703          	lhu	a4,64(sp)
    4be4:	00179793          	slli	a5,a5,0x1
    4be8:	ffd77713          	andi	a4,a4,-3
    4bec:	00f767b3          	or	a5,a4,a5
    4bf0:	04f11023          	sh	a5,64(sp)
	return sp;
    4bf4:	e35ff06f          	j	4a28 <cbvprintf+0x1c8>
			conv->length_mod = LENGTH_H;
    4bf8:	000017b7          	lui	a5,0x1
			conv->length_mod = LENGTH_L;
    4bfc:	00f76733          	or	a4,a4,a5
    4c00:	04e11023          	sh	a4,64(sp)
    4c04:	f85ff06f          	j	4b88 <cbvprintf+0x328>
		if (*++sp == 'l') {
    4c08:	04015503          	lhu	a0,64(sp)
    4c0c:	0017c803          	lbu	a6,1(a5) # 1001 <__divdf3+0x48d>
    4c10:	ffff86b7          	lui	a3,0xffff8
    4c14:	7ff68713          	addi	a4,a3,2047 # ffff87ff <CONFIG_SYSTEM_WORKQUEUE_PRIORITY+0xffff8800>
			conv->length_mod = LENGTH_LL;
    4c18:	00a77733          	and	a4,a4,a0
		if (*++sp == 'l') {
    4c1c:	00c81663          	bne	a6,a2,4c28 <cbvprintf+0x3c8>
			conv->length_mod = LENGTH_LL;
    4c20:	000026b7          	lui	a3,0x2
    4c24:	f59ff06f          	j	4b7c <cbvprintf+0x31c>
			conv->length_mod = LENGTH_L;
    4c28:	000027b7          	lui	a5,0x2
    4c2c:	80078793          	addi	a5,a5,-2048 # 1800 <__muldf3+0x4c8>
    4c30:	fcdff06f          	j	4bfc <cbvprintf+0x39c>
		conv->length_mod = LENGTH_J;
    4c34:	04015783          	lhu	a5,64(sp)
    4c38:	ffff8737          	lui	a4,0xffff8
    4c3c:	7ff70713          	addi	a4,a4,2047 # ffff87ff <CONFIG_SYSTEM_WORKQUEUE_PRIORITY+0xffff8800>
    4c40:	00e7f7b3          	and	a5,a5,a4
    4c44:	00003737          	lui	a4,0x3
		conv->length_mod = LENGTH_T;
    4c48:	80070713          	addi	a4,a4,-2048 # 2800 <__mulsf3+0x238>
    4c4c:	f05ff06f          	j	4b50 <cbvprintf+0x2f0>
    4c50:	ffff87b7          	lui	a5,0xffff8
    4c54:	7ff78793          	addi	a5,a5,2047 # ffff87ff <CONFIG_SYSTEM_WORKQUEUE_PRIORITY+0xffff8800>
    4c58:	00e7f7b3          	and	a5,a5,a4
    4c5c:	00004737          	lui	a4,0x4
    4c60:	fe9ff06f          	j	4c48 <cbvprintf+0x3e8>
		conv->unsupported = true;
    4c64:	04015783          	lhu	a5,64(sp)
    4c68:	ffff8737          	lui	a4,0xffff8
    4c6c:	7fd70713          	addi	a4,a4,2045 # ffff87fd <CONFIG_SYSTEM_WORKQUEUE_PRIORITY+0xffff87fe>
    4c70:	00e7f7b3          	and	a5,a5,a4
    4c74:	00004737          	lui	a4,0x4
    4c78:	00270713          	addi	a4,a4,2 # 4002 <main+0x82>
    4c7c:	ed5ff06f          	j	4b50 <cbvprintf+0x2f0>
	switch (conv->specifier) {
    4c80:	fa870793          	addi	a5,a4,-88
    4c84:	0ff7f793          	andi	a5,a5,255
    4c88:	02000693          	li	a3,32
    4c8c:	0cf6e463          	bltu	a3,a5,4d54 <cbvprintf+0x4f4>
    4c90:	00412683          	lw	a3,4(sp)
    4c94:	00279793          	slli	a5,a5,0x2
    4c98:	00d787b3          	add	a5,a5,a3
    4c9c:	0007a783          	lw	a5,0(a5)
    4ca0:	00078067          	jr	a5
		conv->specifier_cat = SPECIFIER_SINT;
    4ca4:	04214783          	lbu	a5,66(sp)
    4ca8:	ff87f793          	andi	a5,a5,-8
    4cac:	0017e793          	ori	a5,a5,1
		if (conv->length_mod == LENGTH_UPPER_L) {
    4cb0:	04015683          	lhu	a3,64(sp)
		conv->specifier_cat = SPECIFIER_UINT;
    4cb4:	04f10123          	sb	a5,66(sp)
		if (conv->length_mod == LENGTH_UPPER_L) {
    4cb8:	000087b7          	lui	a5,0x8
    4cbc:	80078793          	addi	a5,a5,-2048 # 7800 <sys_clock_announce+0x84>
    4cc0:	00f6f7b3          	and	a5,a3,a5
    4cc4:	01079793          	slli	a5,a5,0x10
    4cc8:	0107d793          	srli	a5,a5,0x10
    4ccc:	00004637          	lui	a2,0x4
    4cd0:	00c79663          	bne	a5,a2,4cdc <cbvprintf+0x47c>
			conv->invalid = true;
    4cd4:	0016e693          	ori	a3,a3,1
    4cd8:	04d11023          	sh	a3,64(sp)
		if (conv->specifier == 'c') {
    4cdc:	06300693          	li	a3,99
	bool unsupported = false;
    4ce0:	00000793          	li	a5,0
		if (conv->specifier == 'c') {
    4ce4:	eed716e3          	bne	a4,a3,4bd0 <cbvprintf+0x370>
		if (conv->length_mod != LENGTH_NONE) {
    4ce8:	04015703          	lhu	a4,64(sp)
    4cec:	000087b7          	lui	a5,0x8
    4cf0:	80078793          	addi	a5,a5,-2048 # 7800 <sys_clock_announce+0x84>
    4cf4:	00e7f7b3          	and	a5,a5,a4
    4cf8:	00f037b3          	snez	a5,a5
    4cfc:	ed5ff06f          	j	4bd0 <cbvprintf+0x370>
		conv->specifier_cat = SPECIFIER_UINT;
    4d00:	04214783          	lbu	a5,66(sp)
    4d04:	ff87f793          	andi	a5,a5,-8
    4d08:	0027e793          	ori	a5,a5,2
    4d0c:	fa5ff06f          	j	4cb0 <cbvprintf+0x450>
		conv->specifier_cat = SPECIFIER_PTR;
    4d10:	04214783          	lbu	a5,66(sp)
		if (conv->length_mod == LENGTH_UPPER_L) {
    4d14:	04015703          	lhu	a4,64(sp)
		conv->specifier_cat = SPECIFIER_PTR;
    4d18:	ff87f793          	andi	a5,a5,-8
    4d1c:	0037e793          	ori	a5,a5,3
    4d20:	04f10123          	sb	a5,66(sp)
		if (conv->length_mod == LENGTH_UPPER_L) {
    4d24:	000087b7          	lui	a5,0x8
    4d28:	80078793          	addi	a5,a5,-2048 # 7800 <sys_clock_announce+0x84>
    4d2c:	00e7f7b3          	and	a5,a5,a4
    4d30:	ffffc737          	lui	a4,0xffffc
    4d34:	00e787b3          	add	a5,a5,a4
    4d38:	0017b793          	seqz	a5,a5
    4d3c:	e95ff06f          	j	4bd0 <cbvprintf+0x370>
		conv->specifier_cat = SPECIFIER_PTR;
    4d40:	04214783          	lbu	a5,66(sp)
    4d44:	ff87f793          	andi	a5,a5,-8
    4d48:	0037e793          	ori	a5,a5,3
    4d4c:	04f10123          	sb	a5,66(sp)
    4d50:	f99ff06f          	j	4ce8 <cbvprintf+0x488>
		conv->invalid = true;
    4d54:	04015783          	lhu	a5,64(sp)
    4d58:	0017e793          	ori	a5,a5,1
    4d5c:	04f11023          	sh	a5,64(sp)
	bool unsupported = false;
    4d60:	00000793          	li	a5,0
		break;
    4d64:	e6dff06f          	j	4bd0 <cbvprintf+0x370>
		} else if (conv->width_present) {
    4d68:	0807f793          	andi	a5,a5,128
    4d6c:	00078863          	beqz	a5,4d7c <cbvprintf+0x51c>
			width = conv->width_value;
    4d70:	04412483          	lw	s1,68(sp)
    4d74:	00040693          	mv	a3,s0
    4d78:	cd5ff06f          	j	4a4c <cbvprintf+0x1ec>
    4d7c:	00040693          	mv	a3,s0
		int width = -1;
    4d80:	fff00493          	li	s1,-1
    4d84:	cc9ff06f          	j	4a4c <cbvprintf+0x1ec>
		} else if (conv->prec_present) {
    4d88:	20077713          	andi	a4,a4,512
    4d8c:	0a070063          	beqz	a4,4e2c <cbvprintf+0x5cc>
			precision = conv->prec_value;
    4d90:	04812a83          	lw	s5,72(sp)
    4d94:	00068413          	mv	s0,a3
			= (enum specifier_cat_enum)conv->specifier_cat;
    4d98:	04012583          	lw	a1,64(sp)
		conv->pad0_value = 0;
    4d9c:	04012223          	sw	zero,68(sp)
		conv->pad0_pre_exp = 0;
    4da0:	04012423          	sw	zero,72(sp)
			= (enum specifier_cat_enum)conv->specifier_cat;
    4da4:	0105d693          	srli	a3,a1,0x10
			= (enum length_mod_enum)conv->length_mod;
    4da8:	00b5d713          	srli	a4,a1,0xb
		enum specifier_cat_enum specifier_cat
    4dac:	0076f693          	andi	a3,a3,7
		if (specifier_cat == SPECIFIER_SINT) {
    4db0:	00100613          	li	a2,1
			= (enum length_mod_enum)conv->length_mod;
    4db4:	00f77713          	andi	a4,a4,15
		if (specifier_cat == SPECIFIER_SINT) {
    4db8:	0cc69863          	bne	a3,a2,4e88 <cbvprintf+0x628>
			switch (length_mod) {
    4dbc:	00500613          	li	a2,5
    4dc0:	08c70863          	beq	a4,a2,4e50 <cbvprintf+0x5f0>
    4dc4:	00e66a63          	bltu	a2,a4,4dd8 <cbvprintf+0x578>
    4dc8:	00300693          	li	a3,3
    4dcc:	06d70463          	beq	a4,a3,4e34 <cbvprintf+0x5d4>
    4dd0:	00400693          	li	a3,4
    4dd4:	06d70e63          	beq	a4,a3,4e50 <cbvprintf+0x5f0>
					(sint_value_type)va_arg(ap, ptrdiff_t);
    4dd8:	00042683          	lw	a3,0(s0)
    4ddc:	00440413          	addi	s0,s0,4
    4de0:	02d12823          	sw	a3,48(sp)
    4de4:	41f6d693          	srai	a3,a3,0x1f
    4de8:	02d12a23          	sw	a3,52(sp)
			if (length_mod == LENGTH_HH) {
    4dec:	00100693          	li	a3,1
    4df0:	06d71e63          	bne	a4,a3,4e6c <cbvprintf+0x60c>
				value->uint = (unsigned char)value->uint;
    4df4:	03014683          	lbu	a3,48(sp)
				value->uint = (unsigned short)value->uint;
    4df8:	02d12823          	sw	a3,48(sp)
    4dfc:	02012a23          	sw	zero,52(sp)
		if (conv->invalid || conv->unsupported) {
    4e00:	0035f593          	andi	a1,a1,3
    4e04:	14058863          	beqz	a1,4f54 <cbvprintf+0x6f4>
			OUTS(sp, fp);
    4e08:	000a0693          	mv	a3,s4
    4e0c:	000c8613          	mv	a2,s9
    4e10:	00098593          	mv	a1,s3
    4e14:	00090513          	mv	a0,s2
    4e18:	9d1ff0ef          	jal	ra,47e8 <outs>
    4e1c:	44054e63          	bltz	a0,5278 <cbvprintf+0xa18>
    4e20:	00ad8db3          	add	s11,s11,a0
			OUTS(bps, bpe);
    4e24:	000a0c93          	mv	s9,s4
    4e28:	aadff06f          	j	48d4 <cbvprintf+0x74>
    4e2c:	00068413          	mv	s0,a3
    4e30:	c3dff06f          	j	4a6c <cbvprintf+0x20c>
					value->sint = va_arg(ap, long);
    4e34:	00042683          	lw	a3,0(s0)
				value->sint = va_arg(ap, int);
    4e38:	00440513          	addi	a0,s0,4
					value->sint = va_arg(ap, long);
    4e3c:	02d12823          	sw	a3,48(sp)
    4e40:	41f6d693          	srai	a3,a3,0x1f
				value->sint =
    4e44:	02d12a23          	sw	a3,52(sp)
					(uint_value_type)va_arg(ap, size_t);
    4e48:	00050413          	mv	s0,a0
    4e4c:	fb5ff06f          	j	4e00 <cbvprintf+0x5a0>
					(sint_value_type)va_arg(ap, long long);
    4e50:	00740413          	addi	s0,s0,7
    4e54:	ff847413          	andi	s0,s0,-8
				value->sint =
    4e58:	00042603          	lw	a2,0(s0)
    4e5c:	00442683          	lw	a3,4(s0)
					(sint_value_type)va_arg(ap, long long);
    4e60:	00840513          	addi	a0,s0,8
				value->sint =
    4e64:	02c12823          	sw	a2,48(sp)
    4e68:	fddff06f          	j	4e44 <cbvprintf+0x5e4>
			} else if (length_mod == LENGTH_H) {
    4e6c:	00200693          	li	a3,2
    4e70:	f8d718e3          	bne	a4,a3,4e00 <cbvprintf+0x5a0>
				value->sint = (short)value->sint;
    4e74:	03011683          	lh	a3,48(sp)
    4e78:	02d12823          	sw	a3,48(sp)
    4e7c:	41f6d693          	srai	a3,a3,0x1f
				value->dbl = va_arg(ap, double);
    4e80:	02d12a23          	sw	a3,52(sp)
    4e84:	f7dff06f          	j	4e00 <cbvprintf+0x5a0>
		} else if (specifier_cat == SPECIFIER_UINT) {
    4e88:	00200513          	li	a0,2
    4e8c:	04a69e63          	bne	a3,a0,4ee8 <cbvprintf+0x688>
			switch (length_mod) {
    4e90:	00500693          	li	a3,5
    4e94:	fad70ee3          	beq	a4,a3,4e50 <cbvprintf+0x5f0>
    4e98:	00e6ea63          	bltu	a3,a4,4eac <cbvprintf+0x64c>
    4e9c:	00300693          	li	a3,3
    4ea0:	02d70a63          	beq	a4,a3,4ed4 <cbvprintf+0x674>
    4ea4:	00400693          	li	a3,4
    4ea8:	fad704e3          	beq	a4,a3,4e50 <cbvprintf+0x5f0>
					(uint_value_type)va_arg(ap, size_t);
    4eac:	00042683          	lw	a3,0(s0)
    4eb0:	02012a23          	sw	zero,52(sp)
    4eb4:	00440413          	addi	s0,s0,4
    4eb8:	02d12823          	sw	a3,48(sp)
			if (length_mod == LENGTH_HH) {
    4ebc:	00100693          	li	a3,1
    4ec0:	f2d70ae3          	beq	a4,a3,4df4 <cbvprintf+0x594>
			} else if (length_mod == LENGTH_H) {
    4ec4:	00200693          	li	a3,2
    4ec8:	f2d71ce3          	bne	a4,a3,4e00 <cbvprintf+0x5a0>
				value->uint = (unsigned short)value->uint;
    4ecc:	03015683          	lhu	a3,48(sp)
    4ed0:	f29ff06f          	j	4df8 <cbvprintf+0x598>
					value->uint = va_arg(ap, unsigned long);
    4ed4:	00042683          	lw	a3,0(s0)
    4ed8:	00440513          	addi	a0,s0,4
    4edc:	02012a23          	sw	zero,52(sp)
    4ee0:	02d12823          	sw	a3,48(sp)
				break;
    4ee4:	f65ff06f          	j	4e48 <cbvprintf+0x5e8>
		} else if (specifier_cat == SPECIFIER_FP) {
    4ee8:	00400613          	li	a2,4
    4eec:	04c69a63          	bne	a3,a2,4f40 <cbvprintf+0x6e0>
			if (length_mod == LENGTH_UPPER_L) {
    4ef0:	00800693          	li	a3,8
    4ef4:	02d71863          	bne	a4,a3,4f24 <cbvprintf+0x6c4>
				value->ldbl = va_arg(ap, long double);
    4ef8:	00042683          	lw	a3,0(s0)
    4efc:	0006a803          	lw	a6,0(a3) # 2000 <CONFIG_SRAM_SIZE>
    4f00:	0046a503          	lw	a0,4(a3)
    4f04:	0086a603          	lw	a2,8(a3)
    4f08:	00c6a683          	lw	a3,12(a3)
    4f0c:	03012823          	sw	a6,48(sp)
    4f10:	02a12a23          	sw	a0,52(sp)
    4f14:	02c12c23          	sw	a2,56(sp)
    4f18:	02d12e23          	sw	a3,60(sp)
			value->ptr = va_arg(ap, void *);
    4f1c:	00440413          	addi	s0,s0,4
    4f20:	ee1ff06f          	j	4e00 <cbvprintf+0x5a0>
				value->dbl = va_arg(ap, double);
    4f24:	00740693          	addi	a3,s0,7
    4f28:	ff86f693          	andi	a3,a3,-8
    4f2c:	0006a603          	lw	a2,0(a3)
    4f30:	00868413          	addi	s0,a3,8
    4f34:	0046a683          	lw	a3,4(a3)
    4f38:	02c12823          	sw	a2,48(sp)
    4f3c:	f45ff06f          	j	4e80 <cbvprintf+0x620>
		} else if (specifier_cat == SPECIFIER_PTR) {
    4f40:	00300613          	li	a2,3
    4f44:	eac69ee3          	bne	a3,a2,4e00 <cbvprintf+0x5a0>
			value->ptr = va_arg(ap, void *);
    4f48:	00042683          	lw	a3,0(s0)
    4f4c:	02d12823          	sw	a3,48(sp)
    4f50:	fcdff06f          	j	4f1c <cbvprintf+0x6bc>
		switch (conv->specifier) {
    4f54:	04314683          	lbu	a3,67(sp)
    4f58:	07800613          	li	a2,120
    4f5c:	ecd664e3          	bltu	a2,a3,4e24 <cbvprintf+0x5c4>
    4f60:	06200613          	li	a2,98
    4f64:	00d66e63          	bltu	a2,a3,4f80 <cbvprintf+0x720>
    4f68:	02500713          	li	a4,37
    4f6c:	02e68c63          	beq	a3,a4,4fa4 <cbvprintf+0x744>
    4f70:	05800713          	li	a4,88
    4f74:	eae698e3          	bne	a3,a4,4e24 <cbvprintf+0x5c4>
    4f78:	00000b13          	li	s6,0
    4f7c:	1fc0006f          	j	5178 <cbvprintf+0x918>
    4f80:	f9d68693          	addi	a3,a3,-99
    4f84:	0ff6f693          	andi	a3,a3,255
    4f88:	01500613          	li	a2,21
    4f8c:	e8d66ce3          	bltu	a2,a3,4e24 <cbvprintf+0x5c4>
    4f90:	00812783          	lw	a5,8(sp)
    4f94:	00269693          	slli	a3,a3,0x2
    4f98:	00f686b3          	add	a3,a3,a5
    4f9c:	0006a683          	lw	a3,0(a3)
    4fa0:	00068067          	jr	a3
			OUTC('%');
    4fa4:	00098593          	mv	a1,s3
    4fa8:	02500513          	li	a0,37
    4fac:	94dff06f          	j	48f8 <cbvprintf+0x98>
			bps = (const char *)value->ptr;
    4fb0:	03012c83          	lw	s9,48(sp)
			if (precision >= 0) {
    4fb4:	160ac063          	bltz	s5,5114 <cbvprintf+0x8b4>
				len = strnlen(bps, precision);
    4fb8:	000a8593          	mv	a1,s5
    4fbc:	000c8513          	mv	a0,s9
    4fc0:	3bd030ef          	jal	ra,8b7c <strnlen>
			bpe = bps + len;
    4fc4:	00ac8d33          	add	s10,s9,a0
		char sign = 0;
    4fc8:	00000b13          	li	s6,0
		if (bps == NULL) {
    4fcc:	e40c8ce3          	beqz	s9,4e24 <cbvprintf+0x5c4>
		size_t nj_len = (bpe - bps);
    4fd0:	419d07b3          	sub	a5,s10,s9
		if (sign != 0) {
    4fd4:	000b0463          	beqz	s6,4fdc <cbvprintf+0x77c>
			nj_len += 1U;
    4fd8:	00178793          	addi	a5,a5,1
		if (conv->altform_0c) {
    4fdc:	04214703          	lbu	a4,66(sp)
    4fe0:	01077693          	andi	a3,a4,16
    4fe4:	26068663          	beqz	a3,5250 <cbvprintf+0x9f0>
			nj_len += 2U;
    4fe8:	00278793          	addi	a5,a5,2
		nj_len += conv->pad0_value;
    4fec:	04412683          	lw	a3,68(sp)
		if (conv->pad_fp) {
    4ff0:	04077713          	andi	a4,a4,64
		nj_len += conv->pad0_value;
    4ff4:	00d787b3          	add	a5,a5,a3
		if (conv->pad_fp) {
    4ff8:	00070663          	beqz	a4,5004 <cbvprintf+0x7a4>
			nj_len += conv->pad0_pre_exp;
    4ffc:	04812703          	lw	a4,72(sp)
    5000:	00e787b3          	add	a5,a5,a4
		if (width > 0) {
    5004:	04905c63          	blez	s1,505c <cbvprintf+0x7fc>
			width -= (int)nj_len;
    5008:	40f484b3          	sub	s1,s1,a5
			if (!conv->flag_dash) {
    500c:	04012783          	lw	a5,64(sp)
    5010:	0027d793          	srli	a5,a5,0x2
    5014:	0017f793          	andi	a5,a5,1
    5018:	04079263          	bnez	a5,505c <cbvprintf+0x7fc>
				if (conv->flag_zero) {
    501c:	04015783          	lhu	a5,64(sp)
    5020:	0407f793          	andi	a5,a5,64
    5024:	28078863          	beqz	a5,52b4 <cbvprintf+0xa54>
					if (sign != 0) {
    5028:	280b0a63          	beqz	s6,52bc <cbvprintf+0xa5c>
						OUTC(sign);
    502c:	00098593          	mv	a1,s3
    5030:	000b0513          	mv	a0,s6
    5034:	000900e7          	jalr	s2
    5038:	24054063          	bltz	a0,5278 <cbvprintf+0xa18>
    503c:	001d8d93          	addi	s11,s11,1
					pad = '0';
    5040:	03000793          	li	a5,48
						sign = 0;
    5044:	00000b13          	li	s6,0
    5048:	01b48ab3          	add	s5,s1,s11
    504c:	00048713          	mv	a4,s1
    5050:	409a8db3          	sub	s11,s5,s1
				while (width-- > 0) {
    5054:	fff48493          	addi	s1,s1,-1
    5058:	20e04463          	bgtz	a4,5260 <cbvprintf+0xa00>
		if (sign != 0) {
    505c:	000b0c63          	beqz	s6,5074 <cbvprintf+0x814>
			OUTC(sign);
    5060:	00098593          	mv	a1,s3
    5064:	000b0513          	mv	a0,s6
    5068:	000900e7          	jalr	s2
    506c:	20054663          	bltz	a0,5278 <cbvprintf+0xa18>
    5070:	001d8d93          	addi	s11,s11,1
			if (conv->altform_0c | conv->altform_0) {
    5074:	04012783          	lw	a5,64(sp)
    5078:	0147d713          	srli	a4,a5,0x14
    507c:	00177713          	andi	a4,a4,1
    5080:	00071863          	bnez	a4,5090 <cbvprintf+0x830>
    5084:	0137d793          	srli	a5,a5,0x13
    5088:	0017f793          	andi	a5,a5,1
    508c:	00078c63          	beqz	a5,50a4 <cbvprintf+0x844>
				OUTC('0');
    5090:	00098593          	mv	a1,s3
    5094:	03000513          	li	a0,48
    5098:	000900e7          	jalr	s2
    509c:	1c054e63          	bltz	a0,5278 <cbvprintf+0xa18>
    50a0:	001d8d93          	addi	s11,s11,1
			if (conv->altform_0c) {
    50a4:	04214783          	lbu	a5,66(sp)
    50a8:	0107f793          	andi	a5,a5,16
    50ac:	00078c63          	beqz	a5,50c4 <cbvprintf+0x864>
				OUTC(conv->specifier);
    50b0:	04314503          	lbu	a0,67(sp)
    50b4:	00098593          	mv	a1,s3
    50b8:	000900e7          	jalr	s2
    50bc:	1a054e63          	bltz	a0,5278 <cbvprintf+0xa18>
    50c0:	001d8d93          	addi	s11,s11,1
			while (pad_len-- > 0) {
    50c4:	04412783          	lw	a5,68(sp)
    50c8:	01b78ab3          	add	s5,a5,s11
    50cc:	41ba8733          	sub	a4,s5,s11
    50d0:	1ee04a63          	bgtz	a4,52c4 <cbvprintf+0xa64>
			OUTS(bps, bpe);
    50d4:	000d0693          	mv	a3,s10
    50d8:	000c8613          	mv	a2,s9
    50dc:	00098593          	mv	a1,s3
    50e0:	00090513          	mv	a0,s2
    50e4:	f04ff0ef          	jal	ra,47e8 <outs>
    50e8:	18054863          	bltz	a0,5278 <cbvprintf+0xa18>
    50ec:	01b50db3          	add	s11,a0,s11
		while (width > 0) {
    50f0:	01b484b3          	add	s1,s1,s11
    50f4:	41b487b3          	sub	a5,s1,s11
    50f8:	d2f056e3          	blez	a5,4e24 <cbvprintf+0x5c4>
			OUTC(' ');
    50fc:	00098593          	mv	a1,s3
    5100:	02000513          	li	a0,32
    5104:	000900e7          	jalr	s2
    5108:	16054863          	bltz	a0,5278 <cbvprintf+0xa18>
    510c:	001d8d93          	addi	s11,s11,1
			--width;
    5110:	fe5ff06f          	j	50f4 <cbvprintf+0x894>
				len = strlen(bps);
    5114:	000c8513          	mv	a0,s9
    5118:	211030ef          	jal	ra,8b28 <strlen>
    511c:	ea9ff06f          	j	4fc4 <cbvprintf+0x764>
			buf[0] = CHAR_IS_SIGNED ? value->sint : value->uint;
    5120:	03012783          	lw	a5,48(sp)
			bpe = buf + 1;
    5124:	01910d13          	addi	s10,sp,25
			bps = buf;
    5128:	01810c93          	addi	s9,sp,24
			buf[0] = CHAR_IS_SIGNED ? value->sint : value->uint;
    512c:	00f10c23          	sb	a5,24(sp)
			break;
    5130:	00000b13          	li	s6,0
    5134:	e9dff06f          	j	4fd0 <cbvprintf+0x770>
			if (conv->flag_plus) {
    5138:	04015703          	lhu	a4,64(sp)
				sign = '+';
    513c:	02b00b13          	li	s6,43
			if (conv->flag_plus) {
    5140:	00877693          	andi	a3,a4,8
    5144:	00069663          	bnez	a3,5150 <cbvprintf+0x8f0>
				sign = ' ';
    5148:	00171b13          	slli	s6,a4,0x1
    514c:	020b7b13          	andi	s6,s6,32
			sint = value->sint;
    5150:	03412703          	lw	a4,52(sp)
    5154:	03012683          	lw	a3,48(sp)
			if (sint < 0) {
    5158:	02075063          	bgez	a4,5178 <cbvprintf+0x918>
				value->uint = (uint_value_type)-sint;
    515c:	40d00633          	neg	a2,a3
    5160:	40e00733          	neg	a4,a4
    5164:	00d036b3          	snez	a3,a3
    5168:	40d70733          	sub	a4,a4,a3
    516c:	02c12823          	sw	a2,48(sp)
    5170:	02e12a23          	sw	a4,52(sp)
				sign = '-';
    5174:	02d00b13          	li	s6,45
			bps = encode_uint(value->uint, conv, buf, bpe);
    5178:	03012503          	lw	a0,48(sp)
    517c:	03412583          	lw	a1,52(sp)
    5180:	02e10713          	addi	a4,sp,46
    5184:	01810693          	addi	a3,sp,24
    5188:	04010613          	addi	a2,sp,64
    518c:	cf0ff0ef          	jal	ra,467c <encode_uint>
    5190:	00050c93          	mv	s9,a0
			if (precision >= 0) {
    5194:	02e10d13          	addi	s10,sp,46
    5198:	e20acae3          	bltz	s5,4fcc <cbvprintf+0x76c>
				conv->flag_zero = false;
    519c:	04015683          	lhu	a3,64(sp)
				size_t len = bpe - bps;
    51a0:	419d0733          	sub	a4,s10,s9
				conv->flag_zero = false;
    51a4:	fbf6f693          	andi	a3,a3,-65
    51a8:	04d11023          	sh	a3,64(sp)
				if (len < (size_t)precision) {
    51ac:	e35770e3          	bgeu	a4,s5,4fcc <cbvprintf+0x76c>
					conv->pad0_value = precision - (int)len;
    51b0:	40ea87b3          	sub	a5,s5,a4
    51b4:	04f12223          	sw	a5,68(sp)
    51b8:	e15ff06f          	j	4fcc <cbvprintf+0x76c>
			if (value->ptr != NULL) {
    51bc:	03012503          	lw	a0,48(sp)
    51c0:	08050063          	beqz	a0,5240 <cbvprintf+0x9e0>
				bps = encode_uint((uintptr_t)value->ptr, conv,
    51c4:	02e10713          	addi	a4,sp,46
    51c8:	01810693          	addi	a3,sp,24
    51cc:	04010613          	addi	a2,sp,64
    51d0:	00000593          	li	a1,0
    51d4:	ca8ff0ef          	jal	ra,467c <encode_uint>
				conv->altform_0c = true;
    51d8:	04215703          	lhu	a4,66(sp)
    51dc:	000086b7          	lui	a3,0x8
    51e0:	81068693          	addi	a3,a3,-2032 # 7810 <sys_clock_announce+0x94>
    51e4:	0ef77713          	andi	a4,a4,239
    51e8:	00d76733          	or	a4,a4,a3
				bps = encode_uint((uintptr_t)value->ptr, conv,
    51ec:	00050c93          	mv	s9,a0
				conv->altform_0c = true;
    51f0:	04e11123          	sh	a4,66(sp)
		char sign = 0;
    51f4:	00000b13          	li	s6,0
				goto prec_int_pad0;
    51f8:	f9dff06f          	j	5194 <cbvprintf+0x934>
	switch ((enum length_mod_enum)conv->length_mod) {
    51fc:	00700693          	li	a3,7
				store_count(conv, value->ptr, count);
    5200:	03012783          	lw	a5,48(sp)
	switch ((enum length_mod_enum)conv->length_mod) {
    5204:	c2e6e0e3          	bltu	a3,a4,4e24 <cbvprintf+0x5c4>
    5208:	00271713          	slli	a4,a4,0x2
    520c:	01770733          	add	a4,a4,s7
    5210:	00072703          	lw	a4,0(a4) # ffffc000 <CONFIG_SYSTEM_WORKQUEUE_PRIORITY+0xffffc001>
    5214:	00070067          	jr	a4
		*(signed char *)dp = (signed char)count;
    5218:	01b78023          	sb	s11,0(a5)
		break;
    521c:	c09ff06f          	j	4e24 <cbvprintf+0x5c4>
		*(short *)dp = (short)count;
    5220:	01b79023          	sh	s11,0(a5)
		break;
    5224:	c01ff06f          	j	4e24 <cbvprintf+0x5c4>
		*(intmax_t *)dp = (intmax_t)count;
    5228:	41fdd713          	srai	a4,s11,0x1f
    522c:	01b7a023          	sw	s11,0(a5)
    5230:	00e7a223          	sw	a4,4(a5)
		break;
    5234:	bf1ff06f          	j	4e24 <cbvprintf+0x5c4>
		*(ptrdiff_t *)dp = (ptrdiff_t)count;
    5238:	01b7a023          	sw	s11,0(a5)
		break;
    523c:	be9ff06f          	j	4e24 <cbvprintf+0x5c4>
			bps = "(nil)";
    5240:	0000ccb7          	lui	s9,0xc
			bpe = bps + 5;
    5244:	000c0d13          	mv	s10,s8
			bps = "(nil)";
    5248:	67cc8c93          	addi	s9,s9,1660 # c67c <__mprec_tens+0x214>
    524c:	ee5ff06f          	j	5130 <cbvprintf+0x8d0>
		} else if (conv->altform_0) {
    5250:	00877693          	andi	a3,a4,8
    5254:	d8068ce3          	beqz	a3,4fec <cbvprintf+0x78c>
			nj_len += 1U;
    5258:	00178793          	addi	a5,a5,1
    525c:	d91ff06f          	j	4fec <cbvprintf+0x78c>
					OUTC(pad);
    5260:	00078513          	mv	a0,a5
    5264:	00098593          	mv	a1,s3
    5268:	00f12623          	sw	a5,12(sp)
    526c:	000900e7          	jalr	s2
    5270:	00c12783          	lw	a5,12(sp)
    5274:	dc055ce3          	bgez	a0,504c <cbvprintf+0x7ec>
#undef OUTS
#undef OUTC
}
    5278:	08c12083          	lw	ra,140(sp)
    527c:	08812403          	lw	s0,136(sp)
    5280:	08412483          	lw	s1,132(sp)
    5284:	08012903          	lw	s2,128(sp)
    5288:	07c12983          	lw	s3,124(sp)
    528c:	07812a03          	lw	s4,120(sp)
    5290:	07412a83          	lw	s5,116(sp)
    5294:	07012b03          	lw	s6,112(sp)
    5298:	06c12b83          	lw	s7,108(sp)
    529c:	06812c03          	lw	s8,104(sp)
    52a0:	06412c83          	lw	s9,100(sp)
    52a4:	06012d03          	lw	s10,96(sp)
    52a8:	05c12d83          	lw	s11,92(sp)
    52ac:	09010113          	addi	sp,sp,144
    52b0:	00008067          	ret
				char pad = ' ';
    52b4:	02000793          	li	a5,32
    52b8:	d91ff06f          	j	5048 <cbvprintf+0x7e8>
					pad = '0';
    52bc:	03000793          	li	a5,48
    52c0:	d89ff06f          	j	5048 <cbvprintf+0x7e8>
				OUTC('0');
    52c4:	00098593          	mv	a1,s3
    52c8:	03000513          	li	a0,48
    52cc:	000900e7          	jalr	s2
    52d0:	fa0544e3          	bltz	a0,5278 <cbvprintf+0xa18>
    52d4:	001d8d93          	addi	s11,s11,1
    52d8:	df5ff06f          	j	50cc <cbvprintf+0x86c>

000052dc <_ConfigAbsSyms>:
GEN_ABSOLUTE_SYM_KCONFIG(CONFIG_OUTPUT_DISASSEMBLY, 1);
GEN_ABSOLUTE_SYM_KCONFIG(CONFIG_OUTPUT_PRINT_MEMORY_USAGE, 1);
GEN_ABSOLUTE_SYM_KCONFIG(CONFIG_BUILD_OUTPUT_BIN, 1);
GEN_ABSOLUTE_SYM_KCONFIG(CONFIG_COMPAT_INCLUDES, 1);

GEN_ABS_SYM_END
    52dc:	00008067          	ret

000052e0 <soc_interrupt_init>:
static ALWAYS_INLINE unsigned int arch_irq_lock(void)
{
	unsigned int key;
	ulong_t mstatus;

	__asm__ volatile ("csrrc %0, mstatus, %1"
    52e0:	00800793          	li	a5,8
    52e4:	3007b7f3          	csrrc	a5,mstatus,a5
void soc_interrupt_init(void)
{
	/* ensure that all interrupts are disabled */
	(void)irq_lock();

	__asm__ volatile ("csrwi mie, 0\n"
    52e8:	30405073          	csrwi	mie,0
    52ec:	34405073          	csrwi	mip,0
			  "csrwi mip, 0\n");
}
    52f0:	00008067          	ret

000052f4 <fix_baud_rate>:
	*(volatile uint16_t *)addr = data;
}

static ALWAYS_INLINE uint32_t sys_read32(mem_addr_t addr)
{
	return *(volatile uint32_t *)addr;
    52f4:	800017b7          	lui	a5,0x80001
    52f8:	03c7a783          	lw	a5,60(a5) # 8000103c <CONFIG_SYSTEM_WORKQUEUE_PRIORITY+0x8000103d>

	/*
	 * calculate baud rate divisor. a variant of
	 * (uint32_t)(dev_cfg->sys_clk_freq / (16.0 * baud_rate) + 0.5)
	 */
	divisor = ((sys_clk_freq + (baud_rate << 3))
    52fc:	000e1737          	lui	a4,0xe1
	return *(volatile uint8_t *)addr;
    5300:	800026b7          	lui	a3,0x80002
    5304:	00e787b3          	add	a5,a5,a4
		   / baud_rate) >> 4;
    5308:	0001c737          	lui	a4,0x1c
    530c:	20070713          	addi	a4,a4,512 # 1c200 <__data_region_end+0xd860>
    5310:	02e7d7b3          	divu	a5,a5,a4
    5314:	00c6c703          	lbu	a4,12(a3) # 8000200c <CONFIG_SYSTEM_WORKQUEUE_PRIORITY+0x8000200d>
	sys_write8((divisor >> 8) & 0xff, REG_BRDH);

	sys_write8(lcr_cache, REG_LCR);

	return 0;
}
    5318:	00000513          	li	a0,0
    531c:	0ff77613          	andi	a2,a4,255
	sys_write8(lcr_cache | LCR_DLAB, REG_LCR);
    5320:	f8076713          	ori	a4,a4,-128
    5324:	0ff77713          	andi	a4,a4,255
	*(volatile uint8_t *)addr = data;
    5328:	00e68623          	sb	a4,12(a3)
	divisor = ((sys_clk_freq + (baud_rate << 3))
    532c:	0047d713          	srli	a4,a5,0x4
	sys_write8( divisor       & 0xff, REG_BRDL);
    5330:	0ff77713          	andi	a4,a4,255
	sys_write8((divisor >> 8) & 0xff, REG_BRDH);
    5334:	00c7d793          	srli	a5,a5,0xc
    5338:	00e68023          	sb	a4,0(a3)
    533c:	0ff7f793          	andi	a5,a5,255
    5340:	00f68223          	sb	a5,4(a3)
    5344:	00c68623          	sb	a2,12(a3)
}
    5348:	00008067          	ret

0000534c <arch_cpu_idle>:
 */
static ALWAYS_INLINE void arch_irq_unlock(unsigned int key)
{
	ulong_t mstatus;

	__asm__ volatile ("csrrs %0, mstatus, %1"
    534c:	00800793          	li	a5,8
    5350:	3007a7f3          	csrrs	a5,mstatus,a5
 */

void __weak arch_cpu_idle(void)
{
	irq_unlock(MSTATUS_IEN);
}
    5354:	00008067          	ret

00005358 <z_riscv_fatal_error>:
 #define NO_REG "                "
#endif

FUNC_NORETURN void z_riscv_fatal_error(unsigned int reason,
				       const z_arch_esf_t *esf)
{
    5358:	ff010113          	addi	sp,sp,-16
    535c:	00112623          	sw	ra,12(sp)
		LOG_ERR("   mepc: " PR_REG, esf->mepc);
		LOG_ERR("mstatus: " PR_REG, esf->mstatus);
		LOG_ERR("");
	}

	z_fatal_error(reason, esf);
    5360:	455000ef          	jal	ra,5fb4 <z_fatal_error>

00005364 <_Fault>:
		return "unknown";
	}
}

void _Fault(z_arch_esf_t *esf)
{
    5364:	ff010113          	addi	sp,sp,-16
    5368:	00112623          	sw	ra,12(sp)
    536c:	00050593          	mv	a1,a0
		}
	}
#endif /* CONFIG_USERSPACE */
	ulong_t mcause;

	__asm__ volatile("csrr %0, mcause" : "=r" (mcause));
    5370:	342027f3          	csrr	a5,mcause

#ifndef CONFIG_SOC_OPENISA_RV32M1_RISCV32
	ulong_t mtval;
	__asm__ volatile("csrr %0, mtval" : "=r" (mtval));
    5374:	343027f3          	csrr	a5,mtval
	z_fatal_error(reason, esf);
    5378:	00000513          	li	a0,0
    537c:	439000ef          	jal	ra,5fb4 <z_fatal_error>

00005380 <z_irq_spurious>:
#include <kernel_internal.h>
#include <logging/log.h>
LOG_MODULE_DECLARE(os, CONFIG_KERNEL_LOG_LEVEL);

FUNC_NORETURN void z_irq_spurious(const void *unused)
{
    5380:	ff010113          	addi	sp,sp,-16
    5384:	00112623          	sw	ra,12(sp)
	ulong_t mcause;

	ARG_UNUSED(unused);

	__asm__ volatile("csrr %0, mcause" : "=r" (mcause));
    5388:	342027f3          	csrr	a5,mcause
	if (mcause == RISCV_MACHINE_EXT_IRQ) {
		LOG_ERR("PLIC interrupt line causing the IRQ: %d",
			riscv_plic_get_irq());
	}
#endif
	z_riscv_fatal_error(K_ERR_SPURIOUS_IRQ, NULL);
    538c:	00000593          	li	a1,0
    5390:	00100513          	li	a0,1
    5394:	fc5ff0ef          	jal	ra,5358 <z_riscv_fatal_error>

00005398 <_PrepC>:
 *
 * @return N/A
 */

void _PrepC(void)
{
    5398:	ff010113          	addi	sp,sp,-16
    539c:	00112623          	sw	ra,12(sp)
	z_bss_zero();
    53a0:	575000ef          	jal	ra,6114 <z_bss_zero>
#ifdef CONFIG_XIP
	z_data_copy();
#endif
#if defined(CONFIG_RISCV_SOC_INTERRUPT_INIT)
	soc_interrupt_init();
    53a4:	f3dff0ef          	jal	ra,52e0 <soc_interrupt_init>
#endif
#ifdef CONFIG_PMP_STACK_GUARD
	z_riscv_configure_interrupt_stack_guard();
#endif
	z_cstart();
    53a8:	58d000ef          	jal	ra,6134 <z_cstart>

000053ac <__initialize>:
SECTION_FUNC(TEXT, __initialize)
	/*
	 * This will boot master core, just halt other cores.
	 * Note: need to be updated for complete SMP support
	 */
	csrr a0, mhartid
    53ac:	f1402573          	csrr	a0,mhartid
	beqz a0, boot_master_core
    53b0:	00050663          	beqz	a0,53bc <boot_master_core>

000053b4 <loop_slave_core>:

loop_slave_core:
	wfi
    53b4:	10500073          	wfi
	j loop_slave_core
    53b8:	ffdff06f          	j	53b4 <loop_slave_core>

000053bc <boot_master_core>:

	/*
	 * Initially, setup stack pointer to
	 * z_interrupt_stacks + CONFIG_ISR_STACK_SIZE
	 */
	la sp, z_interrupt_stacks
    53bc:	00009117          	auipc	sp,0x9
    53c0:	96410113          	addi	sp,sp,-1692 # dd20 <z_interrupt_stacks>
	li t0, CONFIG_ISR_STACK_SIZE
    53c4:	000012b7          	lui	t0,0x1
    53c8:	80028293          	addi	t0,t0,-2048 # 800 <CONFIG_ISR_STACK_SIZE>
	add sp, sp, t0
    53cc:	00510133          	add	sp,sp,t0

	csrw mscratch, sp
    53d0:	34011073          	csrw	mscratch,sp

	/*
	 * Jump into C domain. _PrepC zeroes BSS, copies rw data into RAM,
	 * and then enters kernel z_cstart
	 */
	call _PrepC
    53d4:	fc5ff0ef          	jal	ra,5398 <_PrepC>

000053d8 <z_thread_entry_wrapper>:
	 * in registers a0, a1, a2 and a3. These registers are used as arguments
	 * to function z_thread_entry. Hence, just call z_thread_entry with
	 * return address set to 0 to indicate a non-returning function call.
	 */

	jal x0, z_thread_entry
    53d8:	a38ff06f          	j	4610 <z_thread_entry>

000053dc <arch_new_thread>:
#ifdef CONFIG_RISCV_SOC_CONTEXT_SAVE
	const struct soc_esf soc_esf_init = {SOC_ESF_INIT};
#endif

	/* Initial stack frame for thread */
	stack_init = (struct __esf *)Z_STACK_PTR_ALIGN(
    53dc:	fb460613          	addi	a2,a2,-76 # 3fb4 <main+0x34>
 * @param ptr Proposed stack pointer address
 * @return Properly aligned stack pointer address
 */
static inline char *z_stack_ptr_align(char *ptr)
{
	return (char *)ROUND_DOWN(ptr, ARCH_STACK_PTR_ALIGN);
    53e0:	ff067613          	andi	a2,a2,-16
				);

	/* Setup the initial stack frame */
	stack_init->a0 = (ulong_t)entry;
	stack_init->a1 = (ulong_t)p1;
	stack_init->a2 = (ulong_t)p2;
    53e4:	02f62623          	sw	a5,44(a2)
	 *    restored following the MSTATUS value set within the thread stack;
	 * 2) the core will jump to z_thread_entry_wrapper, as the program
	 *    counter will be restored following the MEPC value set within the
	 *    thread stack.
	 */
	stack_init->mstatus = MSTATUS_DEF_RESTORE;
    53e8:	000027b7          	lui	a5,0x2
    53ec:	88078793          	addi	a5,a5,-1920 # 1880 <__muldf3+0x548>
    53f0:	04f62423          	sw	a5,72(a2)
#elif defined(CONFIG_FPU)
	/* Unshared FP mode: enable FPU of each thread. */
	stack_init->mstatus |= MSTATUS_FS_INIT;
#endif

	stack_init->mepc = (ulong_t)z_thread_entry_wrapper;
    53f4:	000057b7          	lui	a5,0x5
    53f8:	3d878793          	addi	a5,a5,984 # 53d8 <z_thread_entry_wrapper>
	stack_init->a0 = (ulong_t)entry;
    53fc:	02d62223          	sw	a3,36(a2)
	stack_init->a1 = (ulong_t)p1;
    5400:	02e62423          	sw	a4,40(a2)
	stack_init->a3 = (ulong_t)p3;
    5404:	03062823          	sw	a6,48(a2)
	stack_init->mepc = (ulong_t)z_thread_entry_wrapper;
    5408:	04f62223          	sw	a5,68(a2)

#ifdef CONFIG_RISCV_SOC_CONTEXT_SAVE
	stack_init->soc_context = soc_esf_init;
#endif

	thread->callee_saved.sp = (ulong_t)stack_init;
    540c:	02c52c23          	sw	a2,56(a0)
}
    5410:	00008067          	ret

00005414 <malloc_prepare>:
		 "memory space available for newlib heap is less than the "
		 "minimum required size specified by "
		 "CONFIG_NEWLIB_LIBC_MIN_REQUIRED_HEAP_SIZE");

	return 0;
}
    5414:	00000513          	li	a0,0
    5418:	00008067          	ret

0000541c <_stdout_hook_default>:
static int _stdout_hook_default(int c)
{
	(void)(c);  /* Prevent warning about unused argument */

	return EOF;
}
    541c:	fff00513          	li	a0,-1
    5420:	00008067          	ret

00005424 <_stdin_hook_default>:
}

static unsigned char _stdin_hook_default(void)
{
	return 0;
}
    5424:	00000513          	li	a0,0
    5428:	00008067          	ret

0000542c <__stdout_hook_install>:
	_stdout_hook = hook;
    542c:	0000e7b7          	lui	a5,0xe
    5430:	70a7a423          	sw	a0,1800(a5) # e708 <_stdout_hook>
}
    5434:	00008067          	ret

00005438 <z_impl_zephyr_read_stdin>:
{
	_stdin_hook = hook;
}

int z_impl_zephyr_read_stdin(char *buf, int nbytes)
{
    5438:	fe010113          	addi	sp,sp,-32
    543c:	00812c23          	sw	s0,24(sp)
    5440:	00912a23          	sw	s1,20(sp)
    5444:	01212823          	sw	s2,16(sp)
    5448:	01312623          	sw	s3,12(sp)
    544c:	01412423          	sw	s4,8(sp)
    5450:	01512223          	sw	s5,4(sp)
    5454:	00112e23          	sw	ra,28(sp)
    5458:	00050913          	mv	s2,a0
    545c:	00058493          	mv	s1,a1
	int i = 0;

	for (i = 0; i < nbytes; i++) {
    5460:	00000413          	li	s0,0
		*(buf + i) = _stdin_hook();
    5464:	0000e9b7          	lui	s3,0xe
		if ((*(buf + i) == '\n') || (*(buf + i) == '\r')) {
    5468:	00a00a13          	li	s4,10
    546c:	00d00a93          	li	s5,13
	for (i = 0; i < nbytes; i++) {
    5470:	02945063          	bge	s0,s1,5490 <z_impl_zephyr_read_stdin+0x58>
		*(buf + i) = _stdin_hook();
    5474:	7049a783          	lw	a5,1796(s3) # e704 <_stdin_hook>
    5478:	000780e7          	jalr	a5
    547c:	008907b3          	add	a5,s2,s0
    5480:	00a78023          	sb	a0,0(a5)
	for (i = 0; i < nbytes; i++) {
    5484:	00140413          	addi	s0,s0,1
		if ((*(buf + i) == '\n') || (*(buf + i) == '\r')) {
    5488:	01450463          	beq	a0,s4,5490 <z_impl_zephyr_read_stdin+0x58>
    548c:	ff5512e3          	bne	a0,s5,5470 <z_impl_zephyr_read_stdin+0x38>
			i++;
			break;
		}
	}
	return i;
}
    5490:	01c12083          	lw	ra,28(sp)
    5494:	00040513          	mv	a0,s0
    5498:	01812403          	lw	s0,24(sp)
    549c:	01412483          	lw	s1,20(sp)
    54a0:	01012903          	lw	s2,16(sp)
    54a4:	00c12983          	lw	s3,12(sp)
    54a8:	00812a03          	lw	s4,8(sp)
    54ac:	00412a83          	lw	s5,4(sp)
    54b0:	02010113          	addi	sp,sp,32
    54b4:	00008067          	ret

000054b8 <z_impl_zephyr_write_stdout>:
}
#include <syscalls/zephyr_read_stdin_mrsh.c>
#endif

int z_impl_zephyr_write_stdout(const void *buffer, int nbytes)
{
    54b8:	fe010113          	addi	sp,sp,-32
    54bc:	00812c23          	sw	s0,24(sp)
    54c0:	00912a23          	sw	s1,20(sp)
    54c4:	01212823          	sw	s2,16(sp)
    54c8:	01512223          	sw	s5,4(sp)
    54cc:	01612023          	sw	s6,0(sp)
    54d0:	00112e23          	sw	ra,28(sp)
    54d4:	01312623          	sw	s3,12(sp)
    54d8:	01412423          	sw	s4,8(sp)
    54dc:	00050913          	mv	s2,a0
    54e0:	00058413          	mv	s0,a1
	const char *buf = buffer;
	int i;

	for (i = 0; i < nbytes; i++) {
    54e4:	00000493          	li	s1,0
		if (*(buf + i) == '\n') {
    54e8:	00a00a93          	li	s5,10
    54ec:	0000eb37          	lui	s6,0xe
	for (i = 0; i < nbytes; i++) {
    54f0:	0284c863          	blt	s1,s0,5520 <z_impl_zephyr_write_stdout+0x68>
			_stdout_hook('\r');
		}
		_stdout_hook(*(buf + i));
	}
	return nbytes;
}
    54f4:	01c12083          	lw	ra,28(sp)
    54f8:	00040513          	mv	a0,s0
    54fc:	01812403          	lw	s0,24(sp)
    5500:	01412483          	lw	s1,20(sp)
    5504:	01012903          	lw	s2,16(sp)
    5508:	00c12983          	lw	s3,12(sp)
    550c:	00812a03          	lw	s4,8(sp)
    5510:	00412a83          	lw	s5,4(sp)
    5514:	00012b03          	lw	s6,0(sp)
    5518:	02010113          	addi	sp,sp,32
    551c:	00008067          	ret
		if (*(buf + i) == '\n') {
    5520:	009909b3          	add	s3,s2,s1
    5524:	0009c783          	lbu	a5,0(s3)
    5528:	708b0a13          	addi	s4,s6,1800 # e708 <_stdout_hook>
    552c:	01579863          	bne	a5,s5,553c <z_impl_zephyr_write_stdout+0x84>
			_stdout_hook('\r');
    5530:	000a2783          	lw	a5,0(s4)
    5534:	00d00513          	li	a0,13
    5538:	000780e7          	jalr	a5
		_stdout_hook(*(buf + i));
    553c:	000a2783          	lw	a5,0(s4)
    5540:	0009c503          	lbu	a0,0(s3)
	for (i = 0; i < nbytes; i++) {
    5544:	00148493          	addi	s1,s1,1
		_stdout_hook(*(buf + i));
    5548:	000780e7          	jalr	a5
	for (i = 0; i < nbytes; i++) {
    554c:	fa5ff06f          	j	54f0 <z_impl_zephyr_write_stdout+0x38>

00005550 <_read>:
#include <syscalls/zephyr_write_stdout_mrsh.c>
#endif

#ifndef CONFIG_POSIX_API
int _read(int fd, char *buf, int nbytes)
{
    5550:	00058513          	mv	a0,a1
    5554:	00060593          	mv	a1,a2
		/* coverity[OVERRUN] */
		return (int) arch_syscall_invoke2(*(uintptr_t *)&buf, *(uintptr_t *)&nbytes, K_SYSCALL_ZEPHYR_READ_STDIN);
	}
#endif
	compiler_barrier();
	return z_impl_zephyr_read_stdin(buf, nbytes);
    5558:	ee1ff06f          	j	5438 <z_impl_zephyr_read_stdin>

0000555c <_write>:
	return zephyr_read_stdin(buf, nbytes);
}
__weak FUNC_ALIAS(_read, read, int);

int _write(int fd, const void *buf, int nbytes)
{
    555c:	00058513          	mv	a0,a1
    5560:	00060593          	mv	a1,a2
		/* coverity[OVERRUN] */
		return (int) arch_syscall_invoke2(*(uintptr_t *)&buf, *(uintptr_t *)&nbytes, K_SYSCALL_ZEPHYR_WRITE_STDOUT);
	}
#endif
	compiler_barrier();
	return z_impl_zephyr_write_stdout(buf, nbytes);
    5564:	f55ff06f          	j	54b8 <z_impl_zephyr_write_stdout>

00005568 <_close>:
    5568:	fff00513          	li	a0,-1
    556c:	00008067          	ret

00005570 <_lseek>:
__weak FUNC_ALIAS(_close, close, int);

int _lseek(int file, int ptr, int dir)
{
	return 0;
}
    5570:	00000513          	li	a0,0
    5574:	00008067          	ret

00005578 <_isatty>:
#endif

int _isatty(int file)
{
	return file <= 2;
}
    5578:	00352513          	slti	a0,a0,3
    557c:	00008067          	ret

00005580 <_kill>:
__weak FUNC_ALIAS(_isatty, isatty, int);

int _kill(int i, int j)
{
	return 0;
}
    5580:	00000513          	li	a0,0
    5584:	00008067          	ret

00005588 <_getpid>:
__weak FUNC_ALIAS(_kill, kill, int);

int _getpid(void)
{
	return 0;
}
    5588:	00000513          	li	a0,0
    558c:	00008067          	ret

00005590 <_fstat>:
__weak FUNC_ALIAS(_getpid, getpid, int);

int _fstat(int file, struct stat *st)
{
	st->st_mode = S_IFCHR;
    5590:	000027b7          	lui	a5,0x2
    5594:	00f5a223          	sw	a5,4(a1)
	return 0;
}
    5598:	00000513          	li	a0,0
    559c:	00008067          	ret

000055a0 <_exit>:
__weak FUNC_ALIAS(_fstat, fstat, int);

__weak void _exit(int status)
{
    55a0:	ff010113          	addi	sp,sp,-16
    55a4:	00112623          	sw	ra,12(sp)
    55a8:	0000c537          	lui	a0,0xc
    55ac:	00500593          	li	a1,5
    55b0:	79450513          	addi	a0,a0,1940 # c794 <dts_ord_9_cfg+0xc>
    55b4:	f05ff0ef          	jal	ra,54b8 <z_impl_zephyr_write_stdout>
	_write(1, "exit\n", 5);
	while (1) {
    55b8:	0000006f          	j	55b8 <_exit+0x18>

000055bc <_sbrk>:

void *_sbrk(intptr_t count)
{
	void *ret, *ptr;

	ptr = ((char *)HEAP_BASE) + heap_sz;
    55bc:	0000d737          	lui	a4,0xd
    55c0:	c1c70713          	addi	a4,a4,-996 # cc1c <heap_sz>
    55c4:	00072783          	lw	a5,0(a4)

	if ((heap_sz + count) < MAX_HEAP_SIZE) {
    55c8:	00800637          	lui	a2,0x800
    55cc:	00f506b3          	add	a3,a0,a5
    55d0:	0000f537          	lui	a0,0xf
    55d4:	9a050513          	addi	a0,a0,-1632 # e9a0 <__data_region_end>
    55d8:	40a60633          	sub	a2,a2,a0
    55dc:	00c6f863          	bgeu	a3,a2,55ec <_sbrk+0x30>
	ptr = ((char *)HEAP_BASE) + heap_sz;
    55e0:	00a78533          	add	a0,a5,a0
		heap_sz += count;
    55e4:	00d72023          	sw	a3,0(a4)
		ret = ptr;
    55e8:	00008067          	ret
	} else {
		ret = (void *)-1;
    55ec:	fff00513          	li	a0,-1
	}

	return ret;
}
    55f0:	00008067          	ret

000055f4 <__retarget_lock_init_recursive>:
	k_sem_init((struct k_sem *)*lock, 1, 1);
}

/* Create a new dynamic recursive lock */
void __retarget_lock_init_recursive(_LOCK_T *lock)
{
    55f4:	ff010113          	addi	sp,sp,-16
    55f8:	00812423          	sw	s0,8(sp)
    55fc:	00050413          	mv	s0,a0
	__ASSERT_NO_MSG(lock != NULL);

	/* Allocate mutex object */
#ifndef CONFIG_USERSPACE
	*lock = malloc(sizeof(struct k_mutex));
    5600:	01400513          	li	a0,20
{
    5604:	00112623          	sw	ra,12(sp)
	*lock = malloc(sizeof(struct k_mutex));
    5608:	2fc020ef          	jal	ra,7904 <malloc>
    560c:	00a42023          	sw	a0,0(s0)
	*lock = k_object_alloc(K_OBJ_MUTEX);
#endif /* !CONFIG_USERSPACE */
	__ASSERT(*lock != NULL, "recursive lock allocation failed");

	k_mutex_init((struct k_mutex *)*lock);
}
    5610:	00812403          	lw	s0,8(sp)
    5614:	00c12083          	lw	ra,12(sp)
    5618:	01010113          	addi	sp,sp,16
	return z_impl_k_mutex_init(mutex);
    561c:	6c10006f          	j	64dc <z_impl_k_mutex_init>

00005620 <__retarget_lock_acquire_recursive>:
	return z_impl_k_mutex_lock(mutex, timeout);
    5620:	fff00593          	li	a1,-1
    5624:	fff00613          	li	a2,-1
    5628:	6cd0006f          	j	64f4 <z_impl_k_mutex_lock>

0000562c <__retarget_lock_release_recursive>:
	return z_impl_k_mutex_unlock(mutex);
    562c:	0280106f          	j	6654 <z_impl_k_mutex_unlock>

00005630 <z_impl_sys_rand32_get>:
 *
 * @return a 32-bit number
 */

uint32_t z_impl_sys_rand32_get(void)
{
    5630:	ff010113          	addi	sp,sp,-16
    5634:	00812423          	sw	s0,8(sp)
    5638:	00112623          	sw	ra,12(sp)

extern uint32_t sys_clock_cycle_get_32(void);

static inline uint32_t arch_k_cycle_get_32(void)
{
	return sys_clock_cycle_get_32();
    563c:	079000ef          	jal	ra,5eb4 <sys_clock_cycle_get_32>
    5640:	00050413          	mv	s0,a0
		/* coverity[OVERRUN] */
		return (atomic_val_t) arch_syscall_invoke2(*(uintptr_t *)&target, *(uintptr_t *)&value, K_SYSCALL_ATOMIC_ADD);
	}
#endif
	compiler_barrier();
	return z_impl_atomic_add(target, value);
    5644:	3b9ad5b7          	lui	a1,0x3b9ad
    5648:	0000d537          	lui	a0,0xd
    564c:	a0358593          	addi	a1,a1,-1533 # 3b9aca03 <CONFIG_SYS_CLOCK_HW_CYCLES_PER_SEC+0x389fd983>
    5650:	c2050513          	addi	a0,a0,-992 # cc20 <_rand32_counter>
    5654:	270020ef          	jal	ra,78c4 <z_impl_atomic_add>
	return k_cycle_get_32() + atomic_add(&_rand32_counter, _RAND32_INC);
}
    5658:	00c12083          	lw	ra,12(sp)
    565c:	00850533          	add	a0,a0,s0
    5660:	00812403          	lw	s0,8(sp)
    5664:	01010113          	addi	sp,sp,16
    5668:	00008067          	ret

0000566c <swerv_pic_init>:
	return *(volatile uint32_t *)(DT_INST_REG_ADDR(0) + reg);
}

static void swerv_pic_write(uint32_t reg, uint32_t val)
{
	*(volatile uint32_t *)(DT_INST_REG_ADDR(0) + reg) = val;
    566c:	f00c37b7          	lui	a5,0xf00c3
    5670:	0007a023          	sw	zero,0(a5) # f00c3000 <CONFIG_SYSTEM_WORKQUEUE_PRIORITY+0xf00c3001>
    5674:	f00c27b7          	lui	a5,0xf00c2
    5678:	00478713          	addi	a4,a5,4 # f00c2004 <CONFIG_SYSTEM_WORKQUEUE_PRIORITY+0xf00c2005>

	/* Init priority order to 0, 0=lowest to 15=highest */
	swerv_pic_write(SWERV_PIC_mpiccfg, 0);

	/* Ensure that all interrupts are disabled initially */
	for (i = 1; i < SWERV_PIC_MAX_ID; i++) {
    567c:	12c78793          	addi	a5,a5,300
	*(volatile uint32_t *)(DT_INST_REG_ADDR(0) + reg) = val;
    5680:	00072023          	sw	zero,0(a4)
	for (i = 1; i < SWERV_PIC_MAX_ID; i++) {
    5684:	00470713          	addi	a4,a4,4
    5688:	fef71ce3          	bne	a4,a5,5680 <swerv_pic_init+0x14>
    568c:	f00c07b7          	lui	a5,0xf00c0
    5690:	00478713          	addi	a4,a5,4 # f00c0004 <CONFIG_SYSTEM_WORKQUEUE_PRIORITY+0xf00c0005>
	*(volatile uint32_t *)(DT_INST_REG_ADDR(0) + reg) = val;
    5694:	00f00693          	li	a3,15
		swerv_pic_write(SWERV_PIC_meie(i), 0);
	}

	/* Set priority of each interrupt line to 0 initially */
	for (i = 1; i < SWERV_PIC_MAX_ID; i++) {
    5698:	12c78793          	addi	a5,a5,300
	*(volatile uint32_t *)(DT_INST_REG_ADDR(0) + reg) = val;
    569c:	00d72023          	sw	a3,0(a4)
	for (i = 1; i < SWERV_PIC_MAX_ID; i++) {
    56a0:	00470713          	addi	a4,a4,4
    56a4:	fef71ce3          	bne	a4,a5,569c <swerv_pic_init+0x30>
    56a8:	f00c47b7          	lui	a5,0xf00c4
    56ac:	00478713          	addi	a4,a5,4 # f00c4004 <CONFIG_SYSTEM_WORKQUEUE_PRIORITY+0xf00c4005>
		swerv_pic_write(SWERV_PIC_meipl(i), 15);
	}

	/* Set property of each interrupt line to level-triggered/high */
	for (i = 1; i < SWERV_PIC_MAX_ID; i++) {
    56b0:	12c78793          	addi	a5,a5,300
	*(volatile uint32_t *)(DT_INST_REG_ADDR(0) + reg) = val;
    56b4:	00072023          	sw	zero,0(a4)
	for (i = 1; i < SWERV_PIC_MAX_ID; i++) {
    56b8:	00470713          	addi	a4,a4,4
    56bc:	fef71ce3          	bne	a4,a5,56b4 <swerv_pic_init+0x48>
    56c0:	f00c57b7          	lui	a5,0xf00c5
    56c4:	00478713          	addi	a4,a5,4 # f00c5004 <CONFIG_SYSTEM_WORKQUEUE_PRIORITY+0xf00c5005>
		swerv_pic_write(SWERV_PIC_meigwctrl(i), (0<<1)|(0<<0));
	}

	/* clear pending of each interrupt line */
	for (i = 1; i < SWERV_PIC_MAX_ID; i++) {
    56c8:	12c78793          	addi	a5,a5,300
	*(volatile uint32_t *)(DT_INST_REG_ADDR(0) + reg) = val;
    56cc:	00072023          	sw	zero,0(a4)
	for (i = 1; i < SWERV_PIC_MAX_ID; i++) {
    56d0:	00470713          	addi	a4,a4,4
    56d4:	fef71ce3          	bne	a4,a5,56cc <swerv_pic_init+0x60>
		swerv_pic_write(SWERV_PIC_meigwclr(i), 0);
	}

	/* No interrupts masked */
	__asm__ swerv_pic_writecsr(meipt, 0);
    56d8:	bc905073          	csrwi	0xbc9,0
	__asm__ swerv_pic_writecsr(meicidpl, 0);
    56dc:	bcb05073          	csrwi	0xbcb,0
	__asm__ swerv_pic_writecsr(meicurpl, 0);
    56e0:	bcc05073          	csrwi	0xbcc,0

	/*
	 * CSR mie register is updated using atomic instruction csrrs
	 * (atomic read and set bits in CSR register)
	 */
	__asm__ volatile ("csrrs %0, mie, %1\n"
    56e4:	000017b7          	lui	a5,0x1
    56e8:	80078793          	addi	a5,a5,-2048 # 800 <CONFIG_ISR_STACK_SIZE>
    56ec:	3047a7f3          	csrrs	a5,mie,a5
}
    56f0:	00000513          	li	a0,0
    56f4:	00008067          	ret

000056f8 <swerv_pic_irq_handler>:
{
    56f8:	ff010113          	addi	sp,sp,-16
    56fc:	00112623          	sw	ra,12(sp)
    5700:	00812423          	sw	s0,8(sp)
	__asm__ swerv_pic_writecsr(meicpct, 0);
    5704:	bca05073          	csrwi	0xbca,0
	__asm__ swerv_pic_readcsr(meihap, tmp);
    5708:	fc802473          	csrr	s0,0xfc8
	irq = (tmp >> 2) & 0xff;
    570c:	00245413          	srli	s0,s0,0x2
    5710:	0ff47413          	andi	s0,s0,255
	save_irq = irq;
    5714:	0000d7b7          	lui	a5,0xd
    5718:	c287a223          	sw	s0,-988(a5) # cc24 <save_irq>
	if (irq == 0U || irq >= 64) {
    571c:	fff40713          	addi	a4,s0,-1
    5720:	03e00793          	li	a5,62
    5724:	00e7f663          	bgeu	a5,a4,5730 <swerv_pic_irq_handler+0x38>
		z_irq_spurious(NULL);
    5728:	00000513          	li	a0,0
    572c:	c55ff0ef          	jal	ra,5380 <z_irq_spurious>
	irq += RISCV_MAX_GENERIC_IRQ;
    5730:	00b40713          	addi	a4,s0,11
	if (ite->isr)
    5734:	0000e7b7          	lui	a5,0xe
    5738:	00371713          	slli	a4,a4,0x3
    573c:	72478793          	addi	a5,a5,1828 # e724 <_sw_isr_table>
    5740:	00e787b3          	add	a5,a5,a4
    5744:	0047a703          	lw	a4,4(a5)
    5748:	00070663          	beqz	a4,5754 <swerv_pic_irq_handler+0x5c>
		ite->isr(ite->arg);
    574c:	0007a503          	lw	a0,0(a5)
    5750:	000700e7          	jalr	a4
	swerv_pic_write(SWERV_PIC_meigwclr(irq), 0);
    5754:	000017b7          	lui	a5,0x1
    5758:	40b78793          	addi	a5,a5,1035 # 140b <__muldf3+0xd3>
    575c:	00f40433          	add	s0,s0,a5
    5760:	00241413          	slli	s0,s0,0x2
	*(volatile uint32_t *)(DT_INST_REG_ADDR(0) + reg) = val;
    5764:	f00c07b7          	lui	a5,0xf00c0
    5768:	00f40433          	add	s0,s0,a5
}
    576c:	00c12083          	lw	ra,12(sp)
	*(volatile uint32_t *)(DT_INST_REG_ADDR(0) + reg) = val;
    5770:	00042023          	sw	zero,0(s0)
}
    5774:	00812403          	lw	s0,8(sp)
    5778:	01010113          	addi	sp,sp,16
    577c:	00008067          	ret

00005780 <swerv_pic_irq_enable>:
	if ((irq >= SWERV_PIC_MAX_ID) || (irq < RISCV_MAX_GENERIC_IRQ)) {
    5780:	ff550713          	addi	a4,a0,-11
    5784:	03f00793          	li	a5,63
    5788:	02e7e663          	bltu	a5,a4,57b4 <swerv_pic_irq_enable+0x34>
	__asm__ volatile ("csrrc %0, mstatus, %1"
    578c:	00800793          	li	a5,8
    5790:	3007b7f3          	csrrc	a5,mstatus,a5
	swerv_pic_write(SWERV_PIC_meie(irq - RISCV_MAX_GENERIC_IRQ), 1);
    5794:	7f550513          	addi	a0,a0,2037
	*(volatile uint32_t *)(DT_INST_REG_ADDR(0) + reg) = val;
    5798:	f00c0737          	lui	a4,0xf00c0
	swerv_pic_write(SWERV_PIC_meie(irq - RISCV_MAX_GENERIC_IRQ), 1);
    579c:	00251513          	slli	a0,a0,0x2
	*(volatile uint32_t *)(DT_INST_REG_ADDR(0) + reg) = val;
    57a0:	00e50533          	add	a0,a0,a4
    57a4:	00100713          	li	a4,1
    57a8:	00e52023          	sw	a4,0(a0)
	key = (mstatus & MSTATUS_IEN);
    57ac:	0087f793          	andi	a5,a5,8
	__asm__ volatile ("csrrs %0, mstatus, %1"
    57b0:	3007a7f3          	csrrs	a5,mstatus,a5
}
    57b4:	00008067          	ret

000057b8 <arch_irq_enable>:
	if (irq > RISCV_MAX_GENERIC_IRQ) {
    57b8:	00b00793          	li	a5,11
    57bc:	00a7f463          	bgeu	a5,a0,57c4 <arch_irq_enable+0xc>
		swerv_pic_irq_enable(irq);
    57c0:	fc1ff06f          	j	5780 <swerv_pic_irq_enable>
			  : "=r" (mie)
			  : "r" (1 << irq));
    57c4:	00100793          	li	a5,1
    57c8:	00a79533          	sll	a0,a5,a0
	__asm__ volatile ("csrrs %0, mie, %1\n"
    57cc:	30452573          	csrrs	a0,mie,a0
}
    57d0:	00008067          	ret

000057d4 <uart_console_init>:
{

	ARG_UNUSED(arg);

	/* Claim console device */
	uart_console_dev = DEVICE_DT_GET(DT_CHOSEN(zephyr_console));
    57d4:	0000c537          	lui	a0,0xc
{
    57d8:	ff010113          	addi	sp,sp,-16
	uart_console_dev = DEVICE_DT_GET(DT_CHOSEN(zephyr_console));
    57dc:	1b850713          	addi	a4,a0,440 # c1b8 <__device_dts_ord_11>
    57e0:	0000d7b7          	lui	a5,0xd
{
    57e4:	00112623          	sw	ra,12(sp)
    57e8:	00812423          	sw	s0,8(sp)
	uart_console_dev = DEVICE_DT_GET(DT_CHOSEN(zephyr_console));
    57ec:	c2e7a423          	sw	a4,-984(a5) # cc28 <uart_console_dev>
 *
 * @return a non-positive integer as documented in device_usable_check().
 */
static inline int z_device_usable_check(const struct device *dev)
{
	return z_device_ready(dev) ? 0 : -ENODEV;
    57f0:	1b850513          	addi	a0,a0,440
    57f4:	784000ef          	jal	ra,5f78 <z_device_ready>
    57f8:	fed00793          	li	a5,-19
    57fc:	00050e63          	beqz	a0,5818 <uart_console_init+0x44>
	__stdout_hook_install(console_out);
    5800:	00006437          	lui	s0,0x6
    5804:	82c40513          	addi	a0,s0,-2004 # 582c <console_out>
    5808:	c25ff0ef          	jal	ra,542c <__stdout_hook_install>
	__printk_hook_install(console_out);
    580c:	82c40513          	addi	a0,s0,-2004
    5810:	d05fe0ef          	jal	ra,4514 <__printk_hook_install>
		return -ENODEV;
	}

	uart_console_hook_install();

	return 0;
    5814:	00000793          	li	a5,0
}
    5818:	00c12083          	lw	ra,12(sp)
    581c:	00812403          	lw	s0,8(sp)
    5820:	00078513          	mv	a0,a5
    5824:	01010113          	addi	sp,sp,16
    5828:	00008067          	ret

0000582c <console_out>:
{
    582c:	ff010113          	addi	sp,sp,-16
    5830:	00812423          	sw	s0,8(sp)
    5834:	00912223          	sw	s1,4(sp)
    5838:	00112623          	sw	ra,12(sp)
    583c:	0000d4b7          	lui	s1,0xd
	if ('\n' == c) {
    5840:	00a00793          	li	a5,10
{
    5844:	00050413          	mv	s0,a0
    5848:	c2848493          	addi	s1,s1,-984 # cc28 <uart_console_dev>
	if ('\n' == c) {
    584c:	00f51c63          	bne	a0,a5,5864 <console_out+0x38>
		uart_poll_out(uart_console_dev, '\r');
    5850:	0004a503          	lw	a0,0(s1)
						unsigned char out_char)
{
	const struct uart_driver_api *api =
		(const struct uart_driver_api *)dev->api;

	api->poll_out(dev, out_char);
    5854:	00852783          	lw	a5,8(a0)
    5858:	00d00593          	li	a1,13
    585c:	0047a783          	lw	a5,4(a5)
    5860:	000780e7          	jalr	a5
	uart_poll_out(uart_console_dev, c);
    5864:	0004a503          	lw	a0,0(s1)
    5868:	00852783          	lw	a5,8(a0)
    586c:	0ff47593          	andi	a1,s0,255
    5870:	0047a783          	lw	a5,4(a5)
    5874:	000780e7          	jalr	a5
}
    5878:	00c12083          	lw	ra,12(sp)
    587c:	00040513          	mv	a0,s0
    5880:	00812403          	lw	s0,8(sp)
    5884:	00412483          	lw	s1,4(sp)
    5888:	01010113          	addi	sp,sp,16
    588c:	00008067          	ret

00005890 <gpio_mmio32_config>:

static int gpio_mmio32_config(const struct device *dev,
			      gpio_pin_t pin, gpio_flags_t flags)
{
	struct gpio_mmio32_context *context = dev->data;
	const struct gpio_mmio32_config *config = context->config;
    5890:	01052783          	lw	a5,16(a0)
    5894:	0047a683          	lw	a3,4(a5)

	if ((config->mask & (1 << pin)) == 0) {
    5898:	00100793          	li	a5,1
    589c:	00b795b3          	sll	a1,a5,a1
    58a0:	0086a783          	lw	a5,8(a3)
    58a4:	00f5f7b3          	and	a5,a1,a5
    58a8:	06078c63          	beqz	a5,5920 <gpio_mmio32_config+0x90>
		return -EINVAL; /* Pin not in our validity mask */
	}

	if (flags & ~(GPIO_INPUT | GPIO_OUTPUT |
    58ac:	fffff7b7          	lui	a5,0xfffff
    58b0:	0fe78793          	addi	a5,a5,254 # fffff0fe <CONFIG_SYSTEM_WORKQUEUE_PRIORITY+0xfffff0ff>
    58b4:	00f677b3          	and	a5,a2,a5
		      GPIO_OUTPUT_INIT_LOW | GPIO_OUTPUT_INIT_HIGH |
		      GPIO_ACTIVE_LOW)) {
		/* We ignore direction and fake polarity, rest is unsupported */
		return -ENOTSUP;
    58b8:	f7a00513          	li	a0,-134
	if (flags & ~(GPIO_INPUT | GPIO_OUTPUT |
    58bc:	06079463          	bnez	a5,5924 <gpio_mmio32_config+0x94>
	}

	if ((flags & GPIO_OUTPUT) != 0) {
    58c0:	20067793          	andi	a5,a2,512
			*reg = (*reg & (config->mask & ~(1 << pin)));
		}
		irq_unlock(key);
	}

	return 0;
    58c4:	00000513          	li	a0,0
	if ((flags & GPIO_OUTPUT) != 0) {
    58c8:	04078e63          	beqz	a5,5924 <gpio_mmio32_config+0x94>
		volatile uint32_t *reg = config->reg;
    58cc:	0046a703          	lw	a4,4(a3)
	__asm__ volatile ("csrrc %0, mstatus, %1"
    58d0:	00800793          	li	a5,8
    58d4:	3007b7f3          	csrrc	a5,mstatus,a5
		if ((flags & GPIO_OUTPUT_INIT_HIGH) != 0) {
    58d8:	00b65513          	srli	a0,a2,0xb
    58dc:	00157513          	andi	a0,a0,1
	key = (mstatus & MSTATUS_IEN);
    58e0:	0087f793          	andi	a5,a5,8
    58e4:	00050e63          	beqz	a0,5900 <gpio_mmio32_config+0x70>
			*reg = (*reg | (1 << pin));
    58e8:	00072683          	lw	a3,0(a4) # f00c0000 <CONFIG_SYSTEM_WORKQUEUE_PRIORITY+0xf00c0001>
    58ec:	00d5e5b3          	or	a1,a1,a3
			*reg = (*reg & (config->mask & ~(1 << pin)));
    58f0:	00b72023          	sw	a1,0(a4)
	__asm__ volatile ("csrrs %0, mstatus, %1"
    58f4:	3007a7f3          	csrrs	a5,mstatus,a5
	return 0;
    58f8:	00000513          	li	a0,0
}
    58fc:	00008067          	ret
		} else if ((flags & GPIO_OUTPUT_INIT_LOW) != 0) {
    5900:	40067613          	andi	a2,a2,1024
    5904:	fe0608e3          	beqz	a2,58f4 <gpio_mmio32_config+0x64>
			*reg = (*reg & (config->mask & ~(1 << pin)));
    5908:	0086a683          	lw	a3,8(a3)
    590c:	00072603          	lw	a2,0(a4)
    5910:	fff5c593          	not	a1,a1
    5914:	00d5f5b3          	and	a1,a1,a3
    5918:	00c5f5b3          	and	a1,a1,a2
    591c:	fd5ff06f          	j	58f0 <gpio_mmio32_config+0x60>
		return -EINVAL; /* Pin not in our validity mask */
    5920:	fea00513          	li	a0,-22
}
    5924:	00008067          	ret

00005928 <gpio_mmio32_port_get_raw>:

static int gpio_mmio32_port_get_raw(const struct device *dev, uint32_t *value)
{
	struct gpio_mmio32_context *context = dev->data;
	const struct gpio_mmio32_config *config = context->config;
    5928:	01052783          	lw	a5,16(a0)

	*value = *config->reg & config->mask;

	return 0;
}
    592c:	00000513          	li	a0,0
	const struct gpio_mmio32_config *config = context->config;
    5930:	0047a703          	lw	a4,4(a5)
	*value = *config->reg & config->mask;
    5934:	00472783          	lw	a5,4(a4)
    5938:	0007a683          	lw	a3,0(a5)
    593c:	00872783          	lw	a5,8(a4)
    5940:	00d7f7b3          	and	a5,a5,a3
    5944:	00f5a023          	sw	a5,0(a1)
}
    5948:	00008067          	ret

0000594c <gpio_mmio32_port_set_masked_raw>:
static int gpio_mmio32_port_set_masked_raw(const struct device *dev,
					   uint32_t mask,
					   uint32_t value)
{
	struct gpio_mmio32_context *context = dev->data;
	const struct gpio_mmio32_config *config = context->config;
    594c:	01052783          	lw	a5,16(a0)
    5950:	0047a783          	lw	a5,4(a5)
	volatile uint32_t *reg = config->reg;
    5954:	0047a703          	lw	a4,4(a5)
	unsigned int key;

	mask &= config->mask;
    5958:	0087a783          	lw	a5,8(a5)
    595c:	00f5f5b3          	and	a1,a1,a5
	__asm__ volatile ("csrrc %0, mstatus, %1"
    5960:	00800793          	li	a5,8
    5964:	3007b7f3          	csrrc	a5,mstatus,a5
	value &= mask;

	/* Update pin state atomically */
	key = irq_lock();
	*reg = (*reg & ~mask) | value;
    5968:	00072683          	lw	a3,0(a4)
	key = (mstatus & MSTATUS_IEN);
    596c:	0087f793          	andi	a5,a5,8
    5970:	00c6c633          	xor	a2,a3,a2
    5974:	00b67633          	and	a2,a2,a1
    5978:	00d64633          	xor	a2,a2,a3
    597c:	00c72023          	sw	a2,0(a4)
	__asm__ volatile ("csrrs %0, mstatus, %1"
    5980:	3007a7f3          	csrrs	a5,mstatus,a5
	irq_unlock(key);

	return 0;
}
    5984:	00000513          	li	a0,0
    5988:	00008067          	ret

0000598c <gpio_mmio32_port_set_bits_raw>:

static int gpio_mmio32_port_set_bits_raw(const struct device *dev,
					 uint32_t mask)
{
	struct gpio_mmio32_context *context = dev->data;
	const struct gpio_mmio32_config *config = context->config;
    598c:	01052783          	lw	a5,16(a0)
    5990:	0047a783          	lw	a5,4(a5)
	volatile uint32_t *reg = config->reg;
	unsigned int key;

	mask &= config->mask;
    5994:	0087a703          	lw	a4,8(a5)
	volatile uint32_t *reg = config->reg;
    5998:	0047a683          	lw	a3,4(a5)
	__asm__ volatile ("csrrc %0, mstatus, %1"
    599c:	00800793          	li	a5,8
	mask &= config->mask;
    59a0:	00e5f733          	and	a4,a1,a4
    59a4:	3007b7f3          	csrrc	a5,mstatus,a5

	/* Update pin state atomically */
	key = irq_lock();
	*reg = (*reg | mask);
    59a8:	0006a583          	lw	a1,0(a3)
	key = (mstatus & MSTATUS_IEN);
    59ac:	0087f793          	andi	a5,a5,8
    59b0:	00e5e5b3          	or	a1,a1,a4
    59b4:	00b6a023          	sw	a1,0(a3)
	__asm__ volatile ("csrrs %0, mstatus, %1"
    59b8:	3007a7f3          	csrrs	a5,mstatus,a5
	irq_unlock(key);

	return 0;
}
    59bc:	00000513          	li	a0,0
    59c0:	00008067          	ret

000059c4 <gpio_mmio32_port_clear_bits_raw>:

static int gpio_mmio32_port_clear_bits_raw(const struct device *dev,
					   uint32_t mask)
{
	struct gpio_mmio32_context *context = dev->data;
	const struct gpio_mmio32_config *config = context->config;
    59c4:	01052783          	lw	a5,16(a0)
    59c8:	0047a783          	lw	a5,4(a5)
	volatile uint32_t *reg = config->reg;
    59cc:	0047a703          	lw	a4,4(a5)
	unsigned int key;

	mask &= config->mask;
    59d0:	0087a783          	lw	a5,8(a5)
    59d4:	00f5f5b3          	and	a1,a1,a5
	__asm__ volatile ("csrrc %0, mstatus, %1"
    59d8:	00800793          	li	a5,8
    59dc:	3007b7f3          	csrrc	a5,mstatus,a5

	/* Update pin state atomically */
	key = irq_lock();
	*reg = (*reg & ~mask);
    59e0:	00072683          	lw	a3,0(a4)
    59e4:	fff5c593          	not	a1,a1
	key = (mstatus & MSTATUS_IEN);
    59e8:	0087f793          	andi	a5,a5,8
    59ec:	00d5f5b3          	and	a1,a1,a3
    59f0:	00b72023          	sw	a1,0(a4)
	__asm__ volatile ("csrrs %0, mstatus, %1"
    59f4:	3007a7f3          	csrrs	a5,mstatus,a5
	irq_unlock(key);

	return 0;
}
    59f8:	00000513          	li	a0,0
    59fc:	00008067          	ret

00005a00 <gpio_mmio32_port_toggle_bits>:

static int gpio_mmio32_port_toggle_bits(const struct device *dev,
					uint32_t mask)
{
	struct gpio_mmio32_context *context = dev->data;
	const struct gpio_mmio32_config *config = context->config;
    5a00:	01052783          	lw	a5,16(a0)
    5a04:	0047a783          	lw	a5,4(a5)
	volatile uint32_t *reg = config->reg;
	unsigned int key;

	mask &= config->mask;
    5a08:	0087a703          	lw	a4,8(a5)
	volatile uint32_t *reg = config->reg;
    5a0c:	0047a683          	lw	a3,4(a5)
	__asm__ volatile ("csrrc %0, mstatus, %1"
    5a10:	00800793          	li	a5,8
	mask &= config->mask;
    5a14:	00e5f733          	and	a4,a1,a4
    5a18:	3007b7f3          	csrrc	a5,mstatus,a5

	/* Update pin state atomically */
	key = irq_lock();
	*reg = (*reg ^ mask);
    5a1c:	0006a583          	lw	a1,0(a3)
	key = (mstatus & MSTATUS_IEN);
    5a20:	0087f793          	andi	a5,a5,8
    5a24:	00e5c5b3          	xor	a1,a1,a4
    5a28:	00b6a023          	sw	a1,0(a3)
	__asm__ volatile ("csrrs %0, mstatus, %1"
    5a2c:	3007a7f3          	csrrs	a5,mstatus,a5
	irq_unlock(key);

	return 0;
}
    5a30:	00000513          	li	a0,0
    5a34:	00008067          	ret

00005a38 <gpio_mmio32_pin_interrupt_configure>:
static int gpio_mmio32_pin_interrupt_configure(const struct device *dev,
					       gpio_pin_t pin,
					       enum gpio_int_mode mode,
					       enum gpio_int_trig trig)
{
	if (mode != GPIO_INT_MODE_DISABLED) {
    5a38:	000027b7          	lui	a5,0x2
		return -ENOTSUP;
	}

	return 0;
    5a3c:	00000513          	li	a0,0
	if (mode != GPIO_INT_MODE_DISABLED) {
    5a40:	00f60463          	beq	a2,a5,5a48 <gpio_mmio32_pin_interrupt_configure+0x10>
		return -ENOTSUP;
    5a44:	f7a00513          	li	a0,-134
}
    5a48:	00008067          	ret

00005a4c <gpio_mmio32_init>:
int gpio_mmio32_init(const struct device *dev)
{
	struct gpio_mmio32_context *context = dev->data;
	const struct gpio_mmio32_config *config = dev->config;

	context->config = config;
    5a4c:	01052783          	lw	a5,16(a0)
    5a50:	00452703          	lw	a4,4(a0)

	return 0;
}
    5a54:	00000513          	li	a0,0
	context->config = config;
    5a58:	00e7a223          	sw	a4,4(a5) # 2004 <CONFIG_SRAM_SIZE+0x4>
}
    5a5c:	00008067          	ret

00005a60 <gpio_veerwolf_init>:
/* Driver functions */

static int gpio_veerwolf_init(const struct device *dev)
{
	return 0;
}
    5a60:	00000513          	li	a0,0
    5a64:	00008067          	ret

00005a68 <gpio_veerwolf_configure>:

static int gpio_veerwolf_configure(const struct device *dev,
				gpio_pin_t pin, gpio_flags_t flags)
{
	return 0;
}
    5a68:	00000513          	li	a0,0
    5a6c:	00008067          	ret

00005a70 <gpio_veerwolf_port_get_raw>:

static int gpio_veerwolf_port_get_raw(const struct device *dev,
				   gpio_port_value_t *value)
{
	mem_addr_t addr = DEV_GPIO_ADDR(dev);
    5a70:	00452783          	lw	a5,4(a0)

	*value = sys_read32(addr);
	return 0;
}
    5a74:	00000513          	li	a0,0
	mem_addr_t addr = DEV_GPIO_ADDR(dev);
    5a78:	0007a783          	lw	a5,0(a5)
	return *(volatile uint32_t *)addr;
    5a7c:	0007a783          	lw	a5,0(a5)
	*value = sys_read32(addr);
    5a80:	00f5a023          	sw	a5,0(a1)
}
    5a84:	00008067          	ret

00005a88 <gpio_veerwolf_port_set_masked_raw>:

static int gpio_veerwolf_port_set_masked_raw(const struct device *dev,
					  gpio_port_pins_t mask,
					  gpio_port_value_t value)
{
	mem_addr_t addr = DEV_GPIO_ADDR(dev);
    5a88:	00452783          	lw	a5,4(a0)
	port_val = sys_read32(addr);
	port_val = (port_val & ~mask) | (value & mask);
	sys_write32(port_val, addr);

	return 0;
}
    5a8c:	00000513          	li	a0,0
	mem_addr_t addr = DEV_GPIO_ADDR(dev);
    5a90:	0007a783          	lw	a5,0(a5)
    5a94:	0007a703          	lw	a4,0(a5)
	port_val = (port_val & ~mask) | (value & mask);
    5a98:	00e64633          	xor	a2,a2,a4
    5a9c:	00b67633          	and	a2,a2,a1
    5aa0:	00e64633          	xor	a2,a2,a4
}

static ALWAYS_INLINE void sys_write32(uint32_t data, mem_addr_t addr)
{
	*(volatile uint32_t *)addr = data;
    5aa4:	00c7a023          	sw	a2,0(a5)
}
    5aa8:	00008067          	ret

00005aac <gpio_veerwolf_port_set_bits_raw>:

static int gpio_veerwolf_port_set_bits_raw(const struct device *dev,
					gpio_port_pins_t pins)
{
	mem_addr_t addr = DEV_GPIO_ADDR(dev);
    5aac:	00452783          	lw	a5,4(a0)

	port_val = sys_read32(addr) | pins;
	sys_write32(port_val, addr);

	return 0;
}
    5ab0:	00000513          	li	a0,0
	mem_addr_t addr = DEV_GPIO_ADDR(dev);
    5ab4:	0007a783          	lw	a5,0(a5)
	return *(volatile uint32_t *)addr;
    5ab8:	0007a703          	lw	a4,0(a5)
	port_val = sys_read32(addr) | pins;
    5abc:	00e5e5b3          	or	a1,a1,a4
	*(volatile uint32_t *)addr = data;
    5ac0:	00b7a023          	sw	a1,0(a5)
}
    5ac4:	00008067          	ret

00005ac8 <gpio_veerwolf_port_clear_bits_raw>:

static int gpio_veerwolf_port_clear_bits_raw(const struct device *dev,
					  gpio_port_pins_t pins)
{
	mem_addr_t addr = DEV_GPIO_ADDR(dev);
    5ac8:	00452783          	lw	a5,4(a0)
	uint32_t port_val;

	port_val = sys_read32(addr) & ~pins;
    5acc:	fff5c593          	not	a1,a1
	sys_write32(port_val, addr);

	return 0;
}
    5ad0:	00000513          	li	a0,0
	mem_addr_t addr = DEV_GPIO_ADDR(dev);
    5ad4:	0007a783          	lw	a5,0(a5)
	return *(volatile uint32_t *)addr;
    5ad8:	0007a703          	lw	a4,0(a5)
	port_val = sys_read32(addr) & ~pins;
    5adc:	00e5f5b3          	and	a1,a1,a4
	*(volatile uint32_t *)addr = data;
    5ae0:	00b7a023          	sw	a1,0(a5)
}
    5ae4:	00008067          	ret

00005ae8 <gpio_veerwolf_port_toggle_bits>:

static int gpio_veerwolf_port_toggle_bits(const struct device *dev,
				       gpio_port_pins_t pins)
{
	mem_addr_t addr = DEV_GPIO_ADDR(dev);
    5ae8:	00452783          	lw	a5,4(a0)

	port_val = sys_read32(addr) ^ pins;
	sys_write32(port_val, addr);

	return 0;
}
    5aec:	00000513          	li	a0,0
	mem_addr_t addr = DEV_GPIO_ADDR(dev);
    5af0:	0007a783          	lw	a5,0(a5)
	return *(volatile uint32_t *)addr;
    5af4:	0007a703          	lw	a4,0(a5)
	port_val = sys_read32(addr) ^ pins;
    5af8:	00e5c5b3          	xor	a1,a1,a4
	*(volatile uint32_t *)addr = data;
    5afc:	00b7a023          	sw	a1,0(a5)
}
    5b00:	00008067          	ret

00005b04 <gpio_veerwolf_pin_interrupt_configure>:
					      enum gpio_int_mode mode,
					      enum gpio_int_trig trig)
{
	int ret = 0;

	if (mode != GPIO_INT_MODE_DISABLED) {
    5b04:	000027b7          	lui	a5,0x2
	int ret = 0;
    5b08:	00000513          	li	a0,0
	if (mode != GPIO_INT_MODE_DISABLED) {
    5b0c:	00f60463          	beq	a2,a5,5b14 <gpio_veerwolf_pin_interrupt_configure+0x10>
		ret = -ENOTSUP;
    5b10:	f7a00513          	li	a0,-134
	}
	return ret;
}
    5b14:	00008067          	ret

00005b18 <uart_ns16550_configure>:
}

static int uart_ns16550_configure(const struct device *dev,
				  const struct uart_config *cfg)
{
	struct uart_ns16550_dev_data * const dev_data = DEV_DATA(dev);
    5b18:	01052883          	lw	a7,16(a0)
{
    5b1c:	00050793          	mv	a5,a0
	__asm__ volatile ("csrrc %0, mstatus, %1"
    5b20:	00800693          	li	a3,8
    5b24:	3006b6f3          	csrrc	a3,mstatus,a3
		OUTWORD(PCP(dev), pcp & ~PCP_UPDATE);
		OUTWORD(PCP(dev), pcp | PCP_UPDATE);
	}
#endif

	set_baud_rate(dev, cfg->baudrate);
    5b28:	0005a503          	lw	a0,0(a1)
	key = (mstatus & MSTATUS_IEN);
    5b2c:	0086f693          	andi	a3,a3,8
	if ((baud_rate != 0U) && (dev_cfg->sys_clk_freq != 0U)) {
    5b30:	06050863          	beqz	a0,5ba0 <uart_ns16550_configure+0x88>
	const struct uart_ns16550_device_config * const dev_cfg = DEV_CFG(dev);
    5b34:	0047a603          	lw	a2,4(a5) # 2004 <CONFIG_SRAM_SIZE+0x4>
	if ((baud_rate != 0U) && (dev_cfg->sys_clk_freq != 0U)) {
    5b38:	00462803          	lw	a6,4(a2) # 800004 <__data_region_end+0x7f1664>
    5b3c:	06080263          	beqz	a6,5ba0 <uart_ns16550_configure+0x88>
		divisor = ((dev_cfg->sys_clk_freq + (baud_rate << 3))
    5b40:	00351713          	slli	a4,a0,0x3
    5b44:	01070733          	add	a4,a4,a6
					/ baud_rate) >> 4;
    5b48:	02a75733          	divu	a4,a4,a0
		lcr_cache = INBYTE(LCR(dev));
    5b4c:	00062803          	lw	a6,0(a2)
	struct uart_ns16550_dev_data * const dev_data = DEV_DATA(dev);
    5b50:	0107a303          	lw	t1,16(a5)
	return *(volatile uint8_t *)addr;
    5b54:	00c84603          	lbu	a2,12(a6)
    5b58:	0ff67e13          	andi	t3,a2,255
		OUTBYTE(LCR(dev), LCR_DLAB | lcr_cache);
    5b5c:	f8066613          	ori	a2,a2,-128
    5b60:	0ff67613          	andi	a2,a2,255
	*(volatile uint8_t *)addr = data;
    5b64:	00c80623          	sb	a2,12(a6)
	return DEVICE_MMIO_GET(dev);
    5b68:	0047a803          	lw	a6,4(a5)
    5b6c:	00082803          	lw	a6,0(a6)
		divisor = ((dev_cfg->sys_clk_freq + (baud_rate << 3))
    5b70:	00475613          	srli	a2,a4,0x4
		OUTBYTE(BRDL(dev), (unsigned char)(divisor & 0xff));
    5b74:	0ff67613          	andi	a2,a2,255
    5b78:	00c80023          	sb	a2,0(a6)
	return DEVICE_MMIO_GET(dev);
    5b7c:	0047a603          	lw	a2,4(a5)
		OUTBYTE(BRDH(dev), (unsigned char)((divisor >> 8) & 0xff));
    5b80:	00c75713          	srli	a4,a4,0xc
    5b84:	0ff77713          	andi	a4,a4,255
    5b88:	00062603          	lw	a2,0(a2)
    5b8c:	00e60223          	sb	a4,4(a2)
	return DEVICE_MMIO_GET(dev);
    5b90:	0047a703          	lw	a4,4(a5)
		OUTBYTE(LCR(dev), lcr_cache);
    5b94:	00072703          	lw	a4,0(a4)
    5b98:	01c70623          	sb	t3,12(a4)
		dev_data->uart_config.baudrate = baud_rate;
    5b9c:	00a32023          	sw	a0,0(t1)

	/* Local structure to hold temporary values to pass to OUTBYTE() */
	struct uart_config uart_cfg;

	switch (cfg->data_bits) {
    5ba0:	0065c603          	lbu	a2,6(a1)
    5ba4:	00300713          	li	a4,3
		break;
	case UART_CFG_DATA_BITS_8:
		uart_cfg.data_bits = LCR_CS8;
		break;
	default:
		ret = -ENOTSUP;
    5ba8:	f7a00513          	li	a0,-134
    5bac:	08c76663          	bltu	a4,a2,5c38 <uart_ns16550_configure+0x120>
		goto out;
	}

	switch (cfg->stop_bits) {
    5bb0:	0055c803          	lbu	a6,5(a1)
    5bb4:	00100513          	li	a0,1
    5bb8:	08a80463          	beq	a6,a0,5c40 <uart_ns16550_configure+0x128>
    5bbc:	f7a00513          	li	a0,-134
    5bc0:	06e81c63          	bne	a6,a4,5c38 <uart_ns16550_configure+0x120>
    5bc4:	00400813          	li	a6,4
	default:
		ret = -ENOTSUP;
		goto out;
	}

	switch (cfg->parity) {
    5bc8:	0045c703          	lbu	a4,4(a1)
    5bcc:	00070a63          	beqz	a4,5be0 <uart_ns16550_configure+0xc8>
    5bd0:	00200313          	li	t1,2
    5bd4:	f7a00513          	li	a0,-134
    5bd8:	06671063          	bne	a4,t1,5c38 <uart_ns16550_configure+0x120>
    5bdc:	01000713          	li	a4,16
	default:
		ret = -ENOTSUP;
		goto out;
	}

	dev_data->uart_config = *cfg;
    5be0:	0005a503          	lw	a0,0(a1)

	/* data bits, stop bits, parity, clear DLAB */
	OUTBYTE(LCR(dev),
    5be4:	01066633          	or	a2,a2,a6
    5be8:	00c76733          	or	a4,a4,a2
	return DEVICE_MMIO_GET(dev);
    5bec:	0047a603          	lw	a2,4(a5)
	dev_data->uart_config = *cfg;
    5bf0:	00a8a023          	sw	a0,0(a7) # 80000 <__data_region_end+0x71660>
    5bf4:	0045a583          	lw	a1,4(a1)
	OUTBYTE(LCR(dev),
    5bf8:	00062603          	lw	a2,0(a2)
	int ret = 0;
    5bfc:	00000513          	li	a0,0
	dev_data->uart_config = *cfg;
    5c00:	00b8a223          	sw	a1,4(a7)
    5c04:	00e60623          	sb	a4,12(a2)
	return DEVICE_MMIO_GET(dev);
    5c08:	0047a703          	lw	a4,4(a5)
    5c0c:	00b00613          	li	a2,11
	if (cfg->flow_ctrl == UART_CFG_FLOW_CTRL_RTS_CTS) {
		mdc |= MCR_AFCE;
	}
#endif

	OUTBYTE(MDC(dev), mdc);
    5c10:	00072703          	lw	a4,0(a4)
    5c14:	00c70823          	sb	a2,16(a4)
	return DEVICE_MMIO_GET(dev);
    5c18:	0047a703          	lw	a4,4(a5)
    5c1c:	f8700613          	li	a2,-121
	/*
	 * Program FIFO: enabled, mode 0 (set for compatibility with quark),
	 * generate the interrupt at 8th byte
	 * Clear TX and RX FIFO
	 */
	OUTBYTE(FCR(dev),
    5c20:	00072703          	lw	a4,0(a4)
    5c24:	00c70423          	sb	a2,8(a4)
	return DEVICE_MMIO_GET(dev);
    5c28:	0047a783          	lw	a5,4(a5)
    5c2c:	0007a783          	lw	a5,0(a5)
	return *(volatile uint8_t *)addr;
    5c30:	0007c703          	lbu	a4,0(a5)
	*(volatile uint8_t *)addr = data;
    5c34:	00078223          	sb	zero,4(a5)
	__asm__ volatile ("csrrs %0, mstatus, %1"
    5c38:	3006a6f3          	csrrs	a3,mstatus,a3
	OUTBYTE(IER(dev), 0x00);

out:
	k_spin_unlock(&dev_data->lock, key);
	return ret;
};
    5c3c:	00008067          	ret
		uart_cfg.stop_bits = LCR_1_STB;
    5c40:	00000813          	li	a6,0
    5c44:	f85ff06f          	j	5bc8 <uart_ns16550_configure+0xb0>

00005c48 <uart_ns16550_config_get>:

#ifdef CONFIG_UART_USE_RUNTIME_CONFIGURE
static int uart_ns16550_config_get(const struct device *dev,
				   struct uart_config *cfg)
{
	struct uart_ns16550_dev_data *data = DEV_DATA(dev);
    5c48:	01052783          	lw	a5,16(a0)
	cfg->stop_bits = data->uart_config.stop_bits;
	cfg->data_bits = data->uart_config.data_bits;
	cfg->flow_ctrl = data->uart_config.flow_ctrl;

	return 0;
}
    5c4c:	00000513          	li	a0,0
	cfg->baudrate = data->uart_config.baudrate;
    5c50:	0007a703          	lw	a4,0(a5)
    5c54:	00e5a023          	sw	a4,0(a1)
	cfg->parity = data->uart_config.parity;
    5c58:	0047c703          	lbu	a4,4(a5)
    5c5c:	00e58223          	sb	a4,4(a1)
	cfg->stop_bits = data->uart_config.stop_bits;
    5c60:	0057c703          	lbu	a4,5(a5)
    5c64:	00e582a3          	sb	a4,5(a1)
	cfg->data_bits = data->uart_config.data_bits;
    5c68:	0067c703          	lbu	a4,6(a5)
    5c6c:	00e58323          	sb	a4,6(a1)
	cfg->flow_ctrl = data->uart_config.flow_ctrl;
    5c70:	0077c783          	lbu	a5,7(a5)
    5c74:	00f583a3          	sb	a5,7(a1)
}
    5c78:	00008067          	ret

00005c7c <uart_ns16550_init>:
 */
static int uart_ns16550_init(const struct device *dev)
{
	int ret;

	ret = uart_ns16550_configure(dev, &DEV_DATA(dev)->uart_config);
    5c7c:	01052583          	lw	a1,16(a0)
    5c80:	e99ff06f          	j	5b18 <uart_ns16550_configure>

00005c84 <uart_ns16550_poll_in>:
	__asm__ volatile ("csrrc %0, mstatus, %1"
    5c84:	00800793          	li	a5,8
    5c88:	3007b7f3          	csrrc	a5,mstatus,a5
	return DEVICE_MMIO_GET(dev);
    5c8c:	00452703          	lw	a4,4(a0)
	key = (mstatus & MSTATUS_IEN);
    5c90:	0087f793          	andi	a5,a5,8
 *
 * @return 0 if a character arrived, -1 if the input buffer if empty.
 */
static int uart_ns16550_poll_in(const struct device *dev, unsigned char *c)
{
	int ret = -1;
    5c94:	fff00513          	li	a0,-1
	return DEVICE_MMIO_GET(dev);
    5c98:	00072683          	lw	a3,0(a4)
	return *(volatile uint8_t *)addr;
    5c9c:	0146c703          	lbu	a4,20(a3)
	k_spinlock_key_t key = k_spin_lock(&DEV_DATA(dev)->lock);

	if ((INBYTE(LSR(dev)) & LSR_RXRDY) != 0) {
    5ca0:	00177713          	andi	a4,a4,1
    5ca4:	00070863          	beqz	a4,5cb4 <uart_ns16550_poll_in+0x30>
    5ca8:	0006c703          	lbu	a4,0(a3)
		/* got a character */
		*c = INBYTE(RDR(dev));
		ret = 0;
    5cac:	00000513          	li	a0,0
		*c = INBYTE(RDR(dev));
    5cb0:	00e58023          	sb	a4,0(a1)
	__asm__ volatile ("csrrs %0, mstatus, %1"
    5cb4:	3007a7f3          	csrrs	a5,mstatus,a5
	}

	k_spin_unlock(&DEV_DATA(dev)->lock, key);

	return ret;
}
    5cb8:	00008067          	ret

00005cbc <uart_ns16550_poll_out>:
	__asm__ volatile ("csrrc %0, mstatus, %1"
    5cbc:	00800793          	li	a5,8
    5cc0:	3007b7f3          	csrrc	a5,mstatus,a5
	return DEVICE_MMIO_GET(dev);
    5cc4:	00452703          	lw	a4,4(a0)
	key = (mstatus & MSTATUS_IEN);
    5cc8:	0087f793          	andi	a5,a5,8
    5ccc:	00072683          	lw	a3,0(a4)
static void uart_ns16550_poll_out(const struct device *dev,
					   unsigned char c)
{
	k_spinlock_key_t key = k_spin_lock(&DEV_DATA(dev)->lock);

	while ((INBYTE(LSR(dev)) & LSR_THRE) == 0) {
    5cd0:	01468613          	addi	a2,a3,20
    5cd4:	00064703          	lbu	a4,0(a2)
    5cd8:	02077713          	andi	a4,a4,32
    5cdc:	fe070ce3          	beqz	a4,5cd4 <uart_ns16550_poll_out+0x18>
	*(volatile uint8_t *)addr = data;
    5ce0:	00b68023          	sb	a1,0(a3)
	__asm__ volatile ("csrrs %0, mstatus, %1"
    5ce4:	3007a7f3          	csrrs	a5,mstatus,a5
	}

	OUTBYTE(THR(dev), c);

	k_spin_unlock(&DEV_DATA(dev)->lock, key);
}
    5ce8:	00008067          	ret

00005cec <uart_ns16550_err_check>:
	__asm__ volatile ("csrrc %0, mstatus, %1"
    5cec:	00800793          	li	a5,8
    5cf0:	3007b7f3          	csrrc	a5,mstatus,a5
	return DEVICE_MMIO_GET(dev);
    5cf4:	00452703          	lw	a4,4(a0)
	key = (mstatus & MSTATUS_IEN);
    5cf8:	0087f793          	andi	a5,a5,8
 * UART_BREAK if an error was detected, 0 otherwise.
 */
static int uart_ns16550_err_check(const struct device *dev)
{
	k_spinlock_key_t key = k_spin_lock(&DEV_DATA(dev)->lock);
	int check = (INBYTE(LSR(dev)) & LSR_EOB_MASK);
    5cfc:	00072703          	lw	a4,0(a4)
	return *(volatile uint8_t *)addr;
    5d00:	01474503          	lbu	a0,20(a4)
    5d04:	0ff57513          	andi	a0,a0,255
	__asm__ volatile ("csrrs %0, mstatus, %1"
    5d08:	3007a7f3          	csrrs	a5,mstatus,a5
    5d0c:	01e57513          	andi	a0,a0,30

	k_spin_unlock(&DEV_DATA(dev)->lock, key);

	return check >> 1;
}
    5d10:	00155513          	srli	a0,a0,0x1
    5d14:	00008067          	ret

00005d18 <mtime>:
	volatile uint32_t *r = (uint32_t *)RISCV_MTIME_BASE;
	uint32_t lo, hi;

	/* Likewise, must guard against rollover when reading */
	do {
		hi = r[1];
    5d18:	800017b7          	lui	a5,0x80001
    5d1c:	0247a703          	lw	a4,36(a5) # 80001024 <CONFIG_SYSTEM_WORKQUEUE_PRIORITY+0x80001025>
		lo = r[0];
    5d20:	0207a503          	lw	a0,32(a5)
	} while (r[1] != hi);
    5d24:	0247a583          	lw	a1,36(a5)
    5d28:	fee59ae3          	bne	a1,a4,5d1c <mtime+0x4>

	return (((uint64_t)hi) << 32) | lo;
#endif
}
    5d2c:	00008067          	ret

00005d30 <timer_isr>:

static void timer_isr(const void *arg)
{
    5d30:	fe010113          	addi	sp,sp,-32
    5d34:	01312623          	sw	s3,12(sp)
    5d38:	00112e23          	sw	ra,28(sp)
    5d3c:	00812c23          	sw	s0,24(sp)
    5d40:	00912a23          	sw	s1,20(sp)
    5d44:	01212823          	sw	s2,16(sp)
    5d48:	01412423          	sw	s4,8(sp)
    5d4c:	01512223          	sw	s5,4(sp)
	__asm__ volatile ("csrrc %0, mstatus, %1"
    5d50:	00800993          	li	s3,8
    5d54:	3009b9f3          	csrrc	s3,mstatus,s3
	ARG_UNUSED(arg);

	k_spinlock_key_t key = k_spin_lock(&lock);
	uint64_t now = mtime();
    5d58:	fc1ff0ef          	jal	ra,5d18 <mtime>
	key = (mstatus & MSTATUS_IEN);
    5d5c:	0089f993          	andi	s3,s3,8
    5d60:	00050a13          	mv	s4,a0
    5d64:	00058913          	mv	s2,a1
	uint32_t dticks = (uint32_t)((now - last_count) / CYC_PER_TICK);

	last_count = now;
    5d68:	0000d437          	lui	s0,0xd
    5d6c:	be040413          	addi	s0,s0,-1056 # cbe0 <last_count>
    5d70:	00a42023          	sw	a0,0(s0)
    5d74:	00b42223          	sw	a1,4(s0)

static inline int z_impl_sys_clock_hw_cycles_per_sec_runtime_get(void)
{
	extern int z_clock_hw_cycles_per_sec;

	return z_clock_hw_cycles_per_sec;
    5d78:	0000eab7          	lui	s5,0xe

	if (!TICKLESS) {
		uint64_t next = last_count + CYC_PER_TICK;
    5d7c:	71caa503          	lw	a0,1820(s5) # e71c <z_clock_hw_cycles_per_sec>
    5d80:	00000693          	li	a3,0
    5d84:	06400613          	li	a2,100
    5d88:	41f55593          	srai	a1,a0,0x1f
    5d8c:	db0fa0ef          	jal	ra,33c <__udivdi3>
    5d90:	00042483          	lw	s1,0(s0)
    5d94:	00442783          	lw	a5,4(s0)
    5d98:	009504b3          	add	s1,a0,s1
    5d9c:	00a4b433          	sltu	s0,s1,a0
    5da0:	00f40433          	add	s0,s0,a5

		if ((int64_t)(next - now) < MIN_DELAY) {
    5da4:	41448a33          	sub	s4,s1,s4
    5da8:	0144b5b3          	sltu	a1,s1,s4
    5dac:	41240933          	sub	s2,s0,s2
    5db0:	40b90933          	sub	s2,s2,a1
		uint64_t next = last_count + CYC_PER_TICK;
    5db4:	00048793          	mv	a5,s1
    5db8:	00040693          	mv	a3,s0
		if ((int64_t)(next - now) < MIN_DELAY) {
    5dbc:	03204863          	bgtz	s2,5dec <timer_isr+0xbc>
    5dc0:	00091663          	bnez	s2,5dcc <timer_isr+0x9c>
    5dc4:	3e700713          	li	a4,999
    5dc8:	03476263          	bltu	a4,s4,5dec <timer_isr+0xbc>
			next += CYC_PER_TICK;
    5dcc:	71caa503          	lw	a0,1820(s5)
    5dd0:	00000693          	li	a3,0
    5dd4:	06400613          	li	a2,100
    5dd8:	41f55593          	srai	a1,a0,0x1f
    5ddc:	d60fa0ef          	jal	ra,33c <__udivdi3>
    5de0:	00a487b3          	add	a5,s1,a0
    5de4:	0097b4b3          	sltu	s1,a5,s1
    5de8:	008486b3          	add	a3,s1,s0
	r[1] = 0xffffffff;
    5dec:	80001737          	lui	a4,0x80001
    5df0:	fff00613          	li	a2,-1
    5df4:	02c72623          	sw	a2,44(a4) # 8000102c <CONFIG_SYSTEM_WORKQUEUE_PRIORITY+0x8000102d>
	r[0] = (uint32_t)time;
    5df8:	02f72423          	sw	a5,40(a4)
	r[1] = (uint32_t)(time >> 32);
    5dfc:	02d72623          	sw	a3,44(a4)
	__asm__ volatile ("csrrs %0, mstatus, %1"
    5e00:	3009a9f3          	csrrs	s3,mstatus,s3
		set_mtimecmp(next);
	}

	k_spin_unlock(&lock, key);
	sys_clock_announce(IS_ENABLED(CONFIG_TICKLESS_KERNEL) ? dticks : 1);
}
    5e04:	01812403          	lw	s0,24(sp)
    5e08:	01c12083          	lw	ra,28(sp)
    5e0c:	01412483          	lw	s1,20(sp)
    5e10:	01012903          	lw	s2,16(sp)
    5e14:	00c12983          	lw	s3,12(sp)
    5e18:	00812a03          	lw	s4,8(sp)
    5e1c:	00412a83          	lw	s5,4(sp)
	sys_clock_announce(IS_ENABLED(CONFIG_TICKLESS_KERNEL) ? dticks : 1);
    5e20:	00100513          	li	a0,1
}
    5e24:	02010113          	addi	sp,sp,32
	sys_clock_announce(IS_ENABLED(CONFIG_TICKLESS_KERNEL) ? dticks : 1);
    5e28:	1550106f          	j	777c <sys_clock_announce>

00005e2c <sys_clock_driver_init>:

int sys_clock_driver_init(const struct device *dev)
{
    5e2c:	ff010113          	addi	sp,sp,-16
    5e30:	00812423          	sw	s0,8(sp)
	ARG_UNUSED(dev);

	IRQ_CONNECT(RISCV_MACHINE_TIMER_IRQ, 0, timer_isr, NULL, 0);
	last_count = mtime();
    5e34:	0000d437          	lui	s0,0xd
{
    5e38:	00112623          	sw	ra,12(sp)
	last_count = mtime();
    5e3c:	be040413          	addi	s0,s0,-1056 # cbe0 <last_count>
    5e40:	ed9ff0ef          	jal	ra,5d18 <mtime>
    5e44:	00a42023          	sw	a0,0(s0)
    5e48:	00b42223          	sw	a1,4(s0)
    5e4c:	0000e7b7          	lui	a5,0xe
	set_mtimecmp(last_count + CYC_PER_TICK);
    5e50:	71c7a503          	lw	a0,1820(a5) # e71c <z_clock_hw_cycles_per_sec>
    5e54:	06400613          	li	a2,100
    5e58:	00000693          	li	a3,0
    5e5c:	41f55593          	srai	a1,a0,0x1f
    5e60:	cdcfa0ef          	jal	ra,33c <__udivdi3>
    5e64:	00042783          	lw	a5,0(s0)
    5e68:	00442703          	lw	a4,4(s0)
	r[1] = 0xffffffff;
    5e6c:	fff00693          	li	a3,-1
	set_mtimecmp(last_count + CYC_PER_TICK);
    5e70:	00f507b3          	add	a5,a0,a5
    5e74:	00a7b533          	sltu	a0,a5,a0
    5e78:	00e50533          	add	a0,a0,a4
	r[1] = 0xffffffff;
    5e7c:	80001737          	lui	a4,0x80001
    5e80:	02d72623          	sw	a3,44(a4) # 8000102c <CONFIG_SYSTEM_WORKQUEUE_PRIORITY+0x8000102d>
	r[0] = (uint32_t)time;
    5e84:	02f72423          	sw	a5,40(a4)
	r[1] = (uint32_t)(time >> 32);
    5e88:	02a72623          	sw	a0,44(a4)
	irq_enable(RISCV_MACHINE_TIMER_IRQ);
    5e8c:	00700513          	li	a0,7
    5e90:	929ff0ef          	jal	ra,57b8 <arch_irq_enable>
	return 0;
}
    5e94:	00c12083          	lw	ra,12(sp)
    5e98:	00812403          	lw	s0,8(sp)
    5e9c:	00000513          	li	a0,0
    5ea0:	01010113          	addi	sp,sp,16
    5ea4:	00008067          	ret

00005ea8 <sys_clock_set_timeout>:
	}

	set_mtimecmp(cyc + last_count);
	k_spin_unlock(&lock, key);
#endif
}
    5ea8:	00008067          	ret

00005eac <sys_clock_elapsed>:
	k_spinlock_key_t key = k_spin_lock(&lock);
	uint32_t ret = ((uint32_t)mtime() - (uint32_t)last_count) / CYC_PER_TICK;

	k_spin_unlock(&lock, key);
	return ret;
}
    5eac:	00000513          	li	a0,0
    5eb0:	00008067          	ret

00005eb4 <sys_clock_cycle_get_32>:

uint32_t sys_clock_cycle_get_32(void)
{
    5eb4:	ff010113          	addi	sp,sp,-16
    5eb8:	00112623          	sw	ra,12(sp)
	return (uint32_t)mtime();
    5ebc:	e5dff0ef          	jal	ra,5d18 <mtime>
}
    5ec0:	00c12083          	lw	ra,12(sp)
    5ec4:	01010113          	addi	sp,sp,16
    5ec8:	00008067          	ret

00005ecc <z_device_state_init>:

	while (dev < __device_end) {
		z_object_init(dev);
		++dev;
	}
}
    5ecc:	00008067          	ret

00005ed0 <z_sys_init_run_level>:
		/* End marker */
		__init_end,
	};
	const struct init_entry *entry;

	for (entry = levels[level]; entry < levels[level+1]; entry++) {
    5ed0:	00251713          	slli	a4,a0,0x2
    5ed4:	0000d7b7          	lui	a5,0xd
    5ed8:	00150513          	addi	a0,a0,1
    5edc:	82078793          	addi	a5,a5,-2016 # c820 <levels.0>
    5ee0:	00251513          	slli	a0,a0,0x2
{
    5ee4:	fe010113          	addi	sp,sp,-32
	for (entry = levels[level]; entry < levels[level+1]; entry++) {
    5ee8:	00e78733          	add	a4,a5,a4
    5eec:	00a78533          	add	a0,a5,a0
{
    5ef0:	00812c23          	sw	s0,24(sp)
    5ef4:	01212823          	sw	s2,16(sp)
	for (entry = levels[level]; entry < levels[level+1]; entry++) {
    5ef8:	00072403          	lw	s0,0(a4)
    5efc:	00052903          	lw	s2,0(a0)
{
    5f00:	01312623          	sw	s3,12(sp)
    5f04:	00112e23          	sw	ra,28(sp)
    5f08:	00912a23          	sw	s1,20(sp)
					rc = -rc;
				}
				if (rc > UINT8_MAX) {
					rc = UINT8_MAX;
				}
				dev->state->init_res = rc;
    5f0c:	0ff00993          	li	s3,255
	for (entry = levels[level]; entry < levels[level+1]; entry++) {
    5f10:	03246063          	bltu	s0,s2,5f30 <z_sys_init_run_level+0x60>
			}
			dev->state->initialized = true;
		}
	}
}
    5f14:	01c12083          	lw	ra,28(sp)
    5f18:	01812403          	lw	s0,24(sp)
    5f1c:	01412483          	lw	s1,20(sp)
    5f20:	01012903          	lw	s2,16(sp)
    5f24:	00c12983          	lw	s3,12(sp)
    5f28:	02010113          	addi	sp,sp,32
    5f2c:	00008067          	ret
		const struct device *dev = entry->dev;
    5f30:	00442483          	lw	s1,4(s0)
		int rc = entry->init(dev);
    5f34:	00042783          	lw	a5,0(s0)
    5f38:	00048513          	mv	a0,s1
    5f3c:	000780e7          	jalr	a5
		if (dev != NULL) {
    5f40:	02048863          	beqz	s1,5f70 <z_sys_init_run_level+0xa0>
				dev->state->init_res = rc;
    5f44:	00c4a783          	lw	a5,12(s1)
			if (rc != 0) {
    5f48:	00050e63          	beqz	a0,5f64 <z_sys_init_run_level+0x94>
				if (rc < 0) {
    5f4c:	41f55713          	srai	a4,a0,0x1f
    5f50:	00a74533          	xor	a0,a4,a0
    5f54:	40e50533          	sub	a0,a0,a4
				dev->state->init_res = rc;
    5f58:	00a9d463          	bge	s3,a0,5f60 <z_sys_init_run_level+0x90>
    5f5c:	0ff00513          	li	a0,255
    5f60:	00a78023          	sb	a0,0(a5)
			dev->state->initialized = true;
    5f64:	0007d703          	lhu	a4,0(a5)
    5f68:	10076713          	ori	a4,a4,256
    5f6c:	00e79023          	sh	a4,0(a5)
	for (entry = levels[level]; entry < levels[level+1]; entry++) {
    5f70:	00840413          	addi	s0,s0,8
    5f74:	f9dff06f          	j	5f10 <z_sys_init_run_level+0x40>

00005f78 <z_device_ready>:
{
	/*
	 * if an invalid device pointer is passed as argument, this call
	 * reports the `device` as not ready for usage.
	 */
	if (dev == NULL) {
    5f78:	00050e63          	beqz	a0,5f94 <z_device_ready+0x1c>
		return false;
	}

	return dev->state->initialized && (dev->state->init_res == 0U);
    5f7c:	00c52783          	lw	a5,12(a0)
    5f80:	0007a503          	lw	a0,0(a5)
    5f84:	1ff57513          	andi	a0,a0,511
    5f88:	f0050513          	addi	a0,a0,-256
    5f8c:	00153513          	seqz	a0,a0
    5f90:	00008067          	ret
		return false;
    5f94:	00000513          	li	a0,0
}
    5f98:	00008067          	ret

00005f9c <arch_system_halt>:
	__asm__ volatile ("csrrc %0, mstatus, %1"
    5f9c:	00800793          	li	a5,8
    5fa0:	3007b7f3          	csrrc	a5,mstatus,a5
	/* TODO: What's the best way to totally halt the system if SMP
	 * is enabled?
	 */

	(void)arch_irq_lock();
	for (;;) {
    5fa4:	0000006f          	j	5fa4 <arch_system_halt+0x8>

00005fa8 <k_sys_fatal_error_handler>:
/* LCOV_EXCL_STOP */

/* LCOV_EXCL_START */
__weak void k_sys_fatal_error_handler(unsigned int reason,
				      const z_arch_esf_t *esf)
{
    5fa8:	ff010113          	addi	sp,sp,-16
    5fac:	00112623          	sw	ra,12(sp)
	ARG_UNUSED(esf);

	LOG_PANIC();
	LOG_ERR("Halting system");
	arch_system_halt(reason);
    5fb0:	fedff0ef          	jal	ra,5f9c <arch_system_halt>

00005fb4 <z_fatal_error>:
	return 0;
#endif
}

void z_fatal_error(unsigned int reason, const z_arch_esf_t *esf)
{
    5fb4:	fe010113          	addi	sp,sp,-32
    5fb8:	00812c23          	sw	s0,24(sp)
    5fbc:	01212823          	sw	s2,16(sp)
    5fc0:	00112e23          	sw	ra,28(sp)
    5fc4:	00912a23          	sw	s1,20(sp)
    5fc8:	00050913          	mv	s2,a0
    5fcc:	00b12623          	sw	a1,12(sp)
    5fd0:	00800413          	li	s0,8
    5fd4:	30043473          	csrrc	s0,mstatus,s0
	return z_impl_z_current_get();
    5fd8:	354010ef          	jal	ra,732c <z_impl_z_current_get>
	LOG_ERR("Current thread: %p (%s)", thread,
		log_strdup(thread_name_get(thread)));

	coredump(reason, esf, thread);

	k_sys_fatal_error_handler(reason, esf);
    5fdc:	00c12583          	lw	a1,12(sp)
    5fe0:	00050493          	mv	s1,a0
    5fe4:	00090513          	mv	a0,s2
    5fe8:	fc1ff0ef          	jal	ra,5fa8 <k_sys_fatal_error_handler>
	key = (mstatus & MSTATUS_IEN);
    5fec:	00847413          	andi	s0,s0,8
	__asm__ volatile ("csrrs %0, mstatus, %1"
    5ff0:	30042473          	csrrs	s0,mstatus,s0
	arch_irq_unlock(key);

	if (IS_ENABLED(CONFIG_MULTITHREADING)) {
		k_thread_abort(thread);
	}
}
    5ff4:	01812403          	lw	s0,24(sp)
    5ff8:	01c12083          	lw	ra,28(sp)
    5ffc:	01012903          	lw	s2,16(sp)
	z_impl_k_thread_abort(thread);
    6000:	00048513          	mv	a0,s1
    6004:	01412483          	lw	s1,20(sp)
    6008:	02010113          	addi	sp,sp,32
    600c:	4200106f          	j	742c <z_impl_k_thread_abort>

00006010 <init_idle_thread>:
} /* LCOV_EXCL_LINE ... because we just dumped final coverage data */

#if defined(CONFIG_MULTITHREADING)
__boot_func
static void init_idle_thread(int i)
{
    6010:	fd010113          	addi	sp,sp,-48
    6014:	02912223          	sw	s1,36(sp)
	k_thread_stack_t *stack = z_idle_stacks[i];

#ifdef CONFIG_THREAD_NAME
	char tname[8];

	snprintk(tname, 8, "idle %02d", i);
    6018:	0000d637          	lui	a2,0xd
    601c:	01810493          	addi	s1,sp,24
{
    6020:	02812423          	sw	s0,40(sp)
	snprintk(tname, 8, "idle %02d", i);
    6024:	00050693          	mv	a3,a0
{
    6028:	00050413          	mv	s0,a0
	snprintk(tname, 8, "idle %02d", i);
    602c:	83460613          	addi	a2,a2,-1996 # c834 <levels.0+0x14>
    6030:	00800593          	li	a1,8
    6034:	00048513          	mv	a0,s1
{
    6038:	02112623          	sw	ra,44(sp)
	snprintk(tname, 8, "idle %02d", i);
    603c:	da0fe0ef          	jal	ra,45dc <snprintk>
	struct k_thread *thread = &z_idle_threads[i];
    6040:	0a800693          	li	a3,168
#else
	char *tname = NULL;
#endif /* CONFIG_THREAD_NAME */

	z_setup_new_thread(thread, stack,
			  CONFIG_IDLE_STACK_SIZE, idle, &_kernel.cpus[i],
    6044:	01800613          	li	a2,24
    6048:	02c40633          	mul	a2,s0,a2
	k_thread_stack_t *stack = z_idle_stacks[i];
    604c:	00941313          	slli	t1,s0,0x9
	z_setup_new_thread(thread, stack,
    6050:	0000d737          	lui	a4,0xd
    6054:	0000e5b7          	lui	a1,0xe
    6058:	00100793          	li	a5,1
    605c:	ef070713          	addi	a4,a4,-272 # cef0 <_kernel>
    6060:	b2058593          	addi	a1,a1,-1248 # db20 <z_idle_stacks>
    6064:	00912223          	sw	s1,4(sp)
    6068:	00f12023          	sw	a5,0(sp)
    606c:	00f00893          	li	a7,15
	struct k_thread *thread = &z_idle_threads[i];
    6070:	02d40433          	mul	s0,s0,a3
    6074:	0000d6b7          	lui	a3,0xd
    6078:	da068693          	addi	a3,a3,-608 # cda0 <z_idle_threads>
	z_setup_new_thread(thread, stack,
    607c:	00000793          	li	a5,0
    6080:	00c70733          	add	a4,a4,a2
    6084:	00000813          	li	a6,0
    6088:	20000613          	li	a2,512
    608c:	006585b3          	add	a1,a1,t1
	struct k_thread *thread = &z_idle_threads[i];
    6090:	00868433          	add	s0,a3,s0
	z_setup_new_thread(thread, stack,
    6094:	000066b7          	lui	a3,0x6
    6098:	00040513          	mv	a0,s0
    609c:	4ac68693          	addi	a3,a3,1196 # 64ac <idle>
    60a0:	1b8000ef          	jal	ra,6258 <z_setup_new_thread>
	SYS_PORT_TRACING_FUNC(k_thread, sched_resume, thread);
}

static inline void z_mark_thread_as_started(struct k_thread *thread)
{
	thread->base.thread_state &= ~_THREAD_PRESTART;
    60a4:	00d44783          	lbu	a5,13(s0)
	z_mark_thread_as_started(thread);

#ifdef CONFIG_SMP
	thread->base.is_idle = 1U;
#endif
}
    60a8:	02c12083          	lw	ra,44(sp)
    60ac:	02412483          	lw	s1,36(sp)
    60b0:	ffb7f793          	andi	a5,a5,-5
    60b4:	00f406a3          	sb	a5,13(s0)
    60b8:	02812403          	lw	s0,40(sp)
    60bc:	03010113          	addi	sp,sp,48
    60c0:	00008067          	ret

000060c4 <bg_thread_main>:
{
    60c4:	ff010113          	addi	sp,sp,-16
	z_sys_post_kernel = true;
    60c8:	0000d7b7          	lui	a5,0xd
    60cc:	00100713          	li	a4,1
	z_sys_init_run_level(_SYS_INIT_LEVEL_POST_KERNEL);
    60d0:	00200513          	li	a0,2
{
    60d4:	00112623          	sw	ra,12(sp)
	z_sys_post_kernel = true;
    60d8:	c4e78423          	sb	a4,-952(a5) # cc48 <z_sys_post_kernel>
	z_sys_init_run_level(_SYS_INIT_LEVEL_POST_KERNEL);
    60dc:	df5ff0ef          	jal	ra,5ed0 <z_sys_init_run_level>
	boot_banner();
    60e0:	009010ef          	jal	ra,78e8 <boot_banner>
	z_sys_init_run_level(_SYS_INIT_LEVEL_APPLICATION);
    60e4:	00300513          	li	a0,3
    60e8:	de9ff0ef          	jal	ra,5ed0 <z_sys_init_run_level>
	z_init_static_threads();
    60ec:	2a8000ef          	jal	ra,6394 <z_init_static_threads>
	main();
    60f0:	e91fd0ef          	jal	ra,3f80 <main>
	z_main_thread.base.user_options &= ~K_ESSENTIAL;
    60f4:	0000d7b7          	lui	a5,0xd
    60f8:	e4878793          	addi	a5,a5,-440 # ce48 <z_main_thread>
    60fc:	00c7c703          	lbu	a4,12(a5)
    6100:	ffe77713          	andi	a4,a4,-2
    6104:	00e78623          	sb	a4,12(a5)
} /* LCOV_EXCL_LINE ... because we just dumped final coverage data */
    6108:	00c12083          	lw	ra,12(sp)
    610c:	01010113          	addi	sp,sp,16
    6110:	00008067          	ret

00006114 <z_bss_zero>:
	(void)memset(__bss_start, 0, __bss_end - __bss_start);
    6114:	0000d537          	lui	a0,0xd

__BEGIN_DECLS
__ssp_bos_icheck3_restrict(memcpy, void *, const void *)
__ssp_bos_icheck3(memmove, void *, const void *)
__ssp_bos_icheck3_restrict(mempcpy, void *, const void *)
__ssp_bos_icheck3(memset, void *, int)
    6118:	0000d7b7          	lui	a5,0xd
    611c:	be050613          	addi	a2,a0,-1056 # cbe0 <last_count>
    6120:	f1478793          	addi	a5,a5,-236 # cf14 <sched_spinlock>
    6124:	40c78633          	sub	a2,a5,a2
    6128:	00000593          	li	a1,0
    612c:	be050513          	addi	a0,a0,-1056
    6130:	e11fc06f          	j	2f40 <memset>

00006134 <z_cstart>:
 *
 * @return Does not return
 */
__boot_func
FUNC_NORETURN void z_cstart(void)
{
    6134:	f3010113          	addi	sp,sp,-208
 */
static inline void z_dummy_thread_init(struct k_thread *dummy_thread)
{
	dummy_thread->base.thread_state = _THREAD_DUMMY;
#ifdef CONFIG_SCHED_CPU_MASK
	dummy_thread->base.cpu_mask = -1;
    6138:	fff00793          	li	a5,-1
    613c:	0c812423          	sw	s0,200(sp)
    6140:	02f10623          	sb	a5,44(sp)
#endif
#ifdef CONFIG_USERSPACE
	dummy_thread->mem_domain_info.mem_domain = &k_mem_domain_default;
#endif

	_current_cpu->current = dummy_thread;
    6144:	0000d437          	lui	s0,0xd
	dummy_thread->base.user_options = K_ESSENTIAL;
    6148:	10100793          	li	a5,257
	_current_cpu->current = dummy_thread;
    614c:	ef040413          	addi	s0,s0,-272 # cef0 <_kernel>
	dummy_thread->base.user_options = K_ESSENTIAL;
    6150:	02f11223          	sh	a5,36(sp)
	_current_cpu->current = dummy_thread;
    6154:	01810793          	addi	a5,sp,24
    6158:	0c112623          	sw	ra,204(sp)
    615c:	00f42423          	sw	a5,8(s0)
    6160:	0c912223          	sw	s1,196(sp)
    6164:	0d212023          	sw	s2,192(sp)
	struct k_thread dummy_thread;

	z_dummy_thread_init(&dummy_thread);
#endif
	/* do any necessary initialization of static devices */
	z_device_state_init();
    6168:	d65ff0ef          	jal	ra,5ecc <z_device_state_init>

	/* perform basic hardware initialization */
	z_sys_init_run_level(_SYS_INIT_LEVEL_PRE_KERNEL_1);
    616c:	00000513          	li	a0,0
    6170:	d61ff0ef          	jal	ra,5ed0 <z_sys_init_run_level>
	z_sys_init_run_level(_SYS_INIT_LEVEL_PRE_KERNEL_2);
    6174:	00100513          	li	a0,1
    6178:	d59ff0ef          	jal	ra,5ed0 <z_sys_init_run_level>
	z_sched_init();
    617c:	781000ef          	jal	ra,70fc <z_sched_init>
	stack_ptr = z_setup_new_thread(&z_main_thread, z_main_stack,
    6180:	0000d7b7          	lui	a5,0xd
    6184:	84078793          	addi	a5,a5,-1984 # c840 <levels.0+0x20>
	_kernel.ready_q.cache = &z_main_thread;
    6188:	0000d4b7          	lui	s1,0xd
	stack_ptr = z_setup_new_thread(&z_main_thread, z_main_stack,
    618c:	00f12223          	sw	a5,4(sp)
    6190:	000066b7          	lui	a3,0x6
    6194:	00100793          	li	a5,1
    6198:	0000d5b7          	lui	a1,0xd
	_kernel.ready_q.cache = &z_main_thread;
    619c:	e4848913          	addi	s2,s1,-440 # ce48 <z_main_thread>
	stack_ptr = z_setup_new_thread(&z_main_thread, z_main_stack,
    61a0:	00000893          	li	a7,0
    61a4:	00000813          	li	a6,0
    61a8:	00000713          	li	a4,0
    61ac:	0c468693          	addi	a3,a3,196 # 60c4 <bg_thread_main>
    61b0:	40000613          	li	a2,1024
    61b4:	72058593          	addi	a1,a1,1824 # d720 <z_main_stack>
    61b8:	00f12023          	sw	a5,0(sp)
    61bc:	e4848513          	addi	a0,s1,-440
    61c0:	00000793          	li	a5,0
	_kernel.ready_q.cache = &z_main_thread;
    61c4:	01242c23          	sw	s2,24(s0)
	stack_ptr = z_setup_new_thread(&z_main_thread, z_main_stack,
    61c8:	090000ef          	jal	ra,6258 <z_setup_new_thread>
    61cc:	00d94783          	lbu	a5,13(s2)
	z_ready_thread(&z_main_thread);
    61d0:	e4848513          	addi	a0,s1,-440
    61d4:	ffb7f793          	andi	a5,a5,-5
    61d8:	00f906a3          	sb	a5,13(s2)
    61dc:	37d000ef          	jal	ra,6d58 <z_ready_thread>
		init_idle_thread(i);
    61e0:	00000513          	li	a0,0
    61e4:	e2dff0ef          	jal	ra,6010 <init_idle_thread>
		_kernel.cpus[i].idle_thread = &z_idle_threads[i];
    61e8:	0000d7b7          	lui	a5,0xd
    61ec:	da078793          	addi	a5,a5,-608 # cda0 <z_idle_threads>
    61f0:	00f42623          	sw	a5,12(s0)
		_kernel.cpus[i].irq_stack =
    61f4:	0000e7b7          	lui	a5,0xe
    61f8:	52078793          	addi	a5,a5,1312 # e520 <impure_data>
		_kernel.cpus[i].id = i;
    61fc:	00040a23          	sb	zero,20(s0)
		_kernel.cpus[i].irq_stack =
    6200:	00f42223          	sw	a5,4(s0)
	__asm__ volatile ("csrrc %0, mstatus, %1"
    6204:	00800513          	li	a0,8
    6208:	30053573          	csrrc	a0,mstatus,a0
	ret = arch_swap(key);
    620c:	00857513          	andi	a0,a0,8
    6210:	8bcfa0ef          	jal	ra,2cc <arch_swap>

00006214 <z_impl_k_thread_name_set>:
	k_spin_unlock(&z_thread_monitor_lock, key);
}
#endif

int z_impl_k_thread_name_set(struct k_thread *thread, const char *value)
{
    6214:	ff010113          	addi	sp,sp,-16
    6218:	00812423          	sw	s0,8(sp)
    621c:	00112623          	sw	ra,12(sp)
    6220:	00050413          	mv	s0,a0
#ifdef CONFIG_THREAD_NAME
	if (thread == NULL) {
    6224:	00051663          	bnez	a0,6230 <z_impl_k_thread_name_set+0x1c>
		thread = _current;
    6228:	0000d7b7          	lui	a5,0xd
    622c:	ef87a403          	lw	s0,-264(a5) # cef8 <_kernel+0x8>
#if __GNUC_PREREQ__(4,8) || defined(__clang__)
__ssp_bos_icheck3_restrict(stpncpy, char *, const char *)
#endif
__ssp_bos_icheck2_restrict(strcpy, char *, const char *)
__ssp_bos_icheck2_restrict(strcat, char *, const char *)
__ssp_bos_icheck3_restrict(strncpy, char *, const char *)
    6230:	07840513          	addi	a0,s0,120
    6234:	01f00613          	li	a2,31
    6238:	10d020ef          	jal	ra,8b44 <strncpy>
	}

	strncpy(thread->name, value, CONFIG_THREAD_MAX_NAME_LEN);
	thread->name[CONFIG_THREAD_MAX_NAME_LEN - 1] = '\0';
    623c:	08040ba3          	sb	zero,151(s0)

	SYS_PORT_TRACING_OBJ_FUNC(k_thread, name_set, thread, -ENOSYS);

	return -ENOSYS;
#endif /* CONFIG_THREAD_NAME */
}
    6240:	00c12083          	lw	ra,12(sp)
    6244:	00812403          	lw	s0,8(sp)
    6248:	00000513          	li	a0,0
    624c:	01010113          	addi	sp,sp,16
    6250:	00008067          	ret

00006254 <z_impl_k_thread_start>:

void z_impl_k_thread_start(struct k_thread *thread)
{
	SYS_PORT_TRACING_OBJ_FUNC(k_thread, start, thread);

	z_sched_start(thread);
    6254:	4a90006f          	j	6efc <z_sched_start>

00006258 <z_setup_new_thread>:
char *z_setup_new_thread(struct k_thread *new_thread,
			 k_thread_stack_t *stack, size_t stack_size,
			 k_thread_entry_t entry,
			 void *p1, void *p2, void *p3,
			 int prio, uint32_t options, const char *name)
{
    6258:	ff010113          	addi	sp,sp,-16
    625c:	00812423          	sw	s0,8(sp)
    6260:	00912223          	sw	s1,4(sp)
    6264:	01212023          	sw	s2,0(sp)
    6268:	00112623          	sw	ra,12(sp)
	SYS_DLIST_FOR_EACH_CONTAINER(&((wq)->waitq), thread_ptr, \
				     base.qnode_dlist)

static inline void z_waitq_init(_wait_q_t *w)
{
	sys_dlist_init(&w->waitq);
    626c:	07050313          	addi	t1,a0,112
 * @return N/A
 */

static inline void sys_dlist_init(sys_dlist_t *list)
{
	list->head = (sys_dnode_t *)list;
    6270:	06652823          	sw	t1,112(a0)
	list->tail = (sys_dnode_t *)list;
    6274:	06652a23          	sw	t1,116(a0)
void z_init_thread_base(struct _thread_base *thread_base, int priority,
		       uint32_t initial_state, unsigned int options)
{
	/* k_q_node is initialized upon first insertion in a list */
	thread_base->pended_on = NULL;
	thread_base->user_options = (uint8_t)options;
    6278:	01012303          	lw	t1,16(sp)
		stack_obj_size = Z_KERNEL_STACK_SIZE_ADJUST(stack_size);
    627c:	00f60613          	addi	a2,a2,15
    6280:	ff067613          	andi	a2,a2,-16
	thread_base->user_options = (uint8_t)options;
    6284:	00650623          	sb	t1,12(a0)
	stack_ptr = (char *)stack + stack_obj_size;
    6288:	00c584b3          	add	s1,a1,a2
	thread_base->thread_state = (uint8_t)initial_state;
    628c:	00400313          	li	t1,4
{
    6290:	01412903          	lw	s2,20(sp)
    6294:	00050413          	mv	s0,a0
	thread_base->pended_on = NULL;
    6298:	00052423          	sw	zero,8(a0)
	thread_base->thread_state = (uint8_t)initial_state;
    629c:	006506a3          	sb	t1,13(a0)

	thread_base->prio = priority;
    62a0:	01150723          	sb	a7,14(a0)

	thread_base->sched_locked = 0U;
    62a4:	000507a3          	sb	zero,15(a0)
 * @return N/A
 */

static inline void sys_dnode_init(sys_dnode_t *node)
{
	node->next = NULL;
    62a8:	02052023          	sw	zero,32(a0)
	node->prev = NULL;
    62ac:	02052223          	sw	zero,36(a0)
	arch_new_thread(new_thread, stack, stack_ptr, entry, p1, p2, p3);
    62b0:	00048613          	mv	a2,s1
    62b4:	928ff0ef          	jal	ra,53dc <arch_new_thread>
	new_thread->init_data = NULL;
    62b8:	06042623          	sw	zero,108(s0)
	if (name != NULL) {
    62bc:	04090663          	beqz	s2,6308 <z_setup_new_thread+0xb0>
    62c0:	01f00613          	li	a2,31
    62c4:	00090593          	mv	a1,s2
    62c8:	07840513          	addi	a0,s0,120
    62cc:	079020ef          	jal	ra,8b44 <strncpy>
		new_thread->name[CONFIG_THREAD_MAX_NAME_LEN - 1] = '\0';
    62d0:	08040ba3          	sb	zero,151(s0)
	new_thread->base.cpu_mask = -1;
    62d4:	fff00793          	li	a5,-1
    62d8:	00f40a23          	sb	a5,20(s0)
	new_thread->resource_pool = _current->resource_pool;
    62dc:	0000d7b7          	lui	a5,0xd
    62e0:	ef87a783          	lw	a5,-264(a5) # cef8 <_kernel+0x8>
}
    62e4:	00c12083          	lw	ra,12(sp)
    62e8:	00012903          	lw	s2,0(sp)
	new_thread->resource_pool = _current->resource_pool;
    62ec:	09c7a783          	lw	a5,156(a5)
}
    62f0:	00048513          	mv	a0,s1
    62f4:	00412483          	lw	s1,4(sp)
	new_thread->resource_pool = _current->resource_pool;
    62f8:	08f42e23          	sw	a5,156(s0)
}
    62fc:	00812403          	lw	s0,8(sp)
    6300:	01010113          	addi	sp,sp,16
    6304:	00008067          	ret
		new_thread->name[0] = '\0';
    6308:	06040c23          	sb	zero,120(s0)
    630c:	fc9ff06f          	j	62d4 <z_setup_new_thread+0x7c>

00006310 <z_impl_k_thread_create>:
{
    6310:	fe010113          	addi	sp,sp,-32
	z_setup_new_thread(new_thread, stack, stack_size, entry, p1, p2, p3,
    6314:	02012303          	lw	t1,32(sp)
{
    6318:	01212823          	sw	s2,16(sp)
	z_setup_new_thread(new_thread, stack, stack_size, entry, p1, p2, p3,
    631c:	00012223          	sw	zero,4(sp)
{
    6320:	02812903          	lw	s2,40(sp)
	z_setup_new_thread(new_thread, stack, stack_size, entry, p1, p2, p3,
    6324:	00612023          	sw	t1,0(sp)
{
    6328:	00812c23          	sw	s0,24(sp)
    632c:	00912a23          	sw	s1,20(sp)
    6330:	00112e23          	sw	ra,28(sp)
    6334:	02c12483          	lw	s1,44(sp)
    6338:	00050413          	mv	s0,a0
	z_setup_new_thread(new_thread, stack, stack_size, entry, p1, p2, p3,
    633c:	f1dff0ef          	jal	ra,6258 <z_setup_new_thread>
	if (!K_TIMEOUT_EQ(delay, K_FOREVER)) {
    6340:	fff00693          	li	a3,-1
    6344:	00d91463          	bne	s2,a3,634c <z_impl_k_thread_create+0x3c>
    6348:	01248a63          	beq	s1,s2,635c <z_impl_k_thread_create+0x4c>
	if (K_TIMEOUT_EQ(delay, K_NO_WAIT)) {
    634c:	0124e7b3          	or	a5,s1,s2
    6350:	02079463          	bnez	a5,6378 <z_impl_k_thread_create+0x68>
	z_sched_start(thread);
    6354:	00040513          	mv	a0,s0
    6358:	3a5000ef          	jal	ra,6efc <z_sched_start>
}
    635c:	01c12083          	lw	ra,28(sp)
    6360:	00040513          	mv	a0,s0
    6364:	01812403          	lw	s0,24(sp)
    6368:	01412483          	lw	s1,20(sp)
    636c:	01012903          	lw	s2,16(sp)
    6370:	02010113          	addi	sp,sp,32
    6374:	00008067          	ret

extern void z_thread_timeout(struct _timeout *timeout);

static inline void z_add_thread_timeout(struct k_thread *thread, k_timeout_t ticks)
{
	z_add_timeout(&thread->base.timeout, z_thread_timeout, ticks);
    6378:	000075b7          	lui	a1,0x7
    637c:	00090613          	mv	a2,s2
    6380:	00048693          	mv	a3,s1
    6384:	a8858593          	addi	a1,a1,-1400 # 6a88 <z_thread_timeout>
    6388:	02040513          	addi	a0,s0,32
    638c:	1a4010ef          	jal	ra,7530 <z_add_timeout>
    6390:	fcdff06f          	j	635c <z_impl_k_thread_create+0x4c>

00006394 <z_init_static_threads>:
{
    6394:	fd010113          	addi	sp,sp,-48
	_FOREACH_STATIC_THREAD(thread_data) {
    6398:	0000f7b7          	lui	a5,0xf
{
    639c:	03212023          	sw	s2,32(sp)
	_FOREACH_STATIC_THREAD(thread_data) {
    63a0:	0000f937          	lui	s2,0xf
{
    63a4:	02812423          	sw	s0,40(sp)
    63a8:	02912223          	sw	s1,36(sp)
    63ac:	02112623          	sw	ra,44(sp)
    63b0:	01312e23          	sw	s3,28(sp)
    63b4:	01412c23          	sw	s4,24(sp)
    63b8:	01512a23          	sw	s5,20(sp)
	_FOREACH_STATIC_THREAD(thread_data) {
    63bc:	93478413          	addi	s0,a5,-1740 # e934 <__lock___malloc_recursive_mutex>
    63c0:	93478493          	addi	s1,a5,-1740
    63c4:	93490913          	addi	s2,s2,-1740 # e934 <__lock___malloc_recursive_mutex>
    63c8:	05246063          	bltu	s0,s2,6408 <z_init_static_threads+0x74>
	k_sched_lock();
    63cc:	45d000ef          	jal	ra,7028 <k_sched_lock>
	_FOREACH_STATIC_THREAD(thread_data) {
    63d0:	00048413          	mv	s0,s1
		if (thread_data->init_delay != K_TICKS_FOREVER) {
    63d4:	fff00993          	li	s3,-1
	 * the same mathematical relationship, each expressed with and
	 * without truncation to 32 bits (I couldn't find a way to make
	 * the compiler correctly guess at the 32 bit result otherwise).
	 */
	if (div_ratio) {
		t += off;
    63d8:	00900a13          	li	s4,9
    63dc:	00007ab7          	lui	s5,0x7
	_FOREACH_STATIC_THREAD(thread_data) {
    63e0:	07246663          	bltu	s0,s2,644c <z_init_static_threads+0xb8>
}
    63e4:	02812403          	lw	s0,40(sp)
    63e8:	02c12083          	lw	ra,44(sp)
    63ec:	02412483          	lw	s1,36(sp)
    63f0:	02012903          	lw	s2,32(sp)
    63f4:	01c12983          	lw	s3,28(sp)
    63f8:	01812a03          	lw	s4,24(sp)
    63fc:	01412a83          	lw	s5,20(sp)
    6400:	03010113          	addi	sp,sp,48
	k_sched_unlock();
    6404:	44d0006f          	j	7050 <k_sched_unlock>
		z_setup_new_thread(
    6408:	02c42783          	lw	a5,44(s0)
    640c:	00f12223          	sw	a5,4(sp)
    6410:	02042783          	lw	a5,32(s0)
    6414:	00f12023          	sw	a5,0(sp)
    6418:	01442783          	lw	a5,20(s0)
    641c:	01c42883          	lw	a7,28(s0)
    6420:	01842803          	lw	a6,24(s0)
    6424:	01042703          	lw	a4,16(s0)
    6428:	00c42683          	lw	a3,12(s0)
    642c:	00842603          	lw	a2,8(s0)
    6430:	00442583          	lw	a1,4(s0)
    6434:	00042503          	lw	a0,0(s0)
    6438:	e21ff0ef          	jal	ra,6258 <z_setup_new_thread>
		thread_data->init_thread->init_data = thread_data;
    643c:	00042783          	lw	a5,0(s0)
    6440:	0687a623          	sw	s0,108(a5)
	_FOREACH_STATIC_THREAD(thread_data) {
    6444:	03040413          	addi	s0,s0,48
    6448:	f81ff06f          	j	63c8 <z_init_static_threads+0x34>
		if (thread_data->init_delay != K_TICKS_FOREVER) {
    644c:	02442783          	lw	a5,36(s0)
    6450:	03378863          	beq	a5,s3,6480 <z_init_static_threads+0xec>
			schedule_new_thread(thread_data->init_thread,
    6454:	00042483          	lw	s1,0(s0)
					    K_MSEC(thread_data->init_delay));
    6458:	0007d463          	bgez	a5,6460 <z_init_static_threads+0xcc>
    645c:	00000793          	li	a5,0
    6460:	00978513          	addi	a0,a5,9
    6464:	41f7d593          	srai	a1,a5,0x1f
    6468:	00f537b3          	sltu	a5,a0,a5
    646c:	00b785b3          	add	a1,a5,a1
	if (K_TIMEOUT_EQ(delay, K_NO_WAIT)) {
    6470:	01451c63          	bne	a0,s4,6488 <z_init_static_threads+0xf4>
    6474:	00059a63          	bnez	a1,6488 <z_init_static_threads+0xf4>
	z_sched_start(thread);
    6478:	00048513          	mv	a0,s1
    647c:	281000ef          	jal	ra,6efc <z_sched_start>
	_FOREACH_STATIC_THREAD(thread_data) {
    6480:	03040413          	addi	s0,s0,48
    6484:	f5dff06f          	j	63e0 <z_init_static_threads+0x4c>
		if (result32 && (t < BIT64(32))) {
			return ((uint32_t)t) / (from_hz / to_hz);
		} else {
			return t / ((uint64_t)from_hz / to_hz);
    6488:	00a00613          	li	a2,10
    648c:	00000693          	li	a3,0
    6490:	eadf90ef          	jal	ra,33c <__udivdi3>
    6494:	00050613          	mv	a2,a0
    6498:	00058693          	mv	a3,a1
    649c:	02048513          	addi	a0,s1,32
    64a0:	a88a8593          	addi	a1,s5,-1400 # 6a88 <z_thread_timeout>
    64a4:	08c010ef          	jal	ra,7530 <z_add_timeout>
    64a8:	fd9ff06f          	j	6480 <z_init_static_threads+0xec>

000064ac <idle>:
#endif	/* CONFIG_PM */
	sys_clock_idle_exit();
}

void idle(void *unused1, void *unused2, void *unused3)
{
    64ac:	ff010113          	addi	sp,sp,-16
    64b0:	00812423          	sw	s0,8(sp)
    64b4:	00112623          	sw	ra,12(sp)
    64b8:	00800413          	li	s0,8
    64bc:	300437f3          	csrrc	a5,mstatus,s0
 *
 * @return N/A
 */
static inline void k_cpu_idle(void)
{
	arch_cpu_idle();
    64c0:	e8dfe0ef          	jal	ra,534c <arch_cpu_idle>
    64c4:	ff9ff06f          	j	64bc <idle+0x10>

000064c8 <adjust_owner_prio.isra.0>:
	return new_prio;
}

static bool adjust_owner_prio(struct k_mutex *mutex, int32_t new_prio)
{
	if (mutex->owner->base.prio != new_prio) {
    64c8:	00e50783          	lb	a5,14(a0)
    64cc:	00b78463          	beq	a5,a1,64d4 <adjust_owner_prio.isra.0+0xc>
		LOG_DBG("%p (ready (y/n): %c) prio changed to %d (was %d)",
			mutex->owner, z_is_thread_ready(mutex->owner) ?
			'y' : 'n',
			new_prio, mutex->owner->base.prio);

		return z_set_prio(mutex->owner, new_prio);
    64d0:	0fd0006f          	j	6dcc <z_set_prio>
	}
	return false;
}
    64d4:	00000513          	li	a0,0
    64d8:	00008067          	ret

000064dc <z_impl_k_mutex_init>:
	mutex->owner = NULL;
    64dc:	00052423          	sw	zero,8(a0)
	mutex->lock_count = 0U;
    64e0:	00052623          	sw	zero,12(a0)
	list->head = (sys_dnode_t *)list;
    64e4:	00a52023          	sw	a0,0(a0)
	list->tail = (sys_dnode_t *)list;
    64e8:	00a52223          	sw	a0,4(a0)
}
    64ec:	00000513          	li	a0,0
    64f0:	00008067          	ret

000064f4 <z_impl_k_mutex_lock>:

int z_impl_k_mutex_lock(struct k_mutex *mutex, k_timeout_t timeout)
{
    64f4:	fd010113          	addi	sp,sp,-48
    64f8:	02812423          	sw	s0,40(sp)
    64fc:	02912223          	sw	s1,36(sp)
    6500:	02112623          	sw	ra,44(sp)
    6504:	03212023          	sw	s2,32(sp)
    6508:	01312e23          	sw	s3,28(sp)
    650c:	00050413          	mv	s0,a0
    6510:	00060713          	mv	a4,a2
    6514:	00800493          	li	s1,8
    6518:	3004b4f3          	csrrc	s1,mstatus,s1

	SYS_PORT_TRACING_OBJ_FUNC_ENTER(k_mutex, lock, mutex, timeout);

	key = k_spin_lock(&lock);

	if (likely((mutex->lock_count == 0U) || (mutex->owner == _current))) {
    651c:	00c52603          	lw	a2,12(a0)
    6520:	0000d7b7          	lui	a5,0xd
	key = (mstatus & MSTATUS_IEN);
    6524:	0084f493          	andi	s1,s1,8
    6528:	ef078793          	addi	a5,a5,-272 # cef0 <_kernel>
    652c:	02060463          	beqz	a2,6554 <z_impl_k_mutex_lock+0x60>
    6530:	00058693          	mv	a3,a1
    6534:	00852503          	lw	a0,8(a0)
    6538:	0087a583          	lw	a1,8(a5)
    653c:	04b50c63          	beq	a0,a1,6594 <z_impl_k_mutex_lock+0xa0>
		SYS_PORT_TRACING_OBJ_FUNC_EXIT(k_mutex, lock, mutex, timeout, 0);

		return 0;
	}

	if (unlikely(K_TIMEOUT_EQ(timeout, K_NO_WAIT))) {
    6540:	00e6e7b3          	or	a5,a3,a4
    6544:	04079c63          	bnez	a5,659c <z_impl_k_mutex_lock+0xa8>
	__asm__ volatile ("csrrs %0, mstatus, %1"
    6548:	3004a4f3          	csrrs	s1,mstatus,s1
		k_spin_unlock(&lock, key);

		SYS_PORT_TRACING_OBJ_FUNC_EXIT(k_mutex, lock, mutex, timeout, -EBUSY);

		return -EBUSY;
    654c:	ff000513          	li	a0,-16
    6550:	0280006f          	j	6578 <z_impl_k_mutex_lock+0x84>
					_current->base.prio :
    6554:	0087a703          	lw	a4,8(a5)
    6558:	00e70703          	lb	a4,14(a4)
		mutex->owner = _current;
    655c:	0087a783          	lw	a5,8(a5)
		mutex->lock_count++;
    6560:	00160613          	addi	a2,a2,1
		mutex->owner_orig_prio = (mutex->lock_count == 0U) ?
    6564:	00e42823          	sw	a4,16(s0)
		mutex->lock_count++;
    6568:	00c42623          	sw	a2,12(s0)
		mutex->owner = _current;
    656c:	00f42423          	sw	a5,8(s0)
    6570:	3004a4f3          	csrrs	s1,mstatus,s1
		return 0;
    6574:	00000513          	li	a0,0
	}

	SYS_PORT_TRACING_OBJ_FUNC_EXIT(k_mutex, lock, mutex, timeout, -EAGAIN);

	return -EAGAIN;
}
    6578:	02c12083          	lw	ra,44(sp)
    657c:	02812403          	lw	s0,40(sp)
    6580:	02412483          	lw	s1,36(sp)
    6584:	02012903          	lw	s2,32(sp)
    6588:	01c12983          	lw	s3,28(sp)
    658c:	03010113          	addi	sp,sp,48
    6590:	00008067          	ret
					_current->base.prio :
    6594:	01042703          	lw	a4,16(s0)
    6598:	fc5ff06f          	j	655c <z_impl_k_mutex_lock+0x68>
	new_prio = new_prio_for_inheritance(_current->base.prio,
    659c:	00e50783          	lb	a5,14(a0)
    65a0:	00e58583          	lb	a1,14(a1)
    65a4:	00b7d463          	bge	a5,a1,65ac <z_impl_k_mutex_lock+0xb8>
    65a8:	00078593          	mv	a1,a5
    65ac:	f8100613          	li	a2,-127
    65b0:	00c5d463          	bge	a1,a2,65b8 <z_impl_k_mutex_lock+0xc4>
    65b4:	f8100593          	li	a1,-127
	bool resched = false;
    65b8:	00000993          	li	s3,0
	if (z_is_prio_higher(new_prio, mutex->owner->base.prio)) {
    65bc:	00f5de63          	bge	a1,a5,65d8 <z_impl_k_mutex_lock+0xe4>
    65c0:	00e12623          	sw	a4,12(sp)
    65c4:	00d12423          	sw	a3,8(sp)
		resched = adjust_owner_prio(mutex, new_prio);
    65c8:	f01ff0ef          	jal	ra,64c8 <adjust_owner_prio.isra.0>
    65cc:	00c12703          	lw	a4,12(sp)
    65d0:	00812683          	lw	a3,8(sp)
    65d4:	00050993          	mv	s3,a0
	int got_mutex = z_pend_curr(&lock, key, &mutex->wait_q, timeout);
    65d8:	0000d937          	lui	s2,0xd
    65dc:	00040613          	mv	a2,s0
    65e0:	00048593          	mv	a1,s1
    65e4:	f1490513          	addi	a0,s2,-236 # cf14 <sched_spinlock>
    65e8:	7a0000ef          	jal	ra,6d88 <z_pend_curr>
	if (got_mutex == 0) {
    65ec:	f80506e3          	beqz	a0,6578 <z_impl_k_mutex_lock+0x84>
	__asm__ volatile ("csrrc %0, mstatus, %1"
    65f0:	00800493          	li	s1,8
    65f4:	3004b4f3          	csrrc	s1,mstatus,s1
	if (likely(mutex->owner != NULL)) {
    65f8:	00842503          	lw	a0,8(s0)
	key = (mstatus & MSTATUS_IEN);
    65fc:	0084f493          	andi	s1,s1,8
    6600:	02050a63          	beqz	a0,6634 <z_impl_k_mutex_lock+0x140>
 * @return true if empty, false otherwise
 */

static inline bool sys_dlist_is_empty(sys_dlist_t *list)
{
	return list->head == list;
    6604:	00042783          	lw	a5,0(s0)
			new_prio_for_inheritance(waiter->base.prio, mutex->owner_orig_prio) :
    6608:	01042583          	lw	a1,16(s0)
 * @return a pointer to the head element, NULL if list is empty
 */

static inline sys_dnode_t *sys_dlist_peek_head(sys_dlist_t *list)
{
	return sys_dlist_is_empty(list) ? NULL : list->head;
    660c:	02f40063          	beq	s0,a5,662c <z_impl_k_mutex_lock+0x138>
    6610:	00078e63          	beqz	a5,662c <z_impl_k_mutex_lock+0x138>
    6614:	00e78783          	lb	a5,14(a5)
    6618:	00b7d463          	bge	a5,a1,6620 <z_impl_k_mutex_lock+0x12c>
    661c:	00078593          	mv	a1,a5
    6620:	f8100793          	li	a5,-127
    6624:	00f5d463          	bge	a1,a5,662c <z_impl_k_mutex_lock+0x138>
    6628:	f8100593          	li	a1,-127
		resched = adjust_owner_prio(mutex, new_prio) || resched;
    662c:	e9dff0ef          	jal	ra,64c8 <adjust_owner_prio.isra.0>
    6630:	00051463          	bnez	a0,6638 <z_impl_k_mutex_lock+0x144>
	if (resched) {
    6634:	00098c63          	beqz	s3,664c <z_impl_k_mutex_lock+0x158>
		z_reschedule(&lock, key);
    6638:	00048593          	mv	a1,s1
    663c:	f1490513          	addi	a0,s2,-236
    6640:	089000ef          	jal	ra,6ec8 <z_reschedule>
	return -EAGAIN;
    6644:	ff500513          	li	a0,-11
    6648:	f31ff06f          	j	6578 <z_impl_k_mutex_lock+0x84>
	__asm__ volatile ("csrrs %0, mstatus, %1"
    664c:	3004a4f3          	csrrs	s1,mstatus,s1
    6650:	ff5ff06f          	j	6644 <z_impl_k_mutex_lock+0x150>

00006654 <z_impl_k_mutex_unlock>:

	__ASSERT(!arch_is_in_isr(), "mutexes cannot be used inside ISRs");

	SYS_PORT_TRACING_OBJ_FUNC_ENTER(k_mutex, unlock, mutex);

	CHECKIF(mutex->owner == NULL) {
    6654:	00852783          	lw	a5,8(a0)
    6658:	0a078e63          	beqz	a5,6714 <z_impl_k_mutex_unlock+0xc0>
		return -EINVAL;
	}
	/*
	 * The current thread does not own the mutex.
	 */
	CHECKIF(mutex->owner != _current) {
    665c:	0000d737          	lui	a4,0xd
    6660:	ef872703          	lw	a4,-264(a4) # cef8 <_kernel+0x8>
{
    6664:	ff010113          	addi	sp,sp,-16
    6668:	00812423          	sw	s0,8(sp)
    666c:	00112623          	sw	ra,12(sp)
    6670:	00912223          	sw	s1,4(sp)
    6674:	00050413          	mv	s0,a0
		SYS_PORT_TRACING_OBJ_FUNC_EXIT(k_mutex, unlock, mutex, -EPERM);

		return -EPERM;
    6678:	fff00513          	li	a0,-1
	CHECKIF(mutex->owner != _current) {
    667c:	02e79663          	bne	a5,a4,66a8 <z_impl_k_mutex_unlock+0x54>
static inline void z_sched_lock(void)
{
	__ASSERT(!arch_is_in_isr(), "");
	__ASSERT(_current->base.sched_locked != 1U, "");

	--_current->base.sched_locked;
    6680:	00f7c703          	lbu	a4,15(a5)
    6684:	fff70713          	addi	a4,a4,-1
    6688:	00e787a3          	sb	a4,15(a5)

	/*
	 * If we are the owner and count is greater than 1, then decrement
	 * the count and return and keep current thread as the owner.
	 */
	if (mutex->lock_count > 1U) {
    668c:	00c42783          	lw	a5,12(s0)
    6690:	00100713          	li	a4,1
    6694:	02f77463          	bgeu	a4,a5,66bc <z_impl_k_mutex_unlock+0x68>
		mutex->lock_count--;
    6698:	fff78793          	addi	a5,a5,-1
    669c:	00f42623          	sw	a5,12(s0)


k_mutex_unlock_return:
	SYS_PORT_TRACING_OBJ_FUNC_EXIT(k_mutex, unlock, mutex, 0);

	k_sched_unlock();
    66a0:	1b1000ef          	jal	ra,7050 <k_sched_unlock>

	return 0;
    66a4:	00000513          	li	a0,0
}
    66a8:	00c12083          	lw	ra,12(sp)
    66ac:	00812403          	lw	s0,8(sp)
    66b0:	00412483          	lw	s1,4(sp)
    66b4:	01010113          	addi	sp,sp,16
    66b8:	00008067          	ret
	__asm__ volatile ("csrrc %0, mstatus, %1"
    66bc:	00800493          	li	s1,8
    66c0:	3004b4f3          	csrrc	s1,mstatus,s1
	adjust_owner_prio(mutex, mutex->owner_orig_prio);
    66c4:	01042583          	lw	a1,16(s0)
    66c8:	00842503          	lw	a0,8(s0)
	key = (mstatus & MSTATUS_IEN);
    66cc:	0084f493          	andi	s1,s1,8
    66d0:	df9ff0ef          	jal	ra,64c8 <adjust_owner_prio.isra.0>
	new_owner = z_unpend_first_thread(&mutex->wait_q);
    66d4:	00040513          	mv	a0,s0
    66d8:	1d5000ef          	jal	ra,70ac <z_unpend_first_thread>
	mutex->owner = new_owner;
    66dc:	00a42423          	sw	a0,8(s0)
	if (new_owner != NULL) {
    66e0:	02050463          	beqz	a0,6708 <z_impl_k_mutex_unlock+0xb4>
		mutex->owner_orig_prio = new_owner->base.prio;
    66e4:	00e50703          	lb	a4,14(a0)
    66e8:	00e42823          	sw	a4,16(s0)
}

static ALWAYS_INLINE void
arch_thread_return_value_set(struct k_thread *thread, unsigned int value)
{
	thread->arch.swap_return_value = value;
    66ec:	0a052023          	sw	zero,160(a0)
		z_ready_thread(new_owner);
    66f0:	668000ef          	jal	ra,6d58 <z_ready_thread>
		z_reschedule(&lock, key);
    66f4:	0000d537          	lui	a0,0xd
    66f8:	00048593          	mv	a1,s1
    66fc:	f1450513          	addi	a0,a0,-236 # cf14 <sched_spinlock>
    6700:	7c8000ef          	jal	ra,6ec8 <z_reschedule>
    6704:	f9dff06f          	j	66a0 <z_impl_k_mutex_unlock+0x4c>
		mutex->lock_count = 0U;
    6708:	00042623          	sw	zero,12(s0)
	__asm__ volatile ("csrrs %0, mstatus, %1"
    670c:	3004a4f3          	csrrs	s1,mstatus,s1
    6710:	f91ff06f          	j	66a0 <z_impl_k_mutex_unlock+0x4c>
		return -EINVAL;
    6714:	fea00513          	li	a0,-22
}
    6718:	00008067          	ret

0000671c <z_impl_k_sem_give>:
	ARG_UNUSED(sem);
#endif
}

void z_impl_k_sem_give(struct k_sem *sem)
{
    671c:	ff010113          	addi	sp,sp,-16
    6720:	00812423          	sw	s0,8(sp)
    6724:	00912223          	sw	s1,4(sp)
    6728:	00112623          	sw	ra,12(sp)
    672c:	00050493          	mv	s1,a0
	__asm__ volatile ("csrrc %0, mstatus, %1"
    6730:	00800413          	li	s0,8
    6734:	30043473          	csrrc	s0,mstatus,s0
	key = (mstatus & MSTATUS_IEN);
    6738:	00847413          	andi	s0,s0,8
	k_spinlock_key_t key = k_spin_lock(&lock);
	struct k_thread *thread;

	SYS_PORT_TRACING_OBJ_FUNC_ENTER(k_sem, give, sem);

	thread = z_unpend_first_thread(&sem->wait_q);
    673c:	171000ef          	jal	ra,70ac <z_unpend_first_thread>

	if (thread != NULL) {
    6740:	02050663          	beqz	a0,676c <z_impl_k_sem_give+0x50>
    6744:	0a052023          	sw	zero,160(a0)
		arch_thread_return_value_set(thread, 0);
		z_ready_thread(thread);
    6748:	610000ef          	jal	ra,6d58 <z_ready_thread>
	} else {
		sem->count += (sem->count != sem->limit) ? 1U : 0U;
		handle_poll_events(sem);
	}

	z_reschedule(&lock, key);
    674c:	00040593          	mv	a1,s0

	SYS_PORT_TRACING_OBJ_FUNC_EXIT(k_sem, give, sem);
}
    6750:	00812403          	lw	s0,8(sp)
    6754:	00c12083          	lw	ra,12(sp)
    6758:	00412483          	lw	s1,4(sp)
	z_reschedule(&lock, key);
    675c:	0000d537          	lui	a0,0xd
    6760:	f1450513          	addi	a0,a0,-236 # cf14 <sched_spinlock>
}
    6764:	01010113          	addi	sp,sp,16
	z_reschedule(&lock, key);
    6768:	7600006f          	j	6ec8 <z_reschedule>
		sem->count += (sem->count != sem->limit) ? 1U : 0U;
    676c:	0084a703          	lw	a4,8(s1)
    6770:	00c4a783          	lw	a5,12(s1)
    6774:	40e787b3          	sub	a5,a5,a4
    6778:	00f037b3          	snez	a5,a5
    677c:	00e787b3          	add	a5,a5,a4
    6780:	00f4a423          	sw	a5,8(s1)
}
    6784:	fc9ff06f          	j	674c <z_impl_k_sem_give+0x30>

00006788 <z_impl_k_sem_take>:
}
#include <syscalls/k_sem_give_mrsh.c>
#endif

int z_impl_k_sem_take(struct k_sem *sem, k_timeout_t timeout)
{
    6788:	00058693          	mv	a3,a1
    678c:	00060713          	mv	a4,a2
	__asm__ volatile ("csrrc %0, mstatus, %1"
    6790:	00800793          	li	a5,8
    6794:	3007b7f3          	csrrc	a5,mstatus,a5
	key = (mstatus & MSTATUS_IEN);
    6798:	0087f593          	andi	a1,a5,8

	k_spinlock_key_t key = k_spin_lock(&lock);

	SYS_PORT_TRACING_OBJ_FUNC_ENTER(k_sem, take, sem, timeout);

	if (likely(sem->count > 0U)) {
    679c:	00852783          	lw	a5,8(a0)
    67a0:	00078c63          	beqz	a5,67b8 <z_impl_k_sem_take+0x30>
		sem->count--;
    67a4:	fff78793          	addi	a5,a5,-1
    67a8:	00f52423          	sw	a5,8(a0)
	__asm__ volatile ("csrrs %0, mstatus, %1"
    67ac:	3005a5f3          	csrrs	a1,mstatus,a1
		k_spin_unlock(&lock, key);
		ret = 0;
    67b0:	00000513          	li	a0,0
		goto out;
    67b4:	00008067          	ret
	}

	if (K_TIMEOUT_EQ(timeout, K_NO_WAIT)) {
    67b8:	00c6e7b3          	or	a5,a3,a2
    67bc:	00079863          	bnez	a5,67cc <z_impl_k_sem_take+0x44>
    67c0:	3005a5f3          	csrrs	a1,mstatus,a1
		k_spin_unlock(&lock, key);
		ret = -EBUSY;
    67c4:	ff000513          	li	a0,-16

out:
	SYS_PORT_TRACING_OBJ_FUNC_EXIT(k_sem, take, sem, timeout, ret);

	return ret;
}
    67c8:	00008067          	ret
	ret = z_pend_curr(&lock, key, &sem->wait_q, timeout);
    67cc:	00050613          	mv	a2,a0
    67d0:	0000d537          	lui	a0,0xd
    67d4:	f1450513          	addi	a0,a0,-236 # cf14 <sched_spinlock>
    67d8:	5b00006f          	j	6d88 <z_pend_curr>

000067dc <sys_dlist_remove>:
 * @return N/A
 */

static inline void sys_dlist_remove(sys_dnode_t *node)
{
	sys_dnode_t *const prev = node->prev;
    67dc:	00452703          	lw	a4,4(a0)
	sys_dnode_t *const next = node->next;
    67e0:	00052783          	lw	a5,0(a0)

	prev->next = next;
    67e4:	00f72023          	sw	a5,0(a4)
	next->prev = prev;
    67e8:	00e7a223          	sw	a4,4(a5)
	node->next = NULL;
    67ec:	00052023          	sw	zero,0(a0)
	node->prev = NULL;
    67f0:	00052223          	sw	zero,4(a0)
	sys_dnode_init(node);
}
    67f4:	00008067          	ret

000067f8 <unpend_thread_no_timeout>:
		pend_locked(thread, wait_q, timeout);
	}
}

static inline void unpend_thread_no_timeout(struct k_thread *thread)
{
    67f8:	ff010113          	addi	sp,sp,-16
    67fc:	00812423          	sw	s0,8(sp)
    6800:	00112623          	sw	ra,12(sp)
    6804:	00050413          	mv	s0,a0

void z_priq_dumb_remove(sys_dlist_t *pq, struct k_thread *thread)
{
	__ASSERT_NO_MSG(!z_is_idle_thread_object(thread));

	sys_dlist_remove(&thread->base.qnode_dlist);
    6808:	fd5ff0ef          	jal	ra,67dc <sys_dlist_remove>
	thread->base.thread_state &= ~_THREAD_PENDING;
    680c:	00d44783          	lbu	a5,13(s0)
}
    6810:	00c12083          	lw	ra,12(sp)
	thread->base.pended_on = NULL;
    6814:	00042423          	sw	zero,8(s0)
    6818:	ffd7f793          	andi	a5,a5,-3
    681c:	00f406a3          	sb	a5,13(s0)
}
    6820:	00812403          	lw	s0,8(sp)
    6824:	01010113          	addi	sp,sp,16
    6828:	00008067          	ret

0000682c <z_reset_time_slice>:
{
    682c:	ff010113          	addi	sp,sp,-16
    6830:	00812423          	sw	s0,8(sp)
	if (slice_time != 0) {
    6834:	0000d437          	lui	s0,0xd
    6838:	c3440413          	addi	s0,s0,-972 # cc34 <slice_time>
    683c:	00042783          	lw	a5,0(s0)
{
    6840:	00112623          	sw	ra,12(sp)
	if (slice_time != 0) {
    6844:	02078863          	beqz	a5,6874 <z_reset_time_slice+0x48>
		_current_cpu->slice_ticks = slice_time + sys_clock_elapsed();
    6848:	e64ff0ef          	jal	ra,5eac <sys_clock_elapsed>
    684c:	00050793          	mv	a5,a0
    6850:	00042503          	lw	a0,0(s0)
}
    6854:	00812403          	lw	s0,8(sp)
    6858:	00c12083          	lw	ra,12(sp)
		_current_cpu->slice_ticks = slice_time + sys_clock_elapsed();
    685c:	00f507b3          	add	a5,a0,a5
    6860:	0000d737          	lui	a4,0xd
    6864:	f0f72023          	sw	a5,-256(a4) # cf00 <_kernel+0x10>
		z_set_timeout_expiry(slice_time, false);
    6868:	00000593          	li	a1,0
}
    686c:	01010113          	addi	sp,sp,16
		z_set_timeout_expiry(slice_time, false);
    6870:	6b50006f          	j	7724 <z_set_timeout_expiry>
}
    6874:	00c12083          	lw	ra,12(sp)
    6878:	00812403          	lw	s0,8(sp)
    687c:	01010113          	addi	sp,sp,16
    6880:	00008067          	ret

00006884 <update_cache>:
{
    6884:	ff010113          	addi	sp,sp,-16
    6888:	00912223          	sw	s1,4(sp)
	return list->head == list;
    688c:	0000d4b7          	lui	s1,0xd
    6890:	ef048793          	addi	a5,s1,-272 # cef0 <_kernel>
    6894:	00812423          	sw	s0,8(sp)
    6898:	01c7a403          	lw	s0,28(a5)
	return sys_dlist_is_empty(list) ? NULL : list->head;
    689c:	0000d7b7          	lui	a5,0xd
    68a0:	00112623          	sw	ra,12(sp)
    68a4:	f0c78793          	addi	a5,a5,-244 # cf0c <_kernel+0x1c>
    68a8:	ef048493          	addi	s1,s1,-272
    68ac:	02f40863          	beq	s0,a5,68dc <update_cache+0x58>
	SYS_DLIST_FOR_EACH_CONTAINER(pq, thread, base.qnode_dlist) {
    68b0:	02040663          	beqz	s0,68dc <update_cache+0x58>
		if ((thread->base.cpu_mask & BIT(_current_cpu->id)) != 0) {
    68b4:	0144c703          	lbu	a4,20(s1)
	return (node == list->tail) ? NULL : node->next;
    68b8:	0204a683          	lw	a3,32(s1)
    68bc:	00100793          	li	a5,1
    68c0:	00e797b3          	sll	a5,a5,a4
    68c4:	01444703          	lbu	a4,20(s0)
    68c8:	00f77733          	and	a4,a4,a5
    68cc:	00071a63          	bnez	a4,68e0 <update_cache+0x5c>
    68d0:	00d40663          	beq	s0,a3,68dc <update_cache+0x58>
    68d4:	00042403          	lw	s0,0(s0)
	SYS_DLIST_FOR_EACH_CONTAINER(pq, thread, base.qnode_dlist) {
    68d8:	fe0416e3          	bnez	s0,68c4 <update_cache+0x40>
	return (thread != NULL) ? thread : _current_cpu->idle_thread;
    68dc:	00c4a403          	lw	s0,12(s1)
	if (z_is_thread_prevented_from_running(_current)) {
    68e0:	0084a783          	lw	a5,8(s1)
	if (preempt_ok != 0) {
    68e4:	02051a63          	bnez	a0,6918 <update_cache+0x94>
	if (z_is_thread_prevented_from_running(_current)) {
    68e8:	00d7c703          	lbu	a4,13(a5)
    68ec:	01f77713          	andi	a4,a4,31
    68f0:	02071463          	bnez	a4,6918 <update_cache+0x94>
	if (is_preempt(_current) || is_metairq(thread)) {
    68f4:	00e7d683          	lhu	a3,14(a5)
    68f8:	07f00713          	li	a4,127
    68fc:	00d77e63          	bgeu	a4,a3,6918 <update_cache+0x94>
		_kernel.ready_q.cache = _current;
    6900:	00f4ac23          	sw	a5,24(s1)
}
    6904:	00c12083          	lw	ra,12(sp)
    6908:	00812403          	lw	s0,8(sp)
    690c:	00412483          	lw	s1,4(sp)
    6910:	01010113          	addi	sp,sp,16
    6914:	00008067          	ret
		if (thread != _current) {
    6918:	00878463          	beq	a5,s0,6920 <update_cache+0x9c>
			z_reset_time_slice();
    691c:	f11ff0ef          	jal	ra,682c <z_reset_time_slice>
		_kernel.ready_q.cache = thread;
    6920:	0084ac23          	sw	s0,24(s1)
}
    6924:	fe1ff06f          	j	6904 <update_cache+0x80>

00006928 <move_thread_to_end_of_prio_q>:
{
    6928:	ff010113          	addi	sp,sp,-16
    692c:	00812423          	sw	s0,8(sp)
    6930:	00112623          	sw	ra,12(sp)
	return (thread->base.thread_state & state) != 0U;
    6934:	00d54783          	lbu	a5,13(a0)
    6938:	00050413          	mv	s0,a0
	if (z_is_thread_queued(thread)) {
    693c:	01879713          	slli	a4,a5,0x18
    6940:	41875713          	srai	a4,a4,0x18
    6944:	00075863          	bgez	a4,6954 <move_thread_to_end_of_prio_q+0x2c>
	thread->base.thread_state &= ~_THREAD_QUEUED;
    6948:	07f7f793          	andi	a5,a5,127
    694c:	00f506a3          	sb	a5,13(a0)
	sys_dlist_remove(&thread->base.qnode_dlist);
    6950:	e8dff0ef          	jal	ra,67dc <sys_dlist_remove>
	thread->base.thread_state |= _THREAD_QUEUED;
    6954:	00d44783          	lbu	a5,13(s0)
	return list->head == list;
    6958:	0000d737          	lui	a4,0xd
    695c:	ef070693          	addi	a3,a4,-272 # cef0 <_kernel>
    6960:	f807e793          	ori	a5,a5,-128
    6964:	00f406a3          	sb	a5,13(s0)
    6968:	01c6a783          	lw	a5,28(a3)
	return (node == list->tail) ? NULL : node->next;
    696c:	0206a583          	lw	a1,32(a3)
    6970:	0000d6b7          	lui	a3,0xd
    6974:	f0c68693          	addi	a3,a3,-244 # cf0c <_kernel+0x1c>
    6978:	ef070713          	addi	a4,a4,-272
	return sys_dlist_is_empty(list) ? NULL : list->head;
    697c:	04d78c63          	beq	a5,a3,69d4 <move_thread_to_end_of_prio_q+0xac>
	SYS_DLIST_FOR_EACH_CONTAINER(pq, t, base.qnode_dlist) {
    6980:	04078a63          	beqz	a5,69d4 <move_thread_to_end_of_prio_q+0xac>
	int32_t b1 = thread_1->base.prio;
    6984:	00e40503          	lb	a0,14(s0)
	int32_t b2 = thread_2->base.prio;
    6988:	00e78603          	lb	a2,14(a5)
	if (b1 != b2) {
    698c:	02c50e63          	beq	a0,a2,69c8 <move_thread_to_end_of_prio_q+0xa0>
		return b2 - b1;
    6990:	40a60633          	sub	a2,a2,a0
		if (z_sched_prio_cmp(thread, t) > 0) {
    6994:	02c05a63          	blez	a2,69c8 <move_thread_to_end_of_prio_q+0xa0>
	sys_dnode_t *const prev = successor->prev;
    6998:	0047a683          	lw	a3,4(a5)
	node->next = successor;
    699c:	00f42023          	sw	a5,0(s0)
	node->prev = prev;
    69a0:	00d42223          	sw	a3,4(s0)
	prev->next = node;
    69a4:	0086a023          	sw	s0,0(a3)
	successor->prev = node;
    69a8:	0087a223          	sw	s0,4(a5)
	update_cache(thread == _current);
    69ac:	00872503          	lw	a0,8(a4)
}
    69b0:	00c12083          	lw	ra,12(sp)
	update_cache(thread == _current);
    69b4:	40850533          	sub	a0,a0,s0
}
    69b8:	00812403          	lw	s0,8(sp)
	update_cache(thread == _current);
    69bc:	00153513          	seqz	a0,a0
}
    69c0:	01010113          	addi	sp,sp,16
	update_cache(thread == _current);
    69c4:	ec1ff06f          	j	6884 <update_cache>
	return (node == list->tail) ? NULL : node->next;
    69c8:	00b78663          	beq	a5,a1,69d4 <move_thread_to_end_of_prio_q+0xac>
    69cc:	0007a783          	lw	a5,0(a5)
	SYS_DLIST_FOR_EACH_CONTAINER(pq, t, base.qnode_dlist) {
    69d0:	fa079ce3          	bnez	a5,6988 <move_thread_to_end_of_prio_q+0x60>
	node->next = list;
    69d4:	00d42023          	sw	a3,0(s0)
	node->prev = tail;
    69d8:	00b42223          	sw	a1,4(s0)
	tail->next = node;
    69dc:	0085a023          	sw	s0,0(a1)
	list->tail = node;
    69e0:	02872023          	sw	s0,32(a4)
}
    69e4:	fc9ff06f          	j	69ac <move_thread_to_end_of_prio_q+0x84>

000069e8 <ready_thread>:
    69e8:	00d54783          	lbu	a5,13(a0)
	if (!z_is_thread_queued(thread) && z_is_thread_ready(thread)) {
    69ec:	01879713          	slli	a4,a5,0x18
    69f0:	41875713          	srai	a4,a4,0x18
    69f4:	08074863          	bltz	a4,6a84 <ready_thread+0x9c>
	return !((z_is_thread_prevented_from_running(thread)) != 0U ||
    69f8:	01f7f713          	andi	a4,a5,31
    69fc:	08071463          	bnez	a4,6a84 <ready_thread+0x9c>
    6a00:	02052703          	lw	a4,32(a0)
    6a04:	08071063          	bnez	a4,6a84 <ready_thread+0x9c>
	thread->base.thread_state |= _THREAD_QUEUED;
    6a08:	f807e793          	ori	a5,a5,-128
	return list->head == list;
    6a0c:	0000d737          	lui	a4,0xd
    6a10:	ef070693          	addi	a3,a4,-272 # cef0 <_kernel>
    6a14:	00f506a3          	sb	a5,13(a0)
    6a18:	01c6a783          	lw	a5,28(a3)
	return (node == list->tail) ? NULL : node->next;
    6a1c:	0206a583          	lw	a1,32(a3)
    6a20:	0000d6b7          	lui	a3,0xd
    6a24:	f0c68693          	addi	a3,a3,-244 # cf0c <_kernel+0x1c>
    6a28:	ef070713          	addi	a4,a4,-272
	return sys_dlist_is_empty(list) ? NULL : list->head;
    6a2c:	04d78263          	beq	a5,a3,6a70 <ready_thread+0x88>
	SYS_DLIST_FOR_EACH_CONTAINER(pq, t, base.qnode_dlist) {
    6a30:	04078063          	beqz	a5,6a70 <ready_thread+0x88>
	int32_t b1 = thread_1->base.prio;
    6a34:	00e50803          	lb	a6,14(a0)
	int32_t b2 = thread_2->base.prio;
    6a38:	00e78603          	lb	a2,14(a5)
	if (b1 != b2) {
    6a3c:	02c80463          	beq	a6,a2,6a64 <ready_thread+0x7c>
		return b2 - b1;
    6a40:	41060633          	sub	a2,a2,a6
		if (z_sched_prio_cmp(thread, t) > 0) {
    6a44:	02c05063          	blez	a2,6a64 <ready_thread+0x7c>
	sys_dnode_t *const prev = successor->prev;
    6a48:	0047a703          	lw	a4,4(a5)
	node->next = successor;
    6a4c:	00f52023          	sw	a5,0(a0)
	node->prev = prev;
    6a50:	00e52223          	sw	a4,4(a0)
	prev->next = node;
    6a54:	00a72023          	sw	a0,0(a4)
	successor->prev = node;
    6a58:	00a7a223          	sw	a0,4(a5)
		update_cache(0);
    6a5c:	00000513          	li	a0,0
    6a60:	e25ff06f          	j	6884 <update_cache>
	return (node == list->tail) ? NULL : node->next;
    6a64:	00b78663          	beq	a5,a1,6a70 <ready_thread+0x88>
    6a68:	0007a783          	lw	a5,0(a5)
	SYS_DLIST_FOR_EACH_CONTAINER(pq, t, base.qnode_dlist) {
    6a6c:	fc0796e3          	bnez	a5,6a38 <ready_thread+0x50>
	node->next = list;
    6a70:	00d52023          	sw	a3,0(a0)
	node->prev = tail;
    6a74:	00b52223          	sw	a1,4(a0)
	tail->next = node;
    6a78:	00a5a023          	sw	a0,0(a1)
	list->tail = node;
    6a7c:	02a72023          	sw	a0,32(a4)
}
    6a80:	fddff06f          	j	6a5c <ready_thread+0x74>
}
    6a84:	00008067          	ret

00006a88 <z_thread_timeout>:
{
    6a88:	fe010113          	addi	sp,sp,-32
    6a8c:	00912a23          	sw	s1,20(sp)
    6a90:	00112e23          	sw	ra,28(sp)
    6a94:	00812c23          	sw	s0,24(sp)
	__asm__ volatile ("csrrc %0, mstatus, %1"
    6a98:	00800493          	li	s1,8
    6a9c:	3004b4f3          	csrrc	s1,mstatus,s1
		if (!killed) {
    6aa0:	fed54783          	lbu	a5,-19(a0)
	key = (mstatus & MSTATUS_IEN);
    6aa4:	0084f493          	andi	s1,s1,8
    6aa8:	0287f793          	andi	a5,a5,40
    6aac:	02079863          	bnez	a5,6adc <z_thread_timeout+0x54>
    6ab0:	00050413          	mv	s0,a0
			if (thread->base.pended_on != NULL) {
    6ab4:	fe842783          	lw	a5,-24(s0)
	struct k_thread *thread = CONTAINER_OF(timeout,
    6ab8:	fe050513          	addi	a0,a0,-32
			if (thread->base.pended_on != NULL) {
    6abc:	00078863          	beqz	a5,6acc <z_thread_timeout+0x44>
				unpend_thread_no_timeout(thread);
    6ac0:	00a12623          	sw	a0,12(sp)
    6ac4:	d35ff0ef          	jal	ra,67f8 <unpend_thread_no_timeout>
    6ac8:	00c12503          	lw	a0,12(sp)
	thread->base.thread_state &= ~_THREAD_SUSPENDED;
    6acc:	fed44783          	lbu	a5,-19(s0)
    6ad0:	feb7f793          	andi	a5,a5,-21
    6ad4:	fef406a3          	sb	a5,-19(s0)
			ready_thread(thread);
    6ad8:	f11ff0ef          	jal	ra,69e8 <ready_thread>
	__asm__ volatile ("csrrs %0, mstatus, %1"
    6adc:	3004a4f3          	csrrs	s1,mstatus,s1
}
    6ae0:	01c12083          	lw	ra,28(sp)
    6ae4:	01812403          	lw	s0,24(sp)
    6ae8:	01412483          	lw	s1,20(sp)
    6aec:	02010113          	addi	sp,sp,32
    6af0:	00008067          	ret

00006af4 <unready_thread>:
{
    6af4:	ff010113          	addi	sp,sp,-16
    6af8:	00812423          	sw	s0,8(sp)
    6afc:	00112623          	sw	ra,12(sp)
	return (thread->base.thread_state & state) != 0U;
    6b00:	00d54783          	lbu	a5,13(a0)
    6b04:	00050413          	mv	s0,a0
	if (z_is_thread_queued(thread)) {
    6b08:	01879713          	slli	a4,a5,0x18
    6b0c:	41875713          	srai	a4,a4,0x18
    6b10:	00075863          	bgez	a4,6b20 <unready_thread+0x2c>
	thread->base.thread_state &= ~_THREAD_QUEUED;
    6b14:	07f7f793          	andi	a5,a5,127
    6b18:	00f506a3          	sb	a5,13(a0)
	sys_dlist_remove(&thread->base.qnode_dlist);
    6b1c:	cc1ff0ef          	jal	ra,67dc <sys_dlist_remove>
	update_cache(thread == _current);
    6b20:	0000d7b7          	lui	a5,0xd
    6b24:	ef87a503          	lw	a0,-264(a5) # cef8 <_kernel+0x8>
}
    6b28:	00c12083          	lw	ra,12(sp)
	update_cache(thread == _current);
    6b2c:	40850533          	sub	a0,a0,s0
}
    6b30:	00812403          	lw	s0,8(sp)
	update_cache(thread == _current);
    6b34:	00153513          	seqz	a0,a0
}
    6b38:	01010113          	addi	sp,sp,16
	update_cache(thread == _current);
    6b3c:	d49ff06f          	j	6884 <update_cache>

00006b40 <add_to_waitq_locked>:
{
    6b40:	ff010113          	addi	sp,sp,-16
    6b44:	00812423          	sw	s0,8(sp)
    6b48:	00912223          	sw	s1,4(sp)
    6b4c:	00050413          	mv	s0,a0
    6b50:	00112623          	sw	ra,12(sp)
    6b54:	00058493          	mv	s1,a1
	unready_thread(thread);
    6b58:	f9dff0ef          	jal	ra,6af4 <unready_thread>
	thread->base.thread_state |= _THREAD_PENDING;
    6b5c:	00d44783          	lbu	a5,13(s0)
    6b60:	0027e793          	ori	a5,a5,2
    6b64:	00f406a3          	sb	a5,13(s0)
	if (wait_q != NULL) {
    6b68:	02048e63          	beqz	s1,6ba4 <add_to_waitq_locked+0x64>
	return list->head == list;
    6b6c:	0004a783          	lw	a5,0(s1)
		thread->base.pended_on = wait_q;
    6b70:	00942423          	sw	s1,8(s0)
	return sys_dlist_is_empty(list) ? NULL : list->head;
    6b74:	04f48a63          	beq	s1,a5,6bc8 <add_to_waitq_locked+0x88>
	SYS_DLIST_FOR_EACH_CONTAINER(pq, t, base.qnode_dlist) {
    6b78:	04078863          	beqz	a5,6bc8 <add_to_waitq_locked+0x88>
	int32_t b1 = thread_1->base.prio;
    6b7c:	00e40683          	lb	a3,14(s0)
	int32_t b2 = thread_2->base.prio;
    6b80:	00e78703          	lb	a4,14(a5)
	if (b1 != b2) {
    6b84:	02e68a63          	beq	a3,a4,6bb8 <add_to_waitq_locked+0x78>
		return b2 - b1;
    6b88:	40d70733          	sub	a4,a4,a3
		if (z_sched_prio_cmp(thread, t) > 0) {
    6b8c:	02e05663          	blez	a4,6bb8 <add_to_waitq_locked+0x78>
	sys_dnode_t *const prev = successor->prev;
    6b90:	0047a703          	lw	a4,4(a5)
	node->next = successor;
    6b94:	00f42023          	sw	a5,0(s0)
	node->prev = prev;
    6b98:	00e42223          	sw	a4,4(s0)
	prev->next = node;
    6b9c:	00872023          	sw	s0,0(a4)
	successor->prev = node;
    6ba0:	0087a223          	sw	s0,4(a5)
}
    6ba4:	00c12083          	lw	ra,12(sp)
    6ba8:	00812403          	lw	s0,8(sp)
    6bac:	00412483          	lw	s1,4(sp)
    6bb0:	01010113          	addi	sp,sp,16
    6bb4:	00008067          	ret
	return (node == list->tail) ? NULL : node->next;
    6bb8:	0044a703          	lw	a4,4(s1)
    6bbc:	00e78663          	beq	a5,a4,6bc8 <add_to_waitq_locked+0x88>
    6bc0:	0007a783          	lw	a5,0(a5)
	SYS_DLIST_FOR_EACH_CONTAINER(pq, t, base.qnode_dlist) {
    6bc4:	fa079ee3          	bnez	a5,6b80 <add_to_waitq_locked+0x40>
	sys_dnode_t *const tail = list->tail;
    6bc8:	0044a783          	lw	a5,4(s1)
	node->next = list;
    6bcc:	00942023          	sw	s1,0(s0)
	node->prev = tail;
    6bd0:	00f42223          	sw	a5,4(s0)
	tail->next = node;
    6bd4:	0087a023          	sw	s0,0(a5)
	list->tail = node;
    6bd8:	0084a223          	sw	s0,4(s1)
}
    6bdc:	fc9ff06f          	j	6ba4 <add_to_waitq_locked+0x64>

00006be0 <pend_locked>:
{
    6be0:	fe010113          	addi	sp,sp,-32
    6be4:	00812c23          	sw	s0,24(sp)
    6be8:	00c12623          	sw	a2,12(sp)
    6bec:	00d12423          	sw	a3,8(sp)
    6bf0:	00112e23          	sw	ra,28(sp)
    6bf4:	00050413          	mv	s0,a0
	add_to_waitq_locked(thread, wait_q);
    6bf8:	f49ff0ef          	jal	ra,6b40 <add_to_waitq_locked>
	add_thread_timeout(thread, timeout);
    6bfc:	00c12603          	lw	a2,12(sp)
	if (!K_TIMEOUT_EQ(timeout, K_FOREVER)) {
    6c00:	fff00593          	li	a1,-1
    6c04:	00812683          	lw	a3,8(sp)
    6c08:	00b61463          	bne	a2,a1,6c10 <pend_locked+0x30>
    6c0c:	02c68063          	beq	a3,a2,6c2c <pend_locked+0x4c>
    6c10:	02040513          	addi	a0,s0,32
}
    6c14:	01812403          	lw	s0,24(sp)
    6c18:	01c12083          	lw	ra,28(sp)
    6c1c:	000075b7          	lui	a1,0x7
    6c20:	a8858593          	addi	a1,a1,-1400 # 6a88 <z_thread_timeout>
    6c24:	02010113          	addi	sp,sp,32
    6c28:	1090006f          	j	7530 <z_add_timeout>
    6c2c:	01c12083          	lw	ra,28(sp)
    6c30:	01812403          	lw	s0,24(sp)
    6c34:	02010113          	addi	sp,sp,32
    6c38:	00008067          	ret

00006c3c <k_sched_time_slice_set>:
{
    6c3c:	ff010113          	addi	sp,sp,-16
    6c40:	00812423          	sw	s0,8(sp)
    6c44:	00912223          	sw	s1,4(sp)
    6c48:	00112623          	sw	ra,12(sp)
    6c4c:	00050793          	mv	a5,a0
    6c50:	00058493          	mv	s1,a1
	__asm__ volatile ("csrrc %0, mstatus, %1"
    6c54:	00800413          	li	s0,8
    6c58:	30043473          	csrrc	s0,mstatus,s0
		_current_cpu->slice_ticks = 0;
    6c5c:	0000d737          	lui	a4,0xd
		t += off;
    6c60:	00950513          	addi	a0,a0,9
    6c64:	f0072023          	sw	zero,-256(a4) # cf00 <_kernel+0x10>
	key = (mstatus & MSTATUS_IEN);
    6c68:	00847413          	andi	s0,s0,8
    6c6c:	00f535b3          	sltu	a1,a0,a5
		if (result32 && (t < BIT64(32))) {
    6c70:	02f56c63          	bltu	a0,a5,6ca8 <k_sched_time_slice_set+0x6c>
			return ((uint32_t)t) / (from_hz / to_hz);
    6c74:	00a00793          	li	a5,10
    6c78:	02f55533          	divu	a0,a0,a5
		slice_time = k_ms_to_ticks_ceil32(slice);
    6c7c:	0000d7b7          	lui	a5,0xd
    6c80:	c2a7aa23          	sw	a0,-972(a5) # cc34 <slice_time>
		slice_max_prio = prio;
    6c84:	0000d7b7          	lui	a5,0xd
    6c88:	c297a823          	sw	s1,-976(a5) # cc30 <slice_max_prio>
		z_reset_time_slice();
    6c8c:	ba1ff0ef          	jal	ra,682c <z_reset_time_slice>
	__asm__ volatile ("csrrs %0, mstatus, %1"
    6c90:	30042473          	csrrs	s0,mstatus,s0
}
    6c94:	00c12083          	lw	ra,12(sp)
    6c98:	00812403          	lw	s0,8(sp)
    6c9c:	00412483          	lw	s1,4(sp)
    6ca0:	01010113          	addi	sp,sp,16
    6ca4:	00008067          	ret
			return t / ((uint64_t)from_hz / to_hz);
    6ca8:	00a00613          	li	a2,10
    6cac:	00000693          	li	a3,0
    6cb0:	e8cf90ef          	jal	ra,33c <__udivdi3>
    6cb4:	fc9ff06f          	j	6c7c <k_sched_time_slice_set+0x40>

00006cb8 <z_time_slice>:
{
    6cb8:	ff010113          	addi	sp,sp,-16
    6cbc:	00812423          	sw	s0,8(sp)
    6cc0:	00112623          	sw	ra,12(sp)
	__asm__ volatile ("csrrc %0, mstatus, %1"
    6cc4:	00800413          	li	s0,8
    6cc8:	30043473          	csrrc	s0,mstatus,s0
	if (slice_time && sliceable(_current)) {
    6ccc:	0000d7b7          	lui	a5,0xd
    6cd0:	c347a703          	lw	a4,-972(a5) # cc34 <slice_time>
    6cd4:	0000d7b7          	lui	a5,0xd
	key = (mstatus & MSTATUS_IEN);
    6cd8:	00847413          	andi	s0,s0,8
    6cdc:	ef078793          	addi	a5,a5,-272 # cef0 <_kernel>
    6ce0:	06070863          	beqz	a4,6d50 <z_time_slice+0x98>
    6ce4:	00050693          	mv	a3,a0
    6ce8:	0087a503          	lw	a0,8(a5)
		&& !z_is_idle_thread_object(thread);
    6cec:	07f00713          	li	a4,127
    6cf0:	00e55603          	lhu	a2,14(a0)
    6cf4:	04c76e63          	bltu	a4,a2,6d50 <z_time_slice+0x98>
		&& !z_is_thread_prevented_from_running(thread)
    6cf8:	00d54703          	lbu	a4,13(a0)
    6cfc:	01f77713          	andi	a4,a4,31
    6d00:	04071863          	bnez	a4,6d50 <z_time_slice+0x98>
		&& !z_is_prio_higher(thread->base.prio, slice_max_prio)
    6d04:	0000d737          	lui	a4,0xd
    6d08:	00e50603          	lb	a2,14(a0)
    6d0c:	c3072703          	lw	a4,-976(a4) # cc30 <slice_max_prio>
    6d10:	04e64063          	blt	a2,a4,6d50 <z_time_slice+0x98>
		&& !z_is_idle_thread_object(thread);
    6d14:	0000d737          	lui	a4,0xd
    6d18:	da070713          	addi	a4,a4,-608 # cda0 <z_idle_threads>
    6d1c:	02e50a63          	beq	a0,a4,6d50 <z_time_slice+0x98>
		if (ticks >= _current_cpu->slice_ticks) {
    6d20:	0107a703          	lw	a4,16(a5)
    6d24:	02e6c063          	blt	a3,a4,6d44 <z_time_slice+0x8c>
			move_thread_to_end_of_prio_q(_current);
    6d28:	c01ff0ef          	jal	ra,6928 <move_thread_to_end_of_prio_q>
			z_reset_time_slice();
    6d2c:	b01ff0ef          	jal	ra,682c <z_reset_time_slice>
	__asm__ volatile ("csrrs %0, mstatus, %1"
    6d30:	30042473          	csrrs	s0,mstatus,s0
}
    6d34:	00c12083          	lw	ra,12(sp)
    6d38:	00812403          	lw	s0,8(sp)
    6d3c:	01010113          	addi	sp,sp,16
    6d40:	00008067          	ret
			_current_cpu->slice_ticks -= ticks;
    6d44:	40d70733          	sub	a4,a4,a3
    6d48:	00e7a823          	sw	a4,16(a5)
    6d4c:	fe5ff06f          	j	6d30 <z_time_slice+0x78>
		_current_cpu->slice_ticks = 0;
    6d50:	0007a823          	sw	zero,16(a5)
    6d54:	fddff06f          	j	6d30 <z_time_slice+0x78>

00006d58 <z_ready_thread>:
{
    6d58:	ff010113          	addi	sp,sp,-16
    6d5c:	00812423          	sw	s0,8(sp)
    6d60:	00112623          	sw	ra,12(sp)
	__asm__ volatile ("csrrc %0, mstatus, %1"
    6d64:	00800413          	li	s0,8
    6d68:	30043473          	csrrc	s0,mstatus,s0
			ready_thread(thread);
    6d6c:	c7dff0ef          	jal	ra,69e8 <ready_thread>
	key = (mstatus & MSTATUS_IEN);
    6d70:	00847413          	andi	s0,s0,8
	__asm__ volatile ("csrrs %0, mstatus, %1"
    6d74:	30042473          	csrrs	s0,mstatus,s0
}
    6d78:	00c12083          	lw	ra,12(sp)
    6d7c:	00812403          	lw	s0,8(sp)
    6d80:	01010113          	addi	sp,sp,16
    6d84:	00008067          	ret

00006d88 <z_pend_curr>:
{
    6d88:	ff010113          	addi	sp,sp,-16
    6d8c:	00812423          	sw	s0,8(sp)
    6d90:	00112623          	sw	ra,12(sp)
    6d94:	00058413          	mv	s0,a1
	__asm__ volatile ("csrrc %0, mstatus, %1"
    6d98:	00800793          	li	a5,8
    6d9c:	00060593          	mv	a1,a2
    6da0:	00068613          	mv	a2,a3
    6da4:	00070693          	mv	a3,a4
    6da8:	3007b7f3          	csrrc	a5,mstatus,a5
	pend_locked(_current, wait_q, timeout);
    6dac:	0000d7b7          	lui	a5,0xd
    6db0:	ef87a503          	lw	a0,-264(a5) # cef8 <_kernel+0x8>
    6db4:	e2dff0ef          	jal	ra,6be0 <pend_locked>
    6db8:	00040513          	mv	a0,s0
}
    6dbc:	00812403          	lw	s0,8(sp)
    6dc0:	00c12083          	lw	ra,12(sp)
    6dc4:	01010113          	addi	sp,sp,16
    6dc8:	d04f906f          	j	2cc <arch_swap>

00006dcc <z_set_prio>:
{
    6dcc:	ff010113          	addi	sp,sp,-16
    6dd0:	00812423          	sw	s0,8(sp)
    6dd4:	01212023          	sw	s2,0(sp)
    6dd8:	00112623          	sw	ra,12(sp)
    6ddc:	00912223          	sw	s1,4(sp)
    6de0:	00050413          	mv	s0,a0
    6de4:	00800913          	li	s2,8
    6de8:	30093973          	csrrc	s2,mstatus,s2
	uint8_t state = thread->base.thread_state;
    6dec:	00d54783          	lbu	a5,13(a0)
				thread->base.prio = prio;
    6df0:	01859493          	slli	s1,a1,0x18
	key = (mstatus & MSTATUS_IEN);
    6df4:	00897913          	andi	s2,s2,8
	return !((z_is_thread_prevented_from_running(thread)) != 0U ||
    6df8:	01f7f713          	andi	a4,a5,31
    6dfc:	4184d493          	srai	s1,s1,0x18
    6e00:	0a071e63          	bnez	a4,6ebc <z_set_prio+0xf0>
		if (need_sched) {
    6e04:	02052703          	lw	a4,32(a0)
    6e08:	0a071a63          	bnez	a4,6ebc <z_set_prio+0xf0>
	thread->base.thread_state &= ~_THREAD_QUEUED;
    6e0c:	07f7f793          	andi	a5,a5,127
    6e10:	00f506a3          	sb	a5,13(a0)
	sys_dlist_remove(&thread->base.qnode_dlist);
    6e14:	9c9ff0ef          	jal	ra,67dc <sys_dlist_remove>
	thread->base.thread_state |= _THREAD_QUEUED;
    6e18:	00d44783          	lbu	a5,13(s0)
	return list->head == list;
    6e1c:	0000d737          	lui	a4,0xd
    6e20:	0000d6b7          	lui	a3,0xd
    6e24:	f807e793          	ori	a5,a5,-128
    6e28:	00f406a3          	sb	a5,13(s0)
    6e2c:	ef070793          	addi	a5,a4,-272 # cef0 <_kernel>
    6e30:	01c7a783          	lw	a5,28(a5)
				thread->base.prio = prio;
    6e34:	00940723          	sb	s1,14(s0)
    6e38:	f0c68693          	addi	a3,a3,-244 # cf0c <_kernel+0x1c>
    6e3c:	ef070713          	addi	a4,a4,-272
	return sys_dlist_is_empty(list) ? NULL : list->head;
    6e40:	06d78263          	beq	a5,a3,6ea4 <z_set_prio+0xd8>
	SYS_DLIST_FOR_EACH_CONTAINER(pq, t, base.qnode_dlist) {
    6e44:	06078063          	beqz	a5,6ea4 <z_set_prio+0xd8>
	return (node == list->tail) ? NULL : node->next;
    6e48:	02072583          	lw	a1,32(a4)
	int32_t b2 = thread_2->base.prio;
    6e4c:	00e78603          	lb	a2,14(a5)
	if (b1 != b2) {
    6e50:	04c48463          	beq	s1,a2,6e98 <z_set_prio+0xcc>
		return b2 - b1;
    6e54:	40960633          	sub	a2,a2,s1
		if (z_sched_prio_cmp(thread, t) > 0) {
    6e58:	04c05063          	blez	a2,6e98 <z_set_prio+0xcc>
	sys_dnode_t *const prev = successor->prev;
    6e5c:	0047a703          	lw	a4,4(a5)
	node->next = successor;
    6e60:	00f42023          	sw	a5,0(s0)
	node->prev = prev;
    6e64:	00e42223          	sw	a4,4(s0)
	prev->next = node;
    6e68:	00872023          	sw	s0,0(a4)
	successor->prev = node;
    6e6c:	0087a223          	sw	s0,4(a5)
			update_cache(1);
    6e70:	00100513          	li	a0,1
    6e74:	a11ff0ef          	jal	ra,6884 <update_cache>
    6e78:	00100513          	li	a0,1
	__asm__ volatile ("csrrs %0, mstatus, %1"
    6e7c:	30092973          	csrrs	s2,mstatus,s2
}
    6e80:	00c12083          	lw	ra,12(sp)
    6e84:	00812403          	lw	s0,8(sp)
    6e88:	00412483          	lw	s1,4(sp)
    6e8c:	00012903          	lw	s2,0(sp)
    6e90:	01010113          	addi	sp,sp,16
    6e94:	00008067          	ret
	return (node == list->tail) ? NULL : node->next;
    6e98:	00b78663          	beq	a5,a1,6ea4 <z_set_prio+0xd8>
    6e9c:	0007a783          	lw	a5,0(a5)
	SYS_DLIST_FOR_EACH_CONTAINER(pq, t, base.qnode_dlist) {
    6ea0:	fa0796e3          	bnez	a5,6e4c <z_set_prio+0x80>
	sys_dnode_t *const tail = list->tail;
    6ea4:	02072783          	lw	a5,32(a4)
	node->next = list;
    6ea8:	00d42023          	sw	a3,0(s0)
	node->prev = tail;
    6eac:	00f42223          	sw	a5,4(s0)
	tail->next = node;
    6eb0:	0087a023          	sw	s0,0(a5)
	list->tail = node;
    6eb4:	02872023          	sw	s0,32(a4)
}
    6eb8:	fb9ff06f          	j	6e70 <z_set_prio+0xa4>
			thread->base.prio = prio;
    6ebc:	00940723          	sb	s1,14(s0)
    6ec0:	00000513          	li	a0,0
    6ec4:	fb9ff06f          	j	6e7c <z_set_prio+0xb0>

00006ec8 <z_reschedule>:
	return (key & MSTATUS_IEN) == MSTATUS_IEN;
    6ec8:	0085f713          	andi	a4,a1,8
{
    6ecc:	00058513          	mv	a0,a1
	return arch_irq_unlocked(key) && !arch_is_in_isr();
    6ed0:	02070263          	beqz	a4,6ef4 <z_reschedule+0x2c>
FUNC_NORETURN void z_riscv_fatal_error(unsigned int reason,
				       const z_arch_esf_t *esf);

static inline bool arch_is_in_isr(void)
{
	return _kernel.cpus[0].nested != 0U;
    6ed4:	0000d7b7          	lui	a5,0xd
    6ed8:	ef078793          	addi	a5,a5,-272 # cef0 <_kernel>
	if (resched(key.key) && need_swap()) {
    6edc:	0007a683          	lw	a3,0(a5)
    6ee0:	00069a63          	bnez	a3,6ef4 <z_reschedule+0x2c>
    6ee4:	0187a683          	lw	a3,24(a5)
    6ee8:	0087a783          	lw	a5,8(a5)
    6eec:	00f68463          	beq	a3,a5,6ef4 <z_reschedule+0x2c>
    6ef0:	bdcf906f          	j	2cc <arch_swap>
	__asm__ volatile ("csrrs %0, mstatus, %1"
    6ef4:	30072773          	csrrs	a4,mstatus,a4
}
    6ef8:	00008067          	ret

00006efc <z_sched_start>:
	__asm__ volatile ("csrrc %0, mstatus, %1"
    6efc:	00800593          	li	a1,8
    6f00:	3005b5f3          	csrrc	a1,mstatus,a1
	return (thread->base.thread_state & _THREAD_PRESTART) == 0U;
    6f04:	00d54703          	lbu	a4,13(a0)
	key = (mstatus & MSTATUS_IEN);
    6f08:	0085f593          	andi	a1,a1,8
	if (z_has_thread_started(thread)) {
    6f0c:	00477693          	andi	a3,a4,4
    6f10:	00069663          	bnez	a3,6f1c <z_sched_start+0x20>
	__asm__ volatile ("csrrs %0, mstatus, %1"
    6f14:	3005a5f3          	csrrs	a1,mstatus,a1
		return;
    6f18:	00008067          	ret
{
    6f1c:	fe010113          	addi	sp,sp,-32
    6f20:	00112e23          	sw	ra,28(sp)
	thread->base.thread_state &= ~_THREAD_PRESTART;
    6f24:	ffb77713          	andi	a4,a4,-5
    6f28:	00e506a3          	sb	a4,13(a0)
    6f2c:	00b12623          	sw	a1,12(sp)
	ready_thread(thread);
    6f30:	ab9ff0ef          	jal	ra,69e8 <ready_thread>
	z_reschedule(&sched_spinlock, key);
    6f34:	00c12583          	lw	a1,12(sp)
}
    6f38:	01c12083          	lw	ra,28(sp)
	z_reschedule(&sched_spinlock, key);
    6f3c:	0000d537          	lui	a0,0xd
    6f40:	f1450513          	addi	a0,a0,-236 # cf14 <sched_spinlock>
}
    6f44:	02010113          	addi	sp,sp,32
	z_reschedule(&sched_spinlock, key);
    6f48:	f81ff06f          	j	6ec8 <z_reschedule>

00006f4c <z_reschedule_irqlock>:
	return (key & MSTATUS_IEN) == MSTATUS_IEN;
    6f4c:	00857793          	andi	a5,a0,8
	return arch_irq_unlocked(key) && !arch_is_in_isr();
    6f50:	00078a63          	beqz	a5,6f64 <z_reschedule_irqlock+0x18>
	if (resched(key)) {
    6f54:	0000d737          	lui	a4,0xd
    6f58:	ef072703          	lw	a4,-272(a4) # cef0 <_kernel>
    6f5c:	00071463          	bnez	a4,6f64 <z_reschedule_irqlock+0x18>
    6f60:	b6cf906f          	j	2cc <arch_swap>
	__asm__ volatile ("csrrs %0, mstatus, %1"
    6f64:	3007a7f3          	csrrs	a5,mstatus,a5
}
    6f68:	00008067          	ret

00006f6c <z_reschedule_unlocked>:
	__asm__ volatile ("csrrc %0, mstatus, %1"
    6f6c:	00800513          	li	a0,8
    6f70:	30053573          	csrrc	a0,mstatus,a0
	(void) z_reschedule_irqlock(arch_irq_lock());
    6f74:	00857513          	andi	a0,a0,8
    6f78:	fd5ff06f          	j	6f4c <z_reschedule_irqlock>

00006f7c <z_impl_k_thread_suspend>:
{
    6f7c:	ff010113          	addi	sp,sp,-16
    6f80:	00812423          	sw	s0,8(sp)
    6f84:	00050413          	mv	s0,a0
}

static inline int z_abort_thread_timeout(struct k_thread *thread)
{
	return z_abort_timeout(&thread->base.timeout);
    6f88:	02050513          	addi	a0,a0,32
    6f8c:	00912223          	sw	s1,4(sp)
    6f90:	00112623          	sw	ra,12(sp)
    6f94:	01212023          	sw	s2,0(sp)
    6f98:	00800493          	li	s1,8
    6f9c:	744000ef          	jal	ra,76e0 <z_abort_timeout>
    6fa0:	3004b4f3          	csrrc	s1,mstatus,s1
	return (thread->base.thread_state & state) != 0U;
    6fa4:	00d44783          	lbu	a5,13(s0)
	key = (mstatus & MSTATUS_IEN);
    6fa8:	0084f493          	andi	s1,s1,8
		if (z_is_thread_queued(thread)) {
    6fac:	01879713          	slli	a4,a5,0x18
    6fb0:	41875713          	srai	a4,a4,0x18
    6fb4:	00075a63          	bgez	a4,6fc8 <z_impl_k_thread_suspend+0x4c>
	thread->base.thread_state &= ~_THREAD_QUEUED;
    6fb8:	07f7f793          	andi	a5,a5,127
    6fbc:	00f406a3          	sb	a5,13(s0)
	sys_dlist_remove(&thread->base.qnode_dlist);
    6fc0:	00040513          	mv	a0,s0
    6fc4:	819ff0ef          	jal	ra,67dc <sys_dlist_remove>
		update_cache(thread == _current);
    6fc8:	0000d937          	lui	s2,0xd
    6fcc:	ef090913          	addi	s2,s2,-272 # cef0 <_kernel>
	thread->base.thread_state |= _THREAD_SUSPENDED;
    6fd0:	00d44783          	lbu	a5,13(s0)
    6fd4:	00892503          	lw	a0,8(s2)
    6fd8:	0107e793          	ori	a5,a5,16
    6fdc:	40850533          	sub	a0,a0,s0
    6fe0:	00f406a3          	sb	a5,13(s0)
    6fe4:	00153513          	seqz	a0,a0
    6fe8:	89dff0ef          	jal	ra,6884 <update_cache>
	__asm__ volatile ("csrrs %0, mstatus, %1"
    6fec:	3004a4f3          	csrrs	s1,mstatus,s1
	if (thread == _current) {
    6ff0:	00892783          	lw	a5,8(s2)
    6ff4:	00879e63          	bne	a5,s0,7010 <z_impl_k_thread_suspend+0x94>
}
    6ff8:	00812403          	lw	s0,8(sp)
    6ffc:	00c12083          	lw	ra,12(sp)
    7000:	00412483          	lw	s1,4(sp)
    7004:	00012903          	lw	s2,0(sp)
    7008:	01010113          	addi	sp,sp,16
		z_reschedule_unlocked();
    700c:	f61ff06f          	j	6f6c <z_reschedule_unlocked>
}
    7010:	00c12083          	lw	ra,12(sp)
    7014:	00812403          	lw	s0,8(sp)
    7018:	00412483          	lw	s1,4(sp)
    701c:	00012903          	lw	s2,0(sp)
    7020:	01010113          	addi	sp,sp,16
    7024:	00008067          	ret

00007028 <k_sched_lock>:
	__asm__ volatile ("csrrc %0, mstatus, %1"
    7028:	00800793          	li	a5,8
    702c:	3007b7f3          	csrrc	a5,mstatus,a5
	--_current->base.sched_locked;
    7030:	0000d737          	lui	a4,0xd
    7034:	ef872683          	lw	a3,-264(a4) # cef8 <_kernel+0x8>
    7038:	00f6c703          	lbu	a4,15(a3)
    703c:	fff70713          	addi	a4,a4,-1
    7040:	00e687a3          	sb	a4,15(a3)
	key = (mstatus & MSTATUS_IEN);
    7044:	0087f793          	andi	a5,a5,8
	__asm__ volatile ("csrrs %0, mstatus, %1"
    7048:	3007a7f3          	csrrs	a5,mstatus,a5
}
    704c:	00008067          	ret

00007050 <k_sched_unlock>:
{
    7050:	ff010113          	addi	sp,sp,-16
    7054:	00812423          	sw	s0,8(sp)
    7058:	00112623          	sw	ra,12(sp)
	__asm__ volatile ("csrrc %0, mstatus, %1"
    705c:	00800413          	li	s0,8
    7060:	30043473          	csrrc	s0,mstatus,s0
		++_current->base.sched_locked;
    7064:	0000d7b7          	lui	a5,0xd
    7068:	ef87a703          	lw	a4,-264(a5) # cef8 <_kernel+0x8>
		update_cache(0);
    706c:	00000513          	li	a0,0
	key = (mstatus & MSTATUS_IEN);
    7070:	00847413          	andi	s0,s0,8
		++_current->base.sched_locked;
    7074:	00f74783          	lbu	a5,15(a4)
    7078:	00178793          	addi	a5,a5,1
    707c:	00f707a3          	sb	a5,15(a4)
		update_cache(0);
    7080:	805ff0ef          	jal	ra,6884 <update_cache>
	__asm__ volatile ("csrrs %0, mstatus, %1"
    7084:	30042473          	csrrs	s0,mstatus,s0
}
    7088:	00812403          	lw	s0,8(sp)
    708c:	00c12083          	lw	ra,12(sp)
    7090:	01010113          	addi	sp,sp,16
	z_reschedule_unlocked();
    7094:	ed9ff06f          	j	6f6c <z_reschedule_unlocked>

00007098 <z_priq_dumb_best>:
}

struct k_thread *z_priq_dumb_best(sys_dlist_t *pq)
{
    7098:	00050793          	mv	a5,a0
	return list->head == list;
    709c:	00052503          	lw	a0,0(a0)
	return sys_dlist_is_empty(list) ? NULL : list->head;
    70a0:	00a79463          	bne	a5,a0,70a8 <z_priq_dumb_best+0x10>
	struct k_thread *thread = NULL;
    70a4:	00000513          	li	a0,0

	if (n != NULL) {
		thread = CONTAINER_OF(n, struct k_thread, base.qnode_dlist);
	}
	return thread;
}
    70a8:	00008067          	ret

000070ac <z_unpend_first_thread>:
{
    70ac:	ff010113          	addi	sp,sp,-16
    70b0:	00812423          	sw	s0,8(sp)
    70b4:	00112623          	sw	ra,12(sp)
    70b8:	00912223          	sw	s1,4(sp)
	__asm__ volatile ("csrrc %0, mstatus, %1"
    70bc:	00800413          	li	s0,8
    70c0:	30043473          	csrrc	s0,mstatus,s0
		thread = _priq_wait_best(&wait_q->waitq);
    70c4:	fd5ff0ef          	jal	ra,7098 <z_priq_dumb_best>
	key = (mstatus & MSTATUS_IEN);
    70c8:	00847413          	andi	s0,s0,8
    70cc:	00050493          	mv	s1,a0
		if (thread != NULL) {
    70d0:	00050863          	beqz	a0,70e0 <z_unpend_first_thread+0x34>
			unpend_thread_no_timeout(thread);
    70d4:	f24ff0ef          	jal	ra,67f8 <unpend_thread_no_timeout>
    70d8:	02048513          	addi	a0,s1,32
    70dc:	604000ef          	jal	ra,76e0 <z_abort_timeout>
	__asm__ volatile ("csrrs %0, mstatus, %1"
    70e0:	30042473          	csrrs	s0,mstatus,s0
}
    70e4:	00c12083          	lw	ra,12(sp)
    70e8:	00812403          	lw	s0,8(sp)
    70ec:	00048513          	mv	a0,s1
    70f0:	00412483          	lw	s1,4(sp)
    70f4:	01010113          	addi	sp,sp,16
    70f8:	00008067          	ret

000070fc <z_sched_init>:
	list->head = (sys_dnode_t *)list;
    70fc:	0000d7b7          	lui	a5,0xd
    7100:	0000d737          	lui	a4,0xd
    7104:	ef078793          	addi	a5,a5,-272 # cef0 <_kernel>
    7108:	f0c70713          	addi	a4,a4,-244 # cf0c <_kernel+0x1c>
    710c:	00e7ae23          	sw	a4,28(a5)
	list->tail = (sys_dnode_t *)list;
    7110:	02e7a023          	sw	a4,32(a5)
		sys_dlist_init(&_kernel.ready_q.runq.queues[i]);
	}
#endif

#ifdef CONFIG_TIMESLICING
	k_sched_time_slice_set(CONFIG_TIMESLICE_SIZE,
    7114:	00000593          	li	a1,0
    7118:	00000513          	li	a0,0
    711c:	b21ff06f          	j	6c3c <k_sched_time_slice_set>

00007120 <z_impl_k_yield>:
#include <syscalls/k_thread_deadline_set_mrsh.c>
#endif
#endif

void z_impl_k_yield(void)
{
    7120:	ff010113          	addi	sp,sp,-16
    7124:	00912223          	sw	s1,4(sp)
    7128:	00112623          	sw	ra,12(sp)
    712c:	00812423          	sw	s0,8(sp)
    7130:	01212023          	sw	s2,0(sp)
	__asm__ volatile ("csrrc %0, mstatus, %1"
    7134:	00800493          	li	s1,8
    7138:	3004b4f3          	csrrc	s1,mstatus,s1

	k_spinlock_key_t key = k_spin_lock(&sched_spinlock);

	if (!IS_ENABLED(CONFIG_SMP) ||
	    z_is_thread_queued(_current)) {
		dequeue_thread(&_kernel.ready_q.runq,
    713c:	0000d437          	lui	s0,0xd
    7140:	ef040913          	addi	s2,s0,-272 # cef0 <_kernel>
    7144:	00892503          	lw	a0,8(s2)
	key = (mstatus & MSTATUS_IEN);
    7148:	0084f493          	andi	s1,s1,8
	thread->base.thread_state &= ~_THREAD_QUEUED;
    714c:	00d54783          	lbu	a5,13(a0)
    7150:	07f7f793          	andi	a5,a5,127
    7154:	00f506a3          	sb	a5,13(a0)
	sys_dlist_remove(&thread->base.qnode_dlist);
    7158:	e84ff0ef          	jal	ra,67dc <sys_dlist_remove>
			       _current);
	}
	queue_thread(&_kernel.ready_q.runq, _current);
    715c:	00892783          	lw	a5,8(s2)
	thread->base.thread_state |= _THREAD_QUEUED;
    7160:	0000d637          	lui	a2,0xd
    7164:	f0c60613          	addi	a2,a2,-244 # cf0c <_kernel+0x1c>
    7168:	00d7c703          	lbu	a4,13(a5)
    716c:	ef040693          	addi	a3,s0,-272
    7170:	f8076713          	ori	a4,a4,-128
    7174:	00e786a3          	sb	a4,13(a5)
	return list->head == list;
    7178:	01c92703          	lw	a4,28(s2)
	return sys_dlist_is_empty(list) ? NULL : list->head;
    717c:	06c70263          	beq	a4,a2,71e0 <z_impl_k_yield+0xc0>
	SYS_DLIST_FOR_EACH_CONTAINER(pq, t, base.qnode_dlist) {
    7180:	06070063          	beqz	a4,71e0 <z_impl_k_yield+0xc0>
	return (node == list->tail) ? NULL : node->next;
    7184:	0206a803          	lw	a6,32(a3)
	int32_t b1 = thread_1->base.prio;
    7188:	00e78503          	lb	a0,14(a5)
	int32_t b2 = thread_2->base.prio;
    718c:	00e70583          	lb	a1,14(a4)
	if (b1 != b2) {
    7190:	04b50263          	beq	a0,a1,71d4 <z_impl_k_yield+0xb4>
		return b2 - b1;
    7194:	40a585b3          	sub	a1,a1,a0
		if (z_sched_prio_cmp(thread, t) > 0) {
    7198:	02b05e63          	blez	a1,71d4 <z_impl_k_yield+0xb4>
	sys_dnode_t *const prev = successor->prev;
    719c:	00472683          	lw	a3,4(a4)
	node->next = successor;
    71a0:	00e7a023          	sw	a4,0(a5)
	node->prev = prev;
    71a4:	00d7a223          	sw	a3,4(a5)
	prev->next = node;
    71a8:	00f6a023          	sw	a5,0(a3)
	successor->prev = node;
    71ac:	00f72223          	sw	a5,4(a4)
	update_cache(1);
    71b0:	00100513          	li	a0,1
    71b4:	ed0ff0ef          	jal	ra,6884 <update_cache>
	z_swap(&sched_spinlock, key);
}
    71b8:	00812403          	lw	s0,8(sp)
    71bc:	00c12083          	lw	ra,12(sp)
    71c0:	00012903          	lw	s2,0(sp)
    71c4:	00048513          	mv	a0,s1
    71c8:	00412483          	lw	s1,4(sp)
    71cc:	01010113          	addi	sp,sp,16
    71d0:	8fcf906f          	j	2cc <arch_swap>
	return (node == list->tail) ? NULL : node->next;
    71d4:	01070663          	beq	a4,a6,71e0 <z_impl_k_yield+0xc0>
    71d8:	00072703          	lw	a4,0(a4)
	SYS_DLIST_FOR_EACH_CONTAINER(pq, t, base.qnode_dlist) {
    71dc:	fa0718e3          	bnez	a4,718c <z_impl_k_yield+0x6c>
	sys_dnode_t *const tail = list->tail;
    71e0:	0206a703          	lw	a4,32(a3)
	node->next = list;
    71e4:	00c7a023          	sw	a2,0(a5)
	node->prev = tail;
    71e8:	00e7a223          	sw	a4,4(a5)
	tail->next = node;
    71ec:	00f72023          	sw	a5,0(a4)
	list->tail = node;
    71f0:	02f6a023          	sw	a5,32(a3)
}
    71f4:	fbdff06f          	j	71b0 <z_impl_k_yield+0x90>

000071f8 <z_tick_sleep>:
}
#include <syscalls/k_yield_mrsh.c>
#endif

static int32_t z_tick_sleep(k_ticks_t ticks)
{
    71f8:	fe010113          	addi	sp,sp,-32
    71fc:	00112e23          	sw	ra,28(sp)
    7200:	00812c23          	sw	s0,24(sp)
    7204:	00912a23          	sw	s1,20(sp)
    7208:	01212823          	sw	s2,16(sp)
    720c:	01312623          	sw	s3,12(sp)
    7210:	01412423          	sw	s4,8(sp)
	 */
	LOG_DBG("thread %p for %u ticks", _current, ticks);
#endif

	/* wait of 0 ms is treated as a 'yield' */
	if (ticks == 0) {
    7214:	00b567b3          	or	a5,a0,a1
    7218:	00079863          	bnez	a5,7228 <z_tick_sleep+0x30>
	z_impl_k_yield();
    721c:	f05ff0ef          	jal	ra,7120 <z_impl_k_yield>
	if (ticks > 0) {
		return ticks;
	}
#endif

	return 0;
    7220:	00000513          	li	a0,0
    7224:	09c0006f          	j	72c0 <z_tick_sleep+0xc8>
	if (Z_TICK_ABS(ticks) <= 0) {
    7228:	ffe00793          	li	a5,-2
    722c:	40a786b3          	sub	a3,a5,a0
    7230:	00d7b733          	sltu	a4,a5,a3
    7234:	fff5c793          	not	a5,a1
    7238:	40e787b3          	sub	a5,a5,a4
    723c:	00050493          	mv	s1,a0
    7240:	00058993          	mv	s3,a1
    7244:	08f04e63          	bgtz	a5,72e0 <z_tick_sleep+0xe8>
    7248:	00079463          	bnez	a5,7250 <z_tick_sleep+0x58>
    724c:	08069a63          	bnez	a3,72e0 <z_tick_sleep+0xe8>
		expected_wakeup_ticks = ticks + sys_clock_tick_get_32();
    7250:	668000ef          	jal	ra,78b8 <sys_clock_tick_get_32>
    7254:	00950433          	add	s0,a0,s1
	__asm__ volatile ("csrrc %0, mstatus, %1"
    7258:	00800a13          	li	s4,8
    725c:	300a3a73          	csrrc	s4,mstatus,s4
	unready_thread(_current);
    7260:	0000d937          	lui	s2,0xd
    7264:	ef090913          	addi	s2,s2,-272 # cef0 <_kernel>
    7268:	00892503          	lw	a0,8(s2)
    726c:	889ff0ef          	jal	ra,6af4 <unready_thread>
	z_add_thread_timeout(_current, timeout);
    7270:	00892503          	lw	a0,8(s2)
	z_add_timeout(&thread->base.timeout, z_thread_timeout, ticks);
    7274:	000075b7          	lui	a1,0x7
    7278:	00048613          	mv	a2,s1
    727c:	00098693          	mv	a3,s3
    7280:	a8858593          	addi	a1,a1,-1400 # 6a88 <z_thread_timeout>
    7284:	02050513          	addi	a0,a0,32
    7288:	2a8000ef          	jal	ra,7530 <z_add_timeout>
	z_mark_thread_as_suspended(_current);
    728c:	00892703          	lw	a4,8(s2)
    7290:	008a7513          	andi	a0,s4,8
	thread->base.thread_state |= _THREAD_SUSPENDED;
    7294:	00d74783          	lbu	a5,13(a4)
    7298:	0107e793          	ori	a5,a5,16
    729c:	00f706a3          	sb	a5,13(a4)
    72a0:	82cf90ef          	jal	ra,2cc <arch_swap>
	ticks = (k_ticks_t)expected_wakeup_ticks - sys_clock_tick_get_32();
    72a4:	614000ef          	jal	ra,78b8 <sys_clock_tick_get_32>
    72a8:	40a407b3          	sub	a5,s0,a0
    72ac:	00f43433          	sltu	s0,s0,a5
    72b0:	40800433          	neg	s0,s0
	if (ticks > 0) {
    72b4:	f60416e3          	bnez	s0,7220 <z_tick_sleep+0x28>
		return ticks;
    72b8:	00078513          	mv	a0,a5
	if (ticks > 0) {
    72bc:	f60782e3          	beqz	a5,7220 <z_tick_sleep+0x28>
}
    72c0:	01c12083          	lw	ra,28(sp)
    72c4:	01812403          	lw	s0,24(sp)
    72c8:	01412483          	lw	s1,20(sp)
    72cc:	01012903          	lw	s2,16(sp)
    72d0:	00c12983          	lw	s3,12(sp)
    72d4:	00812a03          	lw	s4,8(sp)
    72d8:	02010113          	addi	sp,sp,32
    72dc:	00008067          	ret
		expected_wakeup_ticks = Z_TICK_ABS(ticks);
    72e0:	ffe00413          	li	s0,-2
    72e4:	40940433          	sub	s0,s0,s1
    72e8:	f71ff06f          	j	7258 <z_tick_sleep+0x60>

000072ec <z_impl_k_sleep>:

int32_t z_impl_k_sleep(k_timeout_t timeout)
{
    72ec:	ff010113          	addi	sp,sp,-16
    72f0:	00112623          	sw	ra,12(sp)
	__ASSERT(!arch_is_in_isr(), "");

	SYS_PORT_TRACING_FUNC_ENTER(k_thread, sleep, timeout);

	/* in case of K_FOREVER, we suspend */
	if (K_TIMEOUT_EQ(timeout, K_FOREVER)) {
    72f4:	fff00693          	li	a3,-1
    72f8:	02d51263          	bne	a0,a3,731c <z_impl_k_sleep+0x30>
    72fc:	02a59063          	bne	a1,a0,731c <z_impl_k_sleep+0x30>
		k_thread_suspend(_current);
    7300:	0000d7b7          	lui	a5,0xd
    7304:	ef87a503          	lw	a0,-264(a5) # cef8 <_kernel+0x8>
	z_impl_k_thread_suspend(thread);
    7308:	c75ff0ef          	jal	ra,6f7c <z_impl_k_thread_suspend>

		SYS_PORT_TRACING_FUNC_EXIT(k_thread, sleep, timeout, (int32_t) K_TICKS_FOREVER);

		return (int32_t) K_TICKS_FOREVER;
    730c:	fff00513          	li	a0,-1
	int32_t ret = k_ticks_to_ms_floor64(ticks);

	SYS_PORT_TRACING_FUNC_EXIT(k_thread, sleep, timeout, ret);

	return ret;
}
    7310:	00c12083          	lw	ra,12(sp)
    7314:	01010113          	addi	sp,sp,16
    7318:	00008067          	ret
	ticks = z_tick_sleep(ticks);
    731c:	eddff0ef          	jal	ra,71f8 <z_tick_sleep>
		}
	} else if (mul_ratio) {
		if (result32) {
			return ((uint32_t)t) * (to_hz / from_hz);
		} else {
			return t * ((uint64_t)to_hz / from_hz);
    7320:	00a00793          	li	a5,10
    7324:	02f50533          	mul	a0,a0,a5
	return ret;
    7328:	fe9ff06f          	j	7310 <z_impl_k_sleep+0x24>

0000732c <z_impl_z_current_get>:

#ifdef CONFIG_SMP
	arch_irq_unlock(k);
#endif
	return ret;
}
    732c:	0000d7b7          	lui	a5,0xd
    7330:	ef87a503          	lw	a0,-264(a5) # cef8 <_kernel+0x8>
    7334:	00008067          	ret

00007338 <z_thread_abort>:
#endif
	}
}

void z_thread_abort(struct k_thread *thread)
{
    7338:	fe010113          	addi	sp,sp,-32
    733c:	00912a23          	sw	s1,20(sp)
    7340:	00112e23          	sw	ra,28(sp)
    7344:	00812c23          	sw	s0,24(sp)
    7348:	01212823          	sw	s2,16(sp)
    734c:	01312623          	sw	s3,12(sp)
    7350:	00800493          	li	s1,8
    7354:	3004b4f3          	csrrc	s1,mstatus,s1
	k_spinlock_key_t key = k_spin_lock(&sched_spinlock);

	if ((thread->base.thread_state & _THREAD_DEAD) != 0U) {
    7358:	00d54783          	lbu	a5,13(a0)
	key = (mstatus & MSTATUS_IEN);
    735c:	0084f493          	andi	s1,s1,8
    7360:	0087f713          	andi	a4,a5,8
    7364:	02070263          	beqz	a4,7388 <z_thread_abort+0x50>
	__asm__ volatile ("csrrs %0, mstatus, %1"
    7368:	3004a4f3          	csrrs	s1,mstatus,s1
	if (thread == _current && !arch_is_in_isr()) {
		z_swap(&sched_spinlock, key);
		__ASSERT(false, "aborted _current back from dead");
	}
	k_spin_unlock(&sched_spinlock, key);
}
    736c:	01c12083          	lw	ra,28(sp)
    7370:	01812403          	lw	s0,24(sp)
    7374:	01412483          	lw	s1,20(sp)
    7378:	01012903          	lw	s2,16(sp)
    737c:	00c12983          	lw	s3,12(sp)
    7380:	02010113          	addi	sp,sp,32
    7384:	00008067          	ret
		thread->base.thread_state &= ~_THREAD_ABORTING;
    7388:	fdf7f713          	andi	a4,a5,-33
    738c:	00876713          	ori	a4,a4,8
		if (z_is_thread_queued(thread)) {
    7390:	01871693          	slli	a3,a4,0x18
    7394:	4186d693          	srai	a3,a3,0x18
    7398:	00050413          	mv	s0,a0
    739c:	0406ce63          	bltz	a3,73f8 <z_thread_abort+0xc0>
		thread->base.thread_state &= ~_THREAD_ABORTING;
    73a0:	00e506a3          	sb	a4,13(a0)
		if (thread->base.pended_on != NULL) {
    73a4:	00842783          	lw	a5,8(s0)
    73a8:	00078663          	beqz	a5,73b4 <z_thread_abort+0x7c>
			unpend_thread_no_timeout(thread);
    73ac:	00040513          	mv	a0,s0
    73b0:	c48ff0ef          	jal	ra,67f8 <unpend_thread_no_timeout>
	return z_abort_timeout(&thread->base.timeout);
    73b4:	02040513          	addi	a0,s0,32
    73b8:	328000ef          	jal	ra,76e0 <z_abort_timeout>
}

static inline struct k_thread *z_waitq_head(_wait_q_t *w)
{
	return (struct k_thread *)sys_dlist_peek_head(&w->waitq);
    73bc:	07040993          	addi	s3,s0,112
	return list->head == list;
    73c0:	07042903          	lw	s2,112(s0)
	return sys_dlist_is_empty(list) ? NULL : list->head;
    73c4:	01390463          	beq	s2,s3,73cc <z_thread_abort+0x94>
	while ((thread = z_waitq_head(wait_q)) != NULL) {
    73c8:	04091263          	bnez	s2,740c <z_thread_abort+0xd4>
		update_cache(1);
    73cc:	00100513          	li	a0,1
    73d0:	cb4ff0ef          	jal	ra,6884 <update_cache>
	if (thread == _current && !arch_is_in_isr()) {
    73d4:	0000d7b7          	lui	a5,0xd
    73d8:	ef078793          	addi	a5,a5,-272 # cef0 <_kernel>
    73dc:	0087a703          	lw	a4,8(a5)
    73e0:	f88714e3          	bne	a4,s0,7368 <z_thread_abort+0x30>
    73e4:	0007a783          	lw	a5,0(a5)
    73e8:	f80790e3          	bnez	a5,7368 <z_thread_abort+0x30>
    73ec:	00048513          	mv	a0,s1
    73f0:	eddf80ef          	jal	ra,2cc <arch_swap>
	return ret;
    73f4:	f75ff06f          	j	7368 <z_thread_abort+0x30>
	thread->base.thread_state &= ~_THREAD_QUEUED;
    73f8:	05f7f793          	andi	a5,a5,95
    73fc:	0087e793          	ori	a5,a5,8
    7400:	00f506a3          	sb	a5,13(a0)
	sys_dlist_remove(&thread->base.qnode_dlist);
    7404:	bd8ff0ef          	jal	ra,67dc <sys_dlist_remove>
}
    7408:	f9dff06f          	j	73a4 <z_thread_abort+0x6c>
		unpend_thread_no_timeout(thread);
    740c:	00090513          	mv	a0,s2
    7410:	be8ff0ef          	jal	ra,67f8 <unpend_thread_no_timeout>
    7414:	02090513          	addi	a0,s2,32
    7418:	2c8000ef          	jal	ra,76e0 <z_abort_timeout>
		ready_thread(thread);
    741c:	00090513          	mv	a0,s2
	thread->arch.swap_return_value = value;
    7420:	0a092023          	sw	zero,160(s2)
    7424:	dc4ff0ef          	jal	ra,69e8 <ready_thread>
    7428:	f99ff06f          	j	73c0 <z_thread_abort+0x88>

0000742c <z_impl_k_thread_abort>:
#if !defined(CONFIG_ARCH_HAS_THREAD_ABORT)
void z_impl_k_thread_abort(struct k_thread *thread)
{
	SYS_PORT_TRACING_OBJ_FUNC_ENTER(k_thread, abort, thread);

	z_thread_abort(thread);
    742c:	f0dff06f          	j	7338 <z_thread_abort>

00007430 <elapsed>:
	sys_dlist_remove(&t->node);
}

static int32_t elapsed(void)
{
	return announce_remaining == 0 ? sys_clock_elapsed() : 0U;
    7430:	0000d7b7          	lui	a5,0xd
    7434:	c387a783          	lw	a5,-968(a5) # cc38 <announce_remaining>
    7438:	00079463          	bnez	a5,7440 <elapsed+0x10>
    743c:	a71fe06f          	j	5eac <sys_clock_elapsed>
}
    7440:	00000513          	li	a0,0
    7444:	00008067          	ret

00007448 <next_timeout>:
	return list->head == list;
    7448:	0000e7b7          	lui	a5,0xe

static int32_t next_timeout(void)
{
    744c:	ff010113          	addi	sp,sp,-16
    7450:	71478793          	addi	a5,a5,1812 # e714 <timeout_list>
    7454:	00812423          	sw	s0,8(sp)
    7458:	0007a403          	lw	s0,0(a5)
    745c:	00112623          	sw	ra,12(sp)
	return sys_dlist_is_empty(list) ? NULL : list->head;
    7460:	00f41463          	bne	s0,a5,7468 <next_timeout+0x20>
    7464:	00000413          	li	s0,0
	struct _timeout *to = first();
	int32_t ticks_elapsed = elapsed();
    7468:	fc9ff0ef          	jal	ra,7430 <elapsed>
	int32_t ret = to == NULL ? MAX_WAIT
    746c:	02040c63          	beqz	s0,74a4 <next_timeout+0x5c>
		: CLAMP(to->dticks - ticks_elapsed, 0, MAX_WAIT);
    7470:	01042703          	lw	a4,16(s0)
    7474:	01442783          	lw	a5,20(s0)
    7478:	41f55693          	srai	a3,a0,0x1f
    747c:	40a70533          	sub	a0,a4,a0
    7480:	00a73733          	sltu	a4,a4,a0
    7484:	40d787b3          	sub	a5,a5,a3
    7488:	40e787b3          	sub	a5,a5,a4
	int32_t ret = to == NULL ? MAX_WAIT
    748c:	00f04663          	bgtz	a5,7498 <next_timeout+0x50>
    7490:	04079063          	bnez	a5,74d0 <next_timeout+0x88>
    7494:	02050e63          	beqz	a0,74d0 <next_timeout+0x88>
		: CLAMP(to->dticks - ticks_elapsed, 0, MAX_WAIT);
    7498:	00f04663          	bgtz	a5,74a4 <next_timeout+0x5c>
    749c:	00079863          	bnez	a5,74ac <next_timeout+0x64>
    74a0:	00055663          	bgez	a0,74ac <next_timeout+0x64>
	int32_t ret = to == NULL ? MAX_WAIT
    74a4:	80000537          	lui	a0,0x80000
    74a8:	fff54513          	not	a0,a0

#ifdef CONFIG_TIMESLICING
	if (_current_cpu->slice_ticks && _current_cpu->slice_ticks < ret) {
    74ac:	0000d7b7          	lui	a5,0xd
    74b0:	f007a783          	lw	a5,-256(a5) # cf00 <_kernel+0x10>
    74b4:	00078663          	beqz	a5,74c0 <next_timeout+0x78>
    74b8:	00a7d463          	bge	a5,a0,74c0 <next_timeout+0x78>
    74bc:	00078513          	mv	a0,a5
		ret = _current_cpu->slice_ticks;
	}
#endif
	return ret;
}
    74c0:	00c12083          	lw	ra,12(sp)
    74c4:	00812403          	lw	s0,8(sp)
    74c8:	01010113          	addi	sp,sp,16
    74cc:	00008067          	ret
	int32_t ret = to == NULL ? MAX_WAIT
    74d0:	00000513          	li	a0,0
    74d4:	fd9ff06f          	j	74ac <next_timeout+0x64>

000074d8 <remove_timeout>:
	return (node == list->tail) ? NULL : node->next;
    74d8:	00052783          	lw	a5,0(a0) # 80000000 <CONFIG_SYSTEM_WORKQUEUE_PRIORITY+0x80000001>
	return (node != NULL) ? sys_dlist_peek_next_no_check(list, node) : NULL;
    74dc:	02050e63          	beqz	a0,7518 <remove_timeout+0x40>
	return (node == list->tail) ? NULL : node->next;
    74e0:	0000e737          	lui	a4,0xe
    74e4:	71872703          	lw	a4,1816(a4) # e718 <timeout_list+0x4>
    74e8:	02e50863          	beq	a0,a4,7518 <remove_timeout+0x40>
	if (next(t) != NULL) {
    74ec:	02078663          	beqz	a5,7518 <remove_timeout+0x40>
		next(t)->dticks += t->dticks;
    74f0:	0107a703          	lw	a4,16(a5)
    74f4:	01052683          	lw	a3,16(a0)
    74f8:	01452583          	lw	a1,20(a0)
    74fc:	0147a603          	lw	a2,20(a5)
    7500:	00d706b3          	add	a3,a4,a3
    7504:	00e6b733          	sltu	a4,a3,a4
    7508:	00b60633          	add	a2,a2,a1
    750c:	00c70733          	add	a4,a4,a2
    7510:	00d7a823          	sw	a3,16(a5)
    7514:	00e7aa23          	sw	a4,20(a5)
	sys_dnode_t *const prev = node->prev;
    7518:	00452703          	lw	a4,4(a0)
	prev->next = next;
    751c:	00f72023          	sw	a5,0(a4)
	next->prev = prev;
    7520:	00e7a223          	sw	a4,4(a5)
	node->next = NULL;
    7524:	00052023          	sw	zero,0(a0)
	node->prev = NULL;
    7528:	00052223          	sw	zero,4(a0)
}
    752c:	00008067          	ret

00007530 <z_add_timeout>:

void z_add_timeout(struct _timeout *to, _timeout_func_t fn,
		   k_timeout_t timeout)
{
    7530:	fe010113          	addi	sp,sp,-32
    7534:	00812c23          	sw	s0,24(sp)
    7538:	00912a23          	sw	s1,20(sp)
    753c:	01312623          	sw	s3,12(sp)
    7540:	00112e23          	sw	ra,28(sp)
    7544:	00068993          	mv	s3,a3
    7548:	01212823          	sw	s2,16(sp)
	if (K_TIMEOUT_EQ(timeout, K_FOREVER)) {
    754c:	fff00693          	li	a3,-1
{
    7550:	00050413          	mv	s0,a0
    7554:	00060493          	mv	s1,a2
	if (K_TIMEOUT_EQ(timeout, K_FOREVER)) {
    7558:	00d61463          	bne	a2,a3,7560 <z_add_timeout+0x30>
    755c:	16c98463          	beq	s3,a2,76c4 <z_add_timeout+0x194>
#ifdef CONFIG_KERNEL_COHERENCE
	__ASSERT_NO_MSG(arch_mem_coherent(to));
#endif

	__ASSERT(!sys_dnode_is_linked(&to->node), "");
	to->fn = fn;
    7560:	00b42423          	sw	a1,8(s0)
	__asm__ volatile ("csrrc %0, mstatus, %1"
    7564:	00800913          	li	s2,8
    7568:	30093973          	csrrc	s2,mstatus,s2

	LOCKED(&timeout_lock) {
		struct _timeout *t;

		if (IS_ENABLED(CONFIG_TIMEOUT_64BIT) &&
		    Z_TICK_ABS(timeout.ticks) >= 0) {
    756c:	ffe00693          	li	a3,-2
    7570:	409687b3          	sub	a5,a3,s1
    7574:	00f6b733          	sltu	a4,a3,a5
    7578:	fff9c793          	not	a5,s3
    757c:	40e787b3          	sub	a5,a5,a4
	key = (mstatus & MSTATUS_IEN);
    7580:	00897913          	andi	s2,s2,8
		if (IS_ENABLED(CONFIG_TIMEOUT_64BIT) &&
    7584:	0607ce63          	bltz	a5,7600 <z_add_timeout+0xd0>
			k_ticks_t ticks = Z_TICK_ABS(timeout.ticks) - curr_tick;
    7588:	0000d7b7          	lui	a5,0xd
    758c:	be878793          	addi	a5,a5,-1048 # cbe8 <curr_tick>
    7590:	0007a703          	lw	a4,0(a5)
    7594:	0047a783          	lw	a5,4(a5)
    7598:	40e68733          	sub	a4,a3,a4
    759c:	00e6b6b3          	sltu	a3,a3,a4
    75a0:	fff7c793          	not	a5,a5
    75a4:	40d787b3          	sub	a5,a5,a3
    75a8:	409704b3          	sub	s1,a4,s1
    75ac:	00973733          	sltu	a4,a4,s1
    75b0:	413786b3          	sub	a3,a5,s3

			to->dticks = MAX(1, ticks);
    75b4:	40e686b3          	sub	a3,a3,a4
    75b8:	00d04a63          	bgtz	a3,75cc <z_add_timeout+0x9c>
    75bc:	00069463          	bnez	a3,75c4 <z_add_timeout+0x94>
    75c0:	00049663          	bnez	s1,75cc <z_add_timeout+0x9c>
    75c4:	00100493          	li	s1,1
    75c8:	00000693          	li	a3,0
    75cc:	00942823          	sw	s1,16(s0)
	return list->head == list;
    75d0:	0000e637          	lui	a2,0xe
    75d4:	71460713          	addi	a4,a2,1812 # e714 <timeout_list>
    75d8:	00072783          	lw	a5,0(a4)
		} else {
			to->dticks = timeout.ticks + 1 + elapsed();
    75dc:	00d42a23          	sw	a3,20(s0)
    75e0:	71460613          	addi	a2,a2,1812
	sys_dnode_t *const tail = list->tail;
    75e4:	00472803          	lw	a6,4(a4)
	return sys_dlist_is_empty(list) ? NULL : list->head;
    75e8:	06c79263          	bne	a5,a2,764c <z_add_timeout+0x11c>
	node->next = list;
    75ec:	00c42023          	sw	a2,0(s0)
	node->prev = tail;
    75f0:	01042223          	sw	a6,4(s0)
	tail->next = node;
    75f4:	00882023          	sw	s0,0(a6)
	list->tail = node;
    75f8:	00862223          	sw	s0,4(a2)
}
    75fc:	09c0006f          	j	7698 <z_add_timeout+0x168>
    7600:	e31ff0ef          	jal	ra,7430 <elapsed>
    7604:	00148793          	addi	a5,s1,1
    7608:	0097b4b3          	sltu	s1,a5,s1
    760c:	013486b3          	add	a3,s1,s3
    7610:	41f55493          	srai	s1,a0,0x1f
    7614:	00a78533          	add	a0,a5,a0
    7618:	00f537b3          	sltu	a5,a0,a5
    761c:	009686b3          	add	a3,a3,s1
    7620:	00d786b3          	add	a3,a5,a3
    7624:	00a42823          	sw	a0,16(s0)
    7628:	fa9ff06f          	j	75d0 <z_add_timeout+0xa0>
			if (t->dticks > to->dticks) {
				t->dticks -= to->dticks;
				sys_dlist_insert(&t->node, &to->node);
				break;
			}
			to->dticks -= t->dticks;
    762c:	40e68733          	sub	a4,a3,a4
    7630:	00e6b6b3          	sltu	a3,a3,a4
    7634:	40a585b3          	sub	a1,a1,a0
    7638:	40d586b3          	sub	a3,a1,a3
    763c:	00e42823          	sw	a4,16(s0)
    7640:	00d42a23          	sw	a3,20(s0)
	return (node == list->tail) ? NULL : node->next;
    7644:	faf804e3          	beq	a6,a5,75ec <z_add_timeout+0xbc>
    7648:	0007a783          	lw	a5,0(a5)
		for (t = first(); t != NULL; t = next(t)) {
    764c:	fa0780e3          	beqz	a5,75ec <z_add_timeout+0xbc>
			if (t->dticks > to->dticks) {
    7650:	0147a503          	lw	a0,20(a5)
    7654:	01442583          	lw	a1,20(s0)
    7658:	0107a703          	lw	a4,16(a5)
    765c:	01042683          	lw	a3,16(s0)
    7660:	00a5c663          	blt	a1,a0,766c <z_add_timeout+0x13c>
    7664:	fcb514e3          	bne	a0,a1,762c <z_add_timeout+0xfc>
    7668:	fce6f2e3          	bgeu	a3,a4,762c <z_add_timeout+0xfc>
				t->dticks -= to->dticks;
    766c:	40d706b3          	sub	a3,a4,a3
    7670:	00d73733          	sltu	a4,a4,a3
    7674:	40b505b3          	sub	a1,a0,a1
    7678:	40e58733          	sub	a4,a1,a4
    767c:	00e7aa23          	sw	a4,20(a5)
	sys_dnode_t *const prev = successor->prev;
    7680:	0047a703          	lw	a4,4(a5)
    7684:	00d7a823          	sw	a3,16(a5)
	node->next = successor;
    7688:	00f42023          	sw	a5,0(s0)
	node->prev = prev;
    768c:	00e42223          	sw	a4,4(s0)
	prev->next = node;
    7690:	00872023          	sw	s0,0(a4)
	successor->prev = node;
    7694:	0087a223          	sw	s0,4(a5)
	return list->head == list;
    7698:	00062783          	lw	a5,0(a2)
	return sys_dlist_is_empty(list) ? NULL : list->head;
    769c:	02c78263          	beq	a5,a2,76c0 <z_add_timeout+0x190>

		if (t == NULL) {
			sys_dlist_append(&timeout_list, &to->node);
		}

		if (to == first()) {
    76a0:	02f41063          	bne	s0,a5,76c0 <z_add_timeout+0x190>
			 * last announcement, and slice_ticks is based
			 * on that. It means that the time remaining for
			 * the next announcement can be less than
			 * slice_ticks.
			 */
			int32_t next_time = next_timeout();
    76a4:	da5ff0ef          	jal	ra,7448 <next_timeout>

			if (next_time == 0 ||
    76a8:	00050863          	beqz	a0,76b8 <z_add_timeout+0x188>
			    _current_cpu->slice_ticks != next_time) {
    76ac:	0000d7b7          	lui	a5,0xd
			if (next_time == 0 ||
    76b0:	f007a783          	lw	a5,-256(a5) # cf00 <_kernel+0x10>
    76b4:	00a78663          	beq	a5,a0,76c0 <z_add_timeout+0x190>
				sys_clock_set_timeout(next_time, false);
    76b8:	00000593          	li	a1,0
    76bc:	fecfe0ef          	jal	ra,5ea8 <sys_clock_set_timeout>
	__asm__ volatile ("csrrs %0, mstatus, %1"
    76c0:	30092973          	csrrs	s2,mstatus,s2
#else
			sys_clock_set_timeout(next_timeout(), false);
#endif	/* CONFIG_TIMESLICING */
		}
	}
}
    76c4:	01c12083          	lw	ra,28(sp)
    76c8:	01812403          	lw	s0,24(sp)
    76cc:	01412483          	lw	s1,20(sp)
    76d0:	01012903          	lw	s2,16(sp)
    76d4:	00c12983          	lw	s3,12(sp)
    76d8:	02010113          	addi	sp,sp,32
    76dc:	00008067          	ret

000076e0 <z_abort_timeout>:

int z_abort_timeout(struct _timeout *to)
{
    76e0:	ff010113          	addi	sp,sp,-16
    76e4:	00812423          	sw	s0,8(sp)
    76e8:	00112623          	sw	ra,12(sp)
	__asm__ volatile ("csrrc %0, mstatus, %1"
    76ec:	00800413          	li	s0,8
    76f0:	30043473          	csrrc	s0,mstatus,s0
	int ret = -EINVAL;

	LOCKED(&timeout_lock) {
		if (sys_dnode_is_linked(&to->node)) {
    76f4:	00052783          	lw	a5,0(a0)
	key = (mstatus & MSTATUS_IEN);
    76f8:	00847413          	andi	s0,s0,8
    76fc:	02078063          	beqz	a5,771c <z_abort_timeout+0x3c>
			remove_timeout(to);
    7700:	dd9ff0ef          	jal	ra,74d8 <remove_timeout>
			ret = 0;
    7704:	00000513          	li	a0,0
	__asm__ volatile ("csrrs %0, mstatus, %1"
    7708:	30042473          	csrrs	s0,mstatus,s0
		}
	}

	return ret;
}
    770c:	00c12083          	lw	ra,12(sp)
    7710:	00812403          	lw	s0,8(sp)
    7714:	01010113          	addi	sp,sp,16
    7718:	00008067          	ret
	int ret = -EINVAL;
    771c:	fea00513          	li	a0,-22
    7720:	fe9ff06f          	j	7708 <z_abort_timeout+0x28>

00007724 <z_set_timeout_expiry>:
	}
	return ret;
}

void z_set_timeout_expiry(int32_t ticks, bool is_idle)
{
    7724:	fe010113          	addi	sp,sp,-32
    7728:	00812c23          	sw	s0,24(sp)
    772c:	00912a23          	sw	s1,20(sp)
    7730:	00112e23          	sw	ra,28(sp)
    7734:	00050493          	mv	s1,a0
    7738:	00b12623          	sw	a1,12(sp)
	__asm__ volatile ("csrrc %0, mstatus, %1"
    773c:	00800413          	li	s0,8
    7740:	30043473          	csrrc	s0,mstatus,s0
	LOCKED(&timeout_lock) {
		int next_to = next_timeout();
    7744:	d05ff0ef          	jal	ra,7448 <next_timeout>
		 * SMP can't use this optimization though: we don't
		 * know when context switches happen until interrupt
		 * exit and so can't get the timeslicing clamp folded
		 * in.
		 */
		if (!imminent && (sooner || IS_ENABLED(CONFIG_SMP))) {
    7748:	00100793          	li	a5,1
	key = (mstatus & MSTATUS_IEN);
    774c:	00847413          	andi	s0,s0,8
    7750:	00a7da63          	bge	a5,a0,7764 <z_set_timeout_expiry+0x40>
    7754:	00c12583          	lw	a1,12(sp)
    7758:	00954663          	blt	a0,s1,7764 <z_set_timeout_expiry+0x40>
			sys_clock_set_timeout(MIN(ticks, next_to), is_idle);
    775c:	00048513          	mv	a0,s1
    7760:	f48fe0ef          	jal	ra,5ea8 <sys_clock_set_timeout>
	__asm__ volatile ("csrrs %0, mstatus, %1"
    7764:	30042473          	csrrs	s0,mstatus,s0
		}
	}
}
    7768:	01c12083          	lw	ra,28(sp)
    776c:	01812403          	lw	s0,24(sp)
    7770:	01412483          	lw	s1,20(sp)
    7774:	02010113          	addi	sp,sp,32
    7778:	00008067          	ret

0000777c <sys_clock_announce>:

void sys_clock_announce(int32_t ticks)
{
    777c:	fd010113          	addi	sp,sp,-48
    7780:	02812423          	sw	s0,40(sp)
    7784:	02912223          	sw	s1,36(sp)
    7788:	02112623          	sw	ra,44(sp)
    778c:	03212023          	sw	s2,32(sp)
    7790:	01312e23          	sw	s3,28(sp)
    7794:	01412c23          	sw	s4,24(sp)
    7798:	00050493          	mv	s1,a0
	__asm__ volatile ("csrrc %0, mstatus, %1"
    779c:	00800413          	li	s0,8
#ifdef CONFIG_TIMESLICING
	z_time_slice(ticks);
    77a0:	d18ff0ef          	jal	ra,6cb8 <z_time_slice>
    77a4:	30043473          	csrrc	s0,mstatus,s0
#endif

	k_spinlock_key_t key = k_spin_lock(&timeout_lock);

	announce_remaining = ticks;
    77a8:	0000d937          	lui	s2,0xd
    77ac:	c2992c23          	sw	s1,-968(s2) # cc38 <announce_remaining>
	return list->head == list;
    77b0:	0000e9b7          	lui	s3,0xe

	while (first() != NULL && first()->dticks <= announce_remaining) {
		struct _timeout *t = first();
		int dt = t->dticks;

		curr_tick += dt;
    77b4:	0000d4b7          	lui	s1,0xd
	key = (mstatus & MSTATUS_IEN);
    77b8:	00847413          	andi	s0,s0,8
	while (first() != NULL && first()->dticks <= announce_remaining) {
    77bc:	c3890913          	addi	s2,s2,-968
    77c0:	71498993          	addi	s3,s3,1812 # e714 <timeout_list>
		curr_tick += dt;
    77c4:	be848493          	addi	s1,s1,-1048 # cbe8 <curr_tick>
	__asm__ volatile ("csrrc %0, mstatus, %1"
    77c8:	00800a13          	li	s4,8
	while (first() != NULL && first()->dticks <= announce_remaining) {
    77cc:	00092783          	lw	a5,0(s2)
    77d0:	0009a503          	lw	a0,0(s3)
		curr_tick += dt;
    77d4:	0004a683          	lw	a3,0(s1)
    77d8:	0044a883          	lw	a7,4(s1)
    77dc:	41f7d593          	srai	a1,a5,0x1f
	return sys_dlist_is_empty(list) ? NULL : list->head;
    77e0:	03350a63          	beq	a0,s3,7814 <sys_clock_announce+0x98>
	while (first() != NULL && first()->dticks <= announce_remaining) {
    77e4:	02050863          	beqz	a0,7814 <sys_clock_announce+0x98>
    77e8:	01452603          	lw	a2,20(a0)
    77ec:	01052703          	lw	a4,16(a0)
    77f0:	00c5c663          	blt	a1,a2,77fc <sys_clock_announce+0x80>
    77f4:	06b61663          	bne	a2,a1,7860 <sys_clock_announce+0xe4>
    77f8:	06e7f463          	bgeu	a5,a4,7860 <sys_clock_announce+0xe4>
		t->fn(t);
		key = k_spin_lock(&timeout_lock);
	}

	if (first() != NULL) {
		first()->dticks -= announce_remaining;
    77fc:	40f70833          	sub	a6,a4,a5
    7800:	01073733          	sltu	a4,a4,a6
    7804:	40b60633          	sub	a2,a2,a1
    7808:	40e60733          	sub	a4,a2,a4
    780c:	01052823          	sw	a6,16(a0)
    7810:	00e52a23          	sw	a4,20(a0)
	}

	curr_tick += announce_remaining;
    7814:	00d786b3          	add	a3,a5,a3
    7818:	011585b3          	add	a1,a1,a7
    781c:	00f6b7b3          	sltu	a5,a3,a5
    7820:	00b787b3          	add	a5,a5,a1
    7824:	00d4a023          	sw	a3,0(s1)
    7828:	00f4a223          	sw	a5,4(s1)
	announce_remaining = 0;
    782c:	00092023          	sw	zero,0(s2)

	sys_clock_set_timeout(next_timeout(), false);
    7830:	c19ff0ef          	jal	ra,7448 <next_timeout>
    7834:	00000593          	li	a1,0
    7838:	e70fe0ef          	jal	ra,5ea8 <sys_clock_set_timeout>
	__asm__ volatile ("csrrs %0, mstatus, %1"
    783c:	30042473          	csrrs	s0,mstatus,s0

	k_spin_unlock(&timeout_lock, key);
}
    7840:	02c12083          	lw	ra,44(sp)
    7844:	02812403          	lw	s0,40(sp)
    7848:	02412483          	lw	s1,36(sp)
    784c:	02012903          	lw	s2,32(sp)
    7850:	01c12983          	lw	s3,28(sp)
    7854:	01812a03          	lw	s4,24(sp)
    7858:	03010113          	addi	sp,sp,48
    785c:	00008067          	ret
		curr_tick += dt;
    7860:	00d706b3          	add	a3,a4,a3
		announce_remaining -= dt;
    7864:	40e787b3          	sub	a5,a5,a4
		curr_tick += dt;
    7868:	41f75593          	srai	a1,a4,0x1f
    786c:	00e6b633          	sltu	a2,a3,a4
    7870:	011585b3          	add	a1,a1,a7
		announce_remaining -= dt;
    7874:	00f92023          	sw	a5,0(s2)
		t->dticks = 0;
    7878:	00000813          	li	a6,0
    787c:	00000793          	li	a5,0
		curr_tick += dt;
    7880:	00b605b3          	add	a1,a2,a1
		t->dticks = 0;
    7884:	00f52823          	sw	a5,16(a0)
    7888:	01052a23          	sw	a6,20(a0)
		curr_tick += dt;
    788c:	00d4a023          	sw	a3,0(s1)
    7890:	00b4a223          	sw	a1,4(s1)
		remove_timeout(t);
    7894:	00a12623          	sw	a0,12(sp)
    7898:	c41ff0ef          	jal	ra,74d8 <remove_timeout>
    789c:	30042473          	csrrs	s0,mstatus,s0
		t->fn(t);
    78a0:	00c12503          	lw	a0,12(sp)
    78a4:	00852783          	lw	a5,8(a0)
    78a8:	000780e7          	jalr	a5
	__asm__ volatile ("csrrc %0, mstatus, %1"
    78ac:	300a3473          	csrrc	s0,mstatus,s4
	key = (mstatus & MSTATUS_IEN);
    78b0:	00847413          	andi	s0,s0,8
#endif

#ifdef CONFIG_SPIN_VALIDATE
	z_spin_lock_set_owner(l);
#endif
	return k;
    78b4:	f19ff06f          	j	77cc <sys_clock_announce+0x50>

000078b8 <sys_clock_tick_get_32>:
#ifdef CONFIG_TICKLESS_KERNEL
	return (uint32_t)sys_clock_tick_get();
#else
	return (uint32_t)curr_tick;
#endif
}
    78b8:	0000d7b7          	lui	a5,0xd
    78bc:	be87a503          	lw	a0,-1048(a5) # cbe8 <curr_tick>
    78c0:	00008067          	ret

000078c4 <z_impl_atomic_add>:
 * @param value the value to add
 *
 * @return The previous value from <target>
 */
atomic_val_t z_impl_atomic_add(atomic_t *target, atomic_val_t value)
{
    78c4:	00050713          	mv	a4,a0
	__asm__ volatile ("csrrc %0, mstatus, %1"
    78c8:	00800793          	li	a5,8
    78cc:	3007b7f3          	csrrc	a5,mstatus,a5
	k_spinlock_key_t key;
	atomic_val_t ret;

	key = k_spin_lock(&lock);

	ret = *target;
    78d0:	00052503          	lw	a0,0(a0)
	key = (mstatus & MSTATUS_IEN);
    78d4:	0087f793          	andi	a5,a5,8
	*target += value;
    78d8:	00b505b3          	add	a1,a0,a1
    78dc:	00b72023          	sw	a1,0(a4)
	__asm__ volatile ("csrrs %0, mstatus, %1"
    78e0:	3007a7f3          	csrrs	a5,mstatus,a5

	k_spin_unlock(&lock, key);

	return ret;
}
    78e4:	00008067          	ret

000078e8 <boot_banner>:
		k_busy_wait(CONFIG_BOOT_DELAY * USEC_PER_MSEC);
	}

#if defined(CONFIG_BOOT_BANNER)
#ifdef BUILD_VERSION
	printk("*** Booting Zephyr OS build %s %s ***\n",
    78e8:	0000c637          	lui	a2,0xc
    78ec:	0000d5b7          	lui	a1,0xd
    78f0:	0000d537          	lui	a0,0xd
    78f4:	5cc60613          	addi	a2,a2,1484 # c5cc <__mprec_tens+0x164>
    78f8:	84858593          	addi	a1,a1,-1976 # c848 <levels.0+0x28>
    78fc:	85050513          	addi	a0,a0,-1968 # c850 <levels.0+0x30>
    7900:	c51fc06f          	j	4550 <printk>

00007904 <malloc>:
    7904:	0000e7b7          	lui	a5,0xe
    7908:	00050593          	mv	a1,a0
    790c:	7207a503          	lw	a0,1824(a5) # e720 <_impure_ptr>
    7910:	1080006f          	j	7a18 <_malloc_r>

00007914 <_free_r>:
    7914:	10058063          	beqz	a1,7a14 <_free_r+0x100>
    7918:	ffc5a783          	lw	a5,-4(a1)
    791c:	fe010113          	addi	sp,sp,-32
    7920:	00812c23          	sw	s0,24(sp)
    7924:	00112e23          	sw	ra,28(sp)
    7928:	ffc58413          	addi	s0,a1,-4
    792c:	0007d463          	bgez	a5,7934 <_free_r+0x20>
    7930:	00f40433          	add	s0,s0,a5
    7934:	00a12623          	sw	a0,12(sp)
    7938:	1d5020ef          	jal	ra,a30c <__malloc_lock>
    793c:	0000d737          	lui	a4,0xd
    7940:	c3c72783          	lw	a5,-964(a4) # cc3c <__malloc_free_list>
    7944:	00c12503          	lw	a0,12(sp)
    7948:	00070613          	mv	a2,a4
    794c:	00079e63          	bnez	a5,7968 <_free_r+0x54>
    7950:	00042223          	sw	zero,4(s0)
    7954:	c2872e23          	sw	s0,-964(a4)
    7958:	01812403          	lw	s0,24(sp)
    795c:	01c12083          	lw	ra,28(sp)
    7960:	02010113          	addi	sp,sp,32
    7964:	1b50206f          	j	a318 <__malloc_unlock>
    7968:	02f47663          	bgeu	s0,a5,7994 <_free_r+0x80>
    796c:	00042683          	lw	a3,0(s0)
    7970:	00d40733          	add	a4,s0,a3
    7974:	00e79a63          	bne	a5,a4,7988 <_free_r+0x74>
    7978:	0007a703          	lw	a4,0(a5)
    797c:	0047a783          	lw	a5,4(a5)
    7980:	00d70733          	add	a4,a4,a3
    7984:	00e42023          	sw	a4,0(s0)
    7988:	00f42223          	sw	a5,4(s0)
    798c:	c2862e23          	sw	s0,-964(a2)
    7990:	fc9ff06f          	j	7958 <_free_r+0x44>
    7994:	00078713          	mv	a4,a5
    7998:	0047a783          	lw	a5,4(a5)
    799c:	00078463          	beqz	a5,79a4 <_free_r+0x90>
    79a0:	fef47ae3          	bgeu	s0,a5,7994 <_free_r+0x80>
    79a4:	00072683          	lw	a3,0(a4)
    79a8:	00d70633          	add	a2,a4,a3
    79ac:	02861863          	bne	a2,s0,79dc <_free_r+0xc8>
    79b0:	00042603          	lw	a2,0(s0)
    79b4:	00c686b3          	add	a3,a3,a2
    79b8:	00d72023          	sw	a3,0(a4)
    79bc:	00d70633          	add	a2,a4,a3
    79c0:	f8c79ce3          	bne	a5,a2,7958 <_free_r+0x44>
    79c4:	0007a603          	lw	a2,0(a5)
    79c8:	0047a783          	lw	a5,4(a5)
    79cc:	00d606b3          	add	a3,a2,a3
    79d0:	00d72023          	sw	a3,0(a4)
    79d4:	00f72223          	sw	a5,4(a4)
    79d8:	f81ff06f          	j	7958 <_free_r+0x44>
    79dc:	00c47863          	bgeu	s0,a2,79ec <_free_r+0xd8>
    79e0:	00c00793          	li	a5,12
    79e4:	00f52023          	sw	a5,0(a0)
    79e8:	f71ff06f          	j	7958 <_free_r+0x44>
    79ec:	00042603          	lw	a2,0(s0)
    79f0:	00c406b3          	add	a3,s0,a2
    79f4:	00d79a63          	bne	a5,a3,7a08 <_free_r+0xf4>
    79f8:	0007a683          	lw	a3,0(a5)
    79fc:	0047a783          	lw	a5,4(a5)
    7a00:	00c686b3          	add	a3,a3,a2
    7a04:	00d42023          	sw	a3,0(s0)
    7a08:	00f42223          	sw	a5,4(s0)
    7a0c:	00872223          	sw	s0,4(a4)
    7a10:	f49ff06f          	j	7958 <_free_r+0x44>
    7a14:	00008067          	ret

00007a18 <_malloc_r>:
    7a18:	fe010113          	addi	sp,sp,-32
    7a1c:	00912a23          	sw	s1,20(sp)
    7a20:	00358493          	addi	s1,a1,3
    7a24:	ffc4f493          	andi	s1,s1,-4
    7a28:	01212823          	sw	s2,16(sp)
    7a2c:	00112e23          	sw	ra,28(sp)
    7a30:	00812c23          	sw	s0,24(sp)
    7a34:	01312623          	sw	s3,12(sp)
    7a38:	00848493          	addi	s1,s1,8
    7a3c:	00c00793          	li	a5,12
    7a40:	00050913          	mv	s2,a0
    7a44:	06f4f863          	bgeu	s1,a5,7ab4 <_malloc_r+0x9c>
    7a48:	00c00493          	li	s1,12
    7a4c:	06b4e663          	bltu	s1,a1,7ab8 <_malloc_r+0xa0>
    7a50:	00090513          	mv	a0,s2
    7a54:	0b9020ef          	jal	ra,a30c <__malloc_lock>
    7a58:	0000d7b7          	lui	a5,0xd
    7a5c:	c3c7a703          	lw	a4,-964(a5) # cc3c <__malloc_free_list>
    7a60:	c3c78693          	addi	a3,a5,-964
    7a64:	00070413          	mv	s0,a4
    7a68:	06041c63          	bnez	s0,7ae0 <_malloc_r+0xc8>
    7a6c:	0000d437          	lui	s0,0xd
    7a70:	c4040413          	addi	s0,s0,-960 # cc40 <__malloc_sbrk_start>
    7a74:	00042783          	lw	a5,0(s0)
    7a78:	00079a63          	bnez	a5,7a8c <_malloc_r+0x74>
    7a7c:	00000593          	li	a1,0
    7a80:	00090513          	mv	a0,s2
    7a84:	058010ef          	jal	ra,8adc <_sbrk_r>
    7a88:	00a42023          	sw	a0,0(s0)
    7a8c:	00048593          	mv	a1,s1
    7a90:	00090513          	mv	a0,s2
    7a94:	048010ef          	jal	ra,8adc <_sbrk_r>
    7a98:	fff00993          	li	s3,-1
    7a9c:	0b351a63          	bne	a0,s3,7b50 <_malloc_r+0x138>
    7aa0:	00c00793          	li	a5,12
    7aa4:	00f92023          	sw	a5,0(s2)
    7aa8:	00090513          	mv	a0,s2
    7aac:	06d020ef          	jal	ra,a318 <__malloc_unlock>
    7ab0:	0100006f          	j	7ac0 <_malloc_r+0xa8>
    7ab4:	f804dce3          	bgez	s1,7a4c <_malloc_r+0x34>
    7ab8:	00c00793          	li	a5,12
    7abc:	00f92023          	sw	a5,0(s2)
    7ac0:	00000513          	li	a0,0
    7ac4:	01c12083          	lw	ra,28(sp)
    7ac8:	01812403          	lw	s0,24(sp)
    7acc:	01412483          	lw	s1,20(sp)
    7ad0:	01012903          	lw	s2,16(sp)
    7ad4:	00c12983          	lw	s3,12(sp)
    7ad8:	02010113          	addi	sp,sp,32
    7adc:	00008067          	ret
    7ae0:	00042783          	lw	a5,0(s0)
    7ae4:	409787b3          	sub	a5,a5,s1
    7ae8:	0407ce63          	bltz	a5,7b44 <_malloc_r+0x12c>
    7aec:	00b00613          	li	a2,11
    7af0:	00f67a63          	bgeu	a2,a5,7b04 <_malloc_r+0xec>
    7af4:	00f42023          	sw	a5,0(s0)
    7af8:	00f40433          	add	s0,s0,a5
    7afc:	00942023          	sw	s1,0(s0)
    7b00:	0100006f          	j	7b10 <_malloc_r+0xf8>
    7b04:	00442783          	lw	a5,4(s0)
    7b08:	02871a63          	bne	a4,s0,7b3c <_malloc_r+0x124>
    7b0c:	00f6a023          	sw	a5,0(a3)
    7b10:	00090513          	mv	a0,s2
    7b14:	005020ef          	jal	ra,a318 <__malloc_unlock>
    7b18:	00b40513          	addi	a0,s0,11
    7b1c:	00440793          	addi	a5,s0,4
    7b20:	ff857513          	andi	a0,a0,-8
    7b24:	40f50733          	sub	a4,a0,a5
    7b28:	f8f50ee3          	beq	a0,a5,7ac4 <_malloc_r+0xac>
    7b2c:	00e40433          	add	s0,s0,a4
    7b30:	40a787b3          	sub	a5,a5,a0
    7b34:	00f42023          	sw	a5,0(s0)
    7b38:	f8dff06f          	j	7ac4 <_malloc_r+0xac>
    7b3c:	00f72223          	sw	a5,4(a4)
    7b40:	fd1ff06f          	j	7b10 <_malloc_r+0xf8>
    7b44:	00040713          	mv	a4,s0
    7b48:	00442403          	lw	s0,4(s0)
    7b4c:	f1dff06f          	j	7a68 <_malloc_r+0x50>
    7b50:	00350413          	addi	s0,a0,3
    7b54:	ffc47413          	andi	s0,s0,-4
    7b58:	fa8502e3          	beq	a0,s0,7afc <_malloc_r+0xe4>
    7b5c:	40a405b3          	sub	a1,s0,a0
    7b60:	00090513          	mv	a0,s2
    7b64:	779000ef          	jal	ra,8adc <_sbrk_r>
    7b68:	f9351ae3          	bne	a0,s3,7afc <_malloc_r+0xe4>
    7b6c:	f35ff06f          	j	7aa0 <_malloc_r+0x88>

00007b70 <__cvt>:
    7b70:	fd010113          	addi	sp,sp,-48
    7b74:	02812423          	sw	s0,40(sp)
    7b78:	03212023          	sw	s2,32(sp)
    7b7c:	01412c23          	sw	s4,24(sp)
    7b80:	01512a23          	sw	s5,20(sp)
    7b84:	01612823          	sw	s6,16(sp)
    7b88:	02112623          	sw	ra,44(sp)
    7b8c:	02912223          	sw	s1,36(sp)
    7b90:	01312e23          	sw	s3,28(sp)
    7b94:	00070b13          	mv	s6,a4
    7b98:	00058a13          	mv	s4,a1
    7b9c:	00060413          	mv	s0,a2
    7ba0:	00068913          	mv	s2,a3
    7ba4:	00080a93          	mv	s5,a6
    7ba8:	00000713          	li	a4,0
    7bac:	00065863          	bgez	a2,7bbc <__cvt+0x4c>
    7bb0:	80000737          	lui	a4,0x80000
    7bb4:	00c74433          	xor	s0,a4,a2
    7bb8:	02d00713          	li	a4,45
    7bbc:	00e78023          	sb	a4,0(a5)
    7bc0:	fdf8f493          	andi	s1,a7,-33
    7bc4:	04600793          	li	a5,70
    7bc8:	00300693          	li	a3,3
    7bcc:	00f48a63          	beq	s1,a5,7be0 <__cvt+0x70>
    7bd0:	04500793          	li	a5,69
    7bd4:	00200693          	li	a3,2
    7bd8:	00f49463          	bne	s1,a5,7be0 <__cvt+0x70>
    7bdc:	00190913          	addi	s2,s2,1
    7be0:	000a8793          	mv	a5,s5
    7be4:	00c10893          	addi	a7,sp,12
    7be8:	00810813          	addi	a6,sp,8
    7bec:	00090713          	mv	a4,s2
    7bf0:	000a0593          	mv	a1,s4
    7bf4:	00040613          	mv	a2,s0
    7bf8:	174010ef          	jal	ra,8d6c <_dtoa_r>
    7bfc:	04700793          	li	a5,71
    7c00:	00050993          	mv	s3,a0
    7c04:	00f49663          	bne	s1,a5,7c10 <__cvt+0xa0>
    7c08:	001b7613          	andi	a2,s6,1
    7c0c:	06060863          	beqz	a2,7c7c <__cvt+0x10c>
    7c10:	04600793          	li	a5,70
    7c14:	01298b33          	add	s6,s3,s2
    7c18:	02f49e63          	bne	s1,a5,7c54 <__cvt+0xe4>
    7c1c:	0009c703          	lbu	a4,0(s3)
    7c20:	03000793          	li	a5,48
    7c24:	02f71463          	bne	a4,a5,7c4c <__cvt+0xdc>
    7c28:	00000613          	li	a2,0
    7c2c:	00000693          	li	a3,0
    7c30:	000a0513          	mv	a0,s4
    7c34:	00040593          	mv	a1,s0
    7c38:	afdfb0ef          	jal	ra,3734 <__eqdf2>
    7c3c:	00050863          	beqz	a0,7c4c <__cvt+0xdc>
    7c40:	00100613          	li	a2,1
    7c44:	412606b3          	sub	a3,a2,s2
    7c48:	00daa023          	sw	a3,0(s5)
    7c4c:	000aa783          	lw	a5,0(s5)
    7c50:	00fb0b33          	add	s6,s6,a5
    7c54:	00000613          	li	a2,0
    7c58:	00000693          	li	a3,0
    7c5c:	000a0513          	mv	a0,s4
    7c60:	00040593          	mv	a1,s0
    7c64:	ad1fb0ef          	jal	ra,3734 <__eqdf2>
    7c68:	00051463          	bnez	a0,7c70 <__cvt+0x100>
    7c6c:	01612623          	sw	s6,12(sp)
    7c70:	03000713          	li	a4,48
    7c74:	00c12783          	lw	a5,12(sp)
    7c78:	0567e063          	bltu	a5,s6,7cb8 <__cvt+0x148>
    7c7c:	00c12783          	lw	a5,12(sp)
    7c80:	03012703          	lw	a4,48(sp)
    7c84:	02c12083          	lw	ra,44(sp)
    7c88:	02812403          	lw	s0,40(sp)
    7c8c:	413787b3          	sub	a5,a5,s3
    7c90:	00f72023          	sw	a5,0(a4) # 80000000 <CONFIG_SYSTEM_WORKQUEUE_PRIORITY+0x80000001>
    7c94:	02412483          	lw	s1,36(sp)
    7c98:	02012903          	lw	s2,32(sp)
    7c9c:	01812a03          	lw	s4,24(sp)
    7ca0:	01412a83          	lw	s5,20(sp)
    7ca4:	01012b03          	lw	s6,16(sp)
    7ca8:	00098513          	mv	a0,s3
    7cac:	01c12983          	lw	s3,28(sp)
    7cb0:	03010113          	addi	sp,sp,48
    7cb4:	00008067          	ret
    7cb8:	00178693          	addi	a3,a5,1
    7cbc:	00d12623          	sw	a3,12(sp)
    7cc0:	00e78023          	sb	a4,0(a5)
    7cc4:	fb1ff06f          	j	7c74 <__cvt+0x104>

00007cc8 <__exponent>:
    7cc8:	00c50023          	sb	a2,0(a0)
    7ccc:	00250793          	addi	a5,a0,2
    7cd0:	02b00713          	li	a4,43
    7cd4:	0005d663          	bgez	a1,7ce0 <__exponent+0x18>
    7cd8:	40b005b3          	neg	a1,a1
    7cdc:	02d00713          	li	a4,45
    7ce0:	00e500a3          	sb	a4,1(a0)
    7ce4:	00900713          	li	a4,9
    7ce8:	08b75263          	bge	a4,a1,7d6c <__exponent+0xa4>
    7cec:	ff010113          	addi	sp,sp,-16
    7cf0:	00f10713          	addi	a4,sp,15
    7cf4:	00070813          	mv	a6,a4
    7cf8:	00a00893          	li	a7,10
    7cfc:	06300313          	li	t1,99
    7d00:	0315e633          	rem	a2,a1,a7
    7d04:	00070693          	mv	a3,a4
    7d08:	fff70713          	addi	a4,a4,-1
    7d0c:	03060613          	addi	a2,a2,48
    7d10:	fec68fa3          	sb	a2,-1(a3)
    7d14:	00058613          	mv	a2,a1
    7d18:	0315c5b3          	div	a1,a1,a7
    7d1c:	fec342e3          	blt	t1,a2,7d00 <__exponent+0x38>
    7d20:	ffe68893          	addi	a7,a3,-2
    7d24:	03058593          	addi	a1,a1,48
    7d28:	feb70fa3          	sb	a1,-1(a4)
    7d2c:	00078613          	mv	a2,a5
    7d30:	00088713          	mv	a4,a7
    7d34:	03076263          	bltu	a4,a6,7d58 <__exponent+0x90>
    7d38:	00000713          	li	a4,0
    7d3c:	01186663          	bltu	a6,a7,7d48 <__exponent+0x80>
    7d40:	01110713          	addi	a4,sp,17
    7d44:	40d70733          	sub	a4,a4,a3
    7d48:	00e787b3          	add	a5,a5,a4
    7d4c:	40a78533          	sub	a0,a5,a0
    7d50:	01010113          	addi	sp,sp,16
    7d54:	00008067          	ret
    7d58:	00074583          	lbu	a1,0(a4)
    7d5c:	00170713          	addi	a4,a4,1
    7d60:	00160613          	addi	a2,a2,1
    7d64:	feb60fa3          	sb	a1,-1(a2)
    7d68:	fcdff06f          	j	7d34 <__exponent+0x6c>
    7d6c:	03000793          	li	a5,48
    7d70:	00f50123          	sb	a5,2(a0)
    7d74:	03058593          	addi	a1,a1,48
    7d78:	00450793          	addi	a5,a0,4
    7d7c:	00b501a3          	sb	a1,3(a0)
    7d80:	40a78533          	sub	a0,a5,a0
    7d84:	00008067          	ret

00007d88 <_printf_float>:
    7d88:	f8010113          	addi	sp,sp,-128
    7d8c:	06112e23          	sw	ra,124(sp)
    7d90:	06812c23          	sw	s0,120(sp)
    7d94:	06912a23          	sw	s1,116(sp)
    7d98:	00058413          	mv	s0,a1
    7d9c:	07212823          	sw	s2,112(sp)
    7da0:	07312623          	sw	s3,108(sp)
    7da4:	07412423          	sw	s4,104(sp)
    7da8:	07512223          	sw	s5,100(sp)
    7dac:	00070a13          	mv	s4,a4
    7db0:	07612023          	sw	s6,96(sp)
    7db4:	05712e23          	sw	s7,92(sp)
    7db8:	05812c23          	sw	s8,88(sp)
    7dbc:	00060913          	mv	s2,a2
    7dc0:	00068993          	mv	s3,a3
    7dc4:	05912a23          	sw	s9,84(sp)
    7dc8:	05a12823          	sw	s10,80(sp)
    7dcc:	05b12623          	sw	s11,76(sp)
    7dd0:	00050493          	mv	s1,a0
    7dd4:	508020ef          	jal	ra,a2dc <_localeconv_r>
    7dd8:	00052c03          	lw	s8,0(a0)
    7ddc:	000c0513          	mv	a0,s8
    7de0:	549000ef          	jal	ra,8b28 <strlen>
    7de4:	00042b03          	lw	s6,0(s0)
    7de8:	02012c23          	sw	zero,56(sp)
    7dec:	01844a83          	lbu	s5,24(s0)
    7df0:	100b7713          	andi	a4,s6,256
    7df4:	000a2783          	lw	a5,0(s4)
    7df8:	00050b93          	mv	s7,a0
    7dfc:	12070c63          	beqz	a4,7f34 <_printf_float+0x1ac>
    7e00:	00478713          	addi	a4,a5,4
    7e04:	00ea2023          	sw	a4,0(s4)
    7e08:	0007a783          	lw	a5,0(a5)
    7e0c:	02010513          	addi	a0,sp,32
    7e10:	0007a703          	lw	a4,0(a5)
    7e14:	02e12023          	sw	a4,32(sp)
    7e18:	0047a703          	lw	a4,4(a5)
    7e1c:	02e12223          	sw	a4,36(sp)
    7e20:	0087a703          	lw	a4,8(a5)
    7e24:	02e12423          	sw	a4,40(sp)
    7e28:	00c7a783          	lw	a5,12(a5)
    7e2c:	02f12623          	sw	a5,44(sp)
    7e30:	be9fb0ef          	jal	ra,3a18 <__trunctfdf2>
    7e34:	04a42423          	sw	a0,72(s0)
    7e38:	04b42623          	sw	a1,76(s0)
    7e3c:	04c42a03          	lw	s4,76(s0)
    7e40:	0000c737          	lui	a4,0xc
    7e44:	04842c83          	lw	s9,72(s0)
    7e48:	22072d03          	lw	s10,544(a4) # c220 <__device_handles_end+0x8>
    7e4c:	22472d83          	lw	s11,548(a4)
    7e50:	001a1793          	slli	a5,s4,0x1
    7e54:	0017d793          	srli	a5,a5,0x1
    7e58:	000d0613          	mv	a2,s10
    7e5c:	000d8693          	mv	a3,s11
    7e60:	000c8513          	mv	a0,s9
    7e64:	00078593          	mv	a1,a5
    7e68:	00f12e23          	sw	a5,28(sp)
    7e6c:	a39fb0ef          	jal	ra,38a4 <__unorddf2>
    7e70:	0e051463          	bnez	a0,7f58 <_printf_float+0x1d0>
    7e74:	01c12783          	lw	a5,28(sp)
    7e78:	000d0613          	mv	a2,s10
    7e7c:	000d8693          	mv	a3,s11
    7e80:	000c8513          	mv	a0,s9
    7e84:	00078593          	mv	a1,a5
    7e88:	939fb0ef          	jal	ra,37c0 <__ledf2>
    7e8c:	0ca05663          	blez	a0,7f58 <_printf_float+0x1d0>
    7e90:	00000613          	li	a2,0
    7e94:	00000693          	li	a3,0
    7e98:	000c8513          	mv	a0,s9
    7e9c:	000a0593          	mv	a1,s4
    7ea0:	921fb0ef          	jal	ra,37c0 <__ledf2>
    7ea4:	00055663          	bgez	a0,7eb0 <_printf_float+0x128>
    7ea8:	02d00793          	li	a5,45
    7eac:	04f401a3          	sb	a5,67(s0)
    7eb0:	04700793          	li	a5,71
    7eb4:	0d57fe63          	bgeu	a5,s5,7f90 <_printf_float+0x208>
    7eb8:	0000da37          	lui	s4,0xd
    7ebc:	980a0a13          	addi	s4,s4,-1664 # c980 <_ctype_+0x108>
    7ec0:	ffbb7b13          	andi	s6,s6,-5
    7ec4:	00300793          	li	a5,3
    7ec8:	01642023          	sw	s6,0(s0)
    7ecc:	00f42823          	sw	a5,16(s0)
    7ed0:	00000b13          	li	s6,0
    7ed4:	00098713          	mv	a4,s3
    7ed8:	00090693          	mv	a3,s2
    7edc:	03c10613          	addi	a2,sp,60
    7ee0:	00040593          	mv	a1,s0
    7ee4:	00048513          	mv	a0,s1
    7ee8:	634000ef          	jal	ra,851c <_printf_common>
    7eec:	fff00c93          	li	s9,-1
    7ef0:	23951a63          	bne	a0,s9,8124 <_printf_float+0x39c>
    7ef4:	fff00513          	li	a0,-1
    7ef8:	07c12083          	lw	ra,124(sp)
    7efc:	07812403          	lw	s0,120(sp)
    7f00:	07412483          	lw	s1,116(sp)
    7f04:	07012903          	lw	s2,112(sp)
    7f08:	06c12983          	lw	s3,108(sp)
    7f0c:	06812a03          	lw	s4,104(sp)
    7f10:	06412a83          	lw	s5,100(sp)
    7f14:	06012b03          	lw	s6,96(sp)
    7f18:	05c12b83          	lw	s7,92(sp)
    7f1c:	05812c03          	lw	s8,88(sp)
    7f20:	05412c83          	lw	s9,84(sp)
    7f24:	05012d03          	lw	s10,80(sp)
    7f28:	04c12d83          	lw	s11,76(sp)
    7f2c:	08010113          	addi	sp,sp,128
    7f30:	00008067          	ret
    7f34:	00778793          	addi	a5,a5,7
    7f38:	ff87f793          	andi	a5,a5,-8
    7f3c:	00878713          	addi	a4,a5,8
    7f40:	00ea2023          	sw	a4,0(s4)
    7f44:	0007a703          	lw	a4,0(a5)
    7f48:	0047a783          	lw	a5,4(a5)
    7f4c:	04e42423          	sw	a4,72(s0)
    7f50:	04f42623          	sw	a5,76(s0)
    7f54:	ee9ff06f          	j	7e3c <_printf_float+0xb4>
    7f58:	000c8613          	mv	a2,s9
    7f5c:	000a0693          	mv	a3,s4
    7f60:	000c8513          	mv	a0,s9
    7f64:	000a0593          	mv	a1,s4
    7f68:	93dfb0ef          	jal	ra,38a4 <__unorddf2>
    7f6c:	02050e63          	beqz	a0,7fa8 <_printf_float+0x220>
    7f70:	000a5663          	bgez	s4,7f7c <_printf_float+0x1f4>
    7f74:	02d00793          	li	a5,45
    7f78:	04f401a3          	sb	a5,67(s0)
    7f7c:	04700793          	li	a5,71
    7f80:	0157fe63          	bgeu	a5,s5,7f9c <_printf_float+0x214>
    7f84:	0000da37          	lui	s4,0xd
    7f88:	988a0a13          	addi	s4,s4,-1656 # c988 <_ctype_+0x110>
    7f8c:	f35ff06f          	j	7ec0 <_printf_float+0x138>
    7f90:	0000da37          	lui	s4,0xd
    7f94:	97ca0a13          	addi	s4,s4,-1668 # c97c <_ctype_+0x104>
    7f98:	f29ff06f          	j	7ec0 <_printf_float+0x138>
    7f9c:	0000da37          	lui	s4,0xd
    7fa0:	984a0a13          	addi	s4,s4,-1660 # c984 <_ctype_+0x10c>
    7fa4:	f1dff06f          	j	7ec0 <_printf_float+0x138>
    7fa8:	00442783          	lw	a5,4(s0)
    7fac:	fff00713          	li	a4,-1
    7fb0:	0dfafd13          	andi	s10,s5,223
    7fb4:	0ce79263          	bne	a5,a4,8078 <_printf_float+0x2f0>
    7fb8:	00600793          	li	a5,6
    7fbc:	00f42223          	sw	a5,4(s0)
    7fc0:	00442683          	lw	a3,4(s0)
    7fc4:	400b6713          	ori	a4,s6,1024
    7fc8:	03810793          	addi	a5,sp,56
    7fcc:	00f12023          	sw	a5,0(sp)
    7fd0:	000a0613          	mv	a2,s4
    7fd4:	03310793          	addi	a5,sp,51
    7fd8:	000c8593          	mv	a1,s9
    7fdc:	00e42023          	sw	a4,0(s0)
    7fe0:	00012223          	sw	zero,4(sp)
    7fe4:	000a8893          	mv	a7,s5
    7fe8:	03410813          	addi	a6,sp,52
    7fec:	00048513          	mv	a0,s1
    7ff0:	b81ff0ef          	jal	ra,7b70 <__cvt>
    7ff4:	04700793          	li	a5,71
    7ff8:	03412583          	lw	a1,52(sp)
    7ffc:	00050a13          	mv	s4,a0
    8000:	00fd1e63          	bne	s10,a5,801c <_printf_float+0x294>
    8004:	ffd00793          	li	a5,-3
    8008:	00f5c663          	blt	a1,a5,8014 <_printf_float+0x28c>
    800c:	00442783          	lw	a5,4(s0)
    8010:	0cb7dc63          	bge	a5,a1,80e8 <_printf_float+0x360>
    8014:	ffea8a93          	addi	s5,s5,-2
    8018:	0ffafa93          	andi	s5,s5,255
    801c:	06500793          	li	a5,101
    8020:	0757e663          	bltu	a5,s5,808c <_printf_float+0x304>
    8024:	fff58593          	addi	a1,a1,-1
    8028:	000a8613          	mv	a2,s5
    802c:	05040513          	addi	a0,s0,80
    8030:	02b12a23          	sw	a1,52(sp)
    8034:	c95ff0ef          	jal	ra,7cc8 <__exponent>
    8038:	03812703          	lw	a4,56(sp)
    803c:	00100693          	li	a3,1
    8040:	00050b13          	mv	s6,a0
    8044:	00a707b3          	add	a5,a4,a0
    8048:	00f42823          	sw	a5,16(s0)
    804c:	00e6c863          	blt	a3,a4,805c <_printf_float+0x2d4>
    8050:	00042703          	lw	a4,0(s0)
    8054:	00177713          	andi	a4,a4,1
    8058:	00070663          	beqz	a4,8064 <_printf_float+0x2dc>
    805c:	00178793          	addi	a5,a5,1
    8060:	00f42823          	sw	a5,16(s0)
    8064:	03314783          	lbu	a5,51(sp)
    8068:	e60786e3          	beqz	a5,7ed4 <_printf_float+0x14c>
    806c:	02d00793          	li	a5,45
    8070:	04f401a3          	sb	a5,67(s0)
    8074:	e61ff06f          	j	7ed4 <_printf_float+0x14c>
    8078:	04700713          	li	a4,71
    807c:	f4ed12e3          	bne	s10,a4,7fc0 <_printf_float+0x238>
    8080:	f40790e3          	bnez	a5,7fc0 <_printf_float+0x238>
    8084:	00100793          	li	a5,1
    8088:	f35ff06f          	j	7fbc <_printf_float+0x234>
    808c:	06600793          	li	a5,102
    8090:	04fa9e63          	bne	s5,a5,80ec <_printf_float+0x364>
    8094:	00442783          	lw	a5,4(s0)
    8098:	02b05463          	blez	a1,80c0 <_printf_float+0x338>
    809c:	00b42823          	sw	a1,16(s0)
    80a0:	00079863          	bnez	a5,80b0 <_printf_float+0x328>
    80a4:	00042703          	lw	a4,0(s0)
    80a8:	00177713          	andi	a4,a4,1
    80ac:	02070863          	beqz	a4,80dc <_printf_float+0x354>
    80b0:	00178793          	addi	a5,a5,1
    80b4:	00b787b3          	add	a5,a5,a1
    80b8:	00f42823          	sw	a5,16(s0)
    80bc:	0200006f          	j	80dc <_printf_float+0x354>
    80c0:	00079a63          	bnez	a5,80d4 <_printf_float+0x34c>
    80c4:	00042703          	lw	a4,0(s0)
    80c8:	00100693          	li	a3,1
    80cc:	00177713          	andi	a4,a4,1
    80d0:	00070463          	beqz	a4,80d8 <_printf_float+0x350>
    80d4:	00278693          	addi	a3,a5,2
    80d8:	00d42823          	sw	a3,16(s0)
    80dc:	04b42c23          	sw	a1,88(s0)
    80e0:	00000b13          	li	s6,0
    80e4:	f81ff06f          	j	8064 <_printf_float+0x2dc>
    80e8:	06700a93          	li	s5,103
    80ec:	03812783          	lw	a5,56(sp)
    80f0:	00f5ce63          	blt	a1,a5,810c <_printf_float+0x384>
    80f4:	00042783          	lw	a5,0(s0)
    80f8:	00b42823          	sw	a1,16(s0)
    80fc:	0017f793          	andi	a5,a5,1
    8100:	fc078ee3          	beqz	a5,80dc <_printf_float+0x354>
    8104:	00158793          	addi	a5,a1,1
    8108:	fb1ff06f          	j	80b8 <_printf_float+0x330>
    810c:	00100713          	li	a4,1
    8110:	00b04663          	bgtz	a1,811c <_printf_float+0x394>
    8114:	00200713          	li	a4,2
    8118:	40b70733          	sub	a4,a4,a1
    811c:	00e787b3          	add	a5,a5,a4
    8120:	f99ff06f          	j	80b8 <_printf_float+0x330>
    8124:	00042783          	lw	a5,0(s0)
    8128:	4007f713          	andi	a4,a5,1024
    812c:	02071e63          	bnez	a4,8168 <_printf_float+0x3e0>
    8130:	01042683          	lw	a3,16(s0)
    8134:	000a0613          	mv	a2,s4
    8138:	00090593          	mv	a1,s2
    813c:	00048513          	mv	a0,s1
    8140:	000980e7          	jalr	s3
    8144:	db9508e3          	beq	a0,s9,7ef4 <_printf_float+0x16c>
    8148:	00042783          	lw	a5,0(s0)
    814c:	0027f793          	andi	a5,a5,2
    8150:	3a079e63          	bnez	a5,850c <_printf_float+0x784>
    8154:	03c12783          	lw	a5,60(sp)
    8158:	00c42503          	lw	a0,12(s0)
    815c:	d8f55ee3          	bge	a0,a5,7ef8 <_printf_float+0x170>
    8160:	00078513          	mv	a0,a5
    8164:	d95ff06f          	j	7ef8 <_printf_float+0x170>
    8168:	06500713          	li	a4,101
    816c:	29577863          	bgeu	a4,s5,83fc <_printf_float+0x674>
    8170:	04842503          	lw	a0,72(s0)
    8174:	04c42583          	lw	a1,76(s0)
    8178:	00000613          	li	a2,0
    817c:	00000693          	li	a3,0
    8180:	db4fb0ef          	jal	ra,3734 <__eqdf2>
    8184:	08051663          	bnez	a0,8210 <_printf_float+0x488>
    8188:	0000c637          	lui	a2,0xc
    818c:	00100693          	li	a3,1
    8190:	7fc60613          	addi	a2,a2,2044 # c7fc <gpio_veerwolf_driver_api+0x28>
    8194:	00090593          	mv	a1,s2
    8198:	00048513          	mv	a0,s1
    819c:	000980e7          	jalr	s3
    81a0:	d5950ae3          	beq	a0,s9,7ef4 <_printf_float+0x16c>
    81a4:	03412703          	lw	a4,52(sp)
    81a8:	03812783          	lw	a5,56(sp)
    81ac:	00f74863          	blt	a4,a5,81bc <_printf_float+0x434>
    81b0:	00042783          	lw	a5,0(s0)
    81b4:	0017f793          	andi	a5,a5,1
    81b8:	f80788e3          	beqz	a5,8148 <_printf_float+0x3c0>
    81bc:	000b8693          	mv	a3,s7
    81c0:	000c0613          	mv	a2,s8
    81c4:	00090593          	mv	a1,s2
    81c8:	00048513          	mv	a0,s1
    81cc:	000980e7          	jalr	s3
    81d0:	fff00793          	li	a5,-1
    81d4:	d2f500e3          	beq	a0,a5,7ef4 <_printf_float+0x16c>
    81d8:	00000a13          	li	s4,0
    81dc:	01a40a93          	addi	s5,s0,26
    81e0:	fff00b13          	li	s6,-1
    81e4:	03812783          	lw	a5,56(sp)
    81e8:	fff78793          	addi	a5,a5,-1
    81ec:	f4fa5ee3          	bge	s4,a5,8148 <_printf_float+0x3c0>
    81f0:	00100693          	li	a3,1
    81f4:	000a8613          	mv	a2,s5
    81f8:	00090593          	mv	a1,s2
    81fc:	00048513          	mv	a0,s1
    8200:	000980e7          	jalr	s3
    8204:	cf6508e3          	beq	a0,s6,7ef4 <_printf_float+0x16c>
    8208:	001a0a13          	addi	s4,s4,1
    820c:	fd9ff06f          	j	81e4 <_printf_float+0x45c>
    8210:	03412783          	lw	a5,52(sp)
    8214:	0af04863          	bgtz	a5,82c4 <_printf_float+0x53c>
    8218:	0000c637          	lui	a2,0xc
    821c:	00100693          	li	a3,1
    8220:	7fc60613          	addi	a2,a2,2044 # c7fc <gpio_veerwolf_driver_api+0x28>
    8224:	00090593          	mv	a1,s2
    8228:	00048513          	mv	a0,s1
    822c:	000980e7          	jalr	s3
    8230:	cd9502e3          	beq	a0,s9,7ef4 <_printf_float+0x16c>
    8234:	03412783          	lw	a5,52(sp)
    8238:	03812703          	lw	a4,56(sp)
    823c:	00e7e7b3          	or	a5,a5,a4
    8240:	00079863          	bnez	a5,8250 <_printf_float+0x4c8>
    8244:	00042783          	lw	a5,0(s0)
    8248:	0017f793          	andi	a5,a5,1
    824c:	ee078ee3          	beqz	a5,8148 <_printf_float+0x3c0>
    8250:	000b8693          	mv	a3,s7
    8254:	000c0613          	mv	a2,s8
    8258:	00090593          	mv	a1,s2
    825c:	00048513          	mv	a0,s1
    8260:	000980e7          	jalr	s3
    8264:	fff00793          	li	a5,-1
    8268:	c8f506e3          	beq	a0,a5,7ef4 <_printf_float+0x16c>
    826c:	00000a93          	li	s5,0
    8270:	01a40b13          	addi	s6,s0,26
    8274:	fff00b93          	li	s7,-1
    8278:	03412783          	lw	a5,52(sp)
    827c:	40f007b3          	neg	a5,a5
    8280:	02fac263          	blt	s5,a5,82a4 <_printf_float+0x51c>
    8284:	03812683          	lw	a3,56(sp)
    8288:	000a0613          	mv	a2,s4
    828c:	00090593          	mv	a1,s2
    8290:	00048513          	mv	a0,s1
    8294:	000980e7          	jalr	s3
    8298:	fff00793          	li	a5,-1
    829c:	eaf516e3          	bne	a0,a5,8148 <_printf_float+0x3c0>
    82a0:	c55ff06f          	j	7ef4 <_printf_float+0x16c>
    82a4:	00100693          	li	a3,1
    82a8:	000b0613          	mv	a2,s6
    82ac:	00090593          	mv	a1,s2
    82b0:	00048513          	mv	a0,s1
    82b4:	000980e7          	jalr	s3
    82b8:	c3750ee3          	beq	a0,s7,7ef4 <_printf_float+0x16c>
    82bc:	001a8a93          	addi	s5,s5,1
    82c0:	fb9ff06f          	j	8278 <_printf_float+0x4f0>
    82c4:	05842783          	lw	a5,88(s0)
    82c8:	03812a83          	lw	s5,56(sp)
    82cc:	0157d463          	bge	a5,s5,82d4 <_printf_float+0x54c>
    82d0:	00078a93          	mv	s5,a5
    82d4:	0b504463          	bgtz	s5,837c <_printf_float+0x5f4>
    82d8:	00000b13          	li	s6,0
    82dc:	01a40d13          	addi	s10,s0,26
    82e0:	fff00d93          	li	s11,-1
    82e4:	05842c83          	lw	s9,88(s0)
    82e8:	000a8793          	mv	a5,s5
    82ec:	000ad463          	bgez	s5,82f4 <_printf_float+0x56c>
    82f0:	00000793          	li	a5,0
    82f4:	40fc87b3          	sub	a5,s9,a5
    82f8:	0afb4263          	blt	s6,a5,839c <_printf_float+0x614>
    82fc:	03412703          	lw	a4,52(sp)
    8300:	03812783          	lw	a5,56(sp)
    8304:	0af74c63          	blt	a4,a5,83bc <_printf_float+0x634>
    8308:	00042783          	lw	a5,0(s0)
    830c:	0017f793          	andi	a5,a5,1
    8310:	0a079663          	bnez	a5,83bc <_printf_float+0x634>
    8314:	03812a83          	lw	s5,56(sp)
    8318:	03412703          	lw	a4,52(sp)
    831c:	419a87b3          	sub	a5,s5,s9
    8320:	40ea8ab3          	sub	s5,s5,a4
    8324:	0157d463          	bge	a5,s5,832c <_printf_float+0x5a4>
    8328:	00078a93          	mv	s5,a5
    832c:	0b504863          	bgtz	s5,83dc <_printf_float+0x654>
    8330:	00000a13          	li	s4,0
    8334:	01a40b13          	addi	s6,s0,26
    8338:	fff00b93          	li	s7,-1
    833c:	03412703          	lw	a4,52(sp)
    8340:	03812783          	lw	a5,56(sp)
    8344:	40e787b3          	sub	a5,a5,a4
    8348:	000a8713          	mv	a4,s5
    834c:	000ad463          	bgez	s5,8354 <_printf_float+0x5cc>
    8350:	00000713          	li	a4,0
    8354:	40e787b3          	sub	a5,a5,a4
    8358:	defa58e3          	bge	s4,a5,8148 <_printf_float+0x3c0>
    835c:	00100693          	li	a3,1
    8360:	000b0613          	mv	a2,s6
    8364:	00090593          	mv	a1,s2
    8368:	00048513          	mv	a0,s1
    836c:	000980e7          	jalr	s3
    8370:	b97502e3          	beq	a0,s7,7ef4 <_printf_float+0x16c>
    8374:	001a0a13          	addi	s4,s4,1
    8378:	fc5ff06f          	j	833c <_printf_float+0x5b4>
    837c:	000a8693          	mv	a3,s5
    8380:	000a0613          	mv	a2,s4
    8384:	00090593          	mv	a1,s2
    8388:	00048513          	mv	a0,s1
    838c:	000980e7          	jalr	s3
    8390:	fff00793          	li	a5,-1
    8394:	f4f512e3          	bne	a0,a5,82d8 <_printf_float+0x550>
    8398:	b5dff06f          	j	7ef4 <_printf_float+0x16c>
    839c:	00100693          	li	a3,1
    83a0:	000d0613          	mv	a2,s10
    83a4:	00090593          	mv	a1,s2
    83a8:	00048513          	mv	a0,s1
    83ac:	000980e7          	jalr	s3
    83b0:	b5b502e3          	beq	a0,s11,7ef4 <_printf_float+0x16c>
    83b4:	001b0b13          	addi	s6,s6,1
    83b8:	f2dff06f          	j	82e4 <_printf_float+0x55c>
    83bc:	000b8693          	mv	a3,s7
    83c0:	000c0613          	mv	a2,s8
    83c4:	00090593          	mv	a1,s2
    83c8:	00048513          	mv	a0,s1
    83cc:	000980e7          	jalr	s3
    83d0:	fff00793          	li	a5,-1
    83d4:	f4f510e3          	bne	a0,a5,8314 <_printf_float+0x58c>
    83d8:	b1dff06f          	j	7ef4 <_printf_float+0x16c>
    83dc:	000a8693          	mv	a3,s5
    83e0:	019a0633          	add	a2,s4,s9
    83e4:	00090593          	mv	a1,s2
    83e8:	00048513          	mv	a0,s1
    83ec:	000980e7          	jalr	s3
    83f0:	fff00793          	li	a5,-1
    83f4:	f2f51ee3          	bne	a0,a5,8330 <_printf_float+0x5a8>
    83f8:	afdff06f          	j	7ef4 <_printf_float+0x16c>
    83fc:	03812683          	lw	a3,56(sp)
    8400:	00100713          	li	a4,1
    8404:	00d74663          	blt	a4,a3,8410 <_printf_float+0x688>
    8408:	0017f793          	andi	a5,a5,1
    840c:	0a078a63          	beqz	a5,84c0 <_printf_float+0x738>
    8410:	00100693          	li	a3,1
    8414:	000a0613          	mv	a2,s4
    8418:	00090593          	mv	a1,s2
    841c:	00048513          	mv	a0,s1
    8420:	000980e7          	jalr	s3
    8424:	fff00a93          	li	s5,-1
    8428:	ad5506e3          	beq	a0,s5,7ef4 <_printf_float+0x16c>
    842c:	000b8693          	mv	a3,s7
    8430:	000c0613          	mv	a2,s8
    8434:	00090593          	mv	a1,s2
    8438:	00048513          	mv	a0,s1
    843c:	000980e7          	jalr	s3
    8440:	ab550ae3          	beq	a0,s5,7ef4 <_printf_float+0x16c>
    8444:	04842503          	lw	a0,72(s0)
    8448:	04c42583          	lw	a1,76(s0)
    844c:	00000613          	li	a2,0
    8450:	00000693          	li	a3,0
    8454:	ae0fb0ef          	jal	ra,3734 <__eqdf2>
    8458:	04050c63          	beqz	a0,84b0 <_printf_float+0x728>
    845c:	03812683          	lw	a3,56(sp)
    8460:	001a0613          	addi	a2,s4,1
    8464:	00090593          	mv	a1,s2
    8468:	fff68693          	addi	a3,a3,-1
    846c:	00048513          	mv	a0,s1
    8470:	000980e7          	jalr	s3
    8474:	a95500e3          	beq	a0,s5,7ef4 <_printf_float+0x16c>
    8478:	000b0693          	mv	a3,s6
    847c:	05040613          	addi	a2,s0,80
    8480:	e0dff06f          	j	828c <_printf_float+0x504>
    8484:	00100693          	li	a3,1
    8488:	000a8613          	mv	a2,s5
    848c:	00090593          	mv	a1,s2
    8490:	00048513          	mv	a0,s1
    8494:	000980e7          	jalr	s3
    8498:	a5750ee3          	beq	a0,s7,7ef4 <_printf_float+0x16c>
    849c:	001a0a13          	addi	s4,s4,1
    84a0:	03812783          	lw	a5,56(sp)
    84a4:	fff78793          	addi	a5,a5,-1
    84a8:	fcfa4ee3          	blt	s4,a5,8484 <_printf_float+0x6fc>
    84ac:	fcdff06f          	j	8478 <_printf_float+0x6f0>
    84b0:	00000a13          	li	s4,0
    84b4:	01a40a93          	addi	s5,s0,26
    84b8:	fff00b93          	li	s7,-1
    84bc:	fe5ff06f          	j	84a0 <_printf_float+0x718>
    84c0:	00100693          	li	a3,1
    84c4:	000a0613          	mv	a2,s4
    84c8:	00090593          	mv	a1,s2
    84cc:	00048513          	mv	a0,s1
    84d0:	000980e7          	jalr	s3
    84d4:	fb9512e3          	bne	a0,s9,8478 <_printf_float+0x6f0>
    84d8:	a1dff06f          	j	7ef4 <_printf_float+0x16c>
    84dc:	00100693          	li	a3,1
    84e0:	000a8613          	mv	a2,s5
    84e4:	00090593          	mv	a1,s2
    84e8:	00048513          	mv	a0,s1
    84ec:	000980e7          	jalr	s3
    84f0:	a16502e3          	beq	a0,s6,7ef4 <_printf_float+0x16c>
    84f4:	001a0a13          	addi	s4,s4,1
    84f8:	00c42783          	lw	a5,12(s0)
    84fc:	03c12703          	lw	a4,60(sp)
    8500:	40e787b3          	sub	a5,a5,a4
    8504:	fcfa4ce3          	blt	s4,a5,84dc <_printf_float+0x754>
    8508:	c4dff06f          	j	8154 <_printf_float+0x3cc>
    850c:	00000a13          	li	s4,0
    8510:	01940a93          	addi	s5,s0,25
    8514:	fff00b13          	li	s6,-1
    8518:	fe1ff06f          	j	84f8 <_printf_float+0x770>

0000851c <_printf_common>:
    851c:	fd010113          	addi	sp,sp,-48
    8520:	01412c23          	sw	s4,24(sp)
    8524:	0105a783          	lw	a5,16(a1)
    8528:	00070a13          	mv	s4,a4
    852c:	0085a703          	lw	a4,8(a1)
    8530:	02812423          	sw	s0,40(sp)
    8534:	02912223          	sw	s1,36(sp)
    8538:	01312e23          	sw	s3,28(sp)
    853c:	01512a23          	sw	s5,20(sp)
    8540:	02112623          	sw	ra,44(sp)
    8544:	03212023          	sw	s2,32(sp)
    8548:	01612823          	sw	s6,16(sp)
    854c:	01712623          	sw	s7,12(sp)
    8550:	00050993          	mv	s3,a0
    8554:	00058413          	mv	s0,a1
    8558:	00060493          	mv	s1,a2
    855c:	00068a93          	mv	s5,a3
    8560:	00e7d463          	bge	a5,a4,8568 <_printf_common+0x4c>
    8564:	00070793          	mv	a5,a4
    8568:	00f4a023          	sw	a5,0(s1)
    856c:	04344703          	lbu	a4,67(s0)
    8570:	00070663          	beqz	a4,857c <_printf_common+0x60>
    8574:	00178793          	addi	a5,a5,1
    8578:	00f4a023          	sw	a5,0(s1)
    857c:	00042783          	lw	a5,0(s0)
    8580:	0207f793          	andi	a5,a5,32
    8584:	00078863          	beqz	a5,8594 <_printf_common+0x78>
    8588:	0004a783          	lw	a5,0(s1)
    858c:	00278793          	addi	a5,a5,2
    8590:	00f4a023          	sw	a5,0(s1)
    8594:	00042903          	lw	s2,0(s0)
    8598:	00697913          	andi	s2,s2,6
    859c:	00091e63          	bnez	s2,85b8 <_printf_common+0x9c>
    85a0:	01940b13          	addi	s6,s0,25
    85a4:	fff00b93          	li	s7,-1
    85a8:	00c42783          	lw	a5,12(s0)
    85ac:	0004a703          	lw	a4,0(s1)
    85b0:	40e787b3          	sub	a5,a5,a4
    85b4:	08f94263          	blt	s2,a5,8638 <_printf_common+0x11c>
    85b8:	04344783          	lbu	a5,67(s0)
    85bc:	00f036b3          	snez	a3,a5
    85c0:	00042783          	lw	a5,0(s0)
    85c4:	0207f793          	andi	a5,a5,32
    85c8:	0c079063          	bnez	a5,8688 <_printf_common+0x16c>
    85cc:	04340613          	addi	a2,s0,67
    85d0:	000a8593          	mv	a1,s5
    85d4:	00098513          	mv	a0,s3
    85d8:	000a00e7          	jalr	s4
    85dc:	fff00793          	li	a5,-1
    85e0:	06f50863          	beq	a0,a5,8650 <_printf_common+0x134>
    85e4:	00042783          	lw	a5,0(s0)
    85e8:	00400613          	li	a2,4
    85ec:	0004a703          	lw	a4,0(s1)
    85f0:	0067f793          	andi	a5,a5,6
    85f4:	00c42683          	lw	a3,12(s0)
    85f8:	00000493          	li	s1,0
    85fc:	00c79863          	bne	a5,a2,860c <_printf_common+0xf0>
    8600:	40e684b3          	sub	s1,a3,a4
    8604:	0004d463          	bgez	s1,860c <_printf_common+0xf0>
    8608:	00000493          	li	s1,0
    860c:	00842783          	lw	a5,8(s0)
    8610:	01042703          	lw	a4,16(s0)
    8614:	00f75663          	bge	a4,a5,8620 <_printf_common+0x104>
    8618:	40e787b3          	sub	a5,a5,a4
    861c:	00f484b3          	add	s1,s1,a5
    8620:	00000913          	li	s2,0
    8624:	01a40413          	addi	s0,s0,26
    8628:	fff00b13          	li	s6,-1
    862c:	09249063          	bne	s1,s2,86ac <_printf_common+0x190>
    8630:	00000513          	li	a0,0
    8634:	0200006f          	j	8654 <_printf_common+0x138>
    8638:	00100693          	li	a3,1
    863c:	000b0613          	mv	a2,s6
    8640:	000a8593          	mv	a1,s5
    8644:	00098513          	mv	a0,s3
    8648:	000a00e7          	jalr	s4
    864c:	03751a63          	bne	a0,s7,8680 <_printf_common+0x164>
    8650:	fff00513          	li	a0,-1
    8654:	02c12083          	lw	ra,44(sp)
    8658:	02812403          	lw	s0,40(sp)
    865c:	02412483          	lw	s1,36(sp)
    8660:	02012903          	lw	s2,32(sp)
    8664:	01c12983          	lw	s3,28(sp)
    8668:	01812a03          	lw	s4,24(sp)
    866c:	01412a83          	lw	s5,20(sp)
    8670:	01012b03          	lw	s6,16(sp)
    8674:	00c12b83          	lw	s7,12(sp)
    8678:	03010113          	addi	sp,sp,48
    867c:	00008067          	ret
    8680:	00190913          	addi	s2,s2,1
    8684:	f25ff06f          	j	85a8 <_printf_common+0x8c>
    8688:	00d40733          	add	a4,s0,a3
    868c:	03000613          	li	a2,48
    8690:	04c701a3          	sb	a2,67(a4)
    8694:	04544703          	lbu	a4,69(s0)
    8698:	00168793          	addi	a5,a3,1
    869c:	00f407b3          	add	a5,s0,a5
    86a0:	00268693          	addi	a3,a3,2
    86a4:	04e781a3          	sb	a4,67(a5)
    86a8:	f25ff06f          	j	85cc <_printf_common+0xb0>
    86ac:	00100693          	li	a3,1
    86b0:	00040613          	mv	a2,s0
    86b4:	000a8593          	mv	a1,s5
    86b8:	00098513          	mv	a0,s3
    86bc:	000a00e7          	jalr	s4
    86c0:	f96508e3          	beq	a0,s6,8650 <_printf_common+0x134>
    86c4:	00190913          	addi	s2,s2,1
    86c8:	f65ff06f          	j	862c <_printf_common+0x110>

000086cc <_printf_i>:
    86cc:	fd010113          	addi	sp,sp,-48
    86d0:	02812423          	sw	s0,40(sp)
    86d4:	02912223          	sw	s1,36(sp)
    86d8:	03212023          	sw	s2,32(sp)
    86dc:	01312e23          	sw	s3,28(sp)
    86e0:	02112623          	sw	ra,44(sp)
    86e4:	01412c23          	sw	s4,24(sp)
    86e8:	01512a23          	sw	s5,20(sp)
    86ec:	01612823          	sw	s6,16(sp)
    86f0:	0185c883          	lbu	a7,24(a1)
    86f4:	07800793          	li	a5,120
    86f8:	00050493          	mv	s1,a0
    86fc:	00058413          	mv	s0,a1
    8700:	00060913          	mv	s2,a2
    8704:	00068993          	mv	s3,a3
    8708:	0117ee63          	bltu	a5,a7,8724 <_printf_i+0x58>
    870c:	06200793          	li	a5,98
    8710:	04358693          	addi	a3,a1,67
    8714:	0117ee63          	bltu	a5,a7,8730 <_printf_i+0x64>
    8718:	28088a63          	beqz	a7,89ac <_printf_i+0x2e0>
    871c:	05800793          	li	a5,88
    8720:	1cf88063          	beq	a7,a5,88e0 <_printf_i+0x214>
    8724:	04240a93          	addi	s5,s0,66
    8728:	05140123          	sb	a7,66(s0)
    872c:	0440006f          	j	8770 <_printf_i+0xa4>
    8730:	f9d88793          	addi	a5,a7,-99
    8734:	0ff7f793          	andi	a5,a5,255
    8738:	01500613          	li	a2,21
    873c:	fef664e3          	bltu	a2,a5,8724 <_printf_i+0x58>
    8740:	0000d637          	lui	a2,0xd
    8744:	00279793          	slli	a5,a5,0x2
    8748:	9b460613          	addi	a2,a2,-1612 # c9b4 <_ctype_+0x13c>
    874c:	00c787b3          	add	a5,a5,a2
    8750:	0007a783          	lw	a5,0(a5)
    8754:	00078067          	jr	a5
    8758:	00072783          	lw	a5,0(a4)
    875c:	04258a93          	addi	s5,a1,66
    8760:	00478693          	addi	a3,a5,4
    8764:	0007a783          	lw	a5,0(a5)
    8768:	00d72023          	sw	a3,0(a4)
    876c:	04f58123          	sb	a5,66(a1)
    8770:	00100793          	li	a5,1
    8774:	2740006f          	j	89e8 <_printf_i+0x31c>
    8778:	0005a783          	lw	a5,0(a1)
    877c:	00072503          	lw	a0,0(a4)
    8780:	0807f613          	andi	a2,a5,128
    8784:	00450593          	addi	a1,a0,4
    8788:	02060663          	beqz	a2,87b4 <_printf_i+0xe8>
    878c:	00052783          	lw	a5,0(a0)
    8790:	00b72023          	sw	a1,0(a4)
    8794:	0000d837          	lui	a6,0xd
    8798:	0007d863          	bgez	a5,87a8 <_printf_i+0xdc>
    879c:	02d00713          	li	a4,45
    87a0:	40f007b3          	neg	a5,a5
    87a4:	04e401a3          	sb	a4,67(s0)
    87a8:	98c80813          	addi	a6,a6,-1652 # c98c <_ctype_+0x114>
    87ac:	00a00713          	li	a4,10
    87b0:	0680006f          	j	8818 <_printf_i+0x14c>
    87b4:	0407f613          	andi	a2,a5,64
    87b8:	00052783          	lw	a5,0(a0)
    87bc:	00b72023          	sw	a1,0(a4)
    87c0:	fc060ae3          	beqz	a2,8794 <_printf_i+0xc8>
    87c4:	01079793          	slli	a5,a5,0x10
    87c8:	4107d793          	srai	a5,a5,0x10
    87cc:	fc9ff06f          	j	8794 <_printf_i+0xc8>
    87d0:	0005a603          	lw	a2,0(a1)
    87d4:	00072783          	lw	a5,0(a4)
    87d8:	08067513          	andi	a0,a2,128
    87dc:	00478593          	addi	a1,a5,4
    87e0:	00050863          	beqz	a0,87f0 <_printf_i+0x124>
    87e4:	00b72023          	sw	a1,0(a4)
    87e8:	0007a783          	lw	a5,0(a5)
    87ec:	0140006f          	j	8800 <_printf_i+0x134>
    87f0:	04067613          	andi	a2,a2,64
    87f4:	00b72023          	sw	a1,0(a4)
    87f8:	fe0608e3          	beqz	a2,87e8 <_printf_i+0x11c>
    87fc:	0007d783          	lhu	a5,0(a5)
    8800:	0000d837          	lui	a6,0xd
    8804:	06f00713          	li	a4,111
    8808:	98c80813          	addi	a6,a6,-1652 # c98c <_ctype_+0x114>
    880c:	14e88e63          	beq	a7,a4,8968 <_printf_i+0x29c>
    8810:	00a00713          	li	a4,10
    8814:	040401a3          	sb	zero,67(s0)
    8818:	00442603          	lw	a2,4(s0)
    881c:	00c42423          	sw	a2,8(s0)
    8820:	00064863          	bltz	a2,8830 <_printf_i+0x164>
    8824:	00042583          	lw	a1,0(s0)
    8828:	ffb5f593          	andi	a1,a1,-5
    882c:	00b42023          	sw	a1,0(s0)
    8830:	00079663          	bnez	a5,883c <_printf_i+0x170>
    8834:	00068a93          	mv	s5,a3
    8838:	02060463          	beqz	a2,8860 <_printf_i+0x194>
    883c:	00068a93          	mv	s5,a3
    8840:	02e7f633          	remu	a2,a5,a4
    8844:	fffa8a93          	addi	s5,s5,-1
    8848:	00c80633          	add	a2,a6,a2
    884c:	00064603          	lbu	a2,0(a2)
    8850:	00ca8023          	sb	a2,0(s5)
    8854:	00078613          	mv	a2,a5
    8858:	02e7d7b3          	divu	a5,a5,a4
    885c:	fee672e3          	bgeu	a2,a4,8840 <_printf_i+0x174>
    8860:	00800793          	li	a5,8
    8864:	02f71463          	bne	a4,a5,888c <_printf_i+0x1c0>
    8868:	00042783          	lw	a5,0(s0)
    886c:	0017f793          	andi	a5,a5,1
    8870:	00078e63          	beqz	a5,888c <_printf_i+0x1c0>
    8874:	00442703          	lw	a4,4(s0)
    8878:	01042783          	lw	a5,16(s0)
    887c:	00e7c863          	blt	a5,a4,888c <_printf_i+0x1c0>
    8880:	03000793          	li	a5,48
    8884:	fefa8fa3          	sb	a5,-1(s5)
    8888:	fffa8a93          	addi	s5,s5,-1
    888c:	415686b3          	sub	a3,a3,s5
    8890:	00d42823          	sw	a3,16(s0)
    8894:	00098713          	mv	a4,s3
    8898:	00090693          	mv	a3,s2
    889c:	00c10613          	addi	a2,sp,12
    88a0:	00040593          	mv	a1,s0
    88a4:	00048513          	mv	a0,s1
    88a8:	c75ff0ef          	jal	ra,851c <_printf_common>
    88ac:	fff00a13          	li	s4,-1
    88b0:	15451263          	bne	a0,s4,89f4 <_printf_i+0x328>
    88b4:	fff00513          	li	a0,-1
    88b8:	02c12083          	lw	ra,44(sp)
    88bc:	02812403          	lw	s0,40(sp)
    88c0:	02412483          	lw	s1,36(sp)
    88c4:	02012903          	lw	s2,32(sp)
    88c8:	01c12983          	lw	s3,28(sp)
    88cc:	01812a03          	lw	s4,24(sp)
    88d0:	01412a83          	lw	s5,20(sp)
    88d4:	01012b03          	lw	s6,16(sp)
    88d8:	03010113          	addi	sp,sp,48
    88dc:	00008067          	ret
    88e0:	0000d837          	lui	a6,0xd
    88e4:	051582a3          	sb	a7,69(a1)
    88e8:	98c80813          	addi	a6,a6,-1652 # c98c <_ctype_+0x114>
    88ec:	00042603          	lw	a2,0(s0)
    88f0:	00072583          	lw	a1,0(a4)
    88f4:	08067513          	andi	a0,a2,128
    88f8:	0005a783          	lw	a5,0(a1)
    88fc:	00458593          	addi	a1,a1,4
    8900:	04050863          	beqz	a0,8950 <_printf_i+0x284>
    8904:	00b72023          	sw	a1,0(a4)
    8908:	00167713          	andi	a4,a2,1
    890c:	00070663          	beqz	a4,8918 <_printf_i+0x24c>
    8910:	02066613          	ori	a2,a2,32
    8914:	00c42023          	sw	a2,0(s0)
    8918:	01000713          	li	a4,16
    891c:	ee079ce3          	bnez	a5,8814 <_printf_i+0x148>
    8920:	00042603          	lw	a2,0(s0)
    8924:	fdf67613          	andi	a2,a2,-33
    8928:	00c42023          	sw	a2,0(s0)
    892c:	ee9ff06f          	j	8814 <_printf_i+0x148>
    8930:	0005a783          	lw	a5,0(a1)
    8934:	0207e793          	ori	a5,a5,32
    8938:	00f5a023          	sw	a5,0(a1)
    893c:	07800793          	li	a5,120
    8940:	0000d837          	lui	a6,0xd
    8944:	04f402a3          	sb	a5,69(s0)
    8948:	9a080813          	addi	a6,a6,-1632 # c9a0 <_ctype_+0x128>
    894c:	fa1ff06f          	j	88ec <_printf_i+0x220>
    8950:	04067513          	andi	a0,a2,64
    8954:	00b72023          	sw	a1,0(a4)
    8958:	fa0508e3          	beqz	a0,8908 <_printf_i+0x23c>
    895c:	01079793          	slli	a5,a5,0x10
    8960:	0107d793          	srli	a5,a5,0x10
    8964:	fa5ff06f          	j	8908 <_printf_i+0x23c>
    8968:	00800713          	li	a4,8
    896c:	ea9ff06f          	j	8814 <_printf_i+0x148>
    8970:	0005a603          	lw	a2,0(a1)
    8974:	00072783          	lw	a5,0(a4)
    8978:	0145a583          	lw	a1,20(a1)
    897c:	08067813          	andi	a6,a2,128
    8980:	00478513          	addi	a0,a5,4
    8984:	00080a63          	beqz	a6,8998 <_printf_i+0x2cc>
    8988:	00a72023          	sw	a0,0(a4)
    898c:	0007a783          	lw	a5,0(a5)
    8990:	00b7a023          	sw	a1,0(a5)
    8994:	0180006f          	j	89ac <_printf_i+0x2e0>
    8998:	00a72023          	sw	a0,0(a4)
    899c:	04067613          	andi	a2,a2,64
    89a0:	0007a783          	lw	a5,0(a5)
    89a4:	fe0606e3          	beqz	a2,8990 <_printf_i+0x2c4>
    89a8:	00b79023          	sh	a1,0(a5)
    89ac:	00042823          	sw	zero,16(s0)
    89b0:	00068a93          	mv	s5,a3
    89b4:	ee1ff06f          	j	8894 <_printf_i+0x1c8>
    89b8:	00072783          	lw	a5,0(a4)
    89bc:	0045a603          	lw	a2,4(a1)
    89c0:	00000593          	li	a1,0
    89c4:	00478693          	addi	a3,a5,4
    89c8:	00d72023          	sw	a3,0(a4)
    89cc:	0007aa83          	lw	s5,0(a5)
    89d0:	000a8513          	mv	a0,s5
    89d4:	115010ef          	jal	ra,a2e8 <memchr>
    89d8:	00050663          	beqz	a0,89e4 <_printf_i+0x318>
    89dc:	41550533          	sub	a0,a0,s5
    89e0:	00a42223          	sw	a0,4(s0)
    89e4:	00442783          	lw	a5,4(s0)
    89e8:	00f42823          	sw	a5,16(s0)
    89ec:	040401a3          	sb	zero,67(s0)
    89f0:	ea5ff06f          	j	8894 <_printf_i+0x1c8>
    89f4:	01042683          	lw	a3,16(s0)
    89f8:	000a8613          	mv	a2,s5
    89fc:	00090593          	mv	a1,s2
    8a00:	00048513          	mv	a0,s1
    8a04:	000980e7          	jalr	s3
    8a08:	eb4506e3          	beq	a0,s4,88b4 <_printf_i+0x1e8>
    8a0c:	00042783          	lw	a5,0(s0)
    8a10:	0027f793          	andi	a5,a5,2
    8a14:	04079463          	bnez	a5,8a5c <_printf_i+0x390>
    8a18:	00c12783          	lw	a5,12(sp)
    8a1c:	00c42503          	lw	a0,12(s0)
    8a20:	e8f55ce3          	bge	a0,a5,88b8 <_printf_i+0x1ec>
    8a24:	00078513          	mv	a0,a5
    8a28:	e91ff06f          	j	88b8 <_printf_i+0x1ec>
    8a2c:	00100693          	li	a3,1
    8a30:	000a8613          	mv	a2,s5
    8a34:	00090593          	mv	a1,s2
    8a38:	00048513          	mv	a0,s1
    8a3c:	000980e7          	jalr	s3
    8a40:	e7650ae3          	beq	a0,s6,88b4 <_printf_i+0x1e8>
    8a44:	001a0a13          	addi	s4,s4,1
    8a48:	00c42783          	lw	a5,12(s0)
    8a4c:	00c12703          	lw	a4,12(sp)
    8a50:	40e787b3          	sub	a5,a5,a4
    8a54:	fcfa4ce3          	blt	s4,a5,8a2c <_printf_i+0x360>
    8a58:	fc1ff06f          	j	8a18 <_printf_i+0x34c>
    8a5c:	00000a13          	li	s4,0
    8a60:	01940a93          	addi	s5,s0,25
    8a64:	fff00b13          	li	s6,-1
    8a68:	fe1ff06f          	j	8a48 <_printf_i+0x37c>

00008a6c <iprintf>:
    8a6c:	fb010113          	addi	sp,sp,-80
    8a70:	04f12223          	sw	a5,68(sp)
    8a74:	0000e7b7          	lui	a5,0xe
    8a78:	02812423          	sw	s0,40(sp)
    8a7c:	00050413          	mv	s0,a0
    8a80:	7207a503          	lw	a0,1824(a5) # e720 <_impure_ptr>
    8a84:	02112623          	sw	ra,44(sp)
    8a88:	02b12a23          	sw	a1,52(sp)
    8a8c:	02c12c23          	sw	a2,56(sp)
    8a90:	02d12e23          	sw	a3,60(sp)
    8a94:	04e12023          	sw	a4,64(sp)
    8a98:	05012423          	sw	a6,72(sp)
    8a9c:	05112623          	sw	a7,76(sp)
    8aa0:	00050c63          	beqz	a0,8ab8 <iprintf+0x4c>
    8aa4:	01852783          	lw	a5,24(a0)
    8aa8:	00079863          	bnez	a5,8ab8 <iprintf+0x4c>
    8aac:	00a12623          	sw	a0,12(sp)
    8ab0:	5c4010ef          	jal	ra,a074 <__sinit>
    8ab4:	00c12503          	lw	a0,12(sp)
    8ab8:	00852583          	lw	a1,8(a0)
    8abc:	03410693          	addi	a3,sp,52
    8ac0:	00040613          	mv	a2,s0
    8ac4:	00d12e23          	sw	a3,28(sp)
    8ac8:	5f8020ef          	jal	ra,b0c0 <_vfiprintf_r>
    8acc:	02c12083          	lw	ra,44(sp)
    8ad0:	02812403          	lw	s0,40(sp)
    8ad4:	05010113          	addi	sp,sp,80
    8ad8:	00008067          	ret

00008adc <_sbrk_r>:
    8adc:	ff010113          	addi	sp,sp,-16
    8ae0:	00812423          	sw	s0,8(sp)
    8ae4:	00912223          	sw	s1,4(sp)
    8ae8:	00050413          	mv	s0,a0
    8aec:	0000d4b7          	lui	s1,0xd
    8af0:	00058513          	mv	a0,a1
    8af4:	00112623          	sw	ra,12(sp)
    8af8:	c404a223          	sw	zero,-956(s1) # cc44 <errno>
    8afc:	ac1fc0ef          	jal	ra,55bc <_sbrk>
    8b00:	fff00793          	li	a5,-1
    8b04:	00f51863          	bne	a0,a5,8b14 <_sbrk_r+0x38>
    8b08:	c444a783          	lw	a5,-956(s1)
    8b0c:	00078463          	beqz	a5,8b14 <_sbrk_r+0x38>
    8b10:	00f42023          	sw	a5,0(s0)
    8b14:	00c12083          	lw	ra,12(sp)
    8b18:	00812403          	lw	s0,8(sp)
    8b1c:	00412483          	lw	s1,4(sp)
    8b20:	01010113          	addi	sp,sp,16
    8b24:	00008067          	ret

00008b28 <strlen>:
    8b28:	00050793          	mv	a5,a0
    8b2c:	0007c703          	lbu	a4,0(a5)
    8b30:	00178793          	addi	a5,a5,1
    8b34:	fe071ce3          	bnez	a4,8b2c <strlen+0x4>
    8b38:	40a78533          	sub	a0,a5,a0
    8b3c:	fff50513          	addi	a0,a0,-1
    8b40:	00008067          	ret

00008b44 <strncpy>:
    8b44:	00050793          	mv	a5,a0
    8b48:	00060e63          	beqz	a2,8b64 <strncpy+0x20>
    8b4c:	0005c703          	lbu	a4,0(a1)
    8b50:	00158593          	addi	a1,a1,1
    8b54:	00178793          	addi	a5,a5,1
    8b58:	fee78fa3          	sb	a4,-1(a5)
    8b5c:	fff60613          	addi	a2,a2,-1
    8b60:	fe0714e3          	bnez	a4,8b48 <strncpy+0x4>
    8b64:	00c78633          	add	a2,a5,a2
    8b68:	00c79463          	bne	a5,a2,8b70 <strncpy+0x2c>
    8b6c:	00008067          	ret
    8b70:	00178793          	addi	a5,a5,1
    8b74:	fe078fa3          	sb	zero,-1(a5)
    8b78:	ff1ff06f          	j	8b68 <strncpy+0x24>

00008b7c <strnlen>:
    8b7c:	00b505b3          	add	a1,a0,a1
    8b80:	00050793          	mv	a5,a0
    8b84:	00b78663          	beq	a5,a1,8b90 <strnlen+0x14>
    8b88:	0007c703          	lbu	a4,0(a5)
    8b8c:	00071663          	bnez	a4,8b98 <strnlen+0x1c>
    8b90:	40a78533          	sub	a0,a5,a0
    8b94:	00008067          	ret
    8b98:	00178793          	addi	a5,a5,1
    8b9c:	fe9ff06f          	j	8b84 <strnlen+0x8>

00008ba0 <quorem>:
    8ba0:	fe010113          	addi	sp,sp,-32
    8ba4:	00812c23          	sw	s0,24(sp)
    8ba8:	01052783          	lw	a5,16(a0)
    8bac:	0105a403          	lw	s0,16(a1)
    8bb0:	00112e23          	sw	ra,28(sp)
    8bb4:	00912a23          	sw	s1,20(sp)
    8bb8:	01212823          	sw	s2,16(sp)
    8bbc:	01312623          	sw	s3,12(sp)
    8bc0:	01412423          	sw	s4,8(sp)
    8bc4:	01512223          	sw	s5,4(sp)
    8bc8:	1887ce63          	blt	a5,s0,8d64 <quorem+0x1c4>
    8bcc:	fff40413          	addi	s0,s0,-1
    8bd0:	00241613          	slli	a2,s0,0x2
    8bd4:	01458a13          	addi	s4,a1,20
    8bd8:	00ca0ab3          	add	s5,s4,a2
    8bdc:	01450993          	addi	s3,a0,20
    8be0:	000aa783          	lw	a5,0(s5)
    8be4:	00c98633          	add	a2,s3,a2
    8be8:	00062703          	lw	a4,0(a2)
    8bec:	00178793          	addi	a5,a5,1
    8bf0:	00050913          	mv	s2,a0
    8bf4:	02f754b3          	divu	s1,a4,a5
    8bf8:	08f76863          	bltu	a4,a5,8c88 <quorem+0xe8>
    8bfc:	00010537          	lui	a0,0x10
    8c00:	000a0813          	mv	a6,s4
    8c04:	00098893          	mv	a7,s3
    8c08:	00000313          	li	t1,0
    8c0c:	00000e13          	li	t3,0
    8c10:	fff50513          	addi	a0,a0,-1 # ffff <__data_region_end+0x165f>
    8c14:	00082683          	lw	a3,0(a6)
    8c18:	00488893          	addi	a7,a7,4
    8c1c:	00480813          	addi	a6,a6,4
    8c20:	00a6f7b3          	and	a5,a3,a0
    8c24:	0106d693          	srli	a3,a3,0x10
    8c28:	029787b3          	mul	a5,a5,s1
    8c2c:	029686b3          	mul	a3,a3,s1
    8c30:	006787b3          	add	a5,a5,t1
    8c34:	0107d713          	srli	a4,a5,0x10
    8c38:	00a7f7b3          	and	a5,a5,a0
    8c3c:	40fe07b3          	sub	a5,t3,a5
    8c40:	00e686b3          	add	a3,a3,a4
    8c44:	ffc8a703          	lw	a4,-4(a7)
    8c48:	0106d313          	srli	t1,a3,0x10
    8c4c:	00a6f6b3          	and	a3,a3,a0
    8c50:	00a77e33          	and	t3,a4,a0
    8c54:	01c787b3          	add	a5,a5,t3
    8c58:	01075713          	srli	a4,a4,0x10
    8c5c:	40d70733          	sub	a4,a4,a3
    8c60:	4107d693          	srai	a3,a5,0x10
    8c64:	00d70733          	add	a4,a4,a3
    8c68:	41075e13          	srai	t3,a4,0x10
    8c6c:	00a7f7b3          	and	a5,a5,a0
    8c70:	01071713          	slli	a4,a4,0x10
    8c74:	00f767b3          	or	a5,a4,a5
    8c78:	fef8ae23          	sw	a5,-4(a7)
    8c7c:	f90afce3          	bgeu	s5,a6,8c14 <quorem+0x74>
    8c80:	00062783          	lw	a5,0(a2)
    8c84:	0a078a63          	beqz	a5,8d38 <quorem+0x198>
    8c88:	00090513          	mv	a0,s2
    8c8c:	795010ef          	jal	ra,ac20 <__mcmp>
    8c90:	06054a63          	bltz	a0,8d04 <quorem+0x164>
    8c94:	000106b7          	lui	a3,0x10
    8c98:	00148493          	addi	s1,s1,1
    8c9c:	00098613          	mv	a2,s3
    8ca0:	00000593          	li	a1,0
    8ca4:	fff68693          	addi	a3,a3,-1 # ffff <__data_region_end+0x165f>
    8ca8:	000a2503          	lw	a0,0(s4)
    8cac:	00062783          	lw	a5,0(a2)
    8cb0:	00460613          	addi	a2,a2,4
    8cb4:	00d57733          	and	a4,a0,a3
    8cb8:	40e585b3          	sub	a1,a1,a4
    8cbc:	00d7f733          	and	a4,a5,a3
    8cc0:	00e58733          	add	a4,a1,a4
    8cc4:	0107d793          	srli	a5,a5,0x10
    8cc8:	01055513          	srli	a0,a0,0x10
    8ccc:	41075593          	srai	a1,a4,0x10
    8cd0:	40a787b3          	sub	a5,a5,a0
    8cd4:	00b787b3          	add	a5,a5,a1
    8cd8:	4107d593          	srai	a1,a5,0x10
    8cdc:	00d77733          	and	a4,a4,a3
    8ce0:	01079793          	slli	a5,a5,0x10
    8ce4:	00e7e7b3          	or	a5,a5,a4
    8ce8:	004a0a13          	addi	s4,s4,4
    8cec:	fef62e23          	sw	a5,-4(a2)
    8cf0:	fb4afce3          	bgeu	s5,s4,8ca8 <quorem+0x108>
    8cf4:	00241793          	slli	a5,s0,0x2
    8cf8:	00f987b3          	add	a5,s3,a5
    8cfc:	0007a703          	lw	a4,0(a5)
    8d00:	04070a63          	beqz	a4,8d54 <quorem+0x1b4>
    8d04:	00048513          	mv	a0,s1
    8d08:	01c12083          	lw	ra,28(sp)
    8d0c:	01812403          	lw	s0,24(sp)
    8d10:	01412483          	lw	s1,20(sp)
    8d14:	01012903          	lw	s2,16(sp)
    8d18:	00c12983          	lw	s3,12(sp)
    8d1c:	00812a03          	lw	s4,8(sp)
    8d20:	00412a83          	lw	s5,4(sp)
    8d24:	02010113          	addi	sp,sp,32
    8d28:	00008067          	ret
    8d2c:	00062783          	lw	a5,0(a2)
    8d30:	00079863          	bnez	a5,8d40 <quorem+0x1a0>
    8d34:	fff40413          	addi	s0,s0,-1
    8d38:	ffc60613          	addi	a2,a2,-4
    8d3c:	fec9e8e3          	bltu	s3,a2,8d2c <quorem+0x18c>
    8d40:	00892823          	sw	s0,16(s2)
    8d44:	f45ff06f          	j	8c88 <quorem+0xe8>
    8d48:	0007a703          	lw	a4,0(a5)
    8d4c:	00071863          	bnez	a4,8d5c <quorem+0x1bc>
    8d50:	fff40413          	addi	s0,s0,-1
    8d54:	ffc78793          	addi	a5,a5,-4
    8d58:	fef9e8e3          	bltu	s3,a5,8d48 <quorem+0x1a8>
    8d5c:	00892823          	sw	s0,16(s2)
    8d60:	fa5ff06f          	j	8d04 <quorem+0x164>
    8d64:	00000513          	li	a0,0
    8d68:	fa1ff06f          	j	8d08 <quorem+0x168>

00008d6c <_dtoa_r>:
    8d6c:	f5010113          	addi	sp,sp,-176
    8d70:	02f12c23          	sw	a5,56(sp)
    8d74:	02452783          	lw	a5,36(a0)
    8d78:	0a812423          	sw	s0,168(sp)
    8d7c:	0a912223          	sw	s1,164(sp)
    8d80:	0b212023          	sw	s2,160(sp)
    8d84:	09312e23          	sw	s3,156(sp)
    8d88:	09512a23          	sw	s5,148(sp)
    8d8c:	09612823          	sw	s6,144(sp)
    8d90:	0a112623          	sw	ra,172(sp)
    8d94:	09412c23          	sw	s4,152(sp)
    8d98:	09712623          	sw	s7,140(sp)
    8d9c:	09812423          	sw	s8,136(sp)
    8da0:	09912223          	sw	s9,132(sp)
    8da4:	09a12023          	sw	s10,128(sp)
    8da8:	07b12e23          	sw	s11,124(sp)
    8dac:	00d12a23          	sw	a3,20(sp)
    8db0:	02e12023          	sw	a4,32(sp)
    8db4:	03112223          	sw	a7,36(sp)
    8db8:	00050493          	mv	s1,a0
    8dbc:	00058a93          	mv	s5,a1
    8dc0:	00060413          	mv	s0,a2
    8dc4:	00080913          	mv	s2,a6
    8dc8:	00058993          	mv	s3,a1
    8dcc:	00060b13          	mv	s6,a2
    8dd0:	04079063          	bnez	a5,8e10 <_dtoa_r+0xa4>
    8dd4:	01000513          	li	a0,16
    8dd8:	b2dfe0ef          	jal	ra,7904 <malloc>
    8ddc:	02a4a223          	sw	a0,36(s1)
    8de0:	02051063          	bnez	a0,8e00 <_dtoa_r+0x94>
    8de4:	0000d6b7          	lui	a3,0xd
    8de8:	a1c68693          	addi	a3,a3,-1508 # ca1c <_ctype_+0x1a4>
    8dec:	00000613          	li	a2,0
    8df0:	0ea00593          	li	a1,234
    8df4:	0000d537          	lui	a0,0xd
    8df8:	a3450513          	addi	a0,a0,-1484 # ca34 <_ctype_+0x1bc>
    8dfc:	331020ef          	jal	ra,b92c <__assert_func>
    8e00:	00052223          	sw	zero,4(a0)
    8e04:	00052423          	sw	zero,8(a0)
    8e08:	00052023          	sw	zero,0(a0)
    8e0c:	00052623          	sw	zero,12(a0)
    8e10:	0244a783          	lw	a5,36(s1)
    8e14:	0007a583          	lw	a1,0(a5)
    8e18:	02058463          	beqz	a1,8e40 <_dtoa_r+0xd4>
    8e1c:	0047a703          	lw	a4,4(a5)
    8e20:	00100793          	li	a5,1
    8e24:	00048513          	mv	a0,s1
    8e28:	00e797b3          	sll	a5,a5,a4
    8e2c:	00f5a423          	sw	a5,8(a1)
    8e30:	00e5a223          	sw	a4,4(a1)
    8e34:	5f0010ef          	jal	ra,a424 <_Bfree>
    8e38:	0244a783          	lw	a5,36(s1)
    8e3c:	0007a023          	sw	zero,0(a5)
    8e40:	04045c63          	bgez	s0,8e98 <_dtoa_r+0x12c>
    8e44:	00100793          	li	a5,1
    8e48:	00141413          	slli	s0,s0,0x1
    8e4c:	00f92023          	sw	a5,0(s2)
    8e50:	00145b13          	srli	s6,s0,0x1
    8e54:	7ff007b7          	lui	a5,0x7ff00
    8e58:	00fb7733          	and	a4,s6,a5
    8e5c:	0af71863          	bne	a4,a5,8f0c <_dtoa_r+0x1a0>
    8e60:	03812703          	lw	a4,56(sp)
    8e64:	000027b7          	lui	a5,0x2
    8e68:	00cb1b13          	slli	s6,s6,0xc
    8e6c:	70f78793          	addi	a5,a5,1807 # 270f <__mulsf3+0x147>
    8e70:	00cb5b13          	srli	s6,s6,0xc
    8e74:	00f72023          	sw	a5,0(a4)
    8e78:	015b6ab3          	or	s5,s6,s5
    8e7c:	000a9463          	bnez	s5,8e84 <_dtoa_r+0x118>
    8e80:	0540106f          	j	9ed4 <_dtoa_r+0x1168>
    8e84:	02412783          	lw	a5,36(sp)
    8e88:	0000d537          	lui	a0,0xd
    8e8c:	06079663          	bnez	a5,8ef8 <_dtoa_r+0x18c>
    8e90:	a1850793          	addi	a5,a0,-1512 # ca18 <_ctype_+0x1a0>
    8e94:	0540106f          	j	9ee8 <_dtoa_r+0x117c>
    8e98:	00092023          	sw	zero,0(s2)
    8e9c:	fb9ff06f          	j	8e54 <_dtoa_r+0xe8>
    8ea0:	a0c50793          	addi	a5,a0,-1524
    8ea4:	00f12823          	sw	a5,16(sp)
    8ea8:	0000d7b7          	lui	a5,0xd
    8eac:	a1478793          	addi	a5,a5,-1516 # ca14 <_ctype_+0x19c>
    8eb0:	02412703          	lw	a4,36(sp)
    8eb4:	00f72023          	sw	a5,0(a4)
    8eb8:	0ac12083          	lw	ra,172(sp)
    8ebc:	0a812403          	lw	s0,168(sp)
    8ec0:	01012503          	lw	a0,16(sp)
    8ec4:	0a412483          	lw	s1,164(sp)
    8ec8:	0a012903          	lw	s2,160(sp)
    8ecc:	09c12983          	lw	s3,156(sp)
    8ed0:	09812a03          	lw	s4,152(sp)
    8ed4:	09412a83          	lw	s5,148(sp)
    8ed8:	09012b03          	lw	s6,144(sp)
    8edc:	08c12b83          	lw	s7,140(sp)
    8ee0:	08812c03          	lw	s8,136(sp)
    8ee4:	08412c83          	lw	s9,132(sp)
    8ee8:	08012d03          	lw	s10,128(sp)
    8eec:	07c12d83          	lw	s11,124(sp)
    8ef0:	0b010113          	addi	sp,sp,176
    8ef4:	00008067          	ret
    8ef8:	a1850793          	addi	a5,a0,-1512
    8efc:	00f12823          	sw	a5,16(sp)
    8f00:	0000d7b7          	lui	a5,0xd
    8f04:	a1b78793          	addi	a5,a5,-1509 # ca1b <_ctype_+0x1a3>
    8f08:	fa9ff06f          	j	8eb0 <_dtoa_r+0x144>
    8f0c:	00000613          	li	a2,0
    8f10:	00000693          	li	a3,0
    8f14:	000a8513          	mv	a0,s5
    8f18:	000b0593          	mv	a1,s6
    8f1c:	03512623          	sw	s5,44(sp)
    8f20:	03612823          	sw	s6,48(sp)
    8f24:	811fa0ef          	jal	ra,3734 <__eqdf2>
    8f28:	02051c63          	bnez	a0,8f60 <_dtoa_r+0x1f4>
    8f2c:	03812703          	lw	a4,56(sp)
    8f30:	00100793          	li	a5,1
    8f34:	00f72023          	sw	a5,0(a4)
    8f38:	0000c737          	lui	a4,0xc
    8f3c:	7fc70793          	addi	a5,a4,2044 # c7fc <gpio_veerwolf_driver_api+0x28>
    8f40:	00f12823          	sw	a5,16(sp)
    8f44:	02412783          	lw	a5,36(sp)
    8f48:	f60788e3          	beqz	a5,8eb8 <_dtoa_r+0x14c>
    8f4c:	02412683          	lw	a3,36(sp)
    8f50:	0000c7b7          	lui	a5,0xc
    8f54:	7fd78793          	addi	a5,a5,2045 # c7fd <gpio_veerwolf_driver_api+0x29>
    8f58:	00f6a023          	sw	a5,0(a3)
    8f5c:	f5dff06f          	j	8eb8 <_dtoa_r+0x14c>
    8f60:	06810713          	addi	a4,sp,104
    8f64:	06c10693          	addi	a3,sp,108
    8f68:	000b0613          	mv	a2,s6
    8f6c:	000a8593          	mv	a1,s5
    8f70:	00048513          	mv	a0,s1
    8f74:	6fd010ef          	jal	ra,ae70 <__d2b>
    8f78:	014b5913          	srli	s2,s6,0x14
    8f7c:	00a12623          	sw	a0,12(sp)
    8f80:	7ff97913          	andi	s2,s2,2047
    8f84:	06812a03          	lw	s4,104(sp)
    8f88:	1a090063          	beqz	s2,9128 <_dtoa_r+0x3bc>
    8f8c:	03012783          	lw	a5,48(sp)
    8f90:	02c12503          	lw	a0,44(sp)
    8f94:	c0190913          	addi	s2,s2,-1023
    8f98:	00c79593          	slli	a1,a5,0xc
    8f9c:	00c5d593          	srli	a1,a1,0xc
    8fa0:	3ff007b7          	lui	a5,0x3ff00
    8fa4:	00f5e5b3          	or	a1,a1,a5
    8fa8:	04012c23          	sw	zero,88(sp)
    8fac:	0000c7b7          	lui	a5,0xc
    8fb0:	2287a603          	lw	a2,552(a5) # c228 <__device_handles_end+0x10>
    8fb4:	22c7a683          	lw	a3,556(a5)
    8fb8:	949f80ef          	jal	ra,1900 <__subdf3>
    8fbc:	0000c7b7          	lui	a5,0xc
    8fc0:	2307a603          	lw	a2,560(a5) # c230 <__device_handles_end+0x18>
    8fc4:	2347a683          	lw	a3,564(a5)
    8fc8:	b70f80ef          	jal	ra,1338 <__muldf3>
    8fcc:	0000c7b7          	lui	a5,0xc
    8fd0:	2387a603          	lw	a2,568(a5) # c238 <__device_handles_end+0x20>
    8fd4:	23c7a683          	lw	a3,572(a5)
    8fd8:	f85f90ef          	jal	ra,2f5c <__adddf3>
    8fdc:	00050b93          	mv	s7,a0
    8fe0:	00090513          	mv	a0,s2
    8fe4:	00058a93          	mv	s5,a1
    8fe8:	989fa0ef          	jal	ra,3970 <__floatsidf>
    8fec:	0000c7b7          	lui	a5,0xc
    8ff0:	2407a603          	lw	a2,576(a5) # c240 <__device_handles_end+0x28>
    8ff4:	2447a683          	lw	a3,580(a5)
    8ff8:	b40f80ef          	jal	ra,1338 <__muldf3>
    8ffc:	00050613          	mv	a2,a0
    9000:	00058693          	mv	a3,a1
    9004:	000b8513          	mv	a0,s7
    9008:	000a8593          	mv	a1,s5
    900c:	f51f90ef          	jal	ra,2f5c <__adddf3>
    9010:	00050b93          	mv	s7,a0
    9014:	00058a93          	mv	s5,a1
    9018:	8d9fa0ef          	jal	ra,38f0 <__fixdfsi>
    901c:	00050413          	mv	s0,a0
    9020:	00000613          	li	a2,0
    9024:	00000693          	li	a3,0
    9028:	000b8513          	mv	a0,s7
    902c:	000a8593          	mv	a1,s5
    9030:	f90fa0ef          	jal	ra,37c0 <__ledf2>
    9034:	02055063          	bgez	a0,9054 <_dtoa_r+0x2e8>
    9038:	00040513          	mv	a0,s0
    903c:	935fa0ef          	jal	ra,3970 <__floatsidf>
    9040:	000b8613          	mv	a2,s7
    9044:	000a8693          	mv	a3,s5
    9048:	eecfa0ef          	jal	ra,3734 <__eqdf2>
    904c:	00050463          	beqz	a0,9054 <_dtoa_r+0x2e8>
    9050:	fff40413          	addi	s0,s0,-1
    9054:	00100713          	li	a4,1
    9058:	01600793          	li	a5,22
    905c:	02e12a23          	sw	a4,52(sp)
    9060:	0287ea63          	bltu	a5,s0,9094 <_dtoa_r+0x328>
    9064:	0000c737          	lui	a4,0xc
    9068:	00341793          	slli	a5,s0,0x3
    906c:	46870713          	addi	a4,a4,1128 # c468 <__mprec_tens>
    9070:	00e787b3          	add	a5,a5,a4
    9074:	0007a603          	lw	a2,0(a5)
    9078:	0047a683          	lw	a3,4(a5)
    907c:	02c12503          	lw	a0,44(sp)
    9080:	03012583          	lw	a1,48(sp)
    9084:	f3cfa0ef          	jal	ra,37c0 <__ledf2>
    9088:	00055463          	bgez	a0,9090 <_dtoa_r+0x324>
    908c:	fff40413          	addi	s0,s0,-1
    9090:	02012a23          	sw	zero,52(sp)
    9094:	412a0933          	sub	s2,s4,s2
    9098:	fff90c13          	addi	s8,s2,-1
    909c:	00000b93          	li	s7,0
    90a0:	000c5863          	bgez	s8,90b0 <_dtoa_r+0x344>
    90a4:	00100b93          	li	s7,1
    90a8:	412b8bb3          	sub	s7,s7,s2
    90ac:	00000c13          	li	s8,0
    90b0:	0c044663          	bltz	s0,917c <_dtoa_r+0x410>
    90b4:	008c0c33          	add	s8,s8,s0
    90b8:	02812423          	sw	s0,40(sp)
    90bc:	00000c93          	li	s9,0
    90c0:	01412703          	lw	a4,20(sp)
    90c4:	00900793          	li	a5,9
    90c8:	14e7e863          	bltu	a5,a4,9218 <_dtoa_r+0x4ac>
    90cc:	00500793          	li	a5,5
    90d0:	00100913          	li	s2,1
    90d4:	00e7d863          	bge	a5,a4,90e4 <_dtoa_r+0x378>
    90d8:	ffc70793          	addi	a5,a4,-4
    90dc:	00f12a23          	sw	a5,20(sp)
    90e0:	00000913          	li	s2,0
    90e4:	01412703          	lw	a4,20(sp)
    90e8:	00400793          	li	a5,4
    90ec:	0af70063          	beq	a4,a5,918c <_dtoa_r+0x420>
    90f0:	00500793          	li	a5,5
    90f4:	10f70063          	beq	a4,a5,91f4 <_dtoa_r+0x488>
    90f8:	00200793          	li	a5,2
    90fc:	0ef70863          	beq	a4,a5,91ec <_dtoa_r+0x480>
    9100:	00300793          	li	a5,3
    9104:	00012e23          	sw	zero,28(sp)
    9108:	0ef70a63          	beq	a4,a5,91fc <_dtoa_r+0x490>
    910c:	00100793          	li	a5,1
    9110:	00f12e23          	sw	a5,28(sp)
    9114:	fff00d93          	li	s11,-1
    9118:	fff00d13          	li	s10,-1
    911c:	01200793          	li	a5,18
    9120:	02012023          	sw	zero,32(sp)
    9124:	08c0006f          	j	91b0 <_dtoa_r+0x444>
    9128:	06c12903          	lw	s2,108(sp)
    912c:	02000793          	li	a5,32
    9130:	012a0933          	add	s2,s4,s2
    9134:	43290593          	addi	a1,s2,1074
    9138:	02b7dc63          	bge	a5,a1,9170 <_dtoa_r+0x404>
    913c:	04000513          	li	a0,64
    9140:	40b50533          	sub	a0,a0,a1
    9144:	41290593          	addi	a1,s2,1042
    9148:	00ab1533          	sll	a0,s6,a0
    914c:	00badab3          	srl	s5,s5,a1
    9150:	01556533          	or	a0,a0,s5
    9154:	f99f80ef          	jal	ra,20ec <__floatunsidf>
    9158:	fe1007b7          	lui	a5,0xfe100
    915c:	00b785b3          	add	a1,a5,a1
    9160:	00100793          	li	a5,1
    9164:	fff90913          	addi	s2,s2,-1
    9168:	04f12c23          	sw	a5,88(sp)
    916c:	e41ff06f          	j	8fac <_dtoa_r+0x240>
    9170:	40b78533          	sub	a0,a5,a1
    9174:	00aa9533          	sll	a0,s5,a0
    9178:	fddff06f          	j	9154 <_dtoa_r+0x3e8>
    917c:	408b8bb3          	sub	s7,s7,s0
    9180:	40800cb3          	neg	s9,s0
    9184:	02012423          	sw	zero,40(sp)
    9188:	f39ff06f          	j	90c0 <_dtoa_r+0x354>
    918c:	00100793          	li	a5,1
    9190:	00f12e23          	sw	a5,28(sp)
    9194:	02012783          	lw	a5,32(sp)
    9198:	08f04663          	bgtz	a5,9224 <_dtoa_r+0x4b8>
    919c:	00100713          	li	a4,1
    91a0:	00100d93          	li	s11,1
    91a4:	00100d13          	li	s10,1
    91a8:	00100793          	li	a5,1
    91ac:	02e12023          	sw	a4,32(sp)
    91b0:	0244a683          	lw	a3,36(s1)
    91b4:	00400713          	li	a4,4
    91b8:	0006a223          	sw	zero,4(a3)
    91bc:	01470613          	addi	a2,a4,20
    91c0:	0046a583          	lw	a1,4(a3)
    91c4:	06c7f863          	bgeu	a5,a2,9234 <_dtoa_r+0x4c8>
    91c8:	00048513          	mv	a0,s1
    91cc:	158010ef          	jal	ra,a324 <_Balloc>
    91d0:	00a12823          	sw	a0,16(sp)
    91d4:	06051863          	bnez	a0,9244 <_dtoa_r+0x4d8>
    91d8:	0000d6b7          	lui	a3,0xd
    91dc:	a9868693          	addi	a3,a3,-1384 # ca98 <_ctype_+0x220>
    91e0:	00000613          	li	a2,0
    91e4:	1aa00593          	li	a1,426
    91e8:	c0dff06f          	j	8df4 <_dtoa_r+0x88>
    91ec:	00012e23          	sw	zero,28(sp)
    91f0:	fa5ff06f          	j	9194 <_dtoa_r+0x428>
    91f4:	00100793          	li	a5,1
    91f8:	00f12e23          	sw	a5,28(sp)
    91fc:	02012783          	lw	a5,32(sp)
    9200:	00f40db3          	add	s11,s0,a5
    9204:	001d8d13          	addi	s10,s11,1
    9208:	000d0793          	mv	a5,s10
    920c:	fba042e3          	bgtz	s10,91b0 <_dtoa_r+0x444>
    9210:	00100793          	li	a5,1
    9214:	f9dff06f          	j	91b0 <_dtoa_r+0x444>
    9218:	00100913          	li	s2,1
    921c:	00012a23          	sw	zero,20(sp)
    9220:	eedff06f          	j	910c <_dtoa_r+0x3a0>
    9224:	02012d83          	lw	s11,32(sp)
    9228:	000d8d13          	mv	s10,s11
    922c:	000d8793          	mv	a5,s11
    9230:	f81ff06f          	j	91b0 <_dtoa_r+0x444>
    9234:	00158593          	addi	a1,a1,1
    9238:	00b6a223          	sw	a1,4(a3)
    923c:	00171713          	slli	a4,a4,0x1
    9240:	f7dff06f          	j	91bc <_dtoa_r+0x450>
    9244:	0244a783          	lw	a5,36(s1)
    9248:	01012703          	lw	a4,16(sp)
    924c:	00e7a023          	sw	a4,0(a5) # fe100000 <CONFIG_SYSTEM_WORKQUEUE_PRIORITY+0xfe100001>
    9250:	00e00793          	li	a5,14
    9254:	19a7ea63          	bltu	a5,s10,93e8 <_dtoa_r+0x67c>
    9258:	18090863          	beqz	s2,93e8 <_dtoa_r+0x67c>
    925c:	24805263          	blez	s0,94a0 <_dtoa_r+0x734>
    9260:	00f47793          	andi	a5,s0,15
    9264:	0000c737          	lui	a4,0xc
    9268:	46870713          	addi	a4,a4,1128 # c468 <__mprec_tens>
    926c:	00379793          	slli	a5,a5,0x3
    9270:	40445a93          	srai	s5,s0,0x4
    9274:	00e787b3          	add	a5,a5,a4
    9278:	0000c937          	lui	s2,0xc
    927c:	010af693          	andi	a3,s5,16
    9280:	0007a703          	lw	a4,0(a5)
    9284:	44090913          	addi	s2,s2,1088 # c440 <__mprec_bigtens>
    9288:	0047a783          	lw	a5,4(a5)
    928c:	00200a13          	li	s4,2
    9290:	02068c63          	beqz	a3,92c8 <_dtoa_r+0x55c>
    9294:	02092603          	lw	a2,32(s2)
    9298:	02492683          	lw	a3,36(s2)
    929c:	02c12503          	lw	a0,44(sp)
    92a0:	03012583          	lw	a1,48(sp)
    92a4:	02f12e23          	sw	a5,60(sp)
    92a8:	00e12c23          	sw	a4,24(sp)
    92ac:	8c9f70ef          	jal	ra,b74 <__divdf3>
    92b0:	03c12783          	lw	a5,60(sp)
    92b4:	01812703          	lw	a4,24(sp)
    92b8:	00fafa93          	andi	s5,s5,15
    92bc:	00050993          	mv	s3,a0
    92c0:	00058b13          	mv	s6,a1
    92c4:	00300a13          	li	s4,3
    92c8:	1a0a9263          	bnez	s5,946c <_dtoa_r+0x700>
    92cc:	00098513          	mv	a0,s3
    92d0:	00070613          	mv	a2,a4
    92d4:	00078693          	mv	a3,a5
    92d8:	000b0593          	mv	a1,s6
    92dc:	899f70ef          	jal	ra,b74 <__divdf3>
    92e0:	00050993          	mv	s3,a0
    92e4:	00058b13          	mv	s6,a1
    92e8:	03412783          	lw	a5,52(sp)
    92ec:	24078263          	beqz	a5,9530 <_dtoa_r+0x7c4>
    92f0:	0000c7b7          	lui	a5,0xc
    92f4:	2487a603          	lw	a2,584(a5) # c248 <__device_handles_end+0x30>
    92f8:	24c7a683          	lw	a3,588(a5)
    92fc:	00098513          	mv	a0,s3
    9300:	000b0593          	mv	a1,s6
    9304:	cbcfa0ef          	jal	ra,37c0 <__ledf2>
    9308:	22055463          	bgez	a0,9530 <_dtoa_r+0x7c4>
    930c:	220d0863          	beqz	s10,953c <_dtoa_r+0x7d0>
    9310:	0db05863          	blez	s11,93e0 <_dtoa_r+0x674>
    9314:	fff40793          	addi	a5,s0,-1
    9318:	00f12c23          	sw	a5,24(sp)
    931c:	0000c7b7          	lui	a5,0xc
    9320:	2507a603          	lw	a2,592(a5) # c250 <__device_handles_end+0x38>
    9324:	2547a683          	lw	a3,596(a5)
    9328:	00098513          	mv	a0,s3
    932c:	000b0593          	mv	a1,s6
    9330:	808f80ef          	jal	ra,1338 <__muldf3>
    9334:	00050993          	mv	s3,a0
    9338:	00058b13          	mv	s6,a1
    933c:	001a0a13          	addi	s4,s4,1
    9340:	000d8713          	mv	a4,s11
    9344:	000a0513          	mv	a0,s4
    9348:	04e12423          	sw	a4,72(sp)
    934c:	03612e23          	sw	s6,60(sp)
    9350:	05312023          	sw	s3,64(sp)
    9354:	e1cfa0ef          	jal	ra,3970 <__floatsidf>
    9358:	000b0693          	mv	a3,s6
    935c:	00098613          	mv	a2,s3
    9360:	fd9f70ef          	jal	ra,1338 <__muldf3>
    9364:	0000c6b7          	lui	a3,0xc
    9368:	2586a603          	lw	a2,600(a3) # c258 <__device_handles_end+0x40>
    936c:	25c6a683          	lw	a3,604(a3)
    9370:	000b0913          	mv	s2,s6
    9374:	00098a93          	mv	s5,s3
    9378:	be5f90ef          	jal	ra,2f5c <__adddf3>
    937c:	04812703          	lw	a4,72(sp)
    9380:	fcc008b7          	lui	a7,0xfcc00
    9384:	00050b13          	mv	s6,a0
    9388:	00b88a33          	add	s4,a7,a1
    938c:	1a071e63          	bnez	a4,9548 <_dtoa_r+0x7dc>
    9390:	0000c737          	lui	a4,0xc
    9394:	26072603          	lw	a2,608(a4) # c260 <__device_handles_end+0x48>
    9398:	26472683          	lw	a3,612(a4)
    939c:	00098513          	mv	a0,s3
    93a0:	00090593          	mv	a1,s2
    93a4:	d5cf80ef          	jal	ra,1900 <__subdf3>
    93a8:	000b0613          	mv	a2,s6
    93ac:	000a0693          	mv	a3,s4
    93b0:	00050993          	mv	s3,a0
    93b4:	00058913          	mv	s2,a1
    93b8:	e9df70ef          	jal	ra,1254 <__gedf2>
    93bc:	06a040e3          	bgtz	a0,9c1c <_dtoa_r+0xeb0>
    93c0:	800007b7          	lui	a5,0x80000
    93c4:	0147c7b3          	xor	a5,a5,s4
    93c8:	000b0613          	mv	a2,s6
    93cc:	00078693          	mv	a3,a5
    93d0:	00098513          	mv	a0,s3
    93d4:	00090593          	mv	a1,s2
    93d8:	be8fa0ef          	jal	ra,37c0 <__ledf2>
    93dc:	02054ae3          	bltz	a0,9c10 <_dtoa_r+0xea4>
    93e0:	02c12983          	lw	s3,44(sp)
    93e4:	03012b03          	lw	s6,48(sp)
    93e8:	06c12783          	lw	a5,108(sp)
    93ec:	4e07cc63          	bltz	a5,98e4 <_dtoa_r+0xb78>
    93f0:	00e00713          	li	a4,14
    93f4:	4e874863          	blt	a4,s0,98e4 <_dtoa_r+0xb78>
    93f8:	0000c737          	lui	a4,0xc
    93fc:	00341793          	slli	a5,s0,0x3
    9400:	46870713          	addi	a4,a4,1128 # c468 <__mprec_tens>
    9404:	00e787b3          	add	a5,a5,a4
    9408:	0007aa03          	lw	s4,0(a5) # 80000000 <CONFIG_SYSTEM_WORKQUEUE_PRIORITY+0x80000001>
    940c:	0047aa83          	lw	s5,4(a5)
    9410:	02012783          	lw	a5,32(sp)
    9414:	3607de63          	bgez	a5,9790 <_dtoa_r+0xa24>
    9418:	37a04c63          	bgtz	s10,9790 <_dtoa_r+0xa24>
    941c:	7e0d1a63          	bnez	s10,9c10 <_dtoa_r+0xea4>
    9420:	0000c7b7          	lui	a5,0xc
    9424:	2607a603          	lw	a2,608(a5) # c260 <__device_handles_end+0x48>
    9428:	2647a683          	lw	a3,612(a5)
    942c:	000a0513          	mv	a0,s4
    9430:	000a8593          	mv	a1,s5
    9434:	f05f70ef          	jal	ra,1338 <__muldf3>
    9438:	00098613          	mv	a2,s3
    943c:	000b0693          	mv	a3,s6
    9440:	e15f70ef          	jal	ra,1254 <__gedf2>
    9444:	00000a13          	li	s4,0
    9448:	00000913          	li	s2,0
    944c:	78055063          	bgez	a0,9bcc <_dtoa_r+0xe60>
    9450:	01012783          	lw	a5,16(sp)
    9454:	01012703          	lw	a4,16(sp)
    9458:	00140413          	addi	s0,s0,1
    945c:	00178993          	addi	s3,a5,1
    9460:	03100793          	li	a5,49
    9464:	00f70023          	sb	a5,0(a4)
    9468:	7700006f          	j	9bd8 <_dtoa_r+0xe6c>
    946c:	001af693          	andi	a3,s5,1
    9470:	02068263          	beqz	a3,9494 <_dtoa_r+0x728>
    9474:	00092603          	lw	a2,0(s2)
    9478:	00492683          	lw	a3,4(s2)
    947c:	00070513          	mv	a0,a4
    9480:	00078593          	mv	a1,a5
    9484:	eb5f70ef          	jal	ra,1338 <__muldf3>
    9488:	001a0a13          	addi	s4,s4,1
    948c:	00050713          	mv	a4,a0
    9490:	00058793          	mv	a5,a1
    9494:	401ada93          	srai	s5,s5,0x1
    9498:	00890913          	addi	s2,s2,8
    949c:	e2dff06f          	j	92c8 <_dtoa_r+0x55c>
    94a0:	00200a13          	li	s4,2
    94a4:	e40402e3          	beqz	s0,92e8 <_dtoa_r+0x57c>
    94a8:	40800933          	neg	s2,s0
    94ac:	00f97793          	andi	a5,s2,15
    94b0:	0000c737          	lui	a4,0xc
    94b4:	46870713          	addi	a4,a4,1128 # c468 <__mprec_tens>
    94b8:	00379793          	slli	a5,a5,0x3
    94bc:	00e787b3          	add	a5,a5,a4
    94c0:	0007a603          	lw	a2,0(a5)
    94c4:	0047a683          	lw	a3,4(a5)
    94c8:	02c12503          	lw	a0,44(sp)
    94cc:	03012583          	lw	a1,48(sp)
    94d0:	0000cab7          	lui	s5,0xc
    94d4:	40495913          	srai	s2,s2,0x4
    94d8:	e61f70ef          	jal	ra,1338 <__muldf3>
    94dc:	00050793          	mv	a5,a0
    94e0:	00050993          	mv	s3,a0
    94e4:	00058b13          	mv	s6,a1
    94e8:	440a8a93          	addi	s5,s5,1088 # c440 <__mprec_bigtens>
    94ec:	00000713          	li	a4,0
    94f0:	00091863          	bnez	s2,9500 <_dtoa_r+0x794>
    94f4:	de070ae3          	beqz	a4,92e8 <_dtoa_r+0x57c>
    94f8:	00078993          	mv	s3,a5
    94fc:	de9ff06f          	j	92e4 <_dtoa_r+0x578>
    9500:	00197693          	andi	a3,s2,1
    9504:	02068063          	beqz	a3,9524 <_dtoa_r+0x7b8>
    9508:	000aa603          	lw	a2,0(s5)
    950c:	004aa683          	lw	a3,4(s5)
    9510:	00078513          	mv	a0,a5
    9514:	001a0a13          	addi	s4,s4,1
    9518:	e21f70ef          	jal	ra,1338 <__muldf3>
    951c:	00050793          	mv	a5,a0
    9520:	00100713          	li	a4,1
    9524:	40195913          	srai	s2,s2,0x1
    9528:	008a8a93          	addi	s5,s5,8
    952c:	fc5ff06f          	j	94f0 <_dtoa_r+0x784>
    9530:	00812c23          	sw	s0,24(sp)
    9534:	000d0713          	mv	a4,s10
    9538:	e0dff06f          	j	9344 <_dtoa_r+0x5d8>
    953c:	00812c23          	sw	s0,24(sp)
    9540:	00000713          	li	a4,0
    9544:	e01ff06f          	j	9344 <_dtoa_r+0x5d8>
    9548:	fff70793          	addi	a5,a4,-1
    954c:	0000c6b7          	lui	a3,0xc
    9550:	46868693          	addi	a3,a3,1128 # c468 <__mprec_tens>
    9554:	00379793          	slli	a5,a5,0x3
    9558:	00d787b3          	add	a5,a5,a3
    955c:	0007a603          	lw	a2,0(a5)
    9560:	0047a683          	lw	a3,4(a5)
    9564:	01012783          	lw	a5,16(sp)
    9568:	00e787b3          	add	a5,a5,a4
    956c:	02f12e23          	sw	a5,60(sp)
    9570:	01c12783          	lw	a5,28(sp)
    9574:	10078863          	beqz	a5,9684 <_dtoa_r+0x918>
    9578:	0000c7b7          	lui	a5,0xc
    957c:	26c7a583          	lw	a1,620(a5) # c26c <__device_handles_end+0x54>
    9580:	04a12023          	sw	a0,64(sp)
    9584:	2687a503          	lw	a0,616(a5)
    9588:	decf70ef          	jal	ra,b74 <__divdf3>
    958c:	000b0613          	mv	a2,s6
    9590:	000a0693          	mv	a3,s4
    9594:	b6cf80ef          	jal	ra,1900 <__subdf3>
    9598:	0000c7b7          	lui	a5,0xc
    959c:	24c7a803          	lw	a6,588(a5) # c24c <__device_handles_end+0x34>
    95a0:	2487a783          	lw	a5,584(a5)
    95a4:	01012983          	lw	s3,16(sp)
    95a8:	05012623          	sw	a6,76(sp)
    95ac:	04f12423          	sw	a5,72(sp)
    95b0:	0000c7b7          	lui	a5,0xc
    95b4:	2547a803          	lw	a6,596(a5) # c254 <__device_handles_end+0x3c>
    95b8:	2507a783          	lw	a5,592(a5)
    95bc:	00050a13          	mv	s4,a0
    95c0:	00058b13          	mv	s6,a1
    95c4:	04f12023          	sw	a5,64(sp)
    95c8:	05012223          	sw	a6,68(sp)
    95cc:	00090593          	mv	a1,s2
    95d0:	000a8513          	mv	a0,s5
    95d4:	b1cfa0ef          	jal	ra,38f0 <__fixdfsi>
    95d8:	04a12823          	sw	a0,80(sp)
    95dc:	b94fa0ef          	jal	ra,3970 <__floatsidf>
    95e0:	00050613          	mv	a2,a0
    95e4:	00058693          	mv	a3,a1
    95e8:	000a8513          	mv	a0,s5
    95ec:	00090593          	mv	a1,s2
    95f0:	b10f80ef          	jal	ra,1900 <__subdf3>
    95f4:	05012783          	lw	a5,80(sp)
    95f8:	00198993          	addi	s3,s3,1
    95fc:	000a0613          	mv	a2,s4
    9600:	03078793          	addi	a5,a5,48
    9604:	fef98fa3          	sb	a5,-1(s3)
    9608:	000b0693          	mv	a3,s6
    960c:	00050913          	mv	s2,a0
    9610:	00058a93          	mv	s5,a1
    9614:	9acfa0ef          	jal	ra,37c0 <__ledf2>
    9618:	14054c63          	bltz	a0,9770 <_dtoa_r+0xa04>
    961c:	04812503          	lw	a0,72(sp)
    9620:	04c12583          	lw	a1,76(sp)
    9624:	00090613          	mv	a2,s2
    9628:	000a8693          	mv	a3,s5
    962c:	ad4f80ef          	jal	ra,1900 <__subdf3>
    9630:	000a0613          	mv	a2,s4
    9634:	000b0693          	mv	a3,s6
    9638:	988fa0ef          	jal	ra,37c0 <__ledf2>
    963c:	22054c63          	bltz	a0,9874 <_dtoa_r+0xb08>
    9640:	03c12783          	lw	a5,60(sp)
    9644:	d8f98ee3          	beq	s3,a5,93e0 <_dtoa_r+0x674>
    9648:	04012603          	lw	a2,64(sp)
    964c:	04412683          	lw	a3,68(sp)
    9650:	000a0513          	mv	a0,s4
    9654:	000b0593          	mv	a1,s6
    9658:	ce1f70ef          	jal	ra,1338 <__muldf3>
    965c:	04012603          	lw	a2,64(sp)
    9660:	04412683          	lw	a3,68(sp)
    9664:	00050a13          	mv	s4,a0
    9668:	00058b13          	mv	s6,a1
    966c:	00090513          	mv	a0,s2
    9670:	000a8593          	mv	a1,s5
    9674:	cc5f70ef          	jal	ra,1338 <__muldf3>
    9678:	00050a93          	mv	s5,a0
    967c:	00058913          	mv	s2,a1
    9680:	f4dff06f          	j	95cc <_dtoa_r+0x860>
    9684:	000a0593          	mv	a1,s4
    9688:	cb1f70ef          	jal	ra,1338 <__muldf3>
    968c:	03c12783          	lw	a5,60(sp)
    9690:	01012983          	lw	s3,16(sp)
    9694:	04a12423          	sw	a0,72(sp)
    9698:	04f12023          	sw	a5,64(sp)
    969c:	0000c7b7          	lui	a5,0xc
    96a0:	2547a803          	lw	a6,596(a5) # c254 <__device_handles_end+0x3c>
    96a4:	2507a783          	lw	a5,592(a5)
    96a8:	00058b13          	mv	s6,a1
    96ac:	05012a23          	sw	a6,84(sp)
    96b0:	04f12823          	sw	a5,80(sp)
    96b4:	00090593          	mv	a1,s2
    96b8:	000a8513          	mv	a0,s5
    96bc:	a34fa0ef          	jal	ra,38f0 <__fixdfsi>
    96c0:	04a12e23          	sw	a0,92(sp)
    96c4:	aacfa0ef          	jal	ra,3970 <__floatsidf>
    96c8:	00050613          	mv	a2,a0
    96cc:	00058693          	mv	a3,a1
    96d0:	000a8513          	mv	a0,s5
    96d4:	00090593          	mv	a1,s2
    96d8:	a28f80ef          	jal	ra,1900 <__subdf3>
    96dc:	05c12783          	lw	a5,92(sp)
    96e0:	00198993          	addi	s3,s3,1
    96e4:	00050a13          	mv	s4,a0
    96e8:	03078793          	addi	a5,a5,48
    96ec:	fef98fa3          	sb	a5,-1(s3)
    96f0:	03c12783          	lw	a5,60(sp)
    96f4:	00058913          	mv	s2,a1
    96f8:	08f99063          	bne	s3,a5,9778 <_dtoa_r+0xa0c>
    96fc:	0000cab7          	lui	s5,0xc
    9700:	268aa603          	lw	a2,616(s5) # c268 <__device_handles_end+0x50>
    9704:	26caa683          	lw	a3,620(s5)
    9708:	04812503          	lw	a0,72(sp)
    970c:	000b0593          	mv	a1,s6
    9710:	84df90ef          	jal	ra,2f5c <__adddf3>
    9714:	00050613          	mv	a2,a0
    9718:	00058693          	mv	a3,a1
    971c:	000a0513          	mv	a0,s4
    9720:	00090593          	mv	a1,s2
    9724:	b31f70ef          	jal	ra,1254 <__gedf2>
    9728:	14a04663          	bgtz	a0,9874 <_dtoa_r+0xb08>
    972c:	04812603          	lw	a2,72(sp)
    9730:	268aa503          	lw	a0,616(s5)
    9734:	26caa583          	lw	a1,620(s5)
    9738:	000b0693          	mv	a3,s6
    973c:	9c4f80ef          	jal	ra,1900 <__subdf3>
    9740:	00050613          	mv	a2,a0
    9744:	00058693          	mv	a3,a1
    9748:	000a0513          	mv	a0,s4
    974c:	00090593          	mv	a1,s2
    9750:	870fa0ef          	jal	ra,37c0 <__ledf2>
    9754:	c80556e3          	bgez	a0,93e0 <_dtoa_r+0x674>
    9758:	03000793          	li	a5,48
    975c:	04012983          	lw	s3,64(sp)
    9760:	fff98713          	addi	a4,s3,-1
    9764:	04e12023          	sw	a4,64(sp)
    9768:	fff9c703          	lbu	a4,-1(s3)
    976c:	fef708e3          	beq	a4,a5,975c <_dtoa_r+0x9f0>
    9770:	01812403          	lw	s0,24(sp)
    9774:	0d00006f          	j	9844 <_dtoa_r+0xad8>
    9778:	05012603          	lw	a2,80(sp)
    977c:	05412683          	lw	a3,84(sp)
    9780:	bb9f70ef          	jal	ra,1338 <__muldf3>
    9784:	00050a93          	mv	s5,a0
    9788:	00058913          	mv	s2,a1
    978c:	f29ff06f          	j	96b4 <_dtoa_r+0x948>
    9790:	01012783          	lw	a5,16(sp)
    9794:	000b0c93          	mv	s9,s6
    9798:	00098d93          	mv	s11,s3
    979c:	00178c13          	addi	s8,a5,1
    97a0:	01a78d33          	add	s10,a5,s10
    97a4:	0000c7b7          	lui	a5,0xc
    97a8:	2507ab03          	lw	s6,592(a5) # c250 <__device_handles_end+0x38>
    97ac:	2547ab83          	lw	s7,596(a5)
    97b0:	000a0613          	mv	a2,s4
    97b4:	000a8693          	mv	a3,s5
    97b8:	000d8513          	mv	a0,s11
    97bc:	000c8593          	mv	a1,s9
    97c0:	bb4f70ef          	jal	ra,b74 <__divdf3>
    97c4:	92cfa0ef          	jal	ra,38f0 <__fixdfsi>
    97c8:	00050913          	mv	s2,a0
    97cc:	9a4fa0ef          	jal	ra,3970 <__floatsidf>
    97d0:	000a0613          	mv	a2,s4
    97d4:	000a8693          	mv	a3,s5
    97d8:	b61f70ef          	jal	ra,1338 <__muldf3>
    97dc:	00058693          	mv	a3,a1
    97e0:	00050613          	mv	a2,a0
    97e4:	000c8593          	mv	a1,s9
    97e8:	000d8513          	mv	a0,s11
    97ec:	914f80ef          	jal	ra,1900 <__subdf3>
    97f0:	03090693          	addi	a3,s2,48
    97f4:	fedc0fa3          	sb	a3,-1(s8)
    97f8:	000c0993          	mv	s3,s8
    97fc:	0b8d1e63          	bne	s10,s8,98b8 <_dtoa_r+0xb4c>
    9800:	00050613          	mv	a2,a0
    9804:	00058693          	mv	a3,a1
    9808:	f54f90ef          	jal	ra,2f5c <__adddf3>
    980c:	000a0613          	mv	a2,s4
    9810:	000a8693          	mv	a3,s5
    9814:	00050b93          	mv	s7,a0
    9818:	00058b13          	mv	s6,a1
    981c:	a39f70ef          	jal	ra,1254 <__gedf2>
    9820:	04a04863          	bgtz	a0,9870 <_dtoa_r+0xb04>
    9824:	000a0613          	mv	a2,s4
    9828:	000a8693          	mv	a3,s5
    982c:	000b8513          	mv	a0,s7
    9830:	000b0593          	mv	a1,s6
    9834:	f01f90ef          	jal	ra,3734 <__eqdf2>
    9838:	00051663          	bnez	a0,9844 <_dtoa_r+0xad8>
    983c:	00197913          	andi	s2,s2,1
    9840:	02091863          	bnez	s2,9870 <_dtoa_r+0xb04>
    9844:	00c12583          	lw	a1,12(sp)
    9848:	00048513          	mv	a0,s1
    984c:	3d9000ef          	jal	ra,a424 <_Bfree>
    9850:	03812783          	lw	a5,56(sp)
    9854:	00098023          	sb	zero,0(s3)
    9858:	00140513          	addi	a0,s0,1
    985c:	00a7a023          	sw	a0,0(a5)
    9860:	02412783          	lw	a5,36(sp)
    9864:	e4078a63          	beqz	a5,8eb8 <_dtoa_r+0x14c>
    9868:	0137a023          	sw	s3,0(a5)
    986c:	e4cff06f          	j	8eb8 <_dtoa_r+0x14c>
    9870:	00812c23          	sw	s0,24(sp)
    9874:	00098793          	mv	a5,s3
    9878:	03900713          	li	a4,57
    987c:	00078993          	mv	s3,a5
    9880:	fff7c683          	lbu	a3,-1(a5)
    9884:	fff78793          	addi	a5,a5,-1
    9888:	02e69063          	bne	a3,a4,98a8 <_dtoa_r+0xb3c>
    988c:	01012683          	lw	a3,16(sp)
    9890:	fef696e3          	bne	a3,a5,987c <_dtoa_r+0xb10>
    9894:	01812703          	lw	a4,24(sp)
    9898:	00170713          	addi	a4,a4,1
    989c:	00e12c23          	sw	a4,24(sp)
    98a0:	03000713          	li	a4,48
    98a4:	00e68023          	sb	a4,0(a3)
    98a8:	0007c703          	lbu	a4,0(a5)
    98ac:	00170713          	addi	a4,a4,1
    98b0:	00e78023          	sb	a4,0(a5)
    98b4:	ebdff06f          	j	9770 <_dtoa_r+0xa04>
    98b8:	000b0613          	mv	a2,s6
    98bc:	000b8693          	mv	a3,s7
    98c0:	a79f70ef          	jal	ra,1338 <__muldf3>
    98c4:	00000613          	li	a2,0
    98c8:	00000693          	li	a3,0
    98cc:	00050d93          	mv	s11,a0
    98d0:	00058c93          	mv	s9,a1
    98d4:	001c0c13          	addi	s8,s8,1
    98d8:	e5df90ef          	jal	ra,3734 <__eqdf2>
    98dc:	ec051ae3          	bnez	a0,97b0 <_dtoa_r+0xa44>
    98e0:	f65ff06f          	j	9844 <_dtoa_r+0xad8>
    98e4:	01c12703          	lw	a4,28(sp)
    98e8:	16070c63          	beqz	a4,9a60 <_dtoa_r+0xcf4>
    98ec:	01412683          	lw	a3,20(sp)
    98f0:	00100713          	li	a4,1
    98f4:	12d74463          	blt	a4,a3,9a1c <_dtoa_r+0xcb0>
    98f8:	05812703          	lw	a4,88(sp)
    98fc:	43378793          	addi	a5,a5,1075
    9900:	00071863          	bnez	a4,9910 <_dtoa_r+0xba4>
    9904:	06812703          	lw	a4,104(sp)
    9908:	03600793          	li	a5,54
    990c:	40e787b3          	sub	a5,a5,a4
    9910:	000c8a13          	mv	s4,s9
    9914:	000b8a93          	mv	s5,s7
    9918:	00100593          	li	a1,1
    991c:	00048513          	mv	a0,s1
    9920:	00fb8bb3          	add	s7,s7,a5
    9924:	00fc0c33          	add	s8,s8,a5
    9928:	5d5000ef          	jal	ra,a6fc <__i2b>
    992c:	00050913          	mv	s2,a0
    9930:	03505063          	blez	s5,9950 <_dtoa_r+0xbe4>
    9934:	01805e63          	blez	s8,9950 <_dtoa_r+0xbe4>
    9938:	000a8793          	mv	a5,s5
    993c:	015c5463          	bge	s8,s5,9944 <_dtoa_r+0xbd8>
    9940:	000c0793          	mv	a5,s8
    9944:	40fb8bb3          	sub	s7,s7,a5
    9948:	40fa8ab3          	sub	s5,s5,a5
    994c:	40fc0c33          	sub	s8,s8,a5
    9950:	060c8263          	beqz	s9,99b4 <_dtoa_r+0xc48>
    9954:	01c12783          	lw	a5,28(sp)
    9958:	10078c63          	beqz	a5,9a70 <_dtoa_r+0xd04>
    995c:	05405063          	blez	s4,999c <_dtoa_r+0xc30>
    9960:	00090593          	mv	a1,s2
    9964:	000a0613          	mv	a2,s4
    9968:	00048513          	mv	a0,s1
    996c:	7ed000ef          	jal	ra,a958 <__pow5mult>
    9970:	00c12603          	lw	a2,12(sp)
    9974:	00050593          	mv	a1,a0
    9978:	00050913          	mv	s2,a0
    997c:	00048513          	mv	a0,s1
    9980:	5d1000ef          	jal	ra,a750 <__multiply>
    9984:	00c12583          	lw	a1,12(sp)
    9988:	00a12c23          	sw	a0,24(sp)
    998c:	00048513          	mv	a0,s1
    9990:	295000ef          	jal	ra,a424 <_Bfree>
    9994:	01812783          	lw	a5,24(sp)
    9998:	00f12623          	sw	a5,12(sp)
    999c:	414c8633          	sub	a2,s9,s4
    99a0:	014c8a63          	beq	s9,s4,99b4 <_dtoa_r+0xc48>
    99a4:	00c12583          	lw	a1,12(sp)
    99a8:	00048513          	mv	a0,s1
    99ac:	7ad000ef          	jal	ra,a958 <__pow5mult>
    99b0:	00a12623          	sw	a0,12(sp)
    99b4:	00100593          	li	a1,1
    99b8:	00048513          	mv	a0,s1
    99bc:	541000ef          	jal	ra,a6fc <__i2b>
    99c0:	02812783          	lw	a5,40(sp)
    99c4:	00050a13          	mv	s4,a0
    99c8:	0af05863          	blez	a5,9a78 <_dtoa_r+0xd0c>
    99cc:	00078613          	mv	a2,a5
    99d0:	00050593          	mv	a1,a0
    99d4:	00048513          	mv	a0,s1
    99d8:	781000ef          	jal	ra,a958 <__pow5mult>
    99dc:	01412703          	lw	a4,20(sp)
    99e0:	00100793          	li	a5,1
    99e4:	00050a13          	mv	s4,a0
    99e8:	00000c93          	li	s9,0
    99ec:	0ae7c463          	blt	a5,a4,9a94 <_dtoa_r+0xd28>
    99f0:	00000c93          	li	s9,0
    99f4:	08099a63          	bnez	s3,9a88 <_dtoa_r+0xd1c>
    99f8:	00cb1793          	slli	a5,s6,0xc
    99fc:	08079663          	bnez	a5,9a88 <_dtoa_r+0xd1c>
    9a00:	7ff005b7          	lui	a1,0x7ff00
    9a04:	00bb7b33          	and	s6,s6,a1
    9a08:	080b0063          	beqz	s6,9a88 <_dtoa_r+0xd1c>
    9a0c:	001b8b93          	addi	s7,s7,1
    9a10:	001c0c13          	addi	s8,s8,1
    9a14:	00100c93          	li	s9,1
    9a18:	0700006f          	j	9a88 <_dtoa_r+0xd1c>
    9a1c:	fffd0a13          	addi	s4,s10,-1
    9a20:	014ccc63          	blt	s9,s4,9a38 <_dtoa_r+0xccc>
    9a24:	414c8a33          	sub	s4,s9,s4
    9a28:	020d5663          	bgez	s10,9a54 <_dtoa_r+0xce8>
    9a2c:	41ab8ab3          	sub	s5,s7,s10
    9a30:	00000793          	li	a5,0
    9a34:	ee5ff06f          	j	9918 <_dtoa_r+0xbac>
    9a38:	02812783          	lw	a5,40(sp)
    9a3c:	419a0cb3          	sub	s9,s4,s9
    9a40:	019787b3          	add	a5,a5,s9
    9a44:	02f12423          	sw	a5,40(sp)
    9a48:	000a0c93          	mv	s9,s4
    9a4c:	00000a13          	li	s4,0
    9a50:	fd9ff06f          	j	9a28 <_dtoa_r+0xcbc>
    9a54:	000b8a93          	mv	s5,s7
    9a58:	000d0793          	mv	a5,s10
    9a5c:	ebdff06f          	j	9918 <_dtoa_r+0xbac>
    9a60:	000c8a13          	mv	s4,s9
    9a64:	000b8a93          	mv	s5,s7
    9a68:	00000913          	li	s2,0
    9a6c:	ec5ff06f          	j	9930 <_dtoa_r+0xbc4>
    9a70:	000c8613          	mv	a2,s9
    9a74:	f31ff06f          	j	99a4 <_dtoa_r+0xc38>
    9a78:	01412703          	lw	a4,20(sp)
    9a7c:	00100793          	li	a5,1
    9a80:	00000c93          	li	s9,0
    9a84:	f6e7d6e3          	bge	a5,a4,99f0 <_dtoa_r+0xc84>
    9a88:	02812783          	lw	a5,40(sp)
    9a8c:	00100513          	li	a0,1
    9a90:	02078263          	beqz	a5,9ab4 <_dtoa_r+0xd48>
    9a94:	010a2783          	lw	a5,16(s4)
    9a98:	00378793          	addi	a5,a5,3
    9a9c:	00279793          	slli	a5,a5,0x2
    9aa0:	00fa07b3          	add	a5,s4,a5
    9aa4:	0047a503          	lw	a0,4(a5)
    9aa8:	331000ef          	jal	ra,a5d8 <__hi0bits>
    9aac:	02000793          	li	a5,32
    9ab0:	40a78533          	sub	a0,a5,a0
    9ab4:	00ac0533          	add	a0,s8,a0
    9ab8:	01f57513          	andi	a0,a0,31
    9abc:	0c050463          	beqz	a0,9b84 <_dtoa_r+0xe18>
    9ac0:	02000793          	li	a5,32
    9ac4:	40a787b3          	sub	a5,a5,a0
    9ac8:	00400713          	li	a4,4
    9acc:	0af75863          	bge	a4,a5,9b7c <_dtoa_r+0xe10>
    9ad0:	01c00793          	li	a5,28
    9ad4:	40a78533          	sub	a0,a5,a0
    9ad8:	00ab8bb3          	add	s7,s7,a0
    9adc:	00aa8ab3          	add	s5,s5,a0
    9ae0:	00ac0c33          	add	s8,s8,a0
    9ae4:	01705c63          	blez	s7,9afc <_dtoa_r+0xd90>
    9ae8:	00c12583          	lw	a1,12(sp)
    9aec:	000b8613          	mv	a2,s7
    9af0:	00048513          	mv	a0,s1
    9af4:	7a9000ef          	jal	ra,aa9c <__lshift>
    9af8:	00a12623          	sw	a0,12(sp)
    9afc:	01805c63          	blez	s8,9b14 <_dtoa_r+0xda8>
    9b00:	000a0593          	mv	a1,s4
    9b04:	000c0613          	mv	a2,s8
    9b08:	00048513          	mv	a0,s1
    9b0c:	791000ef          	jal	ra,aa9c <__lshift>
    9b10:	00050a13          	mv	s4,a0
    9b14:	03412783          	lw	a5,52(sp)
    9b18:	06078a63          	beqz	a5,9b8c <_dtoa_r+0xe20>
    9b1c:	00c12503          	lw	a0,12(sp)
    9b20:	000a0593          	mv	a1,s4
    9b24:	0fc010ef          	jal	ra,ac20 <__mcmp>
    9b28:	06055263          	bgez	a0,9b8c <_dtoa_r+0xe20>
    9b2c:	00c12583          	lw	a1,12(sp)
    9b30:	00000693          	li	a3,0
    9b34:	00a00613          	li	a2,10
    9b38:	00048513          	mv	a0,s1
    9b3c:	17d000ef          	jal	ra,a4b8 <__multadd>
    9b40:	01c12783          	lw	a5,28(sp)
    9b44:	00a12623          	sw	a0,12(sp)
    9b48:	fff40413          	addi	s0,s0,-1
    9b4c:	3a078263          	beqz	a5,9ef0 <_dtoa_r+0x1184>
    9b50:	00090593          	mv	a1,s2
    9b54:	00000693          	li	a3,0
    9b58:	00a00613          	li	a2,10
    9b5c:	00048513          	mv	a0,s1
    9b60:	159000ef          	jal	ra,a4b8 <__multadd>
    9b64:	00050913          	mv	s2,a0
    9b68:	0db04863          	bgtz	s11,9c38 <_dtoa_r+0xecc>
    9b6c:	01412703          	lw	a4,20(sp)
    9b70:	00200793          	li	a5,2
    9b74:	02e7c663          	blt	a5,a4,9ba0 <_dtoa_r+0xe34>
    9b78:	0c00006f          	j	9c38 <_dtoa_r+0xecc>
    9b7c:	f6e784e3          	beq	a5,a4,9ae4 <_dtoa_r+0xd78>
    9b80:	00078513          	mv	a0,a5
    9b84:	01c50513          	addi	a0,a0,28
    9b88:	f51ff06f          	j	9ad8 <_dtoa_r+0xd6c>
    9b8c:	0ba04063          	bgtz	s10,9c2c <_dtoa_r+0xec0>
    9b90:	01412703          	lw	a4,20(sp)
    9b94:	00200793          	li	a5,2
    9b98:	08e7da63          	bge	a5,a4,9c2c <_dtoa_r+0xec0>
    9b9c:	000d0d93          	mv	s11,s10
    9ba0:	020d9663          	bnez	s11,9bcc <_dtoa_r+0xe60>
    9ba4:	000a0593          	mv	a1,s4
    9ba8:	00000693          	li	a3,0
    9bac:	00500613          	li	a2,5
    9bb0:	00048513          	mv	a0,s1
    9bb4:	105000ef          	jal	ra,a4b8 <__multadd>
    9bb8:	00050a13          	mv	s4,a0
    9bbc:	00050593          	mv	a1,a0
    9bc0:	00c12503          	lw	a0,12(sp)
    9bc4:	05c010ef          	jal	ra,ac20 <__mcmp>
    9bc8:	88a044e3          	bgtz	a0,9450 <_dtoa_r+0x6e4>
    9bcc:	02012783          	lw	a5,32(sp)
    9bd0:	01012983          	lw	s3,16(sp)
    9bd4:	fff7c413          	not	s0,a5
    9bd8:	00000b13          	li	s6,0
    9bdc:	000a0593          	mv	a1,s4
    9be0:	00048513          	mv	a0,s1
    9be4:	041000ef          	jal	ra,a424 <_Bfree>
    9be8:	c4090ee3          	beqz	s2,9844 <_dtoa_r+0xad8>
    9bec:	000b0a63          	beqz	s6,9c00 <_dtoa_r+0xe94>
    9bf0:	012b0863          	beq	s6,s2,9c00 <_dtoa_r+0xe94>
    9bf4:	000b0593          	mv	a1,s6
    9bf8:	00048513          	mv	a0,s1
    9bfc:	029000ef          	jal	ra,a424 <_Bfree>
    9c00:	00090593          	mv	a1,s2
    9c04:	00048513          	mv	a0,s1
    9c08:	01d000ef          	jal	ra,a424 <_Bfree>
    9c0c:	c39ff06f          	j	9844 <_dtoa_r+0xad8>
    9c10:	00000a13          	li	s4,0
    9c14:	00000913          	li	s2,0
    9c18:	fb5ff06f          	j	9bcc <_dtoa_r+0xe60>
    9c1c:	01812403          	lw	s0,24(sp)
    9c20:	00000a13          	li	s4,0
    9c24:	00000913          	li	s2,0
    9c28:	829ff06f          	j	9450 <_dtoa_r+0x6e4>
    9c2c:	01c12783          	lw	a5,28(sp)
    9c30:	000d0d93          	mv	s11,s10
    9c34:	2c078663          	beqz	a5,9f00 <_dtoa_r+0x1194>
    9c38:	01505c63          	blez	s5,9c50 <_dtoa_r+0xee4>
    9c3c:	00090593          	mv	a1,s2
    9c40:	000a8613          	mv	a2,s5
    9c44:	00048513          	mv	a0,s1
    9c48:	655000ef          	jal	ra,aa9c <__lshift>
    9c4c:	00050913          	mv	s2,a0
    9c50:	00090513          	mv	a0,s2
    9c54:	040c8a63          	beqz	s9,9ca8 <_dtoa_r+0xf3c>
    9c58:	00492583          	lw	a1,4(s2)
    9c5c:	00048513          	mv	a0,s1
    9c60:	6c4000ef          	jal	ra,a324 <_Balloc>
    9c64:	00050a93          	mv	s5,a0
    9c68:	00051c63          	bnez	a0,9c80 <_dtoa_r+0xf14>
    9c6c:	0000d6b7          	lui	a3,0xd
    9c70:	a9868693          	addi	a3,a3,-1384 # ca98 <_ctype_+0x220>
    9c74:	00000613          	li	a2,0
    9c78:	2ea00593          	li	a1,746
    9c7c:	978ff06f          	j	8df4 <_dtoa_r+0x88>
    9c80:	01092603          	lw	a2,16(s2)
    9c84:	00c90593          	addi	a1,s2,12
    9c88:	00c50513          	addi	a0,a0,12
    9c8c:	00260613          	addi	a2,a2,2
    9c90:	00261613          	slli	a2,a2,0x2
    9c94:	a88f90ef          	jal	ra,2f1c <memcpy>
    9c98:	00100613          	li	a2,1
    9c9c:	000a8593          	mv	a1,s5
    9ca0:	00048513          	mv	a0,s1
    9ca4:	5f9000ef          	jal	ra,aa9c <__lshift>
    9ca8:	01012783          	lw	a5,16(sp)
    9cac:	00090b13          	mv	s6,s2
    9cb0:	00050913          	mv	s2,a0
    9cb4:	00178c13          	addi	s8,a5,1
    9cb8:	01b787b3          	add	a5,a5,s11
    9cbc:	00f12c23          	sw	a5,24(sp)
    9cc0:	0019fd93          	andi	s11,s3,1
    9cc4:	00c12503          	lw	a0,12(sp)
    9cc8:	000a0593          	mv	a1,s4
    9ccc:	fffc0d13          	addi	s10,s8,-1
    9cd0:	ed1fe0ef          	jal	ra,8ba0 <quorem>
    9cd4:	00050c93          	mv	s9,a0
    9cd8:	03050a93          	addi	s5,a0,48
    9cdc:	00c12503          	lw	a0,12(sp)
    9ce0:	000b0593          	mv	a1,s6
    9ce4:	73d000ef          	jal	ra,ac20 <__mcmp>
    9ce8:	000a0593          	mv	a1,s4
    9cec:	00050b93          	mv	s7,a0
    9cf0:	00090613          	mv	a2,s2
    9cf4:	00048513          	mv	a0,s1
    9cf8:	77d000ef          	jal	ra,ac74 <__mdiff>
    9cfc:	00c52683          	lw	a3,12(a0)
    9d00:	00050593          	mv	a1,a0
    9d04:	00100713          	li	a4,1
    9d08:	00069c63          	bnez	a3,9d20 <_dtoa_r+0xfb4>
    9d0c:	00a12e23          	sw	a0,28(sp)
    9d10:	00c12503          	lw	a0,12(sp)
    9d14:	70d000ef          	jal	ra,ac20 <__mcmp>
    9d18:	01c12583          	lw	a1,28(sp)
    9d1c:	00050713          	mv	a4,a0
    9d20:	00048513          	mv	a0,s1
    9d24:	00e12e23          	sw	a4,28(sp)
    9d28:	6fc000ef          	jal	ra,a424 <_Bfree>
    9d2c:	01412783          	lw	a5,20(sp)
    9d30:	01c12703          	lw	a4,28(sp)
    9d34:	000c0993          	mv	s3,s8
    9d38:	00e7e6b3          	or	a3,a5,a4
    9d3c:	01b6e6b3          	or	a3,a3,s11
    9d40:	00069e63          	bnez	a3,9d5c <_dtoa_r+0xff0>
    9d44:	03900713          	li	a4,57
    9d48:	06ea8063          	beq	s5,a4,9da8 <_dtoa_r+0x103c>
    9d4c:	01705463          	blez	s7,9d54 <_dtoa_r+0xfe8>
    9d50:	031c8a93          	addi	s5,s9,49
    9d54:	015d0023          	sb	s5,0(s10)
    9d58:	e85ff06f          	j	9bdc <_dtoa_r+0xe70>
    9d5c:	000bca63          	bltz	s7,9d70 <_dtoa_r+0x1004>
    9d60:	01412783          	lw	a5,20(sp)
    9d64:	0177ebb3          	or	s7,a5,s7
    9d68:	01bbebb3          	or	s7,s7,s11
    9d6c:	060b9463          	bnez	s7,9dd4 <_dtoa_r+0x1068>
    9d70:	fee052e3          	blez	a4,9d54 <_dtoa_r+0xfe8>
    9d74:	00c12583          	lw	a1,12(sp)
    9d78:	00100613          	li	a2,1
    9d7c:	00048513          	mv	a0,s1
    9d80:	51d000ef          	jal	ra,aa9c <__lshift>
    9d84:	000a0593          	mv	a1,s4
    9d88:	00a12623          	sw	a0,12(sp)
    9d8c:	695000ef          	jal	ra,ac20 <__mcmp>
    9d90:	00a04863          	bgtz	a0,9da0 <_dtoa_r+0x1034>
    9d94:	fc0510e3          	bnez	a0,9d54 <_dtoa_r+0xfe8>
    9d98:	001af713          	andi	a4,s5,1
    9d9c:	fa070ce3          	beqz	a4,9d54 <_dtoa_r+0xfe8>
    9da0:	03900713          	li	a4,57
    9da4:	faea96e3          	bne	s5,a4,9d50 <_dtoa_r+0xfe4>
    9da8:	03900793          	li	a5,57
    9dac:	00fd0023          	sb	a5,0(s10)
    9db0:	00098793          	mv	a5,s3
    9db4:	03900693          	li	a3,57
    9db8:	00078993          	mv	s3,a5
    9dbc:	fff9c703          	lbu	a4,-1(s3)
    9dc0:	fff78793          	addi	a5,a5,-1
    9dc4:	0ed70c63          	beq	a4,a3,9ebc <_dtoa_r+0x1150>
    9dc8:	00170713          	addi	a4,a4,1
    9dcc:	00e78023          	sb	a4,0(a5)
    9dd0:	e0dff06f          	j	9bdc <_dtoa_r+0xe70>
    9dd4:	00e05c63          	blez	a4,9dec <_dtoa_r+0x1080>
    9dd8:	03900713          	li	a4,57
    9ddc:	fcea86e3          	beq	s5,a4,9da8 <_dtoa_r+0x103c>
    9de0:	001a8793          	addi	a5,s5,1
    9de4:	00fd0023          	sb	a5,0(s10)
    9de8:	df5ff06f          	j	9bdc <_dtoa_r+0xe70>
    9dec:	01812783          	lw	a5,24(sp)
    9df0:	ff5c0fa3          	sb	s5,-1(s8)
    9df4:	09878063          	beq	a5,s8,9e74 <_dtoa_r+0x1108>
    9df8:	00c12583          	lw	a1,12(sp)
    9dfc:	00000693          	li	a3,0
    9e00:	00a00613          	li	a2,10
    9e04:	00048513          	mv	a0,s1
    9e08:	6b0000ef          	jal	ra,a4b8 <__multadd>
    9e0c:	00a12623          	sw	a0,12(sp)
    9e10:	00000693          	li	a3,0
    9e14:	00a00613          	li	a2,10
    9e18:	000b0593          	mv	a1,s6
    9e1c:	00048513          	mv	a0,s1
    9e20:	012b1c63          	bne	s6,s2,9e38 <_dtoa_r+0x10cc>
    9e24:	694000ef          	jal	ra,a4b8 <__multadd>
    9e28:	00050b13          	mv	s6,a0
    9e2c:	00050913          	mv	s2,a0
    9e30:	001c0c13          	addi	s8,s8,1
    9e34:	e91ff06f          	j	9cc4 <_dtoa_r+0xf58>
    9e38:	680000ef          	jal	ra,a4b8 <__multadd>
    9e3c:	00090593          	mv	a1,s2
    9e40:	00050b13          	mv	s6,a0
    9e44:	00000693          	li	a3,0
    9e48:	00a00613          	li	a2,10
    9e4c:	00048513          	mv	a0,s1
    9e50:	668000ef          	jal	ra,a4b8 <__multadd>
    9e54:	00050913          	mv	s2,a0
    9e58:	fd9ff06f          	j	9e30 <_dtoa_r+0x10c4>
    9e5c:	00100993          	li	s3,1
    9e60:	01b05463          	blez	s11,9e68 <_dtoa_r+0x10fc>
    9e64:	000d8993          	mv	s3,s11
    9e68:	01012783          	lw	a5,16(sp)
    9e6c:	00000b13          	li	s6,0
    9e70:	013789b3          	add	s3,a5,s3
    9e74:	00c12583          	lw	a1,12(sp)
    9e78:	00100613          	li	a2,1
    9e7c:	00048513          	mv	a0,s1
    9e80:	41d000ef          	jal	ra,aa9c <__lshift>
    9e84:	000a0593          	mv	a1,s4
    9e88:	00a12623          	sw	a0,12(sp)
    9e8c:	595000ef          	jal	ra,ac20 <__mcmp>
    9e90:	f2a040e3          	bgtz	a0,9db0 <_dtoa_r+0x1044>
    9e94:	00051663          	bnez	a0,9ea0 <_dtoa_r+0x1134>
    9e98:	001af793          	andi	a5,s5,1
    9e9c:	f0079ae3          	bnez	a5,9db0 <_dtoa_r+0x1044>
    9ea0:	00098793          	mv	a5,s3
    9ea4:	03000713          	li	a4,48
    9ea8:	00078993          	mv	s3,a5
    9eac:	fff7c683          	lbu	a3,-1(a5)
    9eb0:	fff78793          	addi	a5,a5,-1
    9eb4:	fee68ae3          	beq	a3,a4,9ea8 <_dtoa_r+0x113c>
    9eb8:	d25ff06f          	j	9bdc <_dtoa_r+0xe70>
    9ebc:	01012703          	lw	a4,16(sp)
    9ec0:	eef71ce3          	bne	a4,a5,9db8 <_dtoa_r+0x104c>
    9ec4:	03100793          	li	a5,49
    9ec8:	00140413          	addi	s0,s0,1
    9ecc:	00f70023          	sb	a5,0(a4)
    9ed0:	d0dff06f          	j	9bdc <_dtoa_r+0xe70>
    9ed4:	02412783          	lw	a5,36(sp)
    9ed8:	0000d537          	lui	a0,0xd
    9edc:	00078463          	beqz	a5,9ee4 <_dtoa_r+0x1178>
    9ee0:	fc1fe06f          	j	8ea0 <_dtoa_r+0x134>
    9ee4:	a0c50793          	addi	a5,a0,-1524 # ca0c <_ctype_+0x194>
    9ee8:	00f12823          	sw	a5,16(sp)
    9eec:	fcdfe06f          	j	8eb8 <_dtoa_r+0x14c>
    9ef0:	01b04863          	bgtz	s11,9f00 <_dtoa_r+0x1194>
    9ef4:	01412703          	lw	a4,20(sp)
    9ef8:	00200793          	li	a5,2
    9efc:	cae7c2e3          	blt	a5,a4,9ba0 <_dtoa_r+0xe34>
    9f00:	00000993          	li	s3,0
    9f04:	00c12503          	lw	a0,12(sp)
    9f08:	000a0593          	mv	a1,s4
    9f0c:	c95fe0ef          	jal	ra,8ba0 <quorem>
    9f10:	01012783          	lw	a5,16(sp)
    9f14:	03050a93          	addi	s5,a0,48
    9f18:	01378733          	add	a4,a5,s3
    9f1c:	01570023          	sb	s5,0(a4)
    9f20:	00198993          	addi	s3,s3,1
    9f24:	f3b9dce3          	bge	s3,s11,9e5c <_dtoa_r+0x10f0>
    9f28:	00c12583          	lw	a1,12(sp)
    9f2c:	00000693          	li	a3,0
    9f30:	00a00613          	li	a2,10
    9f34:	00048513          	mv	a0,s1
    9f38:	580000ef          	jal	ra,a4b8 <__multadd>
    9f3c:	00a12623          	sw	a0,12(sp)
    9f40:	fc5ff06f          	j	9f04 <_dtoa_r+0x1198>

00009f44 <std>:
    9f44:	ff010113          	addi	sp,sp,-16
    9f48:	00812423          	sw	s0,8(sp)
    9f4c:	00112623          	sw	ra,12(sp)
    9f50:	00050413          	mv	s0,a0
    9f54:	00b51623          	sh	a1,12(a0)
    9f58:	00c51723          	sh	a2,14(a0)
    9f5c:	00052023          	sw	zero,0(a0)
    9f60:	00052223          	sw	zero,4(a0)
    9f64:	00052423          	sw	zero,8(a0)
    9f68:	06052223          	sw	zero,100(a0)
    9f6c:	00052823          	sw	zero,16(a0)
    9f70:	00052a23          	sw	zero,20(a0)
    9f74:	00052c23          	sw	zero,24(a0)
    9f78:	00800613          	li	a2,8
    9f7c:	00000593          	li	a1,0
    9f80:	05c50513          	addi	a0,a0,92
    9f84:	fbdf80ef          	jal	ra,2f40 <memset>
    9f88:	0000b7b7          	lui	a5,0xb
    9f8c:	4f478793          	addi	a5,a5,1268 # b4f4 <__sread>
    9f90:	02f42223          	sw	a5,36(s0)
    9f94:	0000b7b7          	lui	a5,0xb
    9f98:	54478793          	addi	a5,a5,1348 # b544 <__swrite>
    9f9c:	02f42423          	sw	a5,40(s0)
    9fa0:	0000b7b7          	lui	a5,0xb
    9fa4:	5c878793          	addi	a5,a5,1480 # b5c8 <__sseek>
    9fa8:	02f42623          	sw	a5,44(s0)
    9fac:	0000b7b7          	lui	a5,0xb
    9fb0:	62078793          	addi	a5,a5,1568 # b620 <__sclose>
    9fb4:	00c12083          	lw	ra,12(sp)
    9fb8:	02842023          	sw	s0,32(s0)
    9fbc:	02f42823          	sw	a5,48(s0)
    9fc0:	00812403          	lw	s0,8(sp)
    9fc4:	01010113          	addi	sp,sp,16
    9fc8:	00008067          	ret

00009fcc <_cleanup_r>:
    9fcc:	0000c5b7          	lui	a1,0xc
    9fd0:	bc058593          	addi	a1,a1,-1088 # bbc0 <_fflush_r>
    9fd4:	2580006f          	j	a22c <_fwalk_reent>

00009fd8 <__sfmoreglue>:
    9fd8:	ff010113          	addi	sp,sp,-16
    9fdc:	00912223          	sw	s1,4(sp)
    9fe0:	06800613          	li	a2,104
    9fe4:	fff58493          	addi	s1,a1,-1
    9fe8:	02c484b3          	mul	s1,s1,a2
    9fec:	01212023          	sw	s2,0(sp)
    9ff0:	00058913          	mv	s2,a1
    9ff4:	00812423          	sw	s0,8(sp)
    9ff8:	00112623          	sw	ra,12(sp)
    9ffc:	07448593          	addi	a1,s1,116
    a000:	a19fd0ef          	jal	ra,7a18 <_malloc_r>
    a004:	00050413          	mv	s0,a0
    a008:	02050063          	beqz	a0,a028 <__sfmoreglue+0x50>
    a00c:	00052023          	sw	zero,0(a0)
    a010:	01252223          	sw	s2,4(a0)
    a014:	00c50513          	addi	a0,a0,12
    a018:	00a42423          	sw	a0,8(s0)
    a01c:	06848613          	addi	a2,s1,104
    a020:	00000593          	li	a1,0
    a024:	f1df80ef          	jal	ra,2f40 <memset>
    a028:	00c12083          	lw	ra,12(sp)
    a02c:	00040513          	mv	a0,s0
    a030:	00812403          	lw	s0,8(sp)
    a034:	00412483          	lw	s1,4(sp)
    a038:	00012903          	lw	s2,0(sp)
    a03c:	01010113          	addi	sp,sp,16
    a040:	00008067          	ret

0000a044 <__sfp_lock_acquire>:
    a044:	0000f537          	lui	a0,0xf
    a048:	94850513          	addi	a0,a0,-1720 # e948 <__lock___sfp_recursive_mutex>
    a04c:	dd4fb06f          	j	5620 <__retarget_lock_acquire_recursive>

0000a050 <__sfp_lock_release>:
    a050:	0000f537          	lui	a0,0xf
    a054:	94850513          	addi	a0,a0,-1720 # e948 <__lock___sfp_recursive_mutex>
    a058:	dd4fb06f          	j	562c <__retarget_lock_release_recursive>

0000a05c <__sinit_lock_acquire>:
    a05c:	0000f537          	lui	a0,0xf
    a060:	95c50513          	addi	a0,a0,-1700 # e95c <__lock___sinit_recursive_mutex>
    a064:	dbcfb06f          	j	5620 <__retarget_lock_acquire_recursive>

0000a068 <__sinit_lock_release>:
    a068:	0000f537          	lui	a0,0xf
    a06c:	95c50513          	addi	a0,a0,-1700 # e95c <__lock___sinit_recursive_mutex>
    a070:	dbcfb06f          	j	562c <__retarget_lock_release_recursive>

0000a074 <__sinit>:
    a074:	ff010113          	addi	sp,sp,-16
    a078:	00812423          	sw	s0,8(sp)
    a07c:	00112623          	sw	ra,12(sp)
    a080:	00050413          	mv	s0,a0
    a084:	fd9ff0ef          	jal	ra,a05c <__sinit_lock_acquire>
    a088:	01842783          	lw	a5,24(s0)
    a08c:	00078a63          	beqz	a5,a0a0 <__sinit+0x2c>
    a090:	00812403          	lw	s0,8(sp)
    a094:	00c12083          	lw	ra,12(sp)
    a098:	01010113          	addi	sp,sp,16
    a09c:	fcdff06f          	j	a068 <__sinit_lock_release>
    a0a0:	0000a7b7          	lui	a5,0xa
    a0a4:	fcc78793          	addi	a5,a5,-52 # 9fcc <_cleanup_r>
    a0a8:	02f42423          	sw	a5,40(s0)
    a0ac:	0000c7b7          	lui	a5,0xc
    a0b0:	2847a783          	lw	a5,644(a5) # c284 <_global_impure_ptr>
    a0b4:	04042423          	sw	zero,72(s0)
    a0b8:	04042623          	sw	zero,76(s0)
    a0bc:	04042823          	sw	zero,80(s0)
    a0c0:	00879663          	bne	a5,s0,a0cc <__sinit+0x58>
    a0c4:	00100793          	li	a5,1
    a0c8:	00f42c23          	sw	a5,24(s0)
    a0cc:	00040513          	mv	a0,s0
    a0d0:	05c000ef          	jal	ra,a12c <__sfp>
    a0d4:	00a42223          	sw	a0,4(s0)
    a0d8:	00040513          	mv	a0,s0
    a0dc:	050000ef          	jal	ra,a12c <__sfp>
    a0e0:	00a42423          	sw	a0,8(s0)
    a0e4:	00040513          	mv	a0,s0
    a0e8:	044000ef          	jal	ra,a12c <__sfp>
    a0ec:	00a42623          	sw	a0,12(s0)
    a0f0:	00442503          	lw	a0,4(s0)
    a0f4:	00000613          	li	a2,0
    a0f8:	00400593          	li	a1,4
    a0fc:	e49ff0ef          	jal	ra,9f44 <std>
    a100:	00842503          	lw	a0,8(s0)
    a104:	00100613          	li	a2,1
    a108:	00900593          	li	a1,9
    a10c:	e39ff0ef          	jal	ra,9f44 <std>
    a110:	00c42503          	lw	a0,12(s0)
    a114:	00200613          	li	a2,2
    a118:	01200593          	li	a1,18
    a11c:	e29ff0ef          	jal	ra,9f44 <std>
    a120:	00100793          	li	a5,1
    a124:	00f42c23          	sw	a5,24(s0)
    a128:	f69ff06f          	j	a090 <__sinit+0x1c>

0000a12c <__sfp>:
    a12c:	ff010113          	addi	sp,sp,-16
    a130:	00912223          	sw	s1,4(sp)
    a134:	01212023          	sw	s2,0(sp)
    a138:	00112623          	sw	ra,12(sp)
    a13c:	00812423          	sw	s0,8(sp)
    a140:	00050913          	mv	s2,a0
    a144:	f01ff0ef          	jal	ra,a044 <__sfp_lock_acquire>
    a148:	0000c7b7          	lui	a5,0xc
    a14c:	2847a483          	lw	s1,644(a5) # c284 <_global_impure_ptr>
    a150:	0184a783          	lw	a5,24(s1)
    a154:	00079663          	bnez	a5,a160 <__sfp+0x34>
    a158:	00048513          	mv	a0,s1
    a15c:	f19ff0ef          	jal	ra,a074 <__sinit>
    a160:	04848493          	addi	s1,s1,72
    a164:	0084a403          	lw	s0,8(s1)
    a168:	0044a783          	lw	a5,4(s1)
    a16c:	fff78793          	addi	a5,a5,-1
    a170:	0007da63          	bgez	a5,a184 <__sfp+0x58>
    a174:	0004a783          	lw	a5,0(s1)
    a178:	08078663          	beqz	a5,a204 <__sfp+0xd8>
    a17c:	0004a483          	lw	s1,0(s1)
    a180:	fe5ff06f          	j	a164 <__sfp+0x38>
    a184:	00c41703          	lh	a4,12(s0)
    a188:	06071a63          	bnez	a4,a1fc <__sfp+0xd0>
    a18c:	ffff07b7          	lui	a5,0xffff0
    a190:	00178793          	addi	a5,a5,1 # ffff0001 <CONFIG_SYSTEM_WORKQUEUE_PRIORITY+0xffff0002>
    a194:	00f42623          	sw	a5,12(s0)
    a198:	05840513          	addi	a0,s0,88
    a19c:	06042223          	sw	zero,100(s0)
    a1a0:	c54fb0ef          	jal	ra,55f4 <__retarget_lock_init_recursive>
    a1a4:	eadff0ef          	jal	ra,a050 <__sfp_lock_release>
    a1a8:	00800613          	li	a2,8
    a1ac:	00042023          	sw	zero,0(s0)
    a1b0:	00042423          	sw	zero,8(s0)
    a1b4:	00042223          	sw	zero,4(s0)
    a1b8:	00042823          	sw	zero,16(s0)
    a1bc:	00042a23          	sw	zero,20(s0)
    a1c0:	00042c23          	sw	zero,24(s0)
    a1c4:	00000593          	li	a1,0
    a1c8:	05c40513          	addi	a0,s0,92
    a1cc:	d75f80ef          	jal	ra,2f40 <memset>
    a1d0:	02042a23          	sw	zero,52(s0)
    a1d4:	02042c23          	sw	zero,56(s0)
    a1d8:	04042423          	sw	zero,72(s0)
    a1dc:	04042623          	sw	zero,76(s0)
    a1e0:	00c12083          	lw	ra,12(sp)
    a1e4:	00040513          	mv	a0,s0
    a1e8:	00812403          	lw	s0,8(sp)
    a1ec:	00412483          	lw	s1,4(sp)
    a1f0:	00012903          	lw	s2,0(sp)
    a1f4:	01010113          	addi	sp,sp,16
    a1f8:	00008067          	ret
    a1fc:	06840413          	addi	s0,s0,104
    a200:	f6dff06f          	j	a16c <__sfp+0x40>
    a204:	00400593          	li	a1,4
    a208:	00090513          	mv	a0,s2
    a20c:	dcdff0ef          	jal	ra,9fd8 <__sfmoreglue>
    a210:	00a4a023          	sw	a0,0(s1)
    a214:	00050413          	mv	s0,a0
    a218:	f60512e3          	bnez	a0,a17c <__sfp+0x50>
    a21c:	e35ff0ef          	jal	ra,a050 <__sfp_lock_release>
    a220:	00c00793          	li	a5,12
    a224:	00f92023          	sw	a5,0(s2)
    a228:	fb9ff06f          	j	a1e0 <__sfp+0xb4>

0000a22c <_fwalk_reent>:
    a22c:	fd010113          	addi	sp,sp,-48
    a230:	02812423          	sw	s0,40(sp)
    a234:	03212023          	sw	s2,32(sp)
    a238:	01312e23          	sw	s3,28(sp)
    a23c:	01412c23          	sw	s4,24(sp)
    a240:	01612823          	sw	s6,16(sp)
    a244:	01712623          	sw	s7,12(sp)
    a248:	02112623          	sw	ra,44(sp)
    a24c:	02912223          	sw	s1,36(sp)
    a250:	01512a23          	sw	s5,20(sp)
    a254:	00050913          	mv	s2,a0
    a258:	00058a13          	mv	s4,a1
    a25c:	04850413          	addi	s0,a0,72
    a260:	00000993          	li	s3,0
    a264:	00100b13          	li	s6,1
    a268:	fff00b93          	li	s7,-1
    a26c:	00842483          	lw	s1,8(s0)
    a270:	00442a83          	lw	s5,4(s0)
    a274:	fffa8a93          	addi	s5,s5,-1
    a278:	020ade63          	bgez	s5,a2b4 <_fwalk_reent+0x88>
    a27c:	00042403          	lw	s0,0(s0)
    a280:	fe0416e3          	bnez	s0,a26c <_fwalk_reent+0x40>
    a284:	02c12083          	lw	ra,44(sp)
    a288:	02812403          	lw	s0,40(sp)
    a28c:	02412483          	lw	s1,36(sp)
    a290:	02012903          	lw	s2,32(sp)
    a294:	01812a03          	lw	s4,24(sp)
    a298:	01412a83          	lw	s5,20(sp)
    a29c:	01012b03          	lw	s6,16(sp)
    a2a0:	00c12b83          	lw	s7,12(sp)
    a2a4:	00098513          	mv	a0,s3
    a2a8:	01c12983          	lw	s3,28(sp)
    a2ac:	03010113          	addi	sp,sp,48
    a2b0:	00008067          	ret
    a2b4:	00c4d783          	lhu	a5,12(s1)
    a2b8:	00fb7e63          	bgeu	s6,a5,a2d4 <_fwalk_reent+0xa8>
    a2bc:	00e49783          	lh	a5,14(s1)
    a2c0:	01778a63          	beq	a5,s7,a2d4 <_fwalk_reent+0xa8>
    a2c4:	00048593          	mv	a1,s1
    a2c8:	00090513          	mv	a0,s2
    a2cc:	000a00e7          	jalr	s4
    a2d0:	00a9e9b3          	or	s3,s3,a0
    a2d4:	06848493          	addi	s1,s1,104
    a2d8:	f9dff06f          	j	a274 <_fwalk_reent+0x48>

0000a2dc <_localeconv_r>:
    a2dc:	0000e537          	lui	a0,0xe
    a2e0:	67050513          	addi	a0,a0,1648 # e670 <__global_locale+0xf0>
    a2e4:	00008067          	ret

0000a2e8 <memchr>:
    a2e8:	0ff5f593          	andi	a1,a1,255
    a2ec:	00c50633          	add	a2,a0,a2
    a2f0:	00c51663          	bne	a0,a2,a2fc <memchr+0x14>
    a2f4:	00000513          	li	a0,0
    a2f8:	00008067          	ret
    a2fc:	00054783          	lbu	a5,0(a0)
    a300:	feb78ce3          	beq	a5,a1,a2f8 <memchr+0x10>
    a304:	00150513          	addi	a0,a0,1
    a308:	fe9ff06f          	j	a2f0 <memchr+0x8>

0000a30c <__malloc_lock>:
    a30c:	0000f537          	lui	a0,0xf
    a310:	93450513          	addi	a0,a0,-1740 # e934 <__lock___malloc_recursive_mutex>
    a314:	b0cfb06f          	j	5620 <__retarget_lock_acquire_recursive>

0000a318 <__malloc_unlock>:
    a318:	0000f537          	lui	a0,0xf
    a31c:	93450513          	addi	a0,a0,-1740 # e934 <__lock___malloc_recursive_mutex>
    a320:	b0cfb06f          	j	562c <__retarget_lock_release_recursive>

0000a324 <_Balloc>:
    a324:	02452783          	lw	a5,36(a0)
    a328:	ff010113          	addi	sp,sp,-16
    a32c:	00812423          	sw	s0,8(sp)
    a330:	00912223          	sw	s1,4(sp)
    a334:	00112623          	sw	ra,12(sp)
    a338:	01212023          	sw	s2,0(sp)
    a33c:	00050413          	mv	s0,a0
    a340:	00058493          	mv	s1,a1
    a344:	04079063          	bnez	a5,a384 <_Balloc+0x60>
    a348:	01000513          	li	a0,16
    a34c:	db8fd0ef          	jal	ra,7904 <malloc>
    a350:	02a42223          	sw	a0,36(s0)
    a354:	02051063          	bnez	a0,a374 <_Balloc+0x50>
    a358:	0000d6b7          	lui	a3,0xd
    a35c:	0000d537          	lui	a0,0xd
    a360:	a1c68693          	addi	a3,a3,-1508 # ca1c <_ctype_+0x1a4>
    a364:	00000613          	li	a2,0
    a368:	06600593          	li	a1,102
    a36c:	b0c50513          	addi	a0,a0,-1268 # cb0c <__sf_fake_stdout+0x20>
    a370:	5bc010ef          	jal	ra,b92c <__assert_func>
    a374:	00052223          	sw	zero,4(a0)
    a378:	00052423          	sw	zero,8(a0)
    a37c:	00052023          	sw	zero,0(a0)
    a380:	00052623          	sw	zero,12(a0)
    a384:	02442903          	lw	s2,36(s0)
    a388:	00c92783          	lw	a5,12(s2)
    a38c:	04078463          	beqz	a5,a3d4 <_Balloc+0xb0>
    a390:	02442703          	lw	a4,36(s0)
    a394:	00249793          	slli	a5,s1,0x2
    a398:	00c72703          	lw	a4,12(a4)
    a39c:	00f707b3          	add	a5,a4,a5
    a3a0:	0007a503          	lw	a0,0(a5)
    a3a4:	06051663          	bnez	a0,a410 <_Balloc+0xec>
    a3a8:	00100913          	li	s2,1
    a3ac:	00991933          	sll	s2,s2,s1
    a3b0:	00590613          	addi	a2,s2,5
    a3b4:	00261613          	slli	a2,a2,0x2
    a3b8:	00100593          	li	a1,1
    a3bc:	00040513          	mv	a0,s0
    a3c0:	40d000ef          	jal	ra,afcc <_calloc_r>
    a3c4:	02050863          	beqz	a0,a3f4 <_Balloc+0xd0>
    a3c8:	00952223          	sw	s1,4(a0)
    a3cc:	01252423          	sw	s2,8(a0)
    a3d0:	0480006f          	j	a418 <_Balloc+0xf4>
    a3d4:	02100613          	li	a2,33
    a3d8:	00400593          	li	a1,4
    a3dc:	00040513          	mv	a0,s0
    a3e0:	3ed000ef          	jal	ra,afcc <_calloc_r>
    a3e4:	02442783          	lw	a5,36(s0)
    a3e8:	00a92623          	sw	a0,12(s2)
    a3ec:	00c7a783          	lw	a5,12(a5)
    a3f0:	fa0790e3          	bnez	a5,a390 <_Balloc+0x6c>
    a3f4:	00000513          	li	a0,0
    a3f8:	00c12083          	lw	ra,12(sp)
    a3fc:	00812403          	lw	s0,8(sp)
    a400:	00412483          	lw	s1,4(sp)
    a404:	00012903          	lw	s2,0(sp)
    a408:	01010113          	addi	sp,sp,16
    a40c:	00008067          	ret
    a410:	00052703          	lw	a4,0(a0)
    a414:	00e7a023          	sw	a4,0(a5)
    a418:	00052823          	sw	zero,16(a0)
    a41c:	00052623          	sw	zero,12(a0)
    a420:	fd9ff06f          	j	a3f8 <_Balloc+0xd4>

0000a424 <_Bfree>:
    a424:	02452783          	lw	a5,36(a0)
    a428:	ff010113          	addi	sp,sp,-16
    a42c:	00812423          	sw	s0,8(sp)
    a430:	00912223          	sw	s1,4(sp)
    a434:	00112623          	sw	ra,12(sp)
    a438:	00050493          	mv	s1,a0
    a43c:	00058413          	mv	s0,a1
    a440:	04079063          	bnez	a5,a480 <_Bfree+0x5c>
    a444:	01000513          	li	a0,16
    a448:	cbcfd0ef          	jal	ra,7904 <malloc>
    a44c:	02a4a223          	sw	a0,36(s1)
    a450:	02051063          	bnez	a0,a470 <_Bfree+0x4c>
    a454:	0000d6b7          	lui	a3,0xd
    a458:	0000d537          	lui	a0,0xd
    a45c:	a1c68693          	addi	a3,a3,-1508 # ca1c <_ctype_+0x1a4>
    a460:	00000613          	li	a2,0
    a464:	08a00593          	li	a1,138
    a468:	b0c50513          	addi	a0,a0,-1268 # cb0c <__sf_fake_stdout+0x20>
    a46c:	4c0010ef          	jal	ra,b92c <__assert_func>
    a470:	00052223          	sw	zero,4(a0)
    a474:	00052423          	sw	zero,8(a0)
    a478:	00052023          	sw	zero,0(a0)
    a47c:	00052623          	sw	zero,12(a0)
    a480:	02040263          	beqz	s0,a4a4 <_Bfree+0x80>
    a484:	0244a683          	lw	a3,36(s1)
    a488:	00442783          	lw	a5,4(s0)
    a48c:	00279713          	slli	a4,a5,0x2
    a490:	00c6a783          	lw	a5,12(a3)
    a494:	00e787b3          	add	a5,a5,a4
    a498:	0007a703          	lw	a4,0(a5)
    a49c:	00e42023          	sw	a4,0(s0)
    a4a0:	0087a023          	sw	s0,0(a5)
    a4a4:	00c12083          	lw	ra,12(sp)
    a4a8:	00812403          	lw	s0,8(sp)
    a4ac:	00412483          	lw	s1,4(sp)
    a4b0:	01010113          	addi	sp,sp,16
    a4b4:	00008067          	ret

0000a4b8 <__multadd>:
    a4b8:	fe010113          	addi	sp,sp,-32
    a4bc:	00812c23          	sw	s0,24(sp)
    a4c0:	01212823          	sw	s2,16(sp)
    a4c4:	01312623          	sw	s3,12(sp)
    a4c8:	0105a903          	lw	s2,16(a1)
    a4cc:	00058413          	mv	s0,a1
    a4d0:	00068993          	mv	s3,a3
    a4d4:	01458693          	addi	a3,a1,20
    a4d8:	000105b7          	lui	a1,0x10
    a4dc:	00912a23          	sw	s1,20(sp)
    a4e0:	00112e23          	sw	ra,28(sp)
    a4e4:	00050493          	mv	s1,a0
    a4e8:	01412423          	sw	s4,8(sp)
    a4ec:	00000513          	li	a0,0
    a4f0:	fff58593          	addi	a1,a1,-1 # ffff <__data_region_end+0x165f>
    a4f4:	0006a783          	lw	a5,0(a3)
    a4f8:	00468693          	addi	a3,a3,4
    a4fc:	00150513          	addi	a0,a0,1
    a500:	00b7f733          	and	a4,a5,a1
    a504:	02c70733          	mul	a4,a4,a2
    a508:	0107d793          	srli	a5,a5,0x10
    a50c:	02c787b3          	mul	a5,a5,a2
    a510:	01370733          	add	a4,a4,s3
    a514:	01075813          	srli	a6,a4,0x10
    a518:	00b77733          	and	a4,a4,a1
    a51c:	010787b3          	add	a5,a5,a6
    a520:	0107d993          	srli	s3,a5,0x10
    a524:	01079793          	slli	a5,a5,0x10
    a528:	00e787b3          	add	a5,a5,a4
    a52c:	fef6ae23          	sw	a5,-4(a3)
    a530:	fd2542e3          	blt	a0,s2,a4f4 <__multadd+0x3c>
    a534:	08098063          	beqz	s3,a5b4 <__multadd+0xfc>
    a538:	00842783          	lw	a5,8(s0)
    a53c:	06f94063          	blt	s2,a5,a59c <__multadd+0xe4>
    a540:	00442583          	lw	a1,4(s0)
    a544:	00048513          	mv	a0,s1
    a548:	00158593          	addi	a1,a1,1
    a54c:	dd9ff0ef          	jal	ra,a324 <_Balloc>
    a550:	00050a13          	mv	s4,a0
    a554:	02051063          	bnez	a0,a574 <__multadd+0xbc>
    a558:	0000d6b7          	lui	a3,0xd
    a55c:	0000d537          	lui	a0,0xd
    a560:	a9868693          	addi	a3,a3,-1384 # ca98 <_ctype_+0x220>
    a564:	00000613          	li	a2,0
    a568:	0b500593          	li	a1,181
    a56c:	b0c50513          	addi	a0,a0,-1268 # cb0c <__sf_fake_stdout+0x20>
    a570:	3bc010ef          	jal	ra,b92c <__assert_func>
    a574:	01042603          	lw	a2,16(s0)
    a578:	00c40593          	addi	a1,s0,12
    a57c:	00c50513          	addi	a0,a0,12
    a580:	00260613          	addi	a2,a2,2
    a584:	00261613          	slli	a2,a2,0x2
    a588:	995f80ef          	jal	ra,2f1c <memcpy>
    a58c:	00040593          	mv	a1,s0
    a590:	00048513          	mv	a0,s1
    a594:	e91ff0ef          	jal	ra,a424 <_Bfree>
    a598:	000a0413          	mv	s0,s4
    a59c:	00490793          	addi	a5,s2,4
    a5a0:	00279793          	slli	a5,a5,0x2
    a5a4:	00f407b3          	add	a5,s0,a5
    a5a8:	0137a223          	sw	s3,4(a5)
    a5ac:	00190913          	addi	s2,s2,1
    a5b0:	01242823          	sw	s2,16(s0)
    a5b4:	01c12083          	lw	ra,28(sp)
    a5b8:	00040513          	mv	a0,s0
    a5bc:	01812403          	lw	s0,24(sp)
    a5c0:	01412483          	lw	s1,20(sp)
    a5c4:	01012903          	lw	s2,16(sp)
    a5c8:	00c12983          	lw	s3,12(sp)
    a5cc:	00812a03          	lw	s4,8(sp)
    a5d0:	02010113          	addi	sp,sp,32
    a5d4:	00008067          	ret

0000a5d8 <__hi0bits>:
    a5d8:	ffff0737          	lui	a4,0xffff0
    a5dc:	00e57733          	and	a4,a0,a4
    a5e0:	00050793          	mv	a5,a0
    a5e4:	00000513          	li	a0,0
    a5e8:	00071663          	bnez	a4,a5f4 <__hi0bits+0x1c>
    a5ec:	01079793          	slli	a5,a5,0x10
    a5f0:	01000513          	li	a0,16
    a5f4:	ff000737          	lui	a4,0xff000
    a5f8:	00e7f733          	and	a4,a5,a4
    a5fc:	00071663          	bnez	a4,a608 <__hi0bits+0x30>
    a600:	00850513          	addi	a0,a0,8
    a604:	00879793          	slli	a5,a5,0x8
    a608:	f0000737          	lui	a4,0xf0000
    a60c:	00e7f733          	and	a4,a5,a4
    a610:	00071663          	bnez	a4,a61c <__hi0bits+0x44>
    a614:	00450513          	addi	a0,a0,4
    a618:	00479793          	slli	a5,a5,0x4
    a61c:	c0000737          	lui	a4,0xc0000
    a620:	00e7f733          	and	a4,a5,a4
    a624:	00071663          	bnez	a4,a630 <__hi0bits+0x58>
    a628:	00250513          	addi	a0,a0,2
    a62c:	00279793          	slli	a5,a5,0x2
    a630:	0007cc63          	bltz	a5,a648 <__hi0bits+0x70>
    a634:	40000737          	lui	a4,0x40000
    a638:	00e7f7b3          	and	a5,a5,a4
    a63c:	00150513          	addi	a0,a0,1
    a640:	00079463          	bnez	a5,a648 <__hi0bits+0x70>
    a644:	02000513          	li	a0,32
    a648:	00008067          	ret

0000a64c <__lo0bits>:
    a64c:	00052783          	lw	a5,0(a0)
    a650:	00050713          	mv	a4,a0
    a654:	0077f693          	andi	a3,a5,7
    a658:	02068c63          	beqz	a3,a690 <__lo0bits+0x44>
    a65c:	0017f693          	andi	a3,a5,1
    a660:	00000513          	li	a0,0
    a664:	08069a63          	bnez	a3,a6f8 <__lo0bits+0xac>
    a668:	0027f693          	andi	a3,a5,2
    a66c:	00068a63          	beqz	a3,a680 <__lo0bits+0x34>
    a670:	0017d793          	srli	a5,a5,0x1
    a674:	00f72023          	sw	a5,0(a4) # 40000000 <CONFIG_SYS_CLOCK_HW_CYCLES_PER_SEC+0x3d050f80>
    a678:	00100513          	li	a0,1
    a67c:	00008067          	ret
    a680:	0027d793          	srli	a5,a5,0x2
    a684:	00f72023          	sw	a5,0(a4)
    a688:	00200513          	li	a0,2
    a68c:	00008067          	ret
    a690:	01079693          	slli	a3,a5,0x10
    a694:	0106d693          	srli	a3,a3,0x10
    a698:	00000513          	li	a0,0
    a69c:	00069663          	bnez	a3,a6a8 <__lo0bits+0x5c>
    a6a0:	0107d793          	srli	a5,a5,0x10
    a6a4:	01000513          	li	a0,16
    a6a8:	0ff7f693          	andi	a3,a5,255
    a6ac:	00069663          	bnez	a3,a6b8 <__lo0bits+0x6c>
    a6b0:	00850513          	addi	a0,a0,8
    a6b4:	0087d793          	srli	a5,a5,0x8
    a6b8:	00f7f693          	andi	a3,a5,15
    a6bc:	00069663          	bnez	a3,a6c8 <__lo0bits+0x7c>
    a6c0:	00450513          	addi	a0,a0,4
    a6c4:	0047d793          	srli	a5,a5,0x4
    a6c8:	0037f693          	andi	a3,a5,3
    a6cc:	00069663          	bnez	a3,a6d8 <__lo0bits+0x8c>
    a6d0:	00250513          	addi	a0,a0,2
    a6d4:	0027d793          	srli	a5,a5,0x2
    a6d8:	0017f693          	andi	a3,a5,1
    a6dc:	00069863          	bnez	a3,a6ec <__lo0bits+0xa0>
    a6e0:	0017d793          	srli	a5,a5,0x1
    a6e4:	00150513          	addi	a0,a0,1
    a6e8:	00078663          	beqz	a5,a6f4 <__lo0bits+0xa8>
    a6ec:	00f72023          	sw	a5,0(a4)
    a6f0:	00008067          	ret
    a6f4:	02000513          	li	a0,32
    a6f8:	00008067          	ret

0000a6fc <__i2b>:
    a6fc:	ff010113          	addi	sp,sp,-16
    a700:	00812423          	sw	s0,8(sp)
    a704:	00058413          	mv	s0,a1
    a708:	00100593          	li	a1,1
    a70c:	00112623          	sw	ra,12(sp)
    a710:	c15ff0ef          	jal	ra,a324 <_Balloc>
    a714:	02051063          	bnez	a0,a734 <__i2b+0x38>
    a718:	0000d6b7          	lui	a3,0xd
    a71c:	0000d537          	lui	a0,0xd
    a720:	a9868693          	addi	a3,a3,-1384 # ca98 <_ctype_+0x220>
    a724:	00000613          	li	a2,0
    a728:	14000593          	li	a1,320
    a72c:	b0c50513          	addi	a0,a0,-1268 # cb0c <__sf_fake_stdout+0x20>
    a730:	1fc010ef          	jal	ra,b92c <__assert_func>
    a734:	00c12083          	lw	ra,12(sp)
    a738:	00852a23          	sw	s0,20(a0)
    a73c:	00812403          	lw	s0,8(sp)
    a740:	00100713          	li	a4,1
    a744:	00e52823          	sw	a4,16(a0)
    a748:	01010113          	addi	sp,sp,16
    a74c:	00008067          	ret

0000a750 <__multiply>:
    a750:	0105a703          	lw	a4,16(a1)
    a754:	01062783          	lw	a5,16(a2)
    a758:	fe010113          	addi	sp,sp,-32
    a75c:	00812c23          	sw	s0,24(sp)
    a760:	01212823          	sw	s2,16(sp)
    a764:	00112e23          	sw	ra,28(sp)
    a768:	00912a23          	sw	s1,20(sp)
    a76c:	01312623          	sw	s3,12(sp)
    a770:	01412423          	sw	s4,8(sp)
    a774:	00058413          	mv	s0,a1
    a778:	00060913          	mv	s2,a2
    a77c:	00f75663          	bge	a4,a5,a788 <__multiply+0x38>
    a780:	00060413          	mv	s0,a2
    a784:	00058913          	mv	s2,a1
    a788:	01042a03          	lw	s4,16(s0)
    a78c:	01092983          	lw	s3,16(s2)
    a790:	00842783          	lw	a5,8(s0)
    a794:	00442583          	lw	a1,4(s0)
    a798:	013a04b3          	add	s1,s4,s3
    a79c:	0097d463          	bge	a5,s1,a7a4 <__multiply+0x54>
    a7a0:	00158593          	addi	a1,a1,1
    a7a4:	b81ff0ef          	jal	ra,a324 <_Balloc>
    a7a8:	02051063          	bnez	a0,a7c8 <__multiply+0x78>
    a7ac:	0000d6b7          	lui	a3,0xd
    a7b0:	0000d537          	lui	a0,0xd
    a7b4:	a9868693          	addi	a3,a3,-1384 # ca98 <_ctype_+0x220>
    a7b8:	00000613          	li	a2,0
    a7bc:	15d00593          	li	a1,349
    a7c0:	b0c50513          	addi	a0,a0,-1268 # cb0c <__sf_fake_stdout+0x20>
    a7c4:	168010ef          	jal	ra,b92c <__assert_func>
    a7c8:	01450693          	addi	a3,a0,20
    a7cc:	00249813          	slli	a6,s1,0x2
    a7d0:	01068833          	add	a6,a3,a6
    a7d4:	00068793          	mv	a5,a3
    a7d8:	0707ec63          	bltu	a5,a6,a850 <__multiply+0x100>
    a7dc:	01440313          	addi	t1,s0,20
    a7e0:	002a1593          	slli	a1,s4,0x2
    a7e4:	01490613          	addi	a2,s2,20
    a7e8:	00299893          	slli	a7,s3,0x2
    a7ec:	00b305b3          	add	a1,t1,a1
    a7f0:	01540793          	addi	a5,s0,21
    a7f4:	011608b3          	add	a7,a2,a7
    a7f8:	00400e13          	li	t3,4
    a7fc:	00f5ea63          	bltu	a1,a5,a810 <__multiply+0xc0>
    a800:	40858433          	sub	s0,a1,s0
    a804:	feb40413          	addi	s0,s0,-21
    a808:	ffc47413          	andi	s0,s0,-4
    a80c:	00440e13          	addi	t3,s0,4
    a810:	00010eb7          	lui	t4,0x10
    a814:	fffe8e93          	addi	t4,t4,-1 # ffff <__data_region_end+0x165f>
    a818:	05166263          	bltu	a2,a7,a85c <__multiply+0x10c>
    a81c:	00905863          	blez	s1,a82c <__multiply+0xdc>
    a820:	ffc82783          	lw	a5,-4(a6)
    a824:	ffc80813          	addi	a6,a6,-4
    a828:	12078463          	beqz	a5,a950 <__multiply+0x200>
    a82c:	01c12083          	lw	ra,28(sp)
    a830:	01812403          	lw	s0,24(sp)
    a834:	00952823          	sw	s1,16(a0)
    a838:	01012903          	lw	s2,16(sp)
    a83c:	01412483          	lw	s1,20(sp)
    a840:	00c12983          	lw	s3,12(sp)
    a844:	00812a03          	lw	s4,8(sp)
    a848:	02010113          	addi	sp,sp,32
    a84c:	00008067          	ret
    a850:	0007a023          	sw	zero,0(a5)
    a854:	00478793          	addi	a5,a5,4
    a858:	f81ff06f          	j	a7d8 <__multiply+0x88>
    a85c:	00062f83          	lw	t6,0(a2)
    a860:	01dfffb3          	and	t6,t6,t4
    a864:	060f8663          	beqz	t6,a8d0 <__multiply+0x180>
    a868:	00068393          	mv	t2,a3
    a86c:	00030293          	mv	t0,t1
    a870:	00000913          	li	s2,0
    a874:	0002a703          	lw	a4,0(t0)
    a878:	0003a403          	lw	s0,0(t2)
    a87c:	00438393          	addi	t2,t2,4
    a880:	01d77f33          	and	t5,a4,t4
    a884:	03ff0f33          	mul	t5,t5,t6
    a888:	01d477b3          	and	a5,s0,t4
    a88c:	01045413          	srli	s0,s0,0x10
    a890:	00428293          	addi	t0,t0,4
    a894:	00ff0f33          	add	t5,t5,a5
    a898:	01075793          	srli	a5,a4,0x10
    a89c:	03f787b3          	mul	a5,a5,t6
    a8a0:	012f0f33          	add	t5,t5,s2
    a8a4:	010f5713          	srli	a4,t5,0x10
    a8a8:	01df7f33          	and	t5,t5,t4
    a8ac:	008787b3          	add	a5,a5,s0
    a8b0:	00e787b3          	add	a5,a5,a4
    a8b4:	0107d913          	srli	s2,a5,0x10
    a8b8:	01079793          	slli	a5,a5,0x10
    a8bc:	01e7e7b3          	or	a5,a5,t5
    a8c0:	fef3ae23          	sw	a5,-4(t2)
    a8c4:	fab2e8e3          	bltu	t0,a1,a874 <__multiply+0x124>
    a8c8:	01c687b3          	add	a5,a3,t3
    a8cc:	0127a023          	sw	s2,0(a5)
    a8d0:	00265383          	lhu	t2,2(a2)
    a8d4:	06038863          	beqz	t2,a944 <__multiply+0x1f4>
    a8d8:	0006a783          	lw	a5,0(a3)
    a8dc:	00068f93          	mv	t6,a3
    a8e0:	00030f13          	mv	t5,t1
    a8e4:	00000293          	li	t0,0
    a8e8:	000f2703          	lw	a4,0(t5)
    a8ec:	002fd403          	lhu	s0,2(t6)
    a8f0:	01d7f7b3          	and	a5,a5,t4
    a8f4:	01d77733          	and	a4,a4,t4
    a8f8:	02770733          	mul	a4,a4,t2
    a8fc:	004f8f93          	addi	t6,t6,4
    a900:	004f0f13          	addi	t5,t5,4
    a904:	00870733          	add	a4,a4,s0
    a908:	00570733          	add	a4,a4,t0
    a90c:	01071293          	slli	t0,a4,0x10
    a910:	00f2e7b3          	or	a5,t0,a5
    a914:	feffae23          	sw	a5,-4(t6)
    a918:	ffef5783          	lhu	a5,-2(t5)
    a91c:	000fa283          	lw	t0,0(t6)
    a920:	01075713          	srli	a4,a4,0x10
    a924:	027787b3          	mul	a5,a5,t2
    a928:	01d2f2b3          	and	t0,t0,t4
    a92c:	005787b3          	add	a5,a5,t0
    a930:	00e787b3          	add	a5,a5,a4
    a934:	0107d293          	srli	t0,a5,0x10
    a938:	fabf68e3          	bltu	t5,a1,a8e8 <__multiply+0x198>
    a93c:	01c68733          	add	a4,a3,t3
    a940:	00f72023          	sw	a5,0(a4)
    a944:	00460613          	addi	a2,a2,4
    a948:	00468693          	addi	a3,a3,4
    a94c:	ecdff06f          	j	a818 <__multiply+0xc8>
    a950:	fff48493          	addi	s1,s1,-1
    a954:	ec9ff06f          	j	a81c <__multiply+0xcc>

0000a958 <__pow5mult>:
    a958:	fe010113          	addi	sp,sp,-32
    a95c:	00912a23          	sw	s1,20(sp)
    a960:	01212823          	sw	s2,16(sp)
    a964:	01312623          	sw	s3,12(sp)
    a968:	00112e23          	sw	ra,28(sp)
    a96c:	00812c23          	sw	s0,24(sp)
    a970:	01412423          	sw	s4,8(sp)
    a974:	00367793          	andi	a5,a2,3
    a978:	00050913          	mv	s2,a0
    a97c:	00060493          	mv	s1,a2
    a980:	00058993          	mv	s3,a1
    a984:	02078463          	beqz	a5,a9ac <__pow5mult+0x54>
    a988:	fff78793          	addi	a5,a5,-1
    a98c:	0000d737          	lui	a4,0xd
    a990:	b7070713          	addi	a4,a4,-1168 # cb70 <p05.0>
    a994:	00279793          	slli	a5,a5,0x2
    a998:	00f707b3          	add	a5,a4,a5
    a99c:	0007a603          	lw	a2,0(a5)
    a9a0:	00000693          	li	a3,0
    a9a4:	b15ff0ef          	jal	ra,a4b8 <__multadd>
    a9a8:	00050993          	mv	s3,a0
    a9ac:	4024d493          	srai	s1,s1,0x2
    a9b0:	0c048463          	beqz	s1,aa78 <__pow5mult+0x120>
    a9b4:	02492783          	lw	a5,36(s2)
    a9b8:	04079063          	bnez	a5,a9f8 <__pow5mult+0xa0>
    a9bc:	01000513          	li	a0,16
    a9c0:	f45fc0ef          	jal	ra,7904 <malloc>
    a9c4:	02a92223          	sw	a0,36(s2)
    a9c8:	02051063          	bnez	a0,a9e8 <__pow5mult+0x90>
    a9cc:	0000d6b7          	lui	a3,0xd
    a9d0:	0000d537          	lui	a0,0xd
    a9d4:	a1c68693          	addi	a3,a3,-1508 # ca1c <_ctype_+0x1a4>
    a9d8:	00000613          	li	a2,0
    a9dc:	1ae00593          	li	a1,430
    a9e0:	b0c50513          	addi	a0,a0,-1268 # cb0c <__sf_fake_stdout+0x20>
    a9e4:	749000ef          	jal	ra,b92c <__assert_func>
    a9e8:	00052223          	sw	zero,4(a0)
    a9ec:	00052423          	sw	zero,8(a0)
    a9f0:	00052023          	sw	zero,0(a0)
    a9f4:	00052623          	sw	zero,12(a0)
    a9f8:	02492a03          	lw	s4,36(s2)
    a9fc:	008a2403          	lw	s0,8(s4)
    aa00:	00041e63          	bnez	s0,aa1c <__pow5mult+0xc4>
    aa04:	27100593          	li	a1,625
    aa08:	00090513          	mv	a0,s2
    aa0c:	cf1ff0ef          	jal	ra,a6fc <__i2b>
    aa10:	00aa2423          	sw	a0,8(s4)
    aa14:	00050413          	mv	s0,a0
    aa18:	00052023          	sw	zero,0(a0)
    aa1c:	0014f793          	andi	a5,s1,1
    aa20:	02078463          	beqz	a5,aa48 <__pow5mult+0xf0>
    aa24:	00098593          	mv	a1,s3
    aa28:	00040613          	mv	a2,s0
    aa2c:	00090513          	mv	a0,s2
    aa30:	d21ff0ef          	jal	ra,a750 <__multiply>
    aa34:	00050a13          	mv	s4,a0
    aa38:	00098593          	mv	a1,s3
    aa3c:	00090513          	mv	a0,s2
    aa40:	9e5ff0ef          	jal	ra,a424 <_Bfree>
    aa44:	000a0993          	mv	s3,s4
    aa48:	4014d493          	srai	s1,s1,0x1
    aa4c:	02048663          	beqz	s1,aa78 <__pow5mult+0x120>
    aa50:	00042503          	lw	a0,0(s0)
    aa54:	00051e63          	bnez	a0,aa70 <__pow5mult+0x118>
    aa58:	00040613          	mv	a2,s0
    aa5c:	00040593          	mv	a1,s0
    aa60:	00090513          	mv	a0,s2
    aa64:	cedff0ef          	jal	ra,a750 <__multiply>
    aa68:	00a42023          	sw	a0,0(s0)
    aa6c:	00052023          	sw	zero,0(a0)
    aa70:	00050413          	mv	s0,a0
    aa74:	fa9ff06f          	j	aa1c <__pow5mult+0xc4>
    aa78:	01c12083          	lw	ra,28(sp)
    aa7c:	01812403          	lw	s0,24(sp)
    aa80:	01412483          	lw	s1,20(sp)
    aa84:	01012903          	lw	s2,16(sp)
    aa88:	00812a03          	lw	s4,8(sp)
    aa8c:	00098513          	mv	a0,s3
    aa90:	00c12983          	lw	s3,12(sp)
    aa94:	02010113          	addi	sp,sp,32
    aa98:	00008067          	ret

0000aa9c <__lshift>:
    aa9c:	fe010113          	addi	sp,sp,-32
    aaa0:	00812c23          	sw	s0,24(sp)
    aaa4:	00058413          	mv	s0,a1
    aaa8:	01612023          	sw	s6,0(sp)
    aaac:	01042b03          	lw	s6,16(s0)
    aab0:	00912a23          	sw	s1,20(sp)
    aab4:	0045a583          	lw	a1,4(a1)
    aab8:	40565493          	srai	s1,a2,0x5
    aabc:	00842783          	lw	a5,8(s0)
    aac0:	01648b33          	add	s6,s1,s6
    aac4:	01212823          	sw	s2,16(sp)
    aac8:	01412423          	sw	s4,8(sp)
    aacc:	01512223          	sw	s5,4(sp)
    aad0:	00112e23          	sw	ra,28(sp)
    aad4:	01312623          	sw	s3,12(sp)
    aad8:	00050a93          	mv	s5,a0
    aadc:	00060913          	mv	s2,a2
    aae0:	001b0a13          	addi	s4,s6,1
    aae4:	0347c863          	blt	a5,s4,ab14 <__lshift+0x78>
    aae8:	000a8513          	mv	a0,s5
    aaec:	839ff0ef          	jal	ra,a324 <_Balloc>
    aaf0:	00050993          	mv	s3,a0
    aaf4:	02051663          	bnez	a0,ab20 <__lshift+0x84>
    aaf8:	0000d6b7          	lui	a3,0xd
    aafc:	0000d537          	lui	a0,0xd
    ab00:	a9868693          	addi	a3,a3,-1384 # ca98 <_ctype_+0x220>
    ab04:	00000613          	li	a2,0
    ab08:	1d900593          	li	a1,473
    ab0c:	b0c50513          	addi	a0,a0,-1268 # cb0c <__sf_fake_stdout+0x20>
    ab10:	61d000ef          	jal	ra,b92c <__assert_func>
    ab14:	00158593          	addi	a1,a1,1
    ab18:	00179793          	slli	a5,a5,0x1
    ab1c:	fc9ff06f          	j	aae4 <__lshift+0x48>
    ab20:	01450793          	addi	a5,a0,20
    ab24:	00078693          	mv	a3,a5
    ab28:	00000713          	li	a4,0
    ab2c:	00468693          	addi	a3,a3,4
    ab30:	0c974663          	blt	a4,s1,abfc <__lshift+0x160>
    ab34:	0004d463          	bgez	s1,ab3c <__lshift+0xa0>
    ab38:	00000493          	li	s1,0
    ab3c:	00249493          	slli	s1,s1,0x2
    ab40:	009786b3          	add	a3,a5,s1
    ab44:	01042783          	lw	a5,16(s0)
    ab48:	01440713          	addi	a4,s0,20
    ab4c:	01f97613          	andi	a2,s2,31
    ab50:	00279793          	slli	a5,a5,0x2
    ab54:	00f707b3          	add	a5,a4,a5
    ab58:	0a060863          	beqz	a2,ac08 <__lshift+0x16c>
    ab5c:	02000813          	li	a6,32
    ab60:	40c80833          	sub	a6,a6,a2
    ab64:	00068893          	mv	a7,a3
    ab68:	00000593          	li	a1,0
    ab6c:	00072503          	lw	a0,0(a4)
    ab70:	00488893          	addi	a7,a7,4 # fcc00004 <CONFIG_SYSTEM_WORKQUEUE_PRIORITY+0xfcc00005>
    ab74:	00470713          	addi	a4,a4,4
    ab78:	00c51533          	sll	a0,a0,a2
    ab7c:	00b565b3          	or	a1,a0,a1
    ab80:	feb8ae23          	sw	a1,-4(a7)
    ab84:	ffc72583          	lw	a1,-4(a4)
    ab88:	0105d5b3          	srl	a1,a1,a6
    ab8c:	fef760e3          	bltu	a4,a5,ab6c <__lshift+0xd0>
    ab90:	01540713          	addi	a4,s0,21
    ab94:	00400613          	li	a2,4
    ab98:	00e7ea63          	bltu	a5,a4,abac <__lshift+0x110>
    ab9c:	408787b3          	sub	a5,a5,s0
    aba0:	feb78793          	addi	a5,a5,-21
    aba4:	ffc7f793          	andi	a5,a5,-4
    aba8:	00478613          	addi	a2,a5,4
    abac:	00c686b3          	add	a3,a3,a2
    abb0:	00b6a023          	sw	a1,0(a3)
    abb4:	00058463          	beqz	a1,abbc <__lshift+0x120>
    abb8:	002b0a13          	addi	s4,s6,2
    abbc:	fffa0a13          	addi	s4,s4,-1
    abc0:	0149a823          	sw	s4,16(s3)
    abc4:	000a8513          	mv	a0,s5
    abc8:	00040593          	mv	a1,s0
    abcc:	859ff0ef          	jal	ra,a424 <_Bfree>
    abd0:	01c12083          	lw	ra,28(sp)
    abd4:	01812403          	lw	s0,24(sp)
    abd8:	01412483          	lw	s1,20(sp)
    abdc:	01012903          	lw	s2,16(sp)
    abe0:	00812a03          	lw	s4,8(sp)
    abe4:	00412a83          	lw	s5,4(sp)
    abe8:	00012b03          	lw	s6,0(sp)
    abec:	00098513          	mv	a0,s3
    abf0:	00c12983          	lw	s3,12(sp)
    abf4:	02010113          	addi	sp,sp,32
    abf8:	00008067          	ret
    abfc:	fe06ae23          	sw	zero,-4(a3)
    ac00:	00170713          	addi	a4,a4,1
    ac04:	f29ff06f          	j	ab2c <__lshift+0x90>
    ac08:	00072603          	lw	a2,0(a4)
    ac0c:	00470713          	addi	a4,a4,4
    ac10:	00468693          	addi	a3,a3,4
    ac14:	fec6ae23          	sw	a2,-4(a3)
    ac18:	fef768e3          	bltu	a4,a5,ac08 <__lshift+0x16c>
    ac1c:	fa1ff06f          	j	abbc <__lshift+0x120>

0000ac20 <__mcmp>:
    ac20:	01052683          	lw	a3,16(a0)
    ac24:	0105a703          	lw	a4,16(a1)
    ac28:	00050793          	mv	a5,a0
    ac2c:	40e68533          	sub	a0,a3,a4
    ac30:	04e69063          	bne	a3,a4,ac70 <__mcmp+0x50>
    ac34:	00271713          	slli	a4,a4,0x2
    ac38:	01478793          	addi	a5,a5,20
    ac3c:	01458593          	addi	a1,a1,20
    ac40:	00e786b3          	add	a3,a5,a4
    ac44:	00e585b3          	add	a1,a1,a4
    ac48:	ffc6a603          	lw	a2,-4(a3)
    ac4c:	ffc5a703          	lw	a4,-4(a1)
    ac50:	ffc68693          	addi	a3,a3,-4
    ac54:	ffc58593          	addi	a1,a1,-4
    ac58:	00e60a63          	beq	a2,a4,ac6c <__mcmp+0x4c>
    ac5c:	fff00513          	li	a0,-1
    ac60:	00e66863          	bltu	a2,a4,ac70 <__mcmp+0x50>
    ac64:	00100513          	li	a0,1
    ac68:	00008067          	ret
    ac6c:	fcd7eee3          	bltu	a5,a3,ac48 <__mcmp+0x28>
    ac70:	00008067          	ret

0000ac74 <__mdiff>:
    ac74:	fe010113          	addi	sp,sp,-32
    ac78:	00812c23          	sw	s0,24(sp)
    ac7c:	00058413          	mv	s0,a1
    ac80:	01212823          	sw	s2,16(sp)
    ac84:	00060593          	mv	a1,a2
    ac88:	00050913          	mv	s2,a0
    ac8c:	00040513          	mv	a0,s0
    ac90:	00912a23          	sw	s1,20(sp)
    ac94:	00112e23          	sw	ra,28(sp)
    ac98:	01312623          	sw	s3,12(sp)
    ac9c:	00060493          	mv	s1,a2
    aca0:	f81ff0ef          	jal	ra,ac20 <__mcmp>
    aca4:	04051c63          	bnez	a0,acfc <__mdiff+0x88>
    aca8:	00000593          	li	a1,0
    acac:	00090513          	mv	a0,s2
    acb0:	e74ff0ef          	jal	ra,a324 <_Balloc>
    acb4:	02051063          	bnez	a0,acd4 <__mdiff+0x60>
    acb8:	0000d6b7          	lui	a3,0xd
    acbc:	a9868693          	addi	a3,a3,-1384 # ca98 <_ctype_+0x220>
    acc0:	00000613          	li	a2,0
    acc4:	23200593          	li	a1,562
    acc8:	0000d537          	lui	a0,0xd
    accc:	b0c50513          	addi	a0,a0,-1268 # cb0c <__sf_fake_stdout+0x20>
    acd0:	45d000ef          	jal	ra,b92c <__assert_func>
    acd4:	00100793          	li	a5,1
    acd8:	00f52823          	sw	a5,16(a0)
    acdc:	00052a23          	sw	zero,20(a0)
    ace0:	01c12083          	lw	ra,28(sp)
    ace4:	01812403          	lw	s0,24(sp)
    ace8:	01412483          	lw	s1,20(sp)
    acec:	01012903          	lw	s2,16(sp)
    acf0:	00c12983          	lw	s3,12(sp)
    acf4:	02010113          	addi	sp,sp,32
    acf8:	00008067          	ret
    acfc:	00100993          	li	s3,1
    ad00:	00054a63          	bltz	a0,ad14 <__mdiff+0xa0>
    ad04:	00048793          	mv	a5,s1
    ad08:	00000993          	li	s3,0
    ad0c:	00040493          	mv	s1,s0
    ad10:	00078413          	mv	s0,a5
    ad14:	0044a583          	lw	a1,4(s1)
    ad18:	00090513          	mv	a0,s2
    ad1c:	e08ff0ef          	jal	ra,a324 <_Balloc>
    ad20:	00051c63          	bnez	a0,ad38 <__mdiff+0xc4>
    ad24:	0000d6b7          	lui	a3,0xd
    ad28:	a9868693          	addi	a3,a3,-1384 # ca98 <_ctype_+0x220>
    ad2c:	00000613          	li	a2,0
    ad30:	24000593          	li	a1,576
    ad34:	f95ff06f          	j	acc8 <__mdiff+0x54>
    ad38:	0104a803          	lw	a6,16(s1)
    ad3c:	01042703          	lw	a4,16(s0)
    ad40:	01448893          	addi	a7,s1,20
    ad44:	00281693          	slli	a3,a6,0x2
    ad48:	01440793          	addi	a5,s0,20
    ad4c:	00271713          	slli	a4,a4,0x2
    ad50:	00010eb7          	lui	t4,0x10
    ad54:	01352623          	sw	s3,12(a0)
    ad58:	00d886b3          	add	a3,a7,a3
    ad5c:	00e787b3          	add	a5,a5,a4
    ad60:	01450613          	addi	a2,a0,20
    ad64:	01400e13          	li	t3,20
    ad68:	00000313          	li	t1,0
    ad6c:	fffe8e93          	addi	t4,t4,-1 # ffff <__data_region_end+0x165f>
    ad70:	01c48733          	add	a4,s1,t3
    ad74:	00072703          	lw	a4,0(a4)
    ad78:	01c405b3          	add	a1,s0,t3
    ad7c:	0005af03          	lw	t5,0(a1)
    ad80:	01d775b3          	and	a1,a4,t4
    ad84:	006585b3          	add	a1,a1,t1
    ad88:	01df7333          	and	t1,t5,t4
    ad8c:	406585b3          	sub	a1,a1,t1
    ad90:	010f5f13          	srli	t5,t5,0x10
    ad94:	01075713          	srli	a4,a4,0x10
    ad98:	4105d313          	srai	t1,a1,0x10
    ad9c:	41e70733          	sub	a4,a4,t5
    ada0:	00670733          	add	a4,a4,t1
    ada4:	41075313          	srai	t1,a4,0x10
    ada8:	01d5f5b3          	and	a1,a1,t4
    adac:	01071713          	slli	a4,a4,0x10
    adb0:	01c50f33          	add	t5,a0,t3
    adb4:	00b76733          	or	a4,a4,a1
    adb8:	004e0e13          	addi	t3,t3,4
    adbc:	00ef2023          	sw	a4,0(t5)
    adc0:	008e0733          	add	a4,t3,s0
    adc4:	faf766e3          	bltu	a4,a5,ad70 <__mdiff+0xfc>
    adc8:	01540593          	addi	a1,s0,21
    adcc:	00400713          	li	a4,4
    add0:	00b7ea63          	bltu	a5,a1,ade4 <__mdiff+0x170>
    add4:	408787b3          	sub	a5,a5,s0
    add8:	feb78793          	addi	a5,a5,-21
    addc:	ffc7f793          	andi	a5,a5,-4
    ade0:	00478713          	addi	a4,a5,4
    ade4:	00e888b3          	add	a7,a7,a4
    ade8:	00010e37          	lui	t3,0x10
    adec:	00e60733          	add	a4,a2,a4
    adf0:	00070e93          	mv	t4,a4
    adf4:	00088593          	mv	a1,a7
    adf8:	fffe0e13          	addi	t3,t3,-1 # ffff <__data_region_end+0x165f>
    adfc:	02d5ea63          	bltu	a1,a3,ae30 <__mdiff+0x1bc>
    ae00:	ffd88613          	addi	a2,a7,-3
    ae04:	00000793          	li	a5,0
    ae08:	00c6e863          	bltu	a3,a2,ae18 <__mdiff+0x1a4>
    ae0c:	00368693          	addi	a3,a3,3
    ae10:	411687b3          	sub	a5,a3,a7
    ae14:	ffc7f793          	andi	a5,a5,-4
    ae18:	00f707b3          	add	a5,a4,a5
    ae1c:	ffc7a703          	lw	a4,-4(a5)
    ae20:	ffc78793          	addi	a5,a5,-4
    ae24:	04070263          	beqz	a4,ae68 <__mdiff+0x1f4>
    ae28:	01052823          	sw	a6,16(a0)
    ae2c:	eb5ff06f          	j	ace0 <__mdiff+0x6c>
    ae30:	0005a783          	lw	a5,0(a1)
    ae34:	004e8e93          	addi	t4,t4,4
    ae38:	00458593          	addi	a1,a1,4
    ae3c:	01c7f633          	and	a2,a5,t3
    ae40:	00660633          	add	a2,a2,t1
    ae44:	41065313          	srai	t1,a2,0x10
    ae48:	0107d793          	srli	a5,a5,0x10
    ae4c:	006787b3          	add	a5,a5,t1
    ae50:	4107d313          	srai	t1,a5,0x10
    ae54:	01c67633          	and	a2,a2,t3
    ae58:	01079793          	slli	a5,a5,0x10
    ae5c:	00c7e7b3          	or	a5,a5,a2
    ae60:	fefeae23          	sw	a5,-4(t4)
    ae64:	f99ff06f          	j	adfc <__mdiff+0x188>
    ae68:	fff80813          	addi	a6,a6,-1
    ae6c:	fb1ff06f          	j	ae1c <__mdiff+0x1a8>

0000ae70 <__d2b>:
    ae70:	fd010113          	addi	sp,sp,-48
    ae74:	02912223          	sw	s1,36(sp)
    ae78:	00058493          	mv	s1,a1
    ae7c:	00100593          	li	a1,1
    ae80:	02812423          	sw	s0,40(sp)
    ae84:	03212023          	sw	s2,32(sp)
    ae88:	01312e23          	sw	s3,28(sp)
    ae8c:	02112623          	sw	ra,44(sp)
    ae90:	01412c23          	sw	s4,24(sp)
    ae94:	00060413          	mv	s0,a2
    ae98:	00068993          	mv	s3,a3
    ae9c:	00070913          	mv	s2,a4
    aea0:	c84ff0ef          	jal	ra,a324 <_Balloc>
    aea4:	02051063          	bnez	a0,aec4 <__d2b+0x54>
    aea8:	0000d6b7          	lui	a3,0xd
    aeac:	0000d537          	lui	a0,0xd
    aeb0:	a9868693          	addi	a3,a3,-1384 # ca98 <_ctype_+0x220>
    aeb4:	00000613          	li	a2,0
    aeb8:	30a00593          	li	a1,778
    aebc:	b0c50513          	addi	a0,a0,-1268 # cb0c <__sf_fake_stdout+0x20>
    aec0:	26d000ef          	jal	ra,b92c <__assert_func>
    aec4:	00100737          	lui	a4,0x100
    aec8:	fff70793          	addi	a5,a4,-1 # fffff <__data_region_end+0xf165f>
    aecc:	0087f7b3          	and	a5,a5,s0
    aed0:	01445413          	srli	s0,s0,0x14
    aed4:	7ff47413          	andi	s0,s0,2047
    aed8:	00050a13          	mv	s4,a0
    aedc:	08041a63          	bnez	s0,af70 <__d2b+0x100>
    aee0:	00f12623          	sw	a5,12(sp)
    aee4:	08048e63          	beqz	s1,af80 <__d2b+0x110>
    aee8:	00810513          	addi	a0,sp,8
    aeec:	00912423          	sw	s1,8(sp)
    aef0:	f5cff0ef          	jal	ra,a64c <__lo0bits>
    aef4:	00812683          	lw	a3,8(sp)
    aef8:	08050063          	beqz	a0,af78 <__d2b+0x108>
    aefc:	00c12703          	lw	a4,12(sp)
    af00:	02000793          	li	a5,32
    af04:	40a787b3          	sub	a5,a5,a0
    af08:	00f717b3          	sll	a5,a4,a5
    af0c:	00d7e7b3          	or	a5,a5,a3
    af10:	00a75733          	srl	a4,a4,a0
    af14:	00fa2a23          	sw	a5,20(s4)
    af18:	00e12623          	sw	a4,12(sp)
    af1c:	00c12483          	lw	s1,12(sp)
    af20:	009a2c23          	sw	s1,24(s4)
    af24:	009034b3          	snez	s1,s1
    af28:	00148493          	addi	s1,s1,1
    af2c:	009a2823          	sw	s1,16(s4)
    af30:	06040a63          	beqz	s0,afa4 <__d2b+0x134>
    af34:	bcd40413          	addi	s0,s0,-1075
    af38:	00a40433          	add	s0,s0,a0
    af3c:	03500793          	li	a5,53
    af40:	0089a023          	sw	s0,0(s3)
    af44:	40a78533          	sub	a0,a5,a0
    af48:	00a92023          	sw	a0,0(s2)
    af4c:	02c12083          	lw	ra,44(sp)
    af50:	02812403          	lw	s0,40(sp)
    af54:	02412483          	lw	s1,36(sp)
    af58:	02012903          	lw	s2,32(sp)
    af5c:	01c12983          	lw	s3,28(sp)
    af60:	000a0513          	mv	a0,s4
    af64:	01812a03          	lw	s4,24(sp)
    af68:	03010113          	addi	sp,sp,48
    af6c:	00008067          	ret
    af70:	00e7e7b3          	or	a5,a5,a4
    af74:	f6dff06f          	j	aee0 <__d2b+0x70>
    af78:	00da2a23          	sw	a3,20(s4)
    af7c:	fa1ff06f          	j	af1c <__d2b+0xac>
    af80:	00c10513          	addi	a0,sp,12
    af84:	ec8ff0ef          	jal	ra,a64c <__lo0bits>
    af88:	00c12783          	lw	a5,12(sp)
    af8c:	02050513          	addi	a0,a0,32
    af90:	00100493          	li	s1,1
    af94:	00fa2a23          	sw	a5,20(s4)
    af98:	00100793          	li	a5,1
    af9c:	00fa2823          	sw	a5,16(s4)
    afa0:	f91ff06f          	j	af30 <__d2b+0xc0>
    afa4:	bce50793          	addi	a5,a0,-1074
    afa8:	00f9a023          	sw	a5,0(s3)
    afac:	00249793          	slli	a5,s1,0x2
    afb0:	00fa07b3          	add	a5,s4,a5
    afb4:	0107a503          	lw	a0,16(a5)
    afb8:	00549493          	slli	s1,s1,0x5
    afbc:	e1cff0ef          	jal	ra,a5d8 <__hi0bits>
    afc0:	40a484b3          	sub	s1,s1,a0
    afc4:	00992023          	sw	s1,0(s2)
    afc8:	f85ff06f          	j	af4c <__d2b+0xdc>

0000afcc <_calloc_r>:
    afcc:	02c58633          	mul	a2,a1,a2
    afd0:	fe010113          	addi	sp,sp,-32
    afd4:	00812c23          	sw	s0,24(sp)
    afd8:	00112e23          	sw	ra,28(sp)
    afdc:	00060593          	mv	a1,a2
    afe0:	00c12623          	sw	a2,12(sp)
    afe4:	a35fc0ef          	jal	ra,7a18 <_malloc_r>
    afe8:	00050413          	mv	s0,a0
    afec:	00050863          	beqz	a0,affc <_calloc_r+0x30>
    aff0:	00c12603          	lw	a2,12(sp)
    aff4:	00000593          	li	a1,0
    aff8:	f49f70ef          	jal	ra,2f40 <memset>
    affc:	01c12083          	lw	ra,28(sp)
    b000:	00040513          	mv	a0,s0
    b004:	01812403          	lw	s0,24(sp)
    b008:	02010113          	addi	sp,sp,32
    b00c:	00008067          	ret

0000b010 <__sfputc_r>:
    b010:	00862783          	lw	a5,8(a2)
    b014:	fff78793          	addi	a5,a5,-1
    b018:	00f62423          	sw	a5,8(a2)
    b01c:	0007dc63          	bgez	a5,b034 <__sfputc_r+0x24>
    b020:	01862703          	lw	a4,24(a2)
    b024:	00e7c663          	blt	a5,a4,b030 <__sfputc_r+0x20>
    b028:	00a00793          	li	a5,10
    b02c:	00f59463          	bne	a1,a5,b034 <__sfputc_r+0x24>
    b030:	5f80006f          	j	b628 <__swbuf_r>
    b034:	00062783          	lw	a5,0(a2)
    b038:	00058513          	mv	a0,a1
    b03c:	00178713          	addi	a4,a5,1
    b040:	00e62023          	sw	a4,0(a2)
    b044:	00b78023          	sb	a1,0(a5)
    b048:	00008067          	ret

0000b04c <__sfputs_r>:
    b04c:	fe010113          	addi	sp,sp,-32
    b050:	00812c23          	sw	s0,24(sp)
    b054:	00912a23          	sw	s1,20(sp)
    b058:	01212823          	sw	s2,16(sp)
    b05c:	01312623          	sw	s3,12(sp)
    b060:	01412423          	sw	s4,8(sp)
    b064:	00112e23          	sw	ra,28(sp)
    b068:	00050913          	mv	s2,a0
    b06c:	00058993          	mv	s3,a1
    b070:	00060413          	mv	s0,a2
    b074:	00d604b3          	add	s1,a2,a3
    b078:	fff00a13          	li	s4,-1
    b07c:	00941663          	bne	s0,s1,b088 <__sfputs_r+0x3c>
    b080:	00000513          	li	a0,0
    b084:	01c0006f          	j	b0a0 <__sfputs_r+0x54>
    b088:	00044583          	lbu	a1,0(s0)
    b08c:	00098613          	mv	a2,s3
    b090:	00090513          	mv	a0,s2
    b094:	f7dff0ef          	jal	ra,b010 <__sfputc_r>
    b098:	00140413          	addi	s0,s0,1
    b09c:	ff4510e3          	bne	a0,s4,b07c <__sfputs_r+0x30>
    b0a0:	01c12083          	lw	ra,28(sp)
    b0a4:	01812403          	lw	s0,24(sp)
    b0a8:	01412483          	lw	s1,20(sp)
    b0ac:	01012903          	lw	s2,16(sp)
    b0b0:	00c12983          	lw	s3,12(sp)
    b0b4:	00812a03          	lw	s4,8(sp)
    b0b8:	02010113          	addi	sp,sp,32
    b0bc:	00008067          	ret

0000b0c0 <_vfiprintf_r>:
    b0c0:	f5010113          	addi	sp,sp,-176
    b0c4:	0a812423          	sw	s0,168(sp)
    b0c8:	0a912223          	sw	s1,164(sp)
    b0cc:	0b212023          	sw	s2,160(sp)
    b0d0:	09312e23          	sw	s3,156(sp)
    b0d4:	0a112623          	sw	ra,172(sp)
    b0d8:	09412c23          	sw	s4,152(sp)
    b0dc:	09512a23          	sw	s5,148(sp)
    b0e0:	09612823          	sw	s6,144(sp)
    b0e4:	09712623          	sw	s7,140(sp)
    b0e8:	09812423          	sw	s8,136(sp)
    b0ec:	09912223          	sw	s9,132(sp)
    b0f0:	09a12023          	sw	s10,128(sp)
    b0f4:	07b12e23          	sw	s11,124(sp)
    b0f8:	00050993          	mv	s3,a0
    b0fc:	00058413          	mv	s0,a1
    b100:	00060913          	mv	s2,a2
    b104:	00068493          	mv	s1,a3
    b108:	00050863          	beqz	a0,b118 <_vfiprintf_r+0x58>
    b10c:	01852783          	lw	a5,24(a0)
    b110:	00079463          	bnez	a5,b118 <_vfiprintf_r+0x58>
    b114:	f61fe0ef          	jal	ra,a074 <__sinit>
    b118:	0000d7b7          	lui	a5,0xd
    b11c:	acc78793          	addi	a5,a5,-1332 # cacc <__sf_fake_stdin>
    b120:	08f41c63          	bne	s0,a5,b1b8 <_vfiprintf_r+0xf8>
    b124:	0049a403          	lw	s0,4(s3)
    b128:	06442783          	lw	a5,100(s0)
    b12c:	0017f793          	andi	a5,a5,1
    b130:	00079c63          	bnez	a5,b148 <_vfiprintf_r+0x88>
    b134:	00c45783          	lhu	a5,12(s0)
    b138:	2007f793          	andi	a5,a5,512
    b13c:	00079663          	bnez	a5,b148 <_vfiprintf_r+0x88>
    b140:	05842503          	lw	a0,88(s0)
    b144:	cdcfa0ef          	jal	ra,5620 <__retarget_lock_acquire_recursive>
    b148:	00c45783          	lhu	a5,12(s0)
    b14c:	0087f793          	andi	a5,a5,8
    b150:	00078663          	beqz	a5,b15c <_vfiprintf_r+0x9c>
    b154:	01042783          	lw	a5,16(s0)
    b158:	0a079063          	bnez	a5,b1f8 <_vfiprintf_r+0x138>
    b15c:	00040593          	mv	a1,s0
    b160:	00098513          	mv	a0,s3
    b164:	650000ef          	jal	ra,b7b4 <__swsetup_r>
    b168:	08050863          	beqz	a0,b1f8 <_vfiprintf_r+0x138>
    b16c:	06442783          	lw	a5,100(s0)
    b170:	0017f793          	andi	a5,a5,1
    b174:	06078663          	beqz	a5,b1e0 <_vfiprintf_r+0x120>
    b178:	fff00513          	li	a0,-1
    b17c:	0ac12083          	lw	ra,172(sp)
    b180:	0a812403          	lw	s0,168(sp)
    b184:	0a412483          	lw	s1,164(sp)
    b188:	0a012903          	lw	s2,160(sp)
    b18c:	09c12983          	lw	s3,156(sp)
    b190:	09812a03          	lw	s4,152(sp)
    b194:	09412a83          	lw	s5,148(sp)
    b198:	09012b03          	lw	s6,144(sp)
    b19c:	08c12b83          	lw	s7,140(sp)
    b1a0:	08812c03          	lw	s8,136(sp)
    b1a4:	08412c83          	lw	s9,132(sp)
    b1a8:	08012d03          	lw	s10,128(sp)
    b1ac:	07c12d83          	lw	s11,124(sp)
    b1b0:	0b010113          	addi	sp,sp,176
    b1b4:	00008067          	ret
    b1b8:	0000d7b7          	lui	a5,0xd
    b1bc:	aec78793          	addi	a5,a5,-1300 # caec <__sf_fake_stdout>
    b1c0:	00f41663          	bne	s0,a5,b1cc <_vfiprintf_r+0x10c>
    b1c4:	0089a403          	lw	s0,8(s3)
    b1c8:	f61ff06f          	j	b128 <_vfiprintf_r+0x68>
    b1cc:	0000d7b7          	lui	a5,0xd
    b1d0:	aac78793          	addi	a5,a5,-1364 # caac <__sf_fake_stderr>
    b1d4:	f4f41ae3          	bne	s0,a5,b128 <_vfiprintf_r+0x68>
    b1d8:	00c9a403          	lw	s0,12(s3)
    b1dc:	f4dff06f          	j	b128 <_vfiprintf_r+0x68>
    b1e0:	00c45783          	lhu	a5,12(s0)
    b1e4:	2007f793          	andi	a5,a5,512
    b1e8:	f80798e3          	bnez	a5,b178 <_vfiprintf_r+0xb8>
    b1ec:	05842503          	lw	a0,88(s0)
    b1f0:	c3cfa0ef          	jal	ra,562c <__retarget_lock_release_recursive>
    b1f4:	f85ff06f          	j	b178 <_vfiprintf_r+0xb8>
    b1f8:	02000793          	li	a5,32
    b1fc:	02f104a3          	sb	a5,41(sp)
    b200:	00008ab7          	lui	s5,0x8
    b204:	03000793          	li	a5,48
    b208:	02012223          	sw	zero,36(sp)
    b20c:	02f10523          	sb	a5,42(sp)
    b210:	00912623          	sw	s1,12(sp)
    b214:	02500c93          	li	s9,37
    b218:	0000db37          	lui	s6,0xd
    b21c:	0000dbb7          	lui	s7,0xd
    b220:	0000dd37          	lui	s10,0xd
    b224:	0000bc37          	lui	s8,0xb
    b228:	d88a8a93          	addi	s5,s5,-632 # 7d88 <_printf_float>
    b22c:	00090493          	mv	s1,s2
    b230:	0004c783          	lbu	a5,0(s1)
    b234:	00078463          	beqz	a5,b23c <_vfiprintf_r+0x17c>
    b238:	0d979c63          	bne	a5,s9,b310 <_vfiprintf_r+0x250>
    b23c:	41248db3          	sub	s11,s1,s2
    b240:	03248663          	beq	s1,s2,b26c <_vfiprintf_r+0x1ac>
    b244:	000d8693          	mv	a3,s11
    b248:	00090613          	mv	a2,s2
    b24c:	00040593          	mv	a1,s0
    b250:	00098513          	mv	a0,s3
    b254:	df9ff0ef          	jal	ra,b04c <__sfputs_r>
    b258:	fff00793          	li	a5,-1
    b25c:	24f50463          	beq	a0,a5,b4a4 <_vfiprintf_r+0x3e4>
    b260:	02412783          	lw	a5,36(sp)
    b264:	01b787b3          	add	a5,a5,s11
    b268:	02f12223          	sw	a5,36(sp)
    b26c:	0004c783          	lbu	a5,0(s1)
    b270:	22078a63          	beqz	a5,b4a4 <_vfiprintf_r+0x3e4>
    b274:	fff00793          	li	a5,-1
    b278:	00148913          	addi	s2,s1,1
    b27c:	00012823          	sw	zero,16(sp)
    b280:	00012e23          	sw	zero,28(sp)
    b284:	00f12a23          	sw	a5,20(sp)
    b288:	00012c23          	sw	zero,24(sp)
    b28c:	040109a3          	sb	zero,83(sp)
    b290:	06012423          	sw	zero,104(sp)
    b294:	00100d93          	li	s11,1
    b298:	00094583          	lbu	a1,0(s2)
    b29c:	00500613          	li	a2,5
    b2a0:	b7cb0513          	addi	a0,s6,-1156 # cb7c <p05.0+0xc>
    b2a4:	844ff0ef          	jal	ra,a2e8 <memchr>
    b2a8:	01012783          	lw	a5,16(sp)
    b2ac:	00190493          	addi	s1,s2,1
    b2b0:	06051463          	bnez	a0,b318 <_vfiprintf_r+0x258>
    b2b4:	0107f713          	andi	a4,a5,16
    b2b8:	00070663          	beqz	a4,b2c4 <_vfiprintf_r+0x204>
    b2bc:	02000713          	li	a4,32
    b2c0:	04e109a3          	sb	a4,83(sp)
    b2c4:	0087f713          	andi	a4,a5,8
    b2c8:	00070663          	beqz	a4,b2d4 <_vfiprintf_r+0x214>
    b2cc:	02b00713          	li	a4,43
    b2d0:	04e109a3          	sb	a4,83(sp)
    b2d4:	00094683          	lbu	a3,0(s2)
    b2d8:	02a00713          	li	a4,42
    b2dc:	04e68c63          	beq	a3,a4,b334 <_vfiprintf_r+0x274>
    b2e0:	01c12783          	lw	a5,28(sp)
    b2e4:	00090493          	mv	s1,s2
    b2e8:	00000693          	li	a3,0
    b2ec:	00900613          	li	a2,9
    b2f0:	00a00513          	li	a0,10
    b2f4:	0004c703          	lbu	a4,0(s1)
    b2f8:	00148593          	addi	a1,s1,1
    b2fc:	fd070713          	addi	a4,a4,-48
    b300:	08e67c63          	bgeu	a2,a4,b398 <_vfiprintf_r+0x2d8>
    b304:	04068463          	beqz	a3,b34c <_vfiprintf_r+0x28c>
    b308:	00f12e23          	sw	a5,28(sp)
    b30c:	0400006f          	j	b34c <_vfiprintf_r+0x28c>
    b310:	00148493          	addi	s1,s1,1
    b314:	f1dff06f          	j	b230 <_vfiprintf_r+0x170>
    b318:	b7cb0713          	addi	a4,s6,-1156
    b31c:	40e50533          	sub	a0,a0,a4
    b320:	00ad9533          	sll	a0,s11,a0
    b324:	00a7e7b3          	or	a5,a5,a0
    b328:	00f12823          	sw	a5,16(sp)
    b32c:	00048913          	mv	s2,s1
    b330:	f69ff06f          	j	b298 <_vfiprintf_r+0x1d8>
    b334:	00c12703          	lw	a4,12(sp)
    b338:	00470693          	addi	a3,a4,4
    b33c:	00072703          	lw	a4,0(a4)
    b340:	00d12623          	sw	a3,12(sp)
    b344:	04074063          	bltz	a4,b384 <_vfiprintf_r+0x2c4>
    b348:	00e12e23          	sw	a4,28(sp)
    b34c:	0004c703          	lbu	a4,0(s1)
    b350:	02e00793          	li	a5,46
    b354:	08f71663          	bne	a4,a5,b3e0 <_vfiprintf_r+0x320>
    b358:	0014c703          	lbu	a4,1(s1)
    b35c:	02a00793          	li	a5,42
    b360:	04f71a63          	bne	a4,a5,b3b4 <_vfiprintf_r+0x2f4>
    b364:	00c12783          	lw	a5,12(sp)
    b368:	00248493          	addi	s1,s1,2
    b36c:	00478713          	addi	a4,a5,4
    b370:	0007a783          	lw	a5,0(a5)
    b374:	00e12623          	sw	a4,12(sp)
    b378:	0207ca63          	bltz	a5,b3ac <_vfiprintf_r+0x2ec>
    b37c:	00f12a23          	sw	a5,20(sp)
    b380:	0600006f          	j	b3e0 <_vfiprintf_r+0x320>
    b384:	40e00733          	neg	a4,a4
    b388:	0027e793          	ori	a5,a5,2
    b38c:	00e12e23          	sw	a4,28(sp)
    b390:	00f12823          	sw	a5,16(sp)
    b394:	fb9ff06f          	j	b34c <_vfiprintf_r+0x28c>
    b398:	02a787b3          	mul	a5,a5,a0
    b39c:	00058493          	mv	s1,a1
    b3a0:	00100693          	li	a3,1
    b3a4:	00e787b3          	add	a5,a5,a4
    b3a8:	f4dff06f          	j	b2f4 <_vfiprintf_r+0x234>
    b3ac:	fff00793          	li	a5,-1
    b3b0:	fcdff06f          	j	b37c <_vfiprintf_r+0x2bc>
    b3b4:	00148493          	addi	s1,s1,1
    b3b8:	00012a23          	sw	zero,20(sp)
    b3bc:	00000693          	li	a3,0
    b3c0:	00000793          	li	a5,0
    b3c4:	00900613          	li	a2,9
    b3c8:	00a00513          	li	a0,10
    b3cc:	0004c703          	lbu	a4,0(s1)
    b3d0:	00148593          	addi	a1,s1,1
    b3d4:	fd070713          	addi	a4,a4,-48
    b3d8:	08e67263          	bgeu	a2,a4,b45c <_vfiprintf_r+0x39c>
    b3dc:	fa0690e3          	bnez	a3,b37c <_vfiprintf_r+0x2bc>
    b3e0:	0004c583          	lbu	a1,0(s1)
    b3e4:	00300613          	li	a2,3
    b3e8:	b84b8513          	addi	a0,s7,-1148 # cb84 <p05.0+0x14>
    b3ec:	efdfe0ef          	jal	ra,a2e8 <memchr>
    b3f0:	02050263          	beqz	a0,b414 <_vfiprintf_r+0x354>
    b3f4:	b84b8793          	addi	a5,s7,-1148
    b3f8:	40f50533          	sub	a0,a0,a5
    b3fc:	04000793          	li	a5,64
    b400:	00a797b3          	sll	a5,a5,a0
    b404:	01012503          	lw	a0,16(sp)
    b408:	00148493          	addi	s1,s1,1
    b40c:	00f56533          	or	a0,a0,a5
    b410:	00a12823          	sw	a0,16(sp)
    b414:	0004c583          	lbu	a1,0(s1)
    b418:	00600613          	li	a2,6
    b41c:	b88d0513          	addi	a0,s10,-1144 # cb88 <p05.0+0x18>
    b420:	00148913          	addi	s2,s1,1
    b424:	02b10423          	sb	a1,40(sp)
    b428:	ec1fe0ef          	jal	ra,a2e8 <memchr>
    b42c:	0a050663          	beqz	a0,b4d8 <_vfiprintf_r+0x418>
    b430:	040a9863          	bnez	s5,b480 <_vfiprintf_r+0x3c0>
    b434:	01012703          	lw	a4,16(sp)
    b438:	00c12783          	lw	a5,12(sp)
    b43c:	10077713          	andi	a4,a4,256
    b440:	02070863          	beqz	a4,b470 <_vfiprintf_r+0x3b0>
    b444:	00478793          	addi	a5,a5,4
    b448:	00f12623          	sw	a5,12(sp)
    b44c:	02412783          	lw	a5,36(sp)
    b450:	014787b3          	add	a5,a5,s4
    b454:	02f12223          	sw	a5,36(sp)
    b458:	dd5ff06f          	j	b22c <_vfiprintf_r+0x16c>
    b45c:	02a787b3          	mul	a5,a5,a0
    b460:	00058493          	mv	s1,a1
    b464:	00100693          	li	a3,1
    b468:	00e787b3          	add	a5,a5,a4
    b46c:	f61ff06f          	j	b3cc <_vfiprintf_r+0x30c>
    b470:	00778793          	addi	a5,a5,7
    b474:	ff87f793          	andi	a5,a5,-8
    b478:	00878793          	addi	a5,a5,8
    b47c:	fcdff06f          	j	b448 <_vfiprintf_r+0x388>
    b480:	00c10713          	addi	a4,sp,12
    b484:	04cc0693          	addi	a3,s8,76 # b04c <__sfputs_r>
    b488:	00040613          	mv	a2,s0
    b48c:	01010593          	addi	a1,sp,16
    b490:	00098513          	mv	a0,s3
    b494:	8f5fc0ef          	jal	ra,7d88 <_printf_float>
    b498:	fff00793          	li	a5,-1
    b49c:	00050a13          	mv	s4,a0
    b4a0:	faf516e3          	bne	a0,a5,b44c <_vfiprintf_r+0x38c>
    b4a4:	06442783          	lw	a5,100(s0)
    b4a8:	0017f793          	andi	a5,a5,1
    b4ac:	00079c63          	bnez	a5,b4c4 <_vfiprintf_r+0x404>
    b4b0:	00c45783          	lhu	a5,12(s0)
    b4b4:	2007f793          	andi	a5,a5,512
    b4b8:	00079663          	bnez	a5,b4c4 <_vfiprintf_r+0x404>
    b4bc:	05842503          	lw	a0,88(s0)
    b4c0:	96cfa0ef          	jal	ra,562c <__retarget_lock_release_recursive>
    b4c4:	00c45783          	lhu	a5,12(s0)
    b4c8:	0407f793          	andi	a5,a5,64
    b4cc:	ca0796e3          	bnez	a5,b178 <_vfiprintf_r+0xb8>
    b4d0:	02412503          	lw	a0,36(sp)
    b4d4:	ca9ff06f          	j	b17c <_vfiprintf_r+0xbc>
    b4d8:	00c10713          	addi	a4,sp,12
    b4dc:	04cc0693          	addi	a3,s8,76
    b4e0:	00040613          	mv	a2,s0
    b4e4:	01010593          	addi	a1,sp,16
    b4e8:	00098513          	mv	a0,s3
    b4ec:	9e0fd0ef          	jal	ra,86cc <_printf_i>
    b4f0:	fa9ff06f          	j	b498 <_vfiprintf_r+0x3d8>

0000b4f4 <__sread>:
    b4f4:	ff010113          	addi	sp,sp,-16
    b4f8:	00812423          	sw	s0,8(sp)
    b4fc:	00058413          	mv	s0,a1
    b500:	00e59583          	lh	a1,14(a1)
    b504:	00112623          	sw	ra,12(sp)
    b508:	20d000ef          	jal	ra,bf14 <_read_r>
    b50c:	02054063          	bltz	a0,b52c <__sread+0x38>
    b510:	05442783          	lw	a5,84(s0)
    b514:	00a787b3          	add	a5,a5,a0
    b518:	04f42a23          	sw	a5,84(s0)
    b51c:	00c12083          	lw	ra,12(sp)
    b520:	00812403          	lw	s0,8(sp)
    b524:	01010113          	addi	sp,sp,16
    b528:	00008067          	ret
    b52c:	00c45783          	lhu	a5,12(s0)
    b530:	fffff737          	lui	a4,0xfffff
    b534:	fff70713          	addi	a4,a4,-1 # ffffefff <CONFIG_SYSTEM_WORKQUEUE_PRIORITY+0xfffff000>
    b538:	00e7f7b3          	and	a5,a5,a4
    b53c:	00f41623          	sh	a5,12(s0)
    b540:	fddff06f          	j	b51c <__sread+0x28>

0000b544 <__swrite>:
    b544:	00c5d783          	lhu	a5,12(a1)
    b548:	fe010113          	addi	sp,sp,-32
    b54c:	00812c23          	sw	s0,24(sp)
    b550:	00912a23          	sw	s1,20(sp)
    b554:	01212823          	sw	s2,16(sp)
    b558:	01312623          	sw	s3,12(sp)
    b55c:	00112e23          	sw	ra,28(sp)
    b560:	1007f793          	andi	a5,a5,256
    b564:	00050493          	mv	s1,a0
    b568:	00058413          	mv	s0,a1
    b56c:	00060913          	mv	s2,a2
    b570:	00068993          	mv	s3,a3
    b574:	00078a63          	beqz	a5,b588 <__swrite+0x44>
    b578:	00e59583          	lh	a1,14(a1)
    b57c:	00200693          	li	a3,2
    b580:	00000613          	li	a2,0
    b584:	760000ef          	jal	ra,bce4 <_lseek_r>
    b588:	00c45783          	lhu	a5,12(s0)
    b58c:	fffff737          	lui	a4,0xfffff
    b590:	fff70713          	addi	a4,a4,-1 # ffffefff <CONFIG_SYSTEM_WORKQUEUE_PRIORITY+0xfffff000>
    b594:	00e7f7b3          	and	a5,a5,a4
    b598:	00e41583          	lh	a1,14(s0)
    b59c:	00f41623          	sh	a5,12(s0)
    b5a0:	01812403          	lw	s0,24(sp)
    b5a4:	01c12083          	lw	ra,28(sp)
    b5a8:	00098693          	mv	a3,s3
    b5ac:	00090613          	mv	a2,s2
    b5b0:	00c12983          	lw	s3,12(sp)
    b5b4:	01012903          	lw	s2,16(sp)
    b5b8:	00048513          	mv	a0,s1
    b5bc:	01412483          	lw	s1,20(sp)
    b5c0:	02010113          	addi	sp,sp,32
    b5c4:	19c0006f          	j	b760 <_write_r>

0000b5c8 <__sseek>:
    b5c8:	ff010113          	addi	sp,sp,-16
    b5cc:	00812423          	sw	s0,8(sp)
    b5d0:	00058413          	mv	s0,a1
    b5d4:	00e59583          	lh	a1,14(a1)
    b5d8:	00112623          	sw	ra,12(sp)
    b5dc:	708000ef          	jal	ra,bce4 <_lseek_r>
    b5e0:	fff00793          	li	a5,-1
    b5e4:	00c45703          	lhu	a4,12(s0)
    b5e8:	02f51263          	bne	a0,a5,b60c <__sseek+0x44>
    b5ec:	fffff7b7          	lui	a5,0xfffff
    b5f0:	fff78793          	addi	a5,a5,-1 # ffffefff <CONFIG_SYSTEM_WORKQUEUE_PRIORITY+0xfffff000>
    b5f4:	00e7f7b3          	and	a5,a5,a4
    b5f8:	00f41623          	sh	a5,12(s0)
    b5fc:	00c12083          	lw	ra,12(sp)
    b600:	00812403          	lw	s0,8(sp)
    b604:	01010113          	addi	sp,sp,16
    b608:	00008067          	ret
    b60c:	000017b7          	lui	a5,0x1
    b610:	00f767b3          	or	a5,a4,a5
    b614:	00f41623          	sh	a5,12(s0)
    b618:	04a42a23          	sw	a0,84(s0)
    b61c:	fe1ff06f          	j	b5fc <__sseek+0x34>

0000b620 <__sclose>:
    b620:	00e59583          	lh	a1,14(a1)
    b624:	35c0006f          	j	b980 <_close_r>

0000b628 <__swbuf_r>:
    b628:	fe010113          	addi	sp,sp,-32
    b62c:	00812c23          	sw	s0,24(sp)
    b630:	00912a23          	sw	s1,20(sp)
    b634:	01212823          	sw	s2,16(sp)
    b638:	00112e23          	sw	ra,28(sp)
    b63c:	01312623          	sw	s3,12(sp)
    b640:	00050493          	mv	s1,a0
    b644:	00058913          	mv	s2,a1
    b648:	00060413          	mv	s0,a2
    b64c:	00050863          	beqz	a0,b65c <__swbuf_r+0x34>
    b650:	01852783          	lw	a5,24(a0)
    b654:	00079463          	bnez	a5,b65c <__swbuf_r+0x34>
    b658:	a1dfe0ef          	jal	ra,a074 <__sinit>
    b65c:	0000d7b7          	lui	a5,0xd
    b660:	acc78793          	addi	a5,a5,-1332 # cacc <__sf_fake_stdin>
    b664:	0af41e63          	bne	s0,a5,b720 <__swbuf_r+0xf8>
    b668:	0044a403          	lw	s0,4(s1)
    b66c:	01842783          	lw	a5,24(s0)
    b670:	00f42423          	sw	a5,8(s0)
    b674:	00c45783          	lhu	a5,12(s0)
    b678:	0087f793          	andi	a5,a5,8
    b67c:	0c078663          	beqz	a5,b748 <__swbuf_r+0x120>
    b680:	01042783          	lw	a5,16(s0)
    b684:	0c078263          	beqz	a5,b748 <__swbuf_r+0x120>
    b688:	01042783          	lw	a5,16(s0)
    b68c:	00042503          	lw	a0,0(s0)
    b690:	0ff97993          	andi	s3,s2,255
    b694:	0ff97913          	andi	s2,s2,255
    b698:	40f50533          	sub	a0,a0,a5
    b69c:	01442783          	lw	a5,20(s0)
    b6a0:	00f54a63          	blt	a0,a5,b6b4 <__swbuf_r+0x8c>
    b6a4:	00040593          	mv	a1,s0
    b6a8:	00048513          	mv	a0,s1
    b6ac:	514000ef          	jal	ra,bbc0 <_fflush_r>
    b6b0:	0a051463          	bnez	a0,b758 <__swbuf_r+0x130>
    b6b4:	00842783          	lw	a5,8(s0)
    b6b8:	00150513          	addi	a0,a0,1
    b6bc:	fff78793          	addi	a5,a5,-1
    b6c0:	00f42423          	sw	a5,8(s0)
    b6c4:	00042783          	lw	a5,0(s0)
    b6c8:	00178713          	addi	a4,a5,1
    b6cc:	00e42023          	sw	a4,0(s0)
    b6d0:	01378023          	sb	s3,0(a5)
    b6d4:	01442783          	lw	a5,20(s0)
    b6d8:	00a78c63          	beq	a5,a0,b6f0 <__swbuf_r+0xc8>
    b6dc:	00c45783          	lhu	a5,12(s0)
    b6e0:	0017f793          	andi	a5,a5,1
    b6e4:	00078e63          	beqz	a5,b700 <__swbuf_r+0xd8>
    b6e8:	00a00793          	li	a5,10
    b6ec:	00f91a63          	bne	s2,a5,b700 <__swbuf_r+0xd8>
    b6f0:	00040593          	mv	a1,s0
    b6f4:	00048513          	mv	a0,s1
    b6f8:	4c8000ef          	jal	ra,bbc0 <_fflush_r>
    b6fc:	04051e63          	bnez	a0,b758 <__swbuf_r+0x130>
    b700:	01c12083          	lw	ra,28(sp)
    b704:	01812403          	lw	s0,24(sp)
    b708:	01412483          	lw	s1,20(sp)
    b70c:	00c12983          	lw	s3,12(sp)
    b710:	00090513          	mv	a0,s2
    b714:	01012903          	lw	s2,16(sp)
    b718:	02010113          	addi	sp,sp,32
    b71c:	00008067          	ret
    b720:	0000d7b7          	lui	a5,0xd
    b724:	aec78793          	addi	a5,a5,-1300 # caec <__sf_fake_stdout>
    b728:	00f41663          	bne	s0,a5,b734 <__swbuf_r+0x10c>
    b72c:	0084a403          	lw	s0,8(s1)
    b730:	f3dff06f          	j	b66c <__swbuf_r+0x44>
    b734:	0000d7b7          	lui	a5,0xd
    b738:	aac78793          	addi	a5,a5,-1364 # caac <__sf_fake_stderr>
    b73c:	f2f418e3          	bne	s0,a5,b66c <__swbuf_r+0x44>
    b740:	00c4a403          	lw	s0,12(s1)
    b744:	f29ff06f          	j	b66c <__swbuf_r+0x44>
    b748:	00040593          	mv	a1,s0
    b74c:	00048513          	mv	a0,s1
    b750:	064000ef          	jal	ra,b7b4 <__swsetup_r>
    b754:	f2050ae3          	beqz	a0,b688 <__swbuf_r+0x60>
    b758:	fff00913          	li	s2,-1
    b75c:	fa5ff06f          	j	b700 <__swbuf_r+0xd8>

0000b760 <_write_r>:
    b760:	ff010113          	addi	sp,sp,-16
    b764:	00812423          	sw	s0,8(sp)
    b768:	00912223          	sw	s1,4(sp)
    b76c:	00050413          	mv	s0,a0
    b770:	0000d4b7          	lui	s1,0xd
    b774:	00058513          	mv	a0,a1
    b778:	00060593          	mv	a1,a2
    b77c:	00068613          	mv	a2,a3
    b780:	00112623          	sw	ra,12(sp)
    b784:	c404a223          	sw	zero,-956(s1) # cc44 <errno>
    b788:	dd5f90ef          	jal	ra,555c <_write>
    b78c:	fff00793          	li	a5,-1
    b790:	00f51863          	bne	a0,a5,b7a0 <_write_r+0x40>
    b794:	c444a783          	lw	a5,-956(s1)
    b798:	00078463          	beqz	a5,b7a0 <_write_r+0x40>
    b79c:	00f42023          	sw	a5,0(s0)
    b7a0:	00c12083          	lw	ra,12(sp)
    b7a4:	00812403          	lw	s0,8(sp)
    b7a8:	00412483          	lw	s1,4(sp)
    b7ac:	01010113          	addi	sp,sp,16
    b7b0:	00008067          	ret

0000b7b4 <__swsetup_r>:
    b7b4:	ff010113          	addi	sp,sp,-16
    b7b8:	0000e7b7          	lui	a5,0xe
    b7bc:	00912223          	sw	s1,4(sp)
    b7c0:	7207a483          	lw	s1,1824(a5) # e720 <_impure_ptr>
    b7c4:	00812423          	sw	s0,8(sp)
    b7c8:	01212023          	sw	s2,0(sp)
    b7cc:	00112623          	sw	ra,12(sp)
    b7d0:	00050913          	mv	s2,a0
    b7d4:	00058413          	mv	s0,a1
    b7d8:	00048a63          	beqz	s1,b7ec <__swsetup_r+0x38>
    b7dc:	0184a783          	lw	a5,24(s1)
    b7e0:	00079663          	bnez	a5,b7ec <__swsetup_r+0x38>
    b7e4:	00048513          	mv	a0,s1
    b7e8:	88dfe0ef          	jal	ra,a074 <__sinit>
    b7ec:	0000d7b7          	lui	a5,0xd
    b7f0:	acc78793          	addi	a5,a5,-1332 # cacc <__sf_fake_stdin>
    b7f4:	02f41e63          	bne	s0,a5,b830 <__swsetup_r+0x7c>
    b7f8:	0044a403          	lw	s0,4(s1)
    b7fc:	00c41783          	lh	a5,12(s0)
    b800:	01079713          	slli	a4,a5,0x10
    b804:	0087f693          	andi	a3,a5,8
    b808:	01075713          	srli	a4,a4,0x10
    b80c:	08069a63          	bnez	a3,b8a0 <__swsetup_r+0xec>
    b810:	01077693          	andi	a3,a4,16
    b814:	04069263          	bnez	a3,b858 <__swsetup_r+0xa4>
    b818:	00900713          	li	a4,9
    b81c:	00e92023          	sw	a4,0(s2)
    b820:	0407e793          	ori	a5,a5,64
    b824:	00f41623          	sh	a5,12(s0)
    b828:	fff00513          	li	a0,-1
    b82c:	0d00006f          	j	b8fc <__swsetup_r+0x148>
    b830:	0000d7b7          	lui	a5,0xd
    b834:	aec78793          	addi	a5,a5,-1300 # caec <__sf_fake_stdout>
    b838:	00f41663          	bne	s0,a5,b844 <__swsetup_r+0x90>
    b83c:	0084a403          	lw	s0,8(s1)
    b840:	fbdff06f          	j	b7fc <__swsetup_r+0x48>
    b844:	0000d7b7          	lui	a5,0xd
    b848:	aac78793          	addi	a5,a5,-1364 # caac <__sf_fake_stderr>
    b84c:	faf418e3          	bne	s0,a5,b7fc <__swsetup_r+0x48>
    b850:	00c4a403          	lw	s0,12(s1)
    b854:	fa9ff06f          	j	b7fc <__swsetup_r+0x48>
    b858:	00477713          	andi	a4,a4,4
    b85c:	02070c63          	beqz	a4,b894 <__swsetup_r+0xe0>
    b860:	03442583          	lw	a1,52(s0)
    b864:	00058c63          	beqz	a1,b87c <__swsetup_r+0xc8>
    b868:	04440793          	addi	a5,s0,68
    b86c:	00f58663          	beq	a1,a5,b878 <__swsetup_r+0xc4>
    b870:	00090513          	mv	a0,s2
    b874:	8a0fc0ef          	jal	ra,7914 <_free_r>
    b878:	02042a23          	sw	zero,52(s0)
    b87c:	00c45783          	lhu	a5,12(s0)
    b880:	00042223          	sw	zero,4(s0)
    b884:	fdb7f793          	andi	a5,a5,-37
    b888:	00f41623          	sh	a5,12(s0)
    b88c:	01042783          	lw	a5,16(s0)
    b890:	00f42023          	sw	a5,0(s0)
    b894:	00c45783          	lhu	a5,12(s0)
    b898:	0087e793          	ori	a5,a5,8
    b89c:	00f41623          	sh	a5,12(s0)
    b8a0:	01042783          	lw	a5,16(s0)
    b8a4:	02079063          	bnez	a5,b8c4 <__swsetup_r+0x110>
    b8a8:	00c45783          	lhu	a5,12(s0)
    b8ac:	20000713          	li	a4,512
    b8b0:	2807f793          	andi	a5,a5,640
    b8b4:	00e78863          	beq	a5,a4,b8c4 <__swsetup_r+0x110>
    b8b8:	00040593          	mv	a1,s0
    b8bc:	00090513          	mv	a0,s2
    b8c0:	508000ef          	jal	ra,bdc8 <__smakebuf_r>
    b8c4:	00c41783          	lh	a5,12(s0)
    b8c8:	01079713          	slli	a4,a5,0x10
    b8cc:	0017f693          	andi	a3,a5,1
    b8d0:	01075713          	srli	a4,a4,0x10
    b8d4:	04068063          	beqz	a3,b914 <__swsetup_r+0x160>
    b8d8:	01442683          	lw	a3,20(s0)
    b8dc:	00042423          	sw	zero,8(s0)
    b8e0:	40d006b3          	neg	a3,a3
    b8e4:	00d42c23          	sw	a3,24(s0)
    b8e8:	01042683          	lw	a3,16(s0)
    b8ec:	00000513          	li	a0,0
    b8f0:	00069663          	bnez	a3,b8fc <__swsetup_r+0x148>
    b8f4:	08077713          	andi	a4,a4,128
    b8f8:	f20714e3          	bnez	a4,b820 <__swsetup_r+0x6c>
    b8fc:	00c12083          	lw	ra,12(sp)
    b900:	00812403          	lw	s0,8(sp)
    b904:	00412483          	lw	s1,4(sp)
    b908:	00012903          	lw	s2,0(sp)
    b90c:	01010113          	addi	sp,sp,16
    b910:	00008067          	ret
    b914:	00277693          	andi	a3,a4,2
    b918:	00000613          	li	a2,0
    b91c:	00069463          	bnez	a3,b924 <__swsetup_r+0x170>
    b920:	01442603          	lw	a2,20(s0)
    b924:	00c42423          	sw	a2,8(s0)
    b928:	fc1ff06f          	j	b8e8 <__swsetup_r+0x134>

0000b92c <__assert_func>:
    b92c:	0000e7b7          	lui	a5,0xe
    b930:	7207a783          	lw	a5,1824(a5) # e720 <_impure_ptr>
    b934:	ff010113          	addi	sp,sp,-16
    b938:	00060813          	mv	a6,a2
    b93c:	00112623          	sw	ra,12(sp)
    b940:	00050893          	mv	a7,a0
    b944:	00058713          	mv	a4,a1
    b948:	00c7a503          	lw	a0,12(a5)
    b94c:	00068613          	mv	a2,a3
    b950:	02080063          	beqz	a6,b970 <__assert_func+0x44>
    b954:	0000d7b7          	lui	a5,0xd
    b958:	b9078793          	addi	a5,a5,-1136 # cb90 <p05.0+0x20>
    b95c:	0000d5b7          	lui	a1,0xd
    b960:	00088693          	mv	a3,a7
    b964:	ba058593          	addi	a1,a1,-1120 # cba0 <p05.0+0x30>
    b968:	334000ef          	jal	ra,bc9c <fiprintf>
    b96c:	62c000ef          	jal	ra,bf98 <abort>
    b970:	0000c837          	lui	a6,0xc
    b974:	5cc80793          	addi	a5,a6,1484 # c5cc <__mprec_tens+0x164>
    b978:	5cc80813          	addi	a6,a6,1484
    b97c:	fe1ff06f          	j	b95c <__assert_func+0x30>

0000b980 <_close_r>:
    b980:	ff010113          	addi	sp,sp,-16
    b984:	00812423          	sw	s0,8(sp)
    b988:	00912223          	sw	s1,4(sp)
    b98c:	00050413          	mv	s0,a0
    b990:	0000d4b7          	lui	s1,0xd
    b994:	00058513          	mv	a0,a1
    b998:	00112623          	sw	ra,12(sp)
    b99c:	c404a223          	sw	zero,-956(s1) # cc44 <errno>
    b9a0:	bc9f90ef          	jal	ra,5568 <_close>
    b9a4:	fff00793          	li	a5,-1
    b9a8:	00f51863          	bne	a0,a5,b9b8 <_close_r+0x38>
    b9ac:	c444a783          	lw	a5,-956(s1)
    b9b0:	00078463          	beqz	a5,b9b8 <_close_r+0x38>
    b9b4:	00f42023          	sw	a5,0(s0)
    b9b8:	00c12083          	lw	ra,12(sp)
    b9bc:	00812403          	lw	s0,8(sp)
    b9c0:	00412483          	lw	s1,4(sp)
    b9c4:	01010113          	addi	sp,sp,16
    b9c8:	00008067          	ret

0000b9cc <__sflush_r>:
    b9cc:	00c5d783          	lhu	a5,12(a1)
    b9d0:	fe010113          	addi	sp,sp,-32
    b9d4:	00812c23          	sw	s0,24(sp)
    b9d8:	00912a23          	sw	s1,20(sp)
    b9dc:	00112e23          	sw	ra,28(sp)
    b9e0:	01212823          	sw	s2,16(sp)
    b9e4:	01312623          	sw	s3,12(sp)
    b9e8:	0087f713          	andi	a4,a5,8
    b9ec:	00050493          	mv	s1,a0
    b9f0:	00058413          	mv	s0,a1
    b9f4:	16071263          	bnez	a4,bb58 <__sflush_r+0x18c>
    b9f8:	0045a703          	lw	a4,4(a1)
    b9fc:	00e04a63          	bgtz	a4,ba10 <__sflush_r+0x44>
    ba00:	0405a703          	lw	a4,64(a1)
    ba04:	00e04663          	bgtz	a4,ba10 <__sflush_r+0x44>
    ba08:	00000513          	li	a0,0
    ba0c:	1240006f          	j	bb30 <__sflush_r+0x164>
    ba10:	02c42703          	lw	a4,44(s0)
    ba14:	fe070ae3          	beqz	a4,ba08 <__sflush_r+0x3c>
    ba18:	000016b7          	lui	a3,0x1
    ba1c:	0004a903          	lw	s2,0(s1)
    ba20:	00d7f7b3          	and	a5,a5,a3
    ba24:	0004a023          	sw	zero,0(s1)
    ba28:	0c078063          	beqz	a5,bae8 <__sflush_r+0x11c>
    ba2c:	05442503          	lw	a0,84(s0)
    ba30:	00c45783          	lhu	a5,12(s0)
    ba34:	0047f793          	andi	a5,a5,4
    ba38:	00078e63          	beqz	a5,ba54 <__sflush_r+0x88>
    ba3c:	00442783          	lw	a5,4(s0)
    ba40:	40f50533          	sub	a0,a0,a5
    ba44:	03442783          	lw	a5,52(s0)
    ba48:	00078663          	beqz	a5,ba54 <__sflush_r+0x88>
    ba4c:	04042783          	lw	a5,64(s0)
    ba50:	40f50533          	sub	a0,a0,a5
    ba54:	02c42783          	lw	a5,44(s0)
    ba58:	02042583          	lw	a1,32(s0)
    ba5c:	00050613          	mv	a2,a0
    ba60:	00000693          	li	a3,0
    ba64:	00048513          	mv	a0,s1
    ba68:	000780e7          	jalr	a5
    ba6c:	fff00793          	li	a5,-1
    ba70:	00c45703          	lhu	a4,12(s0)
    ba74:	02f51263          	bne	a0,a5,ba98 <__sflush_r+0xcc>
    ba78:	0004a683          	lw	a3,0(s1)
    ba7c:	01d00793          	li	a5,29
    ba80:	0cd7e663          	bltu	a5,a3,bb4c <__sflush_r+0x180>
    ba84:	204007b7          	lui	a5,0x20400
    ba88:	00178793          	addi	a5,a5,1 # 20400001 <CONFIG_SYS_CLOCK_HW_CYCLES_PER_SEC+0x1d450f81>
    ba8c:	00d7d7b3          	srl	a5,a5,a3
    ba90:	0017f793          	andi	a5,a5,1
    ba94:	0a078c63          	beqz	a5,bb4c <__sflush_r+0x180>
    ba98:	01042783          	lw	a5,16(s0)
    ba9c:	00042223          	sw	zero,4(s0)
    baa0:	00f42023          	sw	a5,0(s0)
    baa4:	000017b7          	lui	a5,0x1
    baa8:	00f77733          	and	a4,a4,a5
    baac:	00070c63          	beqz	a4,bac4 <__sflush_r+0xf8>
    bab0:	fff00793          	li	a5,-1
    bab4:	00f51663          	bne	a0,a5,bac0 <__sflush_r+0xf4>
    bab8:	0004a783          	lw	a5,0(s1)
    babc:	00079463          	bnez	a5,bac4 <__sflush_r+0xf8>
    bac0:	04a42a23          	sw	a0,84(s0)
    bac4:	03442583          	lw	a1,52(s0)
    bac8:	0124a023          	sw	s2,0(s1)
    bacc:	f2058ee3          	beqz	a1,ba08 <__sflush_r+0x3c>
    bad0:	04440793          	addi	a5,s0,68
    bad4:	00f58663          	beq	a1,a5,bae0 <__sflush_r+0x114>
    bad8:	00048513          	mv	a0,s1
    badc:	e39fb0ef          	jal	ra,7914 <_free_r>
    bae0:	02042a23          	sw	zero,52(s0)
    bae4:	f25ff06f          	j	ba08 <__sflush_r+0x3c>
    bae8:	02042583          	lw	a1,32(s0)
    baec:	00100693          	li	a3,1
    baf0:	00000613          	li	a2,0
    baf4:	00048513          	mv	a0,s1
    baf8:	000700e7          	jalr	a4
    bafc:	fff00793          	li	a5,-1
    bb00:	f2f518e3          	bne	a0,a5,ba30 <__sflush_r+0x64>
    bb04:	0004a783          	lw	a5,0(s1)
    bb08:	f20784e3          	beqz	a5,ba30 <__sflush_r+0x64>
    bb0c:	01d00713          	li	a4,29
    bb10:	00e78663          	beq	a5,a4,bb1c <__sflush_r+0x150>
    bb14:	01600713          	li	a4,22
    bb18:	00e79663          	bne	a5,a4,bb24 <__sflush_r+0x158>
    bb1c:	0124a023          	sw	s2,0(s1)
    bb20:	ee9ff06f          	j	ba08 <__sflush_r+0x3c>
    bb24:	00c45783          	lhu	a5,12(s0)
    bb28:	0407e793          	ori	a5,a5,64
    bb2c:	00f41623          	sh	a5,12(s0)
    bb30:	01c12083          	lw	ra,28(sp)
    bb34:	01812403          	lw	s0,24(sp)
    bb38:	01412483          	lw	s1,20(sp)
    bb3c:	01012903          	lw	s2,16(sp)
    bb40:	00c12983          	lw	s3,12(sp)
    bb44:	02010113          	addi	sp,sp,32
    bb48:	00008067          	ret
    bb4c:	04076713          	ori	a4,a4,64
    bb50:	00e41623          	sh	a4,12(s0)
    bb54:	fddff06f          	j	bb30 <__sflush_r+0x164>
    bb58:	0105a983          	lw	s3,16(a1)
    bb5c:	ea0986e3          	beqz	s3,ba08 <__sflush_r+0x3c>
    bb60:	0005a903          	lw	s2,0(a1)
    bb64:	0037f793          	andi	a5,a5,3
    bb68:	0135a023          	sw	s3,0(a1)
    bb6c:	41390933          	sub	s2,s2,s3
    bb70:	00000713          	li	a4,0
    bb74:	00079463          	bnez	a5,bb7c <__sflush_r+0x1b0>
    bb78:	0145a703          	lw	a4,20(a1)
    bb7c:	00e42423          	sw	a4,8(s0)
    bb80:	e92054e3          	blez	s2,ba08 <__sflush_r+0x3c>
    bb84:	02842783          	lw	a5,40(s0)
    bb88:	02042583          	lw	a1,32(s0)
    bb8c:	00090693          	mv	a3,s2
    bb90:	00098613          	mv	a2,s3
    bb94:	00048513          	mv	a0,s1
    bb98:	000780e7          	jalr	a5 # 1000 <__divdf3+0x48c>
    bb9c:	00a04c63          	bgtz	a0,bbb4 <__sflush_r+0x1e8>
    bba0:	00c45783          	lhu	a5,12(s0)
    bba4:	fff00513          	li	a0,-1
    bba8:	0407e793          	ori	a5,a5,64
    bbac:	00f41623          	sh	a5,12(s0)
    bbb0:	f81ff06f          	j	bb30 <__sflush_r+0x164>
    bbb4:	00a989b3          	add	s3,s3,a0
    bbb8:	40a90933          	sub	s2,s2,a0
    bbbc:	fc5ff06f          	j	bb80 <__sflush_r+0x1b4>

0000bbc0 <_fflush_r>:
    bbc0:	0105a783          	lw	a5,16(a1)
    bbc4:	ff010113          	addi	sp,sp,-16
    bbc8:	00112623          	sw	ra,12(sp)
    bbcc:	00812423          	sw	s0,8(sp)
    bbd0:	00912223          	sw	s1,4(sp)
    bbd4:	02079063          	bnez	a5,bbf4 <_fflush_r+0x34>
    bbd8:	00000493          	li	s1,0
    bbdc:	00c12083          	lw	ra,12(sp)
    bbe0:	00812403          	lw	s0,8(sp)
    bbe4:	00048513          	mv	a0,s1
    bbe8:	00412483          	lw	s1,4(sp)
    bbec:	01010113          	addi	sp,sp,16
    bbf0:	00008067          	ret
    bbf4:	00050493          	mv	s1,a0
    bbf8:	00058413          	mv	s0,a1
    bbfc:	00050863          	beqz	a0,bc0c <_fflush_r+0x4c>
    bc00:	01852783          	lw	a5,24(a0)
    bc04:	00079463          	bnez	a5,bc0c <_fflush_r+0x4c>
    bc08:	c6cfe0ef          	jal	ra,a074 <__sinit>
    bc0c:	0000d7b7          	lui	a5,0xd
    bc10:	acc78793          	addi	a5,a5,-1332 # cacc <__sf_fake_stdin>
    bc14:	06f41063          	bne	s0,a5,bc74 <_fflush_r+0xb4>
    bc18:	0044a403          	lw	s0,4(s1)
    bc1c:	00c41783          	lh	a5,12(s0)
    bc20:	fa078ce3          	beqz	a5,bbd8 <_fflush_r+0x18>
    bc24:	06442703          	lw	a4,100(s0)
    bc28:	00177713          	andi	a4,a4,1
    bc2c:	00071a63          	bnez	a4,bc40 <_fflush_r+0x80>
    bc30:	2007f793          	andi	a5,a5,512
    bc34:	00079663          	bnez	a5,bc40 <_fflush_r+0x80>
    bc38:	05842503          	lw	a0,88(s0)
    bc3c:	9e5f90ef          	jal	ra,5620 <__retarget_lock_acquire_recursive>
    bc40:	00048513          	mv	a0,s1
    bc44:	00040593          	mv	a1,s0
    bc48:	d85ff0ef          	jal	ra,b9cc <__sflush_r>
    bc4c:	06442783          	lw	a5,100(s0)
    bc50:	00050493          	mv	s1,a0
    bc54:	0017f793          	andi	a5,a5,1
    bc58:	f80792e3          	bnez	a5,bbdc <_fflush_r+0x1c>
    bc5c:	00c45783          	lhu	a5,12(s0)
    bc60:	2007f793          	andi	a5,a5,512
    bc64:	f6079ce3          	bnez	a5,bbdc <_fflush_r+0x1c>
    bc68:	05842503          	lw	a0,88(s0)
    bc6c:	9c1f90ef          	jal	ra,562c <__retarget_lock_release_recursive>
    bc70:	f6dff06f          	j	bbdc <_fflush_r+0x1c>
    bc74:	0000d7b7          	lui	a5,0xd
    bc78:	aec78793          	addi	a5,a5,-1300 # caec <__sf_fake_stdout>
    bc7c:	00f41663          	bne	s0,a5,bc88 <_fflush_r+0xc8>
    bc80:	0084a403          	lw	s0,8(s1)
    bc84:	f99ff06f          	j	bc1c <_fflush_r+0x5c>
    bc88:	0000d7b7          	lui	a5,0xd
    bc8c:	aac78793          	addi	a5,a5,-1364 # caac <__sf_fake_stderr>
    bc90:	f8f416e3          	bne	s0,a5,bc1c <_fflush_r+0x5c>
    bc94:	00c4a403          	lw	s0,12(s1)
    bc98:	f85ff06f          	j	bc1c <_fflush_r+0x5c>

0000bc9c <fiprintf>:
    bc9c:	fc010113          	addi	sp,sp,-64
    bca0:	02f12a23          	sw	a5,52(sp)
    bca4:	0000e7b7          	lui	a5,0xe
    bca8:	02c12423          	sw	a2,40(sp)
    bcac:	00058613          	mv	a2,a1
    bcb0:	00050593          	mv	a1,a0
    bcb4:	7207a503          	lw	a0,1824(a5) # e720 <_impure_ptr>
    bcb8:	02d12623          	sw	a3,44(sp)
    bcbc:	02810693          	addi	a3,sp,40
    bcc0:	00112e23          	sw	ra,28(sp)
    bcc4:	02e12823          	sw	a4,48(sp)
    bcc8:	03012c23          	sw	a6,56(sp)
    bccc:	03112e23          	sw	a7,60(sp)
    bcd0:	00d12623          	sw	a3,12(sp)
    bcd4:	becff0ef          	jal	ra,b0c0 <_vfiprintf_r>
    bcd8:	01c12083          	lw	ra,28(sp)
    bcdc:	04010113          	addi	sp,sp,64
    bce0:	00008067          	ret

0000bce4 <_lseek_r>:
    bce4:	ff010113          	addi	sp,sp,-16
    bce8:	00812423          	sw	s0,8(sp)
    bcec:	00912223          	sw	s1,4(sp)
    bcf0:	00050413          	mv	s0,a0
    bcf4:	0000d4b7          	lui	s1,0xd
    bcf8:	00058513          	mv	a0,a1
    bcfc:	00060593          	mv	a1,a2
    bd00:	00068613          	mv	a2,a3
    bd04:	00112623          	sw	ra,12(sp)
    bd08:	c404a223          	sw	zero,-956(s1) # cc44 <errno>
    bd0c:	865f90ef          	jal	ra,5570 <_lseek>
    bd10:	fff00793          	li	a5,-1
    bd14:	00f51863          	bne	a0,a5,bd24 <_lseek_r+0x40>
    bd18:	c444a783          	lw	a5,-956(s1)
    bd1c:	00078463          	beqz	a5,bd24 <_lseek_r+0x40>
    bd20:	00f42023          	sw	a5,0(s0)
    bd24:	00c12083          	lw	ra,12(sp)
    bd28:	00812403          	lw	s0,8(sp)
    bd2c:	00412483          	lw	s1,4(sp)
    bd30:	01010113          	addi	sp,sp,16
    bd34:	00008067          	ret

0000bd38 <__swhatbuf_r>:
    bd38:	f9010113          	addi	sp,sp,-112
    bd3c:	07212023          	sw	s2,96(sp)
    bd40:	00058913          	mv	s2,a1
    bd44:	00e59583          	lh	a1,14(a1)
    bd48:	06812423          	sw	s0,104(sp)
    bd4c:	06912223          	sw	s1,100(sp)
    bd50:	06112623          	sw	ra,108(sp)
    bd54:	00060413          	mv	s0,a2
    bd58:	00068493          	mv	s1,a3
    bd5c:	0005de63          	bgez	a1,bd78 <__swhatbuf_r+0x40>
    bd60:	00c91783          	lh	a5,12(s2)
    bd64:	0004a023          	sw	zero,0(s1)
    bd68:	0807f793          	andi	a5,a5,128
    bd6c:	02079c63          	bnez	a5,bda4 <__swhatbuf_r+0x6c>
    bd70:	40000793          	li	a5,1024
    bd74:	0340006f          	j	bda8 <__swhatbuf_r+0x70>
    bd78:	00810613          	addi	a2,sp,8
    bd7c:	234000ef          	jal	ra,bfb0 <_fstat_r>
    bd80:	fe0540e3          	bltz	a0,bd60 <__swhatbuf_r+0x28>
    bd84:	00c12703          	lw	a4,12(sp)
    bd88:	0000f7b7          	lui	a5,0xf
    bd8c:	00e7f7b3          	and	a5,a5,a4
    bd90:	ffffe737          	lui	a4,0xffffe
    bd94:	00e787b3          	add	a5,a5,a4
    bd98:	0017b793          	seqz	a5,a5
    bd9c:	00f4a023          	sw	a5,0(s1)
    bda0:	fd1ff06f          	j	bd70 <__swhatbuf_r+0x38>
    bda4:	04000793          	li	a5,64
    bda8:	06c12083          	lw	ra,108(sp)
    bdac:	00f42023          	sw	a5,0(s0)
    bdb0:	06812403          	lw	s0,104(sp)
    bdb4:	06412483          	lw	s1,100(sp)
    bdb8:	06012903          	lw	s2,96(sp)
    bdbc:	00000513          	li	a0,0
    bdc0:	07010113          	addi	sp,sp,112
    bdc4:	00008067          	ret

0000bdc8 <__smakebuf_r>:
    bdc8:	00c5d783          	lhu	a5,12(a1)
    bdcc:	fe010113          	addi	sp,sp,-32
    bdd0:	00812c23          	sw	s0,24(sp)
    bdd4:	00112e23          	sw	ra,28(sp)
    bdd8:	00912a23          	sw	s1,20(sp)
    bddc:	01212823          	sw	s2,16(sp)
    bde0:	0027f793          	andi	a5,a5,2
    bde4:	00058413          	mv	s0,a1
    bde8:	02078863          	beqz	a5,be18 <__smakebuf_r+0x50>
    bdec:	04740793          	addi	a5,s0,71
    bdf0:	00f42023          	sw	a5,0(s0)
    bdf4:	00f42823          	sw	a5,16(s0)
    bdf8:	00100793          	li	a5,1
    bdfc:	00f42a23          	sw	a5,20(s0)
    be00:	01c12083          	lw	ra,28(sp)
    be04:	01812403          	lw	s0,24(sp)
    be08:	01412483          	lw	s1,20(sp)
    be0c:	01012903          	lw	s2,16(sp)
    be10:	02010113          	addi	sp,sp,32
    be14:	00008067          	ret
    be18:	00c10693          	addi	a3,sp,12
    be1c:	00810613          	addi	a2,sp,8
    be20:	00050913          	mv	s2,a0
    be24:	f15ff0ef          	jal	ra,bd38 <__swhatbuf_r>
    be28:	00812583          	lw	a1,8(sp)
    be2c:	00050493          	mv	s1,a0
    be30:	00090513          	mv	a0,s2
    be34:	be5fb0ef          	jal	ra,7a18 <_malloc_r>
    be38:	02051063          	bnez	a0,be58 <__smakebuf_r+0x90>
    be3c:	00c41783          	lh	a5,12(s0)
    be40:	2007f713          	andi	a4,a5,512
    be44:	fa071ee3          	bnez	a4,be00 <__smakebuf_r+0x38>
    be48:	ffc7f793          	andi	a5,a5,-4
    be4c:	0027e793          	ori	a5,a5,2
    be50:	00f41623          	sh	a5,12(s0)
    be54:	f99ff06f          	j	bdec <__smakebuf_r+0x24>
    be58:	0000a7b7          	lui	a5,0xa
    be5c:	fcc78793          	addi	a5,a5,-52 # 9fcc <_cleanup_r>
    be60:	02f92423          	sw	a5,40(s2)
    be64:	00c45783          	lhu	a5,12(s0)
    be68:	00a42023          	sw	a0,0(s0)
    be6c:	00a42823          	sw	a0,16(s0)
    be70:	0807e793          	ori	a5,a5,128
    be74:	00f41623          	sh	a5,12(s0)
    be78:	00812783          	lw	a5,8(sp)
    be7c:	00f42a23          	sw	a5,20(s0)
    be80:	00c12783          	lw	a5,12(sp)
    be84:	02078263          	beqz	a5,bea8 <__smakebuf_r+0xe0>
    be88:	00e41583          	lh	a1,14(s0)
    be8c:	00090513          	mv	a0,s2
    be90:	170000ef          	jal	ra,c000 <_isatty_r>
    be94:	00050a63          	beqz	a0,bea8 <__smakebuf_r+0xe0>
    be98:	00c45783          	lhu	a5,12(s0)
    be9c:	ffc7f793          	andi	a5,a5,-4
    bea0:	0017e793          	ori	a5,a5,1
    bea4:	00f41623          	sh	a5,12(s0)
    bea8:	00c45503          	lhu	a0,12(s0)
    beac:	00a4e4b3          	or	s1,s1,a0
    beb0:	00941623          	sh	s1,12(s0)
    beb4:	f4dff06f          	j	be00 <__smakebuf_r+0x38>

0000beb8 <__ascii_mbtowc>:
    beb8:	02059a63          	bnez	a1,beec <__ascii_mbtowc+0x34>
    bebc:	ff010113          	addi	sp,sp,-16
    bec0:	00c10593          	addi	a1,sp,12
    bec4:	00000513          	li	a0,0
    bec8:	00060e63          	beqz	a2,bee4 <__ascii_mbtowc+0x2c>
    becc:	ffe00513          	li	a0,-2
    bed0:	00068a63          	beqz	a3,bee4 <__ascii_mbtowc+0x2c>
    bed4:	00064783          	lbu	a5,0(a2)
    bed8:	00f5a023          	sw	a5,0(a1)
    bedc:	00064503          	lbu	a0,0(a2)
    bee0:	00a03533          	snez	a0,a0
    bee4:	01010113          	addi	sp,sp,16
    bee8:	00008067          	ret
    beec:	00000513          	li	a0,0
    bef0:	02060063          	beqz	a2,bf10 <__ascii_mbtowc+0x58>
    bef4:	ffe00513          	li	a0,-2
    bef8:	00068c63          	beqz	a3,bf10 <__ascii_mbtowc+0x58>
    befc:	00064783          	lbu	a5,0(a2)
    bf00:	00f5a023          	sw	a5,0(a1)
    bf04:	00064503          	lbu	a0,0(a2)
    bf08:	00a03533          	snez	a0,a0
    bf0c:	00008067          	ret
    bf10:	00008067          	ret

0000bf14 <_read_r>:
    bf14:	ff010113          	addi	sp,sp,-16
    bf18:	00812423          	sw	s0,8(sp)
    bf1c:	00912223          	sw	s1,4(sp)
    bf20:	00050413          	mv	s0,a0
    bf24:	0000d4b7          	lui	s1,0xd
    bf28:	00058513          	mv	a0,a1
    bf2c:	00060593          	mv	a1,a2
    bf30:	00068613          	mv	a2,a3
    bf34:	00112623          	sw	ra,12(sp)
    bf38:	c404a223          	sw	zero,-956(s1) # cc44 <errno>
    bf3c:	e14f90ef          	jal	ra,5550 <_read>
    bf40:	fff00793          	li	a5,-1
    bf44:	00f51863          	bne	a0,a5,bf54 <_read_r+0x40>
    bf48:	c444a783          	lw	a5,-956(s1)
    bf4c:	00078463          	beqz	a5,bf54 <_read_r+0x40>
    bf50:	00f42023          	sw	a5,0(s0)
    bf54:	00c12083          	lw	ra,12(sp)
    bf58:	00812403          	lw	s0,8(sp)
    bf5c:	00412483          	lw	s1,4(sp)
    bf60:	01010113          	addi	sp,sp,16
    bf64:	00008067          	ret

0000bf68 <__ascii_wctomb>:
    bf68:	02058463          	beqz	a1,bf90 <__ascii_wctomb+0x28>
    bf6c:	0ff00793          	li	a5,255
    bf70:	00c7fa63          	bgeu	a5,a2,bf84 <__ascii_wctomb+0x1c>
    bf74:	08a00793          	li	a5,138
    bf78:	00f52023          	sw	a5,0(a0)
    bf7c:	fff00513          	li	a0,-1
    bf80:	00008067          	ret
    bf84:	00c58023          	sb	a2,0(a1)
    bf88:	00100513          	li	a0,1
    bf8c:	00008067          	ret
    bf90:	00000513          	li	a0,0
    bf94:	00008067          	ret

0000bf98 <abort>:
    bf98:	ff010113          	addi	sp,sp,-16
    bf9c:	00600513          	li	a0,6
    bfa0:	00112623          	sw	ra,12(sp)
    bfa4:	158000ef          	jal	ra,c0fc <raise>
    bfa8:	00100513          	li	a0,1
    bfac:	df4f90ef          	jal	ra,55a0 <_exit>

0000bfb0 <_fstat_r>:
    bfb0:	ff010113          	addi	sp,sp,-16
    bfb4:	00812423          	sw	s0,8(sp)
    bfb8:	00912223          	sw	s1,4(sp)
    bfbc:	00050413          	mv	s0,a0
    bfc0:	0000d4b7          	lui	s1,0xd
    bfc4:	00058513          	mv	a0,a1
    bfc8:	00060593          	mv	a1,a2
    bfcc:	00112623          	sw	ra,12(sp)
    bfd0:	c404a223          	sw	zero,-956(s1) # cc44 <errno>
    bfd4:	dbcf90ef          	jal	ra,5590 <_fstat>
    bfd8:	fff00793          	li	a5,-1
    bfdc:	00f51863          	bne	a0,a5,bfec <_fstat_r+0x3c>
    bfe0:	c444a783          	lw	a5,-956(s1)
    bfe4:	00078463          	beqz	a5,bfec <_fstat_r+0x3c>
    bfe8:	00f42023          	sw	a5,0(s0)
    bfec:	00c12083          	lw	ra,12(sp)
    bff0:	00812403          	lw	s0,8(sp)
    bff4:	00412483          	lw	s1,4(sp)
    bff8:	01010113          	addi	sp,sp,16
    bffc:	00008067          	ret

0000c000 <_isatty_r>:
    c000:	ff010113          	addi	sp,sp,-16
    c004:	00812423          	sw	s0,8(sp)
    c008:	00912223          	sw	s1,4(sp)
    c00c:	00050413          	mv	s0,a0
    c010:	0000d4b7          	lui	s1,0xd
    c014:	00058513          	mv	a0,a1
    c018:	00112623          	sw	ra,12(sp)
    c01c:	c404a223          	sw	zero,-956(s1) # cc44 <errno>
    c020:	d58f90ef          	jal	ra,5578 <_isatty>
    c024:	fff00793          	li	a5,-1
    c028:	00f51863          	bne	a0,a5,c038 <_isatty_r+0x38>
    c02c:	c444a783          	lw	a5,-956(s1)
    c030:	00078463          	beqz	a5,c038 <_isatty_r+0x38>
    c034:	00f42023          	sw	a5,0(s0)
    c038:	00c12083          	lw	ra,12(sp)
    c03c:	00812403          	lw	s0,8(sp)
    c040:	00412483          	lw	s1,4(sp)
    c044:	01010113          	addi	sp,sp,16
    c048:	00008067          	ret

0000c04c <_raise_r>:
    c04c:	fe010113          	addi	sp,sp,-32
    c050:	00812c23          	sw	s0,24(sp)
    c054:	00112e23          	sw	ra,28(sp)
    c058:	01f00793          	li	a5,31
    c05c:	00050413          	mv	s0,a0
    c060:	02b7f063          	bgeu	a5,a1,c080 <_raise_r+0x34>
    c064:	01600793          	li	a5,22
    c068:	00f52023          	sw	a5,0(a0)
    c06c:	fff00513          	li	a0,-1
    c070:	01c12083          	lw	ra,28(sp)
    c074:	01812403          	lw	s0,24(sp)
    c078:	02010113          	addi	sp,sp,32
    c07c:	00008067          	ret
    c080:	04452783          	lw	a5,68(a0)
    c084:	00058613          	mv	a2,a1
    c088:	00078a63          	beqz	a5,c09c <_raise_r+0x50>
    c08c:	00259713          	slli	a4,a1,0x2
    c090:	00e787b3          	add	a5,a5,a4
    c094:	0007a703          	lw	a4,0(a5)
    c098:	02071663          	bnez	a4,c0c4 <_raise_r+0x78>
    c09c:	00040513          	mv	a0,s0
    c0a0:	00c12623          	sw	a2,12(sp)
    c0a4:	0b8000ef          	jal	ra,c15c <_getpid_r>
    c0a8:	00050593          	mv	a1,a0
    c0ac:	00040513          	mv	a0,s0
    c0b0:	01812403          	lw	s0,24(sp)
    c0b4:	00c12603          	lw	a2,12(sp)
    c0b8:	01c12083          	lw	ra,28(sp)
    c0bc:	02010113          	addi	sp,sp,32
    c0c0:	04c0006f          	j	c10c <_kill_r>
    c0c4:	00100693          	li	a3,1
    c0c8:	00000513          	li	a0,0
    c0cc:	fad702e3          	beq	a4,a3,c070 <_raise_r+0x24>
    c0d0:	fff00693          	li	a3,-1
    c0d4:	00d71a63          	bne	a4,a3,c0e8 <_raise_r+0x9c>
    c0d8:	01600793          	li	a5,22
    c0dc:	00f42023          	sw	a5,0(s0)
    c0e0:	00100513          	li	a0,1
    c0e4:	f8dff06f          	j	c070 <_raise_r+0x24>
    c0e8:	00058513          	mv	a0,a1
    c0ec:	0007a023          	sw	zero,0(a5)
    c0f0:	000700e7          	jalr	a4 # ffffe000 <CONFIG_SYSTEM_WORKQUEUE_PRIORITY+0xffffe001>
    c0f4:	00000513          	li	a0,0
    c0f8:	f79ff06f          	j	c070 <_raise_r+0x24>

0000c0fc <raise>:
    c0fc:	0000e7b7          	lui	a5,0xe
    c100:	00050593          	mv	a1,a0
    c104:	7207a503          	lw	a0,1824(a5) # e720 <_impure_ptr>
    c108:	f45ff06f          	j	c04c <_raise_r>

0000c10c <_kill_r>:
    c10c:	ff010113          	addi	sp,sp,-16
    c110:	00812423          	sw	s0,8(sp)
    c114:	00912223          	sw	s1,4(sp)
    c118:	00050413          	mv	s0,a0
    c11c:	0000d4b7          	lui	s1,0xd
    c120:	00058513          	mv	a0,a1
    c124:	00060593          	mv	a1,a2
    c128:	00112623          	sw	ra,12(sp)
    c12c:	c404a223          	sw	zero,-956(s1) # cc44 <errno>
    c130:	c50f90ef          	jal	ra,5580 <_kill>
    c134:	fff00793          	li	a5,-1
    c138:	00f51863          	bne	a0,a5,c148 <_kill_r+0x3c>
    c13c:	c444a783          	lw	a5,-956(s1)
    c140:	00078463          	beqz	a5,c148 <_kill_r+0x3c>
    c144:	00f42023          	sw	a5,0(s0)
    c148:	00c12083          	lw	ra,12(sp)
    c14c:	00812403          	lw	s0,8(sp)
    c150:	00412483          	lw	s1,4(sp)
    c154:	01010113          	addi	sp,sp,16
    c158:	00008067          	ret

0000c15c <_getpid_r>:
    c15c:	c2cf906f          	j	5588 <_getpid>
